ARM GAS  /var/folders/m1/3lv6xmzs0mlckxs4mx90nfb40000gn/T//ccOjm4z2.s 			page 1


   1              		.cpu cortex-m3
   2              		.eabi_attribute 20, 1
   3              		.eabi_attribute 21, 1
   4              		.eabi_attribute 23, 3
   5              		.eabi_attribute 24, 1
   6              		.eabi_attribute 25, 1
   7              		.eabi_attribute 26, 1
   8              		.eabi_attribute 30, 2
   9              		.eabi_attribute 34, 1
  10              		.eabi_attribute 18, 4
  11              		.file	"gpio.c"
  12              		.text
  13              	.Ltext0:
  14              		.cfi_sections	.debug_frame
  15              		.section	.text.MX_GPIO_Init,"ax",%progbits
  16              		.align	1
  17              		.p2align 2,,3
  18              		.global	MX_GPIO_Init
  19              		.syntax unified
  20              		.thumb
  21              		.thumb_func
  22              		.fpu softvfp
  24              	MX_GPIO_Init:
  25              	.LFB703:
  26              		.file 1 "Src/gpio.c"
   1:Src/gpio.c    **** /**
   2:Src/gpio.c    ****   ******************************************************************************
   3:Src/gpio.c    ****   * File Name          : gpio.c
   4:Src/gpio.c    ****   * Description        : This file provides code for the configuration
   5:Src/gpio.c    ****   *                      of all used GPIO pins.
   6:Src/gpio.c    ****   ******************************************************************************
   7:Src/gpio.c    ****   * @attention
   8:Src/gpio.c    ****   *
   9:Src/gpio.c    ****   * <h2><center>&copy; Copyright (c) 2020 STMicroelectronics.
  10:Src/gpio.c    ****   * All rights reserved.</center></h2>
  11:Src/gpio.c    ****   *
  12:Src/gpio.c    ****   * This software component is licensed by ST under BSD 3-Clause license,
  13:Src/gpio.c    ****   * the "License"; You may not use this file except in compliance with the
  14:Src/gpio.c    ****   * License. You may obtain a copy of the License at:
  15:Src/gpio.c    ****   *                        opensource.org/licenses/BSD-3-Clause
  16:Src/gpio.c    ****   *
  17:Src/gpio.c    ****   ******************************************************************************
  18:Src/gpio.c    ****   */
  19:Src/gpio.c    **** 
  20:Src/gpio.c    **** /* Includes ------------------------------------------------------------------*/
  21:Src/gpio.c    **** #include "gpio.h"
  22:Src/gpio.c    **** /* USER CODE BEGIN 0 */
  23:Src/gpio.c    **** 
  24:Src/gpio.c    **** /* USER CODE END 0 */
  25:Src/gpio.c    **** 
  26:Src/gpio.c    **** /*----------------------------------------------------------------------------*/
  27:Src/gpio.c    **** /* Configure GPIO                                                             */
  28:Src/gpio.c    **** /*----------------------------------------------------------------------------*/
  29:Src/gpio.c    **** /* USER CODE BEGIN 1 */
  30:Src/gpio.c    **** 
  31:Src/gpio.c    **** /* USER CODE END 1 */
  32:Src/gpio.c    **** 
ARM GAS  /var/folders/m1/3lv6xmzs0mlckxs4mx90nfb40000gn/T//ccOjm4z2.s 			page 2


  33:Src/gpio.c    **** /** Configure pins as 
  34:Src/gpio.c    ****         * Analog 
  35:Src/gpio.c    ****         * Input 
  36:Src/gpio.c    ****         * Output
  37:Src/gpio.c    ****         * EVENT_OUT
  38:Src/gpio.c    ****         * EXTI
  39:Src/gpio.c    **** */
  40:Src/gpio.c    **** void MX_GPIO_Init(void)
  41:Src/gpio.c    **** {
  27              		.loc 1 41 0
  28              		.cfi_startproc
  29              		@ args = 0, pretend = 0, frame = 32
  30              		@ frame_needed = 0, uses_anonymous_args = 0
  31 0000 2DE9F04F 		push	{r4, r5, r6, r7, r8, r9, r10, fp, lr}
  32              	.LCFI0:
  33              		.cfi_def_cfa_offset 36
  34              		.cfi_offset 4, -36
  35              		.cfi_offset 5, -32
  36              		.cfi_offset 6, -28
  37              		.cfi_offset 7, -24
  38              		.cfi_offset 8, -20
  39              		.cfi_offset 9, -16
  40              		.cfi_offset 10, -12
  41              		.cfi_offset 11, -8
  42              		.cfi_offset 14, -4
  42:Src/gpio.c    **** 
  43:Src/gpio.c    ****   GPIO_InitTypeDef GPIO_InitStruct = {0};
  43              		.loc 1 43 0
  44 0004 0024     		movs	r4, #0
  41:Src/gpio.c    **** 
  45              		.loc 1 41 0
  46 0006 89B0     		sub	sp, sp, #36
  47              	.LCFI1:
  48              		.cfi_def_cfa_offset 72
  49              		.loc 1 43 0
  50 0008 CDE90444 		strd	r4, r4, [sp, #16]
  51 000c CDE90644 		strd	r4, r4, [sp, #24]
  52              	.LBB2:
  44:Src/gpio.c    **** 
  45:Src/gpio.c    ****   /* GPIO Ports Clock Enable */
  46:Src/gpio.c    ****   __HAL_RCC_GPIOC_CLK_ENABLE();
  53              		.loc 1 46 0
  54 0010 414B     		ldr	r3, .L4
  55              	.LBE2:
  47:Src/gpio.c    ****   __HAL_RCC_GPIOD_CLK_ENABLE();
  48:Src/gpio.c    ****   __HAL_RCC_GPIOA_CLK_ENABLE();
  49:Src/gpio.c    ****   __HAL_RCC_GPIOB_CLK_ENABLE();
  50:Src/gpio.c    **** 
  51:Src/gpio.c    ****   /*Configure GPIO pin Output Level */
  52:Src/gpio.c    ****   HAL_GPIO_WritePin(GPIOC, COOL_FLOOD_Pin|COOL_MIST_Pin|STEP_ENABLE_Pin, GPIO_PIN_RESET);
  56              		.loc 1 52 0
  57 0012 DFF81091 		ldr	r9, .L4+12
  58              	.LBB3:
  46:Src/gpio.c    ****   __HAL_RCC_GPIOD_CLK_ENABLE();
  59              		.loc 1 46 0
  60 0016 9A69     		ldr	r2, [r3, #24]
  61              	.LBE3:
ARM GAS  /var/folders/m1/3lv6xmzs0mlckxs4mx90nfb40000gn/T//ccOjm4z2.s 			page 3


  53:Src/gpio.c    **** 
  54:Src/gpio.c    ****   /*Configure GPIO pin Output Level */
  55:Src/gpio.c    ****   HAL_GPIO_WritePin(GPIOA, STEP_X_Pin|STEP_Y_Pin|STEP_Z_Pin|DIR_X_Pin 
  62              		.loc 1 55 0
  63 0018 DFF80C81 		ldr	r8, .L4+16
  64              	.LBB4:
  46:Src/gpio.c    ****   __HAL_RCC_GPIOD_CLK_ENABLE();
  65              		.loc 1 46 0
  66 001c 42F01002 		orr	r2, r2, #16
  67 0020 9A61     		str	r2, [r3, #24]
  68 0022 9A69     		ldr	r2, [r3, #24]
  69              	.LBE4:
  56:Src/gpio.c    ****                           |DIR_Y_Pin|DIR_Z_Pin|AUX_1_Pin|AUX_2_Pin 
  57:Src/gpio.c    ****                           |SPIN_DIR_Pin|SPIN_EN_Pin|AUX_3_Pin|AUX_4_Pin, GPIO_PIN_RESET);
  58:Src/gpio.c    **** 
  59:Src/gpio.c    ****   /*Configure GPIO pin Output Level */
  60:Src/gpio.c    ****   HAL_GPIO_WritePin(I2C_OE_GPIO_Port, I2C_OE_Pin, GPIO_PIN_RESET);
  70              		.loc 1 60 0
  71 0024 3D4F     		ldr	r7, .L4+4
  72              	.LBB5:
  46:Src/gpio.c    ****   __HAL_RCC_GPIOD_CLK_ENABLE();
  73              		.loc 1 46 0
  74 0026 02F01002 		and	r2, r2, #16
  75 002a 0092     		str	r2, [sp]
  76 002c 009A     		ldr	r2, [sp]
  77              	.LBE5:
  78              	.LBB6:
  47:Src/gpio.c    ****   __HAL_RCC_GPIOA_CLK_ENABLE();
  79              		.loc 1 47 0
  80 002e 9969     		ldr	r1, [r3, #24]
  81              	.LBE6:
  52:Src/gpio.c    **** 
  82              		.loc 1 52 0
  83 0030 2246     		mov	r2, r4
  84              	.LBB7:
  47:Src/gpio.c    ****   __HAL_RCC_GPIOA_CLK_ENABLE();
  85              		.loc 1 47 0
  86 0032 41F02001 		orr	r1, r1, #32
  87 0036 9961     		str	r1, [r3, #24]
  88 0038 9969     		ldr	r1, [r3, #24]
  89              	.LBE7:
  52:Src/gpio.c    **** 
  90              		.loc 1 52 0
  91 003a 4846     		mov	r0, r9
  92              	.LBB8:
  47:Src/gpio.c    ****   __HAL_RCC_GPIOA_CLK_ENABLE();
  93              		.loc 1 47 0
  94 003c 01F02001 		and	r1, r1, #32
  95 0040 0191     		str	r1, [sp, #4]
  96 0042 0199     		ldr	r1, [sp, #4]
  97              	.LBE8:
  98              	.LBB9:
  48:Src/gpio.c    ****   __HAL_RCC_GPIOB_CLK_ENABLE();
  99              		.loc 1 48 0
 100 0044 9D69     		ldr	r5, [r3, #24]
 101              	.LBE9:
  52:Src/gpio.c    **** 
ARM GAS  /var/folders/m1/3lv6xmzs0mlckxs4mx90nfb40000gn/T//ccOjm4z2.s 			page 4


 102              		.loc 1 52 0
 103 0046 4FF46041 		mov	r1, #57344
 104              	.LBB10:
  48:Src/gpio.c    ****   __HAL_RCC_GPIOB_CLK_ENABLE();
 105              		.loc 1 48 0
 106 004a 45F00405 		orr	r5, r5, #4
 107 004e 9D61     		str	r5, [r3, #24]
 108 0050 9D69     		ldr	r5, [r3, #24]
 109              	.LBE10:
  61:Src/gpio.c    **** 
  62:Src/gpio.c    ****   /*Configure GPIO pins : PCPin PCPin */
  63:Src/gpio.c    ****   GPIO_InitStruct.Pin = COOL_FLOOD_Pin|COOL_MIST_Pin;
  64:Src/gpio.c    ****   GPIO_InitStruct.Mode = GPIO_MODE_OUTPUT_PP;
  65:Src/gpio.c    ****   GPIO_InitStruct.Pull = GPIO_PULLDOWN;
 110              		.loc 1 65 0
 111 0052 4FF0020A 		mov	r10, #2
 112              	.LBB11:
  48:Src/gpio.c    ****   __HAL_RCC_GPIOB_CLK_ENABLE();
 113              		.loc 1 48 0
 114 0056 05F00405 		and	r5, r5, #4
 115 005a 0295     		str	r5, [sp, #8]
 116 005c 029D     		ldr	r5, [sp, #8]
 117              	.LBE11:
 118              	.LBB12:
  49:Src/gpio.c    **** 
 119              		.loc 1 49 0
 120 005e 9E69     		ldr	r6, [r3, #24]
 121              	.LBE12:
  64:Src/gpio.c    ****   GPIO_InitStruct.Pull = GPIO_PULLDOWN;
 122              		.loc 1 64 0
 123 0060 0125     		movs	r5, #1
 124              	.LBB13:
  49:Src/gpio.c    **** 
 125              		.loc 1 49 0
 126 0062 46F00806 		orr	r6, r6, #8
 127 0066 9E61     		str	r6, [r3, #24]
 128 0068 9B69     		ldr	r3, [r3, #24]
 129              	.LBE13:
  66:Src/gpio.c    ****   GPIO_InitStruct.Speed = GPIO_SPEED_FREQ_HIGH;
 130              		.loc 1 66 0
 131 006a 0326     		movs	r6, #3
 132              	.LBB14:
  49:Src/gpio.c    **** 
 133              		.loc 1 49 0
 134 006c 03F00803 		and	r3, r3, #8
 135 0070 0393     		str	r3, [sp, #12]
 136 0072 039B     		ldr	r3, [sp, #12]
 137              	.LBE14:
  52:Src/gpio.c    **** 
 138              		.loc 1 52 0
 139 0074 FFF7FEFF 		bl	HAL_GPIO_WritePin
 140              	.LVL0:
  55:Src/gpio.c    ****                           |DIR_Y_Pin|DIR_Z_Pin|AUX_1_Pin|AUX_2_Pin 
 141              		.loc 1 55 0
 142 0078 2246     		mov	r2, r4
 143 007a 4046     		mov	r0, r8
 144 007c 41F6FF61 		movw	r1, #7935
ARM GAS  /var/folders/m1/3lv6xmzs0mlckxs4mx90nfb40000gn/T//ccOjm4z2.s 			page 5


 145 0080 FFF7FEFF 		bl	HAL_GPIO_WritePin
 146              	.LVL1:
  60:Src/gpio.c    **** 
 147              		.loc 1 60 0
 148 0084 2246     		mov	r2, r4
 149 0086 3846     		mov	r0, r7
 150 0088 2021     		movs	r1, #32
 151 008a FFF7FEFF 		bl	HAL_GPIO_WritePin
 152              	.LVL2:
  63:Src/gpio.c    ****   GPIO_InitStruct.Mode = GPIO_MODE_OUTPUT_PP;
 153              		.loc 1 63 0
 154 008e 4FF4C043 		mov	r3, #24576
  67:Src/gpio.c    ****   HAL_GPIO_Init(GPIOC, &GPIO_InitStruct);
  68:Src/gpio.c    **** 
  69:Src/gpio.c    ****   /*Configure GPIO pin : PtPin */
  70:Src/gpio.c    ****   GPIO_InitStruct.Pin = STEP_ENABLE_Pin;
 155              		.loc 1 70 0
 156 0092 4FF4004B 		mov	fp, #32768
  67:Src/gpio.c    ****   HAL_GPIO_Init(GPIOC, &GPIO_InitStruct);
 157              		.loc 1 67 0
 158 0096 04A9     		add	r1, sp, #16
 159 0098 4846     		mov	r0, r9
  64:Src/gpio.c    ****   GPIO_InitStruct.Pull = GPIO_PULLDOWN;
 160              		.loc 1 64 0
 161 009a CDE90435 		strd	r3, r5, [sp, #16]
  66:Src/gpio.c    ****   HAL_GPIO_Init(GPIOC, &GPIO_InitStruct);
 162              		.loc 1 66 0
 163 009e CDE906A6 		strd	r10, r6, [sp, #24]
  67:Src/gpio.c    ****   HAL_GPIO_Init(GPIOC, &GPIO_InitStruct);
 164              		.loc 1 67 0
 165 00a2 FFF7FEFF 		bl	HAL_GPIO_Init
 166              	.LVL3:
  71:Src/gpio.c    ****   GPIO_InitStruct.Mode = GPIO_MODE_OUTPUT_PP;
  72:Src/gpio.c    ****   GPIO_InitStruct.Pull = GPIO_NOPULL;
  73:Src/gpio.c    ****   GPIO_InitStruct.Speed = GPIO_SPEED_FREQ_HIGH;
  74:Src/gpio.c    ****   HAL_GPIO_Init(STEP_ENABLE_GPIO_Port, &GPIO_InitStruct);
 167              		.loc 1 74 0
 168 00a6 4846     		mov	r0, r9
 169 00a8 04A9     		add	r1, sp, #16
  72:Src/gpio.c    ****   GPIO_InitStruct.Speed = GPIO_SPEED_FREQ_HIGH;
 170              		.loc 1 72 0
 171 00aa CDE90554 		strd	r5, r4, [sp, #20]
  73:Src/gpio.c    ****   HAL_GPIO_Init(STEP_ENABLE_GPIO_Port, &GPIO_InitStruct);
 172              		.loc 1 73 0
 173 00ae 0796     		str	r6, [sp, #28]
  70:Src/gpio.c    ****   GPIO_InitStruct.Mode = GPIO_MODE_OUTPUT_PP;
 174              		.loc 1 70 0
 175 00b0 CDF810B0 		str	fp, [sp, #16]
 176              		.loc 1 74 0
 177 00b4 FFF7FEFF 		bl	HAL_GPIO_Init
 178              	.LVL4:
  75:Src/gpio.c    **** 
  76:Src/gpio.c    ****   /*Configure GPIO pins : PAPin PAPin PAPin PAPin 
  77:Src/gpio.c    ****                            PAPin PAPin PAPin PAPin 
  78:Src/gpio.c    ****                            PAPin PAPin PAPin PAPin */
  79:Src/gpio.c    ****   GPIO_InitStruct.Pin = STEP_X_Pin|STEP_Y_Pin|STEP_Z_Pin|DIR_X_Pin 
 179              		.loc 1 79 0
ARM GAS  /var/folders/m1/3lv6xmzs0mlckxs4mx90nfb40000gn/T//ccOjm4z2.s 			page 6


 180 00b8 41F6FF63 		movw	r3, #7935
  80:Src/gpio.c    ****                           |DIR_Y_Pin|DIR_Z_Pin|AUX_1_Pin|AUX_2_Pin 
  81:Src/gpio.c    ****                           |SPIN_DIR_Pin|SPIN_EN_Pin|AUX_3_Pin|AUX_4_Pin;
  82:Src/gpio.c    ****   GPIO_InitStruct.Mode = GPIO_MODE_OUTPUT_PP;
  83:Src/gpio.c    ****   GPIO_InitStruct.Pull = GPIO_NOPULL;
  84:Src/gpio.c    ****   GPIO_InitStruct.Speed = GPIO_SPEED_FREQ_HIGH;
  85:Src/gpio.c    ****   HAL_GPIO_Init(GPIOA, &GPIO_InitStruct);
 181              		.loc 1 85 0
 182 00bc 04A9     		add	r1, sp, #16
 183 00be 4046     		mov	r0, r8
  79:Src/gpio.c    ****                           |DIR_Y_Pin|DIR_Z_Pin|AUX_1_Pin|AUX_2_Pin 
 184              		.loc 1 79 0
 185 00c0 0493     		str	r3, [sp, #16]
  83:Src/gpio.c    ****   GPIO_InitStruct.Speed = GPIO_SPEED_FREQ_HIGH;
 186              		.loc 1 83 0
 187 00c2 CDE90554 		strd	r5, r4, [sp, #20]
  84:Src/gpio.c    ****   HAL_GPIO_Init(GPIOA, &GPIO_InitStruct);
 188              		.loc 1 84 0
 189 00c6 0796     		str	r6, [sp, #28]
 190              		.loc 1 85 0
 191 00c8 FFF7FEFF 		bl	HAL_GPIO_Init
 192              	.LVL5:
  86:Src/gpio.c    **** 
  87:Src/gpio.c    ****   /*Configure GPIO pins : PBPin PBPin PBPin PBPin 
  88:Src/gpio.c    ****                            PBPin PBPin PBPin */
  89:Src/gpio.c    ****   GPIO_InitStruct.Pin = CON_CYCLE_START_Pin|CON_FEED_HOLD_Pin|LIM_X_Pin|LIM_Y_Pin 
 193              		.loc 1 89 0
 194 00cc 41F61B42 		movw	r2, #7195
  90:Src/gpio.c    ****                           |LIM_Z_Pin|CON_RESET_Pin|CON_SAFETY_DOOR_Pin;
  91:Src/gpio.c    ****   GPIO_InitStruct.Mode = GPIO_MODE_IT_FALLING;
 195              		.loc 1 91 0
 196 00d0 134B     		ldr	r3, .L4+8
  92:Src/gpio.c    ****   GPIO_InitStruct.Pull = GPIO_PULLUP;
  93:Src/gpio.c    ****   HAL_GPIO_Init(GPIOB, &GPIO_InitStruct);
 197              		.loc 1 93 0
 198 00d2 04A9     		add	r1, sp, #16
 199 00d4 3846     		mov	r0, r7
  91:Src/gpio.c    ****   GPIO_InitStruct.Pull = GPIO_PULLUP;
 200              		.loc 1 91 0
 201 00d6 CDE90423 		strd	r2, r3, [sp, #16]
  92:Src/gpio.c    ****   GPIO_InitStruct.Pull = GPIO_PULLUP;
 202              		.loc 1 92 0
 203 00da 0695     		str	r5, [sp, #24]
 204              		.loc 1 93 0
 205 00dc FFF7FEFF 		bl	HAL_GPIO_Init
 206              	.LVL6:
  94:Src/gpio.c    **** 
  95:Src/gpio.c    ****   /*Configure GPIO pin : PtPin */
  96:Src/gpio.c    ****   GPIO_InitStruct.Pin = PROBE_Pin;
  97:Src/gpio.c    ****   GPIO_InitStruct.Mode = GPIO_MODE_INPUT;
  98:Src/gpio.c    ****   GPIO_InitStruct.Pull = GPIO_PULLDOWN;
  99:Src/gpio.c    ****   HAL_GPIO_Init(PROBE_GPIO_Port, &GPIO_InitStruct);
 207              		.loc 1 99 0
 208 00e0 4046     		mov	r0, r8
 209 00e2 04A9     		add	r1, sp, #16
  97:Src/gpio.c    ****   GPIO_InitStruct.Pull = GPIO_PULLDOWN;
 210              		.loc 1 97 0
ARM GAS  /var/folders/m1/3lv6xmzs0mlckxs4mx90nfb40000gn/T//ccOjm4z2.s 			page 7


 211 00e4 CDE904B4 		strd	fp, r4, [sp, #16]
  98:Src/gpio.c    ****   HAL_GPIO_Init(PROBE_GPIO_Port, &GPIO_InitStruct);
 212              		.loc 1 98 0
 213 00e8 CDF818A0 		str	r10, [sp, #24]
 214              		.loc 1 99 0
 215 00ec FFF7FEFF 		bl	HAL_GPIO_Init
 216              	.LVL7:
 100:Src/gpio.c    **** 
 101:Src/gpio.c    ****   /*Configure GPIO pin : PtPin */
 102:Src/gpio.c    ****   GPIO_InitStruct.Pin = I2C_OE_Pin;
 217              		.loc 1 102 0
 218 00f0 2023     		movs	r3, #32
 103:Src/gpio.c    ****   GPIO_InitStruct.Mode = GPIO_MODE_OUTPUT_PP;
 104:Src/gpio.c    ****   GPIO_InitStruct.Pull = GPIO_NOPULL;
 105:Src/gpio.c    ****   GPIO_InitStruct.Speed = GPIO_SPEED_FREQ_HIGH;
 106:Src/gpio.c    ****   HAL_GPIO_Init(I2C_OE_GPIO_Port, &GPIO_InitStruct);
 219              		.loc 1 106 0
 220 00f2 04A9     		add	r1, sp, #16
 221 00f4 3846     		mov	r0, r7
 102:Src/gpio.c    ****   GPIO_InitStruct.Mode = GPIO_MODE_OUTPUT_PP;
 222              		.loc 1 102 0
 223 00f6 0493     		str	r3, [sp, #16]
 104:Src/gpio.c    ****   GPIO_InitStruct.Speed = GPIO_SPEED_FREQ_HIGH;
 224              		.loc 1 104 0
 225 00f8 CDE90554 		strd	r5, r4, [sp, #20]
 105:Src/gpio.c    ****   HAL_GPIO_Init(I2C_OE_GPIO_Port, &GPIO_InitStruct);
 226              		.loc 1 105 0
 227 00fc 0796     		str	r6, [sp, #28]
 228              		.loc 1 106 0
 229 00fe FFF7FEFF 		bl	HAL_GPIO_Init
 230              	.LVL8:
 107:Src/gpio.c    **** 
 108:Src/gpio.c    ****   /* EXTI interrupt init*/
 109:Src/gpio.c    ****   HAL_NVIC_SetPriority(EXTI15_10_IRQn, 0, 0);
 231              		.loc 1 109 0
 232 0102 2246     		mov	r2, r4
 233 0104 2146     		mov	r1, r4
 234 0106 2820     		movs	r0, #40
 235 0108 FFF7FEFF 		bl	HAL_NVIC_SetPriority
 236              	.LVL9:
 110:Src/gpio.c    ****   HAL_NVIC_EnableIRQ(EXTI15_10_IRQn);
 237              		.loc 1 110 0
 238 010c 2820     		movs	r0, #40
 239 010e FFF7FEFF 		bl	HAL_NVIC_EnableIRQ
 240              	.LVL10:
 111:Src/gpio.c    **** 
 112:Src/gpio.c    **** }
 241              		.loc 1 112 0
 242 0112 09B0     		add	sp, sp, #36
 243              	.LCFI2:
 244              		.cfi_def_cfa_offset 36
 245              		@ sp needed
 246 0114 BDE8F08F 		pop	{r4, r5, r6, r7, r8, r9, r10, fp, pc}
 247              	.L5:
 248              		.align	2
 249              	.L4:
 250 0118 00100240 		.word	1073876992
ARM GAS  /var/folders/m1/3lv6xmzs0mlckxs4mx90nfb40000gn/T//ccOjm4z2.s 			page 8


 251 011c 000C0140 		.word	1073810432
 252 0120 00002110 		.word	270598144
 253 0124 00100140 		.word	1073811456
 254 0128 00080140 		.word	1073809408
 255              		.cfi_endproc
 256              	.LFE703:
 258              		.text
 259              	.Letext0:
 260              		.file 2 "/usr/local/Cellar/gcc-arm-none-eabi/20180627/arm-none-eabi/include/machine/_default_types
 261              		.file 3 "/usr/local/Cellar/gcc-arm-none-eabi/20180627/arm-none-eabi/include/sys/_stdint.h"
 262              		.file 4 "Drivers/CMSIS/Include/core_cm3.h"
 263              		.file 5 "Drivers/CMSIS/Device/ST/STM32F1xx/Include/system_stm32f1xx.h"
 264              		.file 6 "Drivers/CMSIS/Device/ST/STM32F1xx/Include/stm32f103xb.h"
 265              		.file 7 "Drivers/STM32F1xx_HAL_Driver/Inc/stm32f1xx_hal_gpio.h"
 266              		.file 8 "Drivers/STM32F1xx_HAL_Driver/Inc/stm32f1xx_hal.h"
 267              		.file 9 "Drivers/STM32F1xx_HAL_Driver/Inc/stm32f1xx_ll_tim.h"
 268              		.file 10 "Drivers/STM32F1xx_HAL_Driver/Inc/stm32f1xx_ll_dma.h"
 269              		.file 11 "Drivers/STM32F1xx_HAL_Driver/Inc/stm32f1xx_hal_cortex.h"
ARM GAS  /var/folders/m1/3lv6xmzs0mlckxs4mx90nfb40000gn/T//ccOjm4z2.s 			page 9

