Archive member included to satisfy reference by file (symbol)

/usr/local/Cellar/gcc-arm-none-eabi/20180627/bin/../lib/gcc/arm-none-eabi/7.3.1/../../../../arm-none-eabi/lib/thumb/v7-m/libc_nano.a(lib_a-exit.o)
                              /usr/local/Cellar/gcc-arm-none-eabi/20180627/bin/../lib/gcc/arm-none-eabi/7.3.1/../../../../arm-none-eabi/lib/thumb/v7-m/crt0.o (exit)
/usr/local/Cellar/gcc-arm-none-eabi/20180627/bin/../lib/gcc/arm-none-eabi/7.3.1/../../../../arm-none-eabi/lib/thumb/v7-m/libc_nano.a(lib_a-impure.o)
                              /usr/local/Cellar/gcc-arm-none-eabi/20180627/bin/../lib/gcc/arm-none-eabi/7.3.1/../../../../arm-none-eabi/lib/thumb/v7-m/libc_nano.a(lib_a-exit.o) (_global_impure_ptr)
/usr/local/Cellar/gcc-arm-none-eabi/20180627/bin/../lib/gcc/arm-none-eabi/7.3.1/../../../../arm-none-eabi/lib/thumb/v7-m/libc_nano.a(lib_a-init.o)
                              /usr/local/Cellar/gcc-arm-none-eabi/20180627/bin/../lib/gcc/arm-none-eabi/7.3.1/../../../../arm-none-eabi/lib/thumb/v7-m/crt0.o (__libc_init_array)
/usr/local/Cellar/gcc-arm-none-eabi/20180627/bin/../lib/gcc/arm-none-eabi/7.3.1/../../../../arm-none-eabi/lib/thumb/v7-m/libc_nano.a(lib_a-memcmp.o)
                              build/gcode.o (memcmp)
/usr/local/Cellar/gcc-arm-none-eabi/20180627/bin/../lib/gcc/arm-none-eabi/7.3.1/../../../../arm-none-eabi/lib/thumb/v7-m/libc_nano.a(lib_a-memset.o)
                              /usr/local/Cellar/gcc-arm-none-eabi/20180627/bin/../lib/gcc/arm-none-eabi/7.3.1/../../../../arm-none-eabi/lib/thumb/v7-m/crt0.o (memset)
/usr/local/Cellar/gcc-arm-none-eabi/20180627/bin/../lib/gcc/arm-none-eabi/7.3.1/../../../../arm-none-eabi/lib/thumb/v7-m/libc_nano.a(lib_a-sprintf.o)
                              build/lcd-i2c.o (sprintf)
/usr/local/Cellar/gcc-arm-none-eabi/20180627/bin/../lib/gcc/arm-none-eabi/7.3.1/../../../../arm-none-eabi/lib/thumb/v7-m/libc_nano.a(lib_a-nano-svfprintf.o)
                              /usr/local/Cellar/gcc-arm-none-eabi/20180627/bin/../lib/gcc/arm-none-eabi/7.3.1/../../../../arm-none-eabi/lib/thumb/v7-m/libc_nano.a(lib_a-sprintf.o) (_svfprintf_r)
/usr/local/Cellar/gcc-arm-none-eabi/20180627/bin/../lib/gcc/arm-none-eabi/7.3.1/../../../../arm-none-eabi/lib/thumb/v7-m/libc_nano.a(lib_a-nano-vfprintf_i.o)
                              /usr/local/Cellar/gcc-arm-none-eabi/20180627/bin/../lib/gcc/arm-none-eabi/7.3.1/../../../../arm-none-eabi/lib/thumb/v7-m/libc_nano.a(lib_a-nano-svfprintf.o) (_printf_i)
/usr/local/Cellar/gcc-arm-none-eabi/20180627/bin/../lib/gcc/arm-none-eabi/7.3.1/../../../../arm-none-eabi/lib/thumb/v7-m/libc_nano.a(lib_a-memchr-stub.o)
                              /usr/local/Cellar/gcc-arm-none-eabi/20180627/bin/../lib/gcc/arm-none-eabi/7.3.1/../../../../arm-none-eabi/lib/thumb/v7-m/libc_nano.a(lib_a-nano-svfprintf.o) (memchr)
/usr/local/Cellar/gcc-arm-none-eabi/20180627/bin/../lib/gcc/arm-none-eabi/7.3.1/../../../../arm-none-eabi/lib/thumb/v7-m/libc_nano.a(lib_a-memcpy-stub.o)
                              /usr/local/Cellar/gcc-arm-none-eabi/20180627/bin/../lib/gcc/arm-none-eabi/7.3.1/../../../../arm-none-eabi/lib/thumb/v7-m/libc_nano.a(lib_a-nano-svfprintf.o) (memcpy)
/usr/local/Cellar/gcc-arm-none-eabi/20180627/bin/../lib/gcc/arm-none-eabi/7.3.1/../../../../arm-none-eabi/lib/thumb/v7-m/libc_nano.a(lib_a-memmove.o)
                              /usr/local/Cellar/gcc-arm-none-eabi/20180627/bin/../lib/gcc/arm-none-eabi/7.3.1/../../../../arm-none-eabi/lib/thumb/v7-m/libc_nano.a(lib_a-nano-svfprintf.o) (memmove)
/usr/local/Cellar/gcc-arm-none-eabi/20180627/bin/../lib/gcc/arm-none-eabi/7.3.1/../../../../arm-none-eabi/lib/thumb/v7-m/libc_nano.a(lib_a-nano-freer.o)
                              /usr/local/Cellar/gcc-arm-none-eabi/20180627/bin/../lib/gcc/arm-none-eabi/7.3.1/../../../../arm-none-eabi/lib/thumb/v7-m/libc_nano.a(lib_a-nano-svfprintf.o) (_free_r)
/usr/local/Cellar/gcc-arm-none-eabi/20180627/bin/../lib/gcc/arm-none-eabi/7.3.1/../../../../arm-none-eabi/lib/thumb/v7-m/libc_nano.a(lib_a-nano-mallocr.o)
                              /usr/local/Cellar/gcc-arm-none-eabi/20180627/bin/../lib/gcc/arm-none-eabi/7.3.1/../../../../arm-none-eabi/lib/thumb/v7-m/libc_nano.a(lib_a-nano-svfprintf.o) (_malloc_r)
/usr/local/Cellar/gcc-arm-none-eabi/20180627/bin/../lib/gcc/arm-none-eabi/7.3.1/../../../../arm-none-eabi/lib/thumb/v7-m/libc_nano.a(lib_a-nano-reallocr.o)
                              /usr/local/Cellar/gcc-arm-none-eabi/20180627/bin/../lib/gcc/arm-none-eabi/7.3.1/../../../../arm-none-eabi/lib/thumb/v7-m/libc_nano.a(lib_a-nano-svfprintf.o) (_realloc_r)
/usr/local/Cellar/gcc-arm-none-eabi/20180627/bin/../lib/gcc/arm-none-eabi/7.3.1/../../../../arm-none-eabi/lib/thumb/v7-m/libc_nano.a(lib_a-sbrkr.o)
                              /usr/local/Cellar/gcc-arm-none-eabi/20180627/bin/../lib/gcc/arm-none-eabi/7.3.1/../../../../arm-none-eabi/lib/thumb/v7-m/libc_nano.a(lib_a-nano-mallocr.o) (_sbrk_r)
/usr/local/Cellar/gcc-arm-none-eabi/20180627/bin/../lib/gcc/arm-none-eabi/7.3.1/../../../../arm-none-eabi/lib/thumb/v7-m/libc_nano.a(lib_a-mlock.o)
                              /usr/local/Cellar/gcc-arm-none-eabi/20180627/bin/../lib/gcc/arm-none-eabi/7.3.1/../../../../arm-none-eabi/lib/thumb/v7-m/libc_nano.a(lib_a-nano-freer.o) (__malloc_lock)
/usr/local/Cellar/gcc-arm-none-eabi/20180627/bin/../lib/gcc/arm-none-eabi/7.3.1/../../../../arm-none-eabi/lib/thumb/v7-m/libc_nano.a(lib_a-nano-msizer.o)
                              /usr/local/Cellar/gcc-arm-none-eabi/20180627/bin/../lib/gcc/arm-none-eabi/7.3.1/../../../../arm-none-eabi/lib/thumb/v7-m/libc_nano.a(lib_a-nano-reallocr.o) (_malloc_usable_size_r)
/usr/local/Cellar/gcc-arm-none-eabi/20180627/bin/../lib/gcc/arm-none-eabi/7.3.1/../../../../arm-none-eabi/lib/thumb/v7-m/libc_nano.a(lib_a-reent.o)
                              /usr/local/Cellar/gcc-arm-none-eabi/20180627/bin/../lib/gcc/arm-none-eabi/7.3.1/../../../../arm-none-eabi/lib/thumb/v7-m/libc_nano.a(lib_a-sbrkr.o) (errno)
/usr/local/Cellar/gcc-arm-none-eabi/20180627/bin/../lib/gcc/arm-none-eabi/7.3.1/../../../../arm-none-eabi/lib/thumb/v7-m/libm.a(lib_a-s_ceil.o)
                              build/nuts_bolts.o (ceil)
/usr/local/Cellar/gcc-arm-none-eabi/20180627/bin/../lib/gcc/arm-none-eabi/7.3.1/../../../../arm-none-eabi/lib/thumb/v7-m/libm.a(lib_a-s_floor.o)
                              build/motion_control.o (floor)
/usr/local/Cellar/gcc-arm-none-eabi/20180627/bin/../lib/gcc/arm-none-eabi/7.3.1/../../../../arm-none-eabi/lib/thumb/v7-m/libm.a(lib_a-s_lround.o)
                              build/limits.o (lround)
/usr/local/Cellar/gcc-arm-none-eabi/20180627/bin/../lib/gcc/arm-none-eabi/7.3.1/../../../../arm-none-eabi/lib/thumb/v7-m/libm.a(lib_a-s_round.o)
                              build/gcode.o (round)
/usr/local/Cellar/gcc-arm-none-eabi/20180627/bin/../lib/gcc/arm-none-eabi/7.3.1/../../../../arm-none-eabi/lib/thumb/v7-m/libm.a(lib_a-s_trunc.o)
                              build/gcode.o (trunc)
/usr/local/Cellar/gcc-arm-none-eabi/20180627/bin/../lib/gcc/arm-none-eabi/7.3.1/../../../../arm-none-eabi/lib/thumb/v7-m/libm.a(lib_a-sf_ceil.o)
                              build/stepper.o (ceilf)
/usr/local/Cellar/gcc-arm-none-eabi/20180627/bin/../lib/gcc/arm-none-eabi/7.3.1/../../../../arm-none-eabi/lib/thumb/v7-m/libm.a(lib_a-sf_cos.o)
                              build/motion_control.o (cosf)
/usr/local/Cellar/gcc-arm-none-eabi/20180627/bin/../lib/gcc/arm-none-eabi/7.3.1/../../../../arm-none-eabi/lib/thumb/v7-m/libm.a(lib_a-sf_sin.o)
                              build/motion_control.o (sinf)
/usr/local/Cellar/gcc-arm-none-eabi/20180627/bin/../lib/gcc/arm-none-eabi/7.3.1/../../../../arm-none-eabi/lib/thumb/v7-m/libm.a(lib_a-w_sqrt.o)
                              build/gcode.o (sqrt)
/usr/local/Cellar/gcc-arm-none-eabi/20180627/bin/../lib/gcc/arm-none-eabi/7.3.1/../../../../arm-none-eabi/lib/thumb/v7-m/libm.a(lib_a-wf_atan2.o)
                              build/motion_control.o (atan2f)
/usr/local/Cellar/gcc-arm-none-eabi/20180627/bin/../lib/gcc/arm-none-eabi/7.3.1/../../../../arm-none-eabi/lib/thumb/v7-m/libm.a(lib_a-wf_sqrt.o)
                              build/limits.o (sqrtf)
/usr/local/Cellar/gcc-arm-none-eabi/20180627/bin/../lib/gcc/arm-none-eabi/7.3.1/../../../../arm-none-eabi/lib/thumb/v7-m/libm.a(lib_a-e_sqrt.o)
                              /usr/local/Cellar/gcc-arm-none-eabi/20180627/bin/../lib/gcc/arm-none-eabi/7.3.1/../../../../arm-none-eabi/lib/thumb/v7-m/libm.a(lib_a-w_sqrt.o) (__ieee754_sqrt)
/usr/local/Cellar/gcc-arm-none-eabi/20180627/bin/../lib/gcc/arm-none-eabi/7.3.1/../../../../arm-none-eabi/lib/thumb/v7-m/libm.a(lib_a-ef_atan2.o)
                              /usr/local/Cellar/gcc-arm-none-eabi/20180627/bin/../lib/gcc/arm-none-eabi/7.3.1/../../../../arm-none-eabi/lib/thumb/v7-m/libm.a(lib_a-wf_atan2.o) (__ieee754_atan2f)
/usr/local/Cellar/gcc-arm-none-eabi/20180627/bin/../lib/gcc/arm-none-eabi/7.3.1/../../../../arm-none-eabi/lib/thumb/v7-m/libm.a(lib_a-ef_rem_pio2.o)
                              /usr/local/Cellar/gcc-arm-none-eabi/20180627/bin/../lib/gcc/arm-none-eabi/7.3.1/../../../../arm-none-eabi/lib/thumb/v7-m/libm.a(lib_a-sf_cos.o) (__ieee754_rem_pio2f)
/usr/local/Cellar/gcc-arm-none-eabi/20180627/bin/../lib/gcc/arm-none-eabi/7.3.1/../../../../arm-none-eabi/lib/thumb/v7-m/libm.a(lib_a-ef_sqrt.o)
                              /usr/local/Cellar/gcc-arm-none-eabi/20180627/bin/../lib/gcc/arm-none-eabi/7.3.1/../../../../arm-none-eabi/lib/thumb/v7-m/libm.a(lib_a-wf_sqrt.o) (__ieee754_sqrtf)
/usr/local/Cellar/gcc-arm-none-eabi/20180627/bin/../lib/gcc/arm-none-eabi/7.3.1/../../../../arm-none-eabi/lib/thumb/v7-m/libm.a(lib_a-kf_cos.o)
                              /usr/local/Cellar/gcc-arm-none-eabi/20180627/bin/../lib/gcc/arm-none-eabi/7.3.1/../../../../arm-none-eabi/lib/thumb/v7-m/libm.a(lib_a-sf_cos.o) (__kernel_cosf)
/usr/local/Cellar/gcc-arm-none-eabi/20180627/bin/../lib/gcc/arm-none-eabi/7.3.1/../../../../arm-none-eabi/lib/thumb/v7-m/libm.a(lib_a-kf_rem_pio2.o)
                              /usr/local/Cellar/gcc-arm-none-eabi/20180627/bin/../lib/gcc/arm-none-eabi/7.3.1/../../../../arm-none-eabi/lib/thumb/v7-m/libm.a(lib_a-ef_rem_pio2.o) (__kernel_rem_pio2f)
/usr/local/Cellar/gcc-arm-none-eabi/20180627/bin/../lib/gcc/arm-none-eabi/7.3.1/../../../../arm-none-eabi/lib/thumb/v7-m/libm.a(lib_a-kf_sin.o)
                              /usr/local/Cellar/gcc-arm-none-eabi/20180627/bin/../lib/gcc/arm-none-eabi/7.3.1/../../../../arm-none-eabi/lib/thumb/v7-m/libm.a(lib_a-sf_cos.o) (__kernel_sinf)
/usr/local/Cellar/gcc-arm-none-eabi/20180627/bin/../lib/gcc/arm-none-eabi/7.3.1/../../../../arm-none-eabi/lib/thumb/v7-m/libm.a(lib_a-s_lib_ver.o)
                              /usr/local/Cellar/gcc-arm-none-eabi/20180627/bin/../lib/gcc/arm-none-eabi/7.3.1/../../../../arm-none-eabi/lib/thumb/v7-m/libm.a(lib_a-w_sqrt.o) (__fdlib_version)
/usr/local/Cellar/gcc-arm-none-eabi/20180627/bin/../lib/gcc/arm-none-eabi/7.3.1/../../../../arm-none-eabi/lib/thumb/v7-m/libm.a(lib_a-s_matherr.o)
                              /usr/local/Cellar/gcc-arm-none-eabi/20180627/bin/../lib/gcc/arm-none-eabi/7.3.1/../../../../arm-none-eabi/lib/thumb/v7-m/libm.a(lib_a-w_sqrt.o) (matherr)
/usr/local/Cellar/gcc-arm-none-eabi/20180627/bin/../lib/gcc/arm-none-eabi/7.3.1/../../../../arm-none-eabi/lib/thumb/v7-m/libm.a(lib_a-sf_atan.o)
                              /usr/local/Cellar/gcc-arm-none-eabi/20180627/bin/../lib/gcc/arm-none-eabi/7.3.1/../../../../arm-none-eabi/lib/thumb/v7-m/libm.a(lib_a-ef_atan2.o) (atanf)
/usr/local/Cellar/gcc-arm-none-eabi/20180627/bin/../lib/gcc/arm-none-eabi/7.3.1/../../../../arm-none-eabi/lib/thumb/v7-m/libm.a(lib_a-sf_fabs.o)
                              /usr/local/Cellar/gcc-arm-none-eabi/20180627/bin/../lib/gcc/arm-none-eabi/7.3.1/../../../../arm-none-eabi/lib/thumb/v7-m/libm.a(lib_a-ef_atan2.o) (fabsf)
/usr/local/Cellar/gcc-arm-none-eabi/20180627/bin/../lib/gcc/arm-none-eabi/7.3.1/../../../../arm-none-eabi/lib/thumb/v7-m/libm.a(lib_a-sf_floor.o)
                              /usr/local/Cellar/gcc-arm-none-eabi/20180627/bin/../lib/gcc/arm-none-eabi/7.3.1/../../../../arm-none-eabi/lib/thumb/v7-m/libm.a(lib_a-kf_rem_pio2.o) (floorf)
/usr/local/Cellar/gcc-arm-none-eabi/20180627/bin/../lib/gcc/arm-none-eabi/7.3.1/../../../../arm-none-eabi/lib/thumb/v7-m/libm.a(lib_a-sf_scalbn.o)
                              /usr/local/Cellar/gcc-arm-none-eabi/20180627/bin/../lib/gcc/arm-none-eabi/7.3.1/../../../../arm-none-eabi/lib/thumb/v7-m/libm.a(lib_a-kf_rem_pio2.o) (scalbnf)
/usr/local/Cellar/gcc-arm-none-eabi/20180627/bin/../lib/gcc/arm-none-eabi/7.3.1/../../../../arm-none-eabi/lib/thumb/v7-m/libm.a(lib_a-sf_copysign.o)
                              /usr/local/Cellar/gcc-arm-none-eabi/20180627/bin/../lib/gcc/arm-none-eabi/7.3.1/../../../../arm-none-eabi/lib/thumb/v7-m/libm.a(lib_a-sf_scalbn.o) (copysignf)
/usr/local/Cellar/gcc-arm-none-eabi/20180627/bin/../lib/gcc/arm-none-eabi/7.3.1/../../../../arm-none-eabi/lib/thumb/v7-m/libnosys.a(sbrk.o)
                              /usr/local/Cellar/gcc-arm-none-eabi/20180627/bin/../lib/gcc/arm-none-eabi/7.3.1/../../../../arm-none-eabi/lib/thumb/v7-m/libc_nano.a(lib_a-sbrkr.o) (_sbrk)
/usr/local/Cellar/gcc-arm-none-eabi/20180627/bin/../lib/gcc/arm-none-eabi/7.3.1/../../../../arm-none-eabi/lib/thumb/v7-m/libnosys.a(_exit.o)
                              /usr/local/Cellar/gcc-arm-none-eabi/20180627/bin/../lib/gcc/arm-none-eabi/7.3.1/../../../../arm-none-eabi/lib/thumb/v7-m/libc_nano.a(lib_a-exit.o) (_exit)
/usr/local/Cellar/gcc-arm-none-eabi/20180627/bin/../lib/gcc/arm-none-eabi/7.3.1/thumb/v7-m/libgcc.a(_arm_addsubdf3.o)
                              build/gcode.o (__aeabi_dsub)
/usr/local/Cellar/gcc-arm-none-eabi/20180627/bin/../lib/gcc/arm-none-eabi/7.3.1/thumb/v7-m/libgcc.a(_arm_muldivdf3.o)
                              build/gcode.o (__aeabi_dmul)
/usr/local/Cellar/gcc-arm-none-eabi/20180627/bin/../lib/gcc/arm-none-eabi/7.3.1/thumb/v7-m/libgcc.a(_arm_cmpdf2.o)
                              build/limits.o (__aeabi_dcmplt)
/usr/local/Cellar/gcc-arm-none-eabi/20180627/bin/../lib/gcc/arm-none-eabi/7.3.1/thumb/v7-m/libgcc.a(_arm_unorddf2.o)
                              /usr/local/Cellar/gcc-arm-none-eabi/20180627/bin/../lib/gcc/arm-none-eabi/7.3.1/../../../../arm-none-eabi/lib/thumb/v7-m/libm.a(lib_a-w_sqrt.o) (__aeabi_dcmpun)
/usr/local/Cellar/gcc-arm-none-eabi/20180627/bin/../lib/gcc/arm-none-eabi/7.3.1/thumb/v7-m/libgcc.a(_arm_fixdfsi.o)
                              /usr/local/Cellar/gcc-arm-none-eabi/20180627/bin/../lib/gcc/arm-none-eabi/7.3.1/../../../../arm-none-eabi/lib/thumb/v7-m/libm.a(lib_a-s_lround.o) (__aeabi_d2iz)
/usr/local/Cellar/gcc-arm-none-eabi/20180627/bin/../lib/gcc/arm-none-eabi/7.3.1/thumb/v7-m/libgcc.a(_arm_fixunsdfsi.o)
                              build/gcode.o (__aeabi_d2uiz)
/usr/local/Cellar/gcc-arm-none-eabi/20180627/bin/../lib/gcc/arm-none-eabi/7.3.1/thumb/v7-m/libgcc.a(_arm_truncdfsf2.o)
                              build/gcode.o (__aeabi_d2f)
/usr/local/Cellar/gcc-arm-none-eabi/20180627/bin/../lib/gcc/arm-none-eabi/7.3.1/thumb/v7-m/libgcc.a(_arm_addsubsf3.o)
                              build/gcode.o (__aeabi_fsub)
/usr/local/Cellar/gcc-arm-none-eabi/20180627/bin/../lib/gcc/arm-none-eabi/7.3.1/thumb/v7-m/libgcc.a(_arm_muldivsf3.o)
                              build/stm32utilities.o (__aeabi_fmul)
/usr/local/Cellar/gcc-arm-none-eabi/20180627/bin/../lib/gcc/arm-none-eabi/7.3.1/thumb/v7-m/libgcc.a(_arm_cmpsf2.o)
                              build/gcode.o (__aeabi_fcmpeq)
/usr/local/Cellar/gcc-arm-none-eabi/20180627/bin/../lib/gcc/arm-none-eabi/7.3.1/thumb/v7-m/libgcc.a(_arm_unordsf2.o)
                              /usr/local/Cellar/gcc-arm-none-eabi/20180627/bin/../lib/gcc/arm-none-eabi/7.3.1/../../../../arm-none-eabi/lib/thumb/v7-m/libm.a(lib_a-wf_sqrt.o) (__aeabi_fcmpun)
/usr/local/Cellar/gcc-arm-none-eabi/20180627/bin/../lib/gcc/arm-none-eabi/7.3.1/thumb/v7-m/libgcc.a(_arm_fixsfsi.o)
                              build/gcode.o (__aeabi_f2iz)
/usr/local/Cellar/gcc-arm-none-eabi/20180627/bin/../lib/gcc/arm-none-eabi/7.3.1/thumb/v7-m/libgcc.a(_arm_fixunssfsi.o)
                              build/stepper.o (__aeabi_f2uiz)
/usr/local/Cellar/gcc-arm-none-eabi/20180627/bin/../lib/gcc/arm-none-eabi/7.3.1/../../../../arm-none-eabi/lib/thumb/v7-m/libc_nano.a(lib_a-errno.o)
                              /usr/local/Cellar/gcc-arm-none-eabi/20180627/bin/../lib/gcc/arm-none-eabi/7.3.1/../../../../arm-none-eabi/lib/thumb/v7-m/libm.a(lib_a-w_sqrt.o) (__errno)

Allocating common symbols
Common symbol       size              file

sys_rt_exec_motion_override
                    0x1               build/main.o
errno               0x4               /usr/local/Cellar/gcc-arm-none-eabi/20180627/bin/../lib/gcc/arm-none-eabi/7.3.1/../../../../arm-none-eabi/lib/thumb/v7-m/libc_nano.a(lib_a-reent.o)
settings            0x64              build/settings.o
probe_invert_mask   0x2               build/probe.o
hi2c1               0x54              build/i2c.o
pDbgStr             0x50              build/stm32utilities.o
pDbgVal8a           0x9               build/stm32utilities.o
sys                 0x14              build/main.o
gc_state            0x48              build/gcode.o
sys_rt_exec_accessory_override
                    0x1               build/main.o
uwTick              0x4               build/stm32f1xx_hal.o
pFlash              0x20              build/stm32f1xx_hal_flash.o
adjustments         0x18              build/settings.o
sys_rt_exec_state   0x1               build/main.o
sys_probe_state     0x1               build/main.o
gc_block            0x4c              build/gcode.o
pDbgVal16           0x11              build/stm32utilities.o
serial_tx_buffer    0x80              build/serial.o
serial_rx_buffer    0xfe              build/serial.o
sys_probe_position  0xc               build/main.o
sys_position        0xc               build/main.o
pinmask             0x2               build/stm32f1xx_it.o
sys_rt_exec_alarm   0x1               build/main.o
EE_Buffer           0x400             build/eeprom.o
pDbgVal8b           0x9               build/stm32utilities.o

Discarded input sections

 .text          0x0000000000000000        0x0 /usr/local/Cellar/gcc-arm-none-eabi/20180627/bin/../lib/gcc/arm-none-eabi/7.3.1/thumb/v7-m/crti.o
 .data          0x0000000000000000        0x0 /usr/local/Cellar/gcc-arm-none-eabi/20180627/bin/../lib/gcc/arm-none-eabi/7.3.1/thumb/v7-m/crti.o
 .bss           0x0000000000000000        0x0 /usr/local/Cellar/gcc-arm-none-eabi/20180627/bin/../lib/gcc/arm-none-eabi/7.3.1/thumb/v7-m/crti.o
 .data          0x0000000000000000        0x4 /usr/local/Cellar/gcc-arm-none-eabi/20180627/bin/../lib/gcc/arm-none-eabi/7.3.1/thumb/v7-m/crtbegin.o
 .text          0x0000000000000000       0x74 /usr/local/Cellar/gcc-arm-none-eabi/20180627/bin/../lib/gcc/arm-none-eabi/7.3.1/../../../../arm-none-eabi/lib/thumb/v7-m/crt0.o
 .data          0x0000000000000000        0x0 /usr/local/Cellar/gcc-arm-none-eabi/20180627/bin/../lib/gcc/arm-none-eabi/7.3.1/../../../../arm-none-eabi/lib/thumb/v7-m/crt0.o
 .bss           0x0000000000000000        0x0 /usr/local/Cellar/gcc-arm-none-eabi/20180627/bin/../lib/gcc/arm-none-eabi/7.3.1/../../../../arm-none-eabi/lib/thumb/v7-m/crt0.o
 .ARM.extab     0x0000000000000000        0x0 /usr/local/Cellar/gcc-arm-none-eabi/20180627/bin/../lib/gcc/arm-none-eabi/7.3.1/../../../../arm-none-eabi/lib/thumb/v7-m/crt0.o
 .ARM.exidx     0x0000000000000000        0x8 /usr/local/Cellar/gcc-arm-none-eabi/20180627/bin/../lib/gcc/arm-none-eabi/7.3.1/../../../../arm-none-eabi/lib/thumb/v7-m/crt0.o
 .ARM.attributes
                0x0000000000000000       0x1b /usr/local/Cellar/gcc-arm-none-eabi/20180627/bin/../lib/gcc/arm-none-eabi/7.3.1/../../../../arm-none-eabi/lib/thumb/v7-m/crt0.o
 .text          0x0000000000000000        0x0 build/main.o
 .data          0x0000000000000000        0x0 build/main.o
 .bss           0x0000000000000000        0x0 build/main.o
 .text          0x0000000000000000        0x0 build/gpio.o
 .data          0x0000000000000000        0x0 build/gpio.o
 .bss           0x0000000000000000        0x0 build/gpio.o
 .text          0x0000000000000000        0x0 build/i2c.o
 .data          0x0000000000000000        0x0 build/i2c.o
 .bss           0x0000000000000000        0x0 build/i2c.o
 .text.HAL_I2C_MspDeInit
                0x0000000000000000       0x2c build/i2c.o
 .text          0x0000000000000000        0x0 build/tim.o
 .data          0x0000000000000000        0x0 build/tim.o
 .bss           0x0000000000000000        0x0 build/tim.o
 .text          0x0000000000000000        0x0 build/usart.o
 .data          0x0000000000000000        0x0 build/usart.o
 .bss           0x0000000000000000        0x0 build/usart.o
 .text          0x0000000000000000        0x0 build/stm32f1xx_it.o
 .data          0x0000000000000000        0x0 build/stm32f1xx_it.o
 .bss           0x0000000000000000        0x0 build/stm32f1xx_it.o
 COMMON         0x0000000000000000        0x2 build/stm32f1xx_it.o
 .text          0x0000000000000000        0x0 build/stm32f1xx_hal_msp.o
 .data          0x0000000000000000        0x0 build/stm32f1xx_hal_msp.o
 .bss           0x0000000000000000        0x0 build/stm32f1xx_hal_msp.o
 .text          0x0000000000000000        0x0 build/stm32f1xx_hal_gpio_ex.o
 .data          0x0000000000000000        0x0 build/stm32f1xx_hal_gpio_ex.o
 .bss           0x0000000000000000        0x0 build/stm32f1xx_hal_gpio_ex.o
 .text.HAL_GPIOEx_ConfigEventout
                0x0000000000000000       0x14 build/stm32f1xx_hal_gpio_ex.o
 .text.HAL_GPIOEx_EnableEventout
                0x0000000000000000       0x10 build/stm32f1xx_hal_gpio_ex.o
 .text.HAL_GPIOEx_DisableEventout
                0x0000000000000000       0x10 build/stm32f1xx_hal_gpio_ex.o
 .debug_info    0x0000000000000000      0x244 build/stm32f1xx_hal_gpio_ex.o
 .debug_abbrev  0x0000000000000000      0x10c build/stm32f1xx_hal_gpio_ex.o
 .debug_loc     0x0000000000000000       0x21 build/stm32f1xx_hal_gpio_ex.o
 .debug_aranges
                0x0000000000000000       0x30 build/stm32f1xx_hal_gpio_ex.o
 .debug_ranges  0x0000000000000000       0x20 build/stm32f1xx_hal_gpio_ex.o
 .debug_line    0x0000000000000000      0x1eb build/stm32f1xx_hal_gpio_ex.o
 .debug_str     0x0000000000000000      0x309 build/stm32f1xx_hal_gpio_ex.o
 .comment       0x0000000000000000       0x80 build/stm32f1xx_hal_gpio_ex.o
 .debug_frame   0x0000000000000000       0x40 build/stm32f1xx_hal_gpio_ex.o
 .ARM.attributes
                0x0000000000000000       0x33 build/stm32f1xx_hal_gpio_ex.o
 .text          0x0000000000000000        0x0 build/stm32f1xx_hal_i2c.o
 .data          0x0000000000000000        0x0 build/stm32f1xx_hal_i2c.o
 .bss           0x0000000000000000        0x0 build/stm32f1xx_hal_i2c.o
 .text.I2C_RequestMemoryWrite
                0x0000000000000000      0x1ec build/stm32f1xx_hal_i2c.o
 .text.I2C_RequestMemoryRead
                0x0000000000000000      0x254 build/stm32f1xx_hal_i2c.o
 .text.HAL_I2C_MspInit
                0x0000000000000000        0x4 build/stm32f1xx_hal_i2c.o
 .text.HAL_I2C_MspDeInit
                0x0000000000000000        0x4 build/stm32f1xx_hal_i2c.o
 .text.HAL_I2C_DeInit
                0x0000000000000000       0x34 build/stm32f1xx_hal_i2c.o
 .text.HAL_I2C_Master_Transmit
                0x0000000000000000      0x2dc build/stm32f1xx_hal_i2c.o
 .text.HAL_I2C_Master_Receive
                0x0000000000000000      0x4e0 build/stm32f1xx_hal_i2c.o
 .text.HAL_I2C_Slave_Transmit
                0x0000000000000000      0x22c build/stm32f1xx_hal_i2c.o
 .text.HAL_I2C_Slave_Receive
                0x0000000000000000      0x210 build/stm32f1xx_hal_i2c.o
 .text.HAL_I2C_Master_Transmit_IT
                0x0000000000000000       0xd4 build/stm32f1xx_hal_i2c.o
 .text.HAL_I2C_Master_Receive_IT
                0x0000000000000000       0xdc build/stm32f1xx_hal_i2c.o
 .text.HAL_I2C_Slave_Transmit_IT
                0x0000000000000000       0x7c build/stm32f1xx_hal_i2c.o
 .text.HAL_I2C_Slave_Receive_IT
                0x0000000000000000       0x7c build/stm32f1xx_hal_i2c.o
 .text.HAL_I2C_Master_Transmit_DMA
                0x0000000000000000      0x140 build/stm32f1xx_hal_i2c.o
 .text.HAL_I2C_Master_Receive_DMA
                0x0000000000000000      0x140 build/stm32f1xx_hal_i2c.o
 .text.HAL_I2C_Slave_Transmit_DMA
                0x0000000000000000       0xc4 build/stm32f1xx_hal_i2c.o
 .text.HAL_I2C_Slave_Receive_DMA
                0x0000000000000000       0xc8 build/stm32f1xx_hal_i2c.o
 .text.HAL_I2C_Mem_Write
                0x0000000000000000      0x238 build/stm32f1xx_hal_i2c.o
 .text.HAL_I2C_Mem_Read
                0x0000000000000000      0x35c build/stm32f1xx_hal_i2c.o
 .text.HAL_I2C_Mem_Write_IT
                0x0000000000000000       0xf0 build/stm32f1xx_hal_i2c.o
 .text.HAL_I2C_Mem_Read_IT
                0x0000000000000000       0xe8 build/stm32f1xx_hal_i2c.o
 .text.HAL_I2C_Mem_Write_DMA
                0x0000000000000000      0x168 build/stm32f1xx_hal_i2c.o
 .text.HAL_I2C_Mem_Read_DMA
                0x0000000000000000      0x1a0 build/stm32f1xx_hal_i2c.o
 .text.HAL_I2C_IsDeviceReady
                0x0000000000000000      0x208 build/stm32f1xx_hal_i2c.o
 .text.HAL_I2C_Master_Seq_Transmit_IT
                0x0000000000000000       0xf8 build/stm32f1xx_hal_i2c.o
 .text.HAL_I2C_Master_Seq_Transmit_DMA
                0x0000000000000000      0x198 build/stm32f1xx_hal_i2c.o
 .text.HAL_I2C_Master_Seq_Receive_IT
                0x0000000000000000      0x13c build/stm32f1xx_hal_i2c.o
 .text.HAL_I2C_Master_Seq_Receive_DMA
                0x0000000000000000      0x210 build/stm32f1xx_hal_i2c.o
 .text.HAL_I2C_Slave_Seq_Transmit_IT
                0x0000000000000000       0x8c build/stm32f1xx_hal_i2c.o
 .text.HAL_I2C_Slave_Seq_Transmit_DMA
                0x0000000000000000      0x16c build/stm32f1xx_hal_i2c.o
 .text.HAL_I2C_Slave_Seq_Receive_IT
                0x0000000000000000       0x8c build/stm32f1xx_hal_i2c.o
 .text.HAL_I2C_Slave_Seq_Receive_DMA
                0x0000000000000000      0x168 build/stm32f1xx_hal_i2c.o
 .text.HAL_I2C_EnableListen_IT
                0x0000000000000000       0x38 build/stm32f1xx_hal_i2c.o
 .text.HAL_I2C_DisableListen_IT
                0x0000000000000000       0x44 build/stm32f1xx_hal_i2c.o
 .text.HAL_I2C_MasterTxCpltCallback
                0x0000000000000000        0x4 build/stm32f1xx_hal_i2c.o
 .text.HAL_I2C_MasterRxCpltCallback
                0x0000000000000000        0x4 build/stm32f1xx_hal_i2c.o
 .text.HAL_I2C_SlaveTxCpltCallback
                0x0000000000000000        0x4 build/stm32f1xx_hal_i2c.o
 .text.HAL_I2C_SlaveRxCpltCallback
                0x0000000000000000        0x4 build/stm32f1xx_hal_i2c.o
 .text.HAL_I2C_AddrCallback
                0x0000000000000000        0x4 build/stm32f1xx_hal_i2c.o
 .text.HAL_I2C_ListenCpltCallback
                0x0000000000000000        0x4 build/stm32f1xx_hal_i2c.o
 .text.HAL_I2C_MemTxCpltCallback
                0x0000000000000000        0x4 build/stm32f1xx_hal_i2c.o
 .text.HAL_I2C_MemRxCpltCallback
                0x0000000000000000        0x4 build/stm32f1xx_hal_i2c.o
 .text.HAL_I2C_ErrorCallback
                0x0000000000000000        0x4 build/stm32f1xx_hal_i2c.o
 .text.I2C_DMAError
                0x0000000000000000       0x34 build/stm32f1xx_hal_i2c.o
 .text.I2C_DMAXferCplt
                0x0000000000000000      0x110 build/stm32f1xx_hal_i2c.o
 .text.HAL_I2C_AbortCpltCallback
                0x0000000000000000        0x4 build/stm32f1xx_hal_i2c.o
 .text.I2C_DMAAbort
                0x0000000000000000       0x7c build/stm32f1xx_hal_i2c.o
 .text.HAL_I2C_EV_IRQHandler
                0x0000000000000000      0xab4 build/stm32f1xx_hal_i2c.o
 .text.HAL_I2C_ER_IRQHandler
                0x0000000000000000      0x2c0 build/stm32f1xx_hal_i2c.o
 .text.HAL_I2C_Master_Abort_IT
                0x0000000000000000      0x1a4 build/stm32f1xx_hal_i2c.o
 .text.HAL_I2C_GetState
                0x0000000000000000        0x8 build/stm32f1xx_hal_i2c.o
 .text.HAL_I2C_GetMode
                0x0000000000000000        0x8 build/stm32f1xx_hal_i2c.o
 .text.HAL_I2C_GetError
                0x0000000000000000        0x4 build/stm32f1xx_hal_i2c.o
 .text          0x0000000000000000        0x0 build/stm32f1xx_hal.o
 .data          0x0000000000000000        0x0 build/stm32f1xx_hal.o
 .bss           0x0000000000000000        0x0 build/stm32f1xx_hal.o
 .text.HAL_MspInit
                0x0000000000000000        0x4 build/stm32f1xx_hal.o
 .text.HAL_MspDeInit
                0x0000000000000000        0x4 build/stm32f1xx_hal.o
 .text.HAL_DeInit
                0x0000000000000000       0x20 build/stm32f1xx_hal.o
 .text.HAL_GetTickPrio
                0x0000000000000000        0xc build/stm32f1xx_hal.o
 .text.HAL_SetTickFreq
                0x0000000000000000       0x28 build/stm32f1xx_hal.o
 .text.HAL_GetTickFreq
                0x0000000000000000        0xc build/stm32f1xx_hal.o
 .text.HAL_SuspendTick
                0x0000000000000000       0x10 build/stm32f1xx_hal.o
 .text.HAL_ResumeTick
                0x0000000000000000       0x10 build/stm32f1xx_hal.o
 .text.HAL_GetHalVersion
                0x0000000000000000        0x8 build/stm32f1xx_hal.o
 .text.HAL_GetREVID
                0x0000000000000000        0xc build/stm32f1xx_hal.o
 .text.HAL_GetDEVID
                0x0000000000000000       0x10 build/stm32f1xx_hal.o
 .text.HAL_GetUIDw0
                0x0000000000000000        0xc build/stm32f1xx_hal.o
 .text.HAL_GetUIDw1
                0x0000000000000000        0xc build/stm32f1xx_hal.o
 .text.HAL_GetUIDw2
                0x0000000000000000        0xc build/stm32f1xx_hal.o
 .text.HAL_DBGMCU_EnableDBGSleepMode
                0x0000000000000000       0x10 build/stm32f1xx_hal.o
 .text.HAL_DBGMCU_DisableDBGSleepMode
                0x0000000000000000       0x10 build/stm32f1xx_hal.o
 .text.HAL_DBGMCU_EnableDBGStopMode
                0x0000000000000000       0x10 build/stm32f1xx_hal.o
 .text.HAL_DBGMCU_DisableDBGStopMode
                0x0000000000000000       0x10 build/stm32f1xx_hal.o
 .text.HAL_DBGMCU_EnableDBGStandbyMode
                0x0000000000000000       0x10 build/stm32f1xx_hal.o
 .text.HAL_DBGMCU_DisableDBGStandbyMode
                0x0000000000000000       0x10 build/stm32f1xx_hal.o
 .text          0x0000000000000000        0x0 build/stm32f1xx_hal_rcc.o
 .data          0x0000000000000000        0x0 build/stm32f1xx_hal_rcc.o
 .bss           0x0000000000000000        0x0 build/stm32f1xx_hal_rcc.o
 .text.HAL_RCC_DeInit
                0x0000000000000000       0xe4 build/stm32f1xx_hal_rcc.o
 .text.HAL_RCC_MCOConfig
                0x0000000000000000       0x4c build/stm32f1xx_hal_rcc.o
 .text.HAL_RCC_EnableCSS
                0x0000000000000000        0xc build/stm32f1xx_hal_rcc.o
 .text.HAL_RCC_DisableCSS
                0x0000000000000000        0xc build/stm32f1xx_hal_rcc.o
 .text.HAL_RCC_GetSysClockFreq
                0x0000000000000000       0x6c build/stm32f1xx_hal_rcc.o
 .text.HAL_RCC_GetHCLKFreq
                0x0000000000000000        0xc build/stm32f1xx_hal_rcc.o
 .text.HAL_RCC_GetPCLK2Freq
                0x0000000000000000       0x20 build/stm32f1xx_hal_rcc.o
 .text.HAL_RCC_GetOscConfig
                0x0000000000000000       0x84 build/stm32f1xx_hal_rcc.o
 .text.HAL_RCC_GetClockConfig
                0x0000000000000000       0x40 build/stm32f1xx_hal_rcc.o
 .text.HAL_RCC_CSSCallback
                0x0000000000000000        0x4 build/stm32f1xx_hal_rcc.o
 .text.HAL_RCC_NMI_IRQHandler
                0x0000000000000000       0x20 build/stm32f1xx_hal_rcc.o
 .text          0x0000000000000000        0x0 build/stm32f1xx_hal_rcc_ex.o
 .data          0x0000000000000000        0x0 build/stm32f1xx_hal_rcc_ex.o
 .bss           0x0000000000000000        0x0 build/stm32f1xx_hal_rcc_ex.o
 .text.HAL_RCCEx_PeriphCLKConfig
                0x0000000000000000      0x104 build/stm32f1xx_hal_rcc_ex.o
 .text.HAL_RCCEx_GetPeriphCLKConfig
                0x0000000000000000       0x24 build/stm32f1xx_hal_rcc_ex.o
 .text.HAL_RCCEx_GetPeriphCLKFreq
                0x0000000000000000       0xf0 build/stm32f1xx_hal_rcc_ex.o
 .rodata        0x0000000000000000       0x10 build/stm32f1xx_hal_rcc_ex.o
 .debug_info    0x0000000000000000      0x4c6 build/stm32f1xx_hal_rcc_ex.o
 .debug_abbrev  0x0000000000000000      0x1c7 build/stm32f1xx_hal_rcc_ex.o
 .debug_loc     0x0000000000000000      0x3aa build/stm32f1xx_hal_rcc_ex.o
 .debug_aranges
                0x0000000000000000       0x30 build/stm32f1xx_hal_rcc_ex.o
 .debug_ranges  0x0000000000000000       0x58 build/stm32f1xx_hal_rcc_ex.o
 .debug_line    0x0000000000000000      0x30e build/stm32f1xx_hal_rcc_ex.o
 .debug_str     0x0000000000000000      0x473 build/stm32f1xx_hal_rcc_ex.o
 .comment       0x0000000000000000       0x80 build/stm32f1xx_hal_rcc_ex.o
 .debug_frame   0x0000000000000000       0x84 build/stm32f1xx_hal_rcc_ex.o
 .ARM.attributes
                0x0000000000000000       0x33 build/stm32f1xx_hal_rcc_ex.o
 .text          0x0000000000000000        0x0 build/stm32f1xx_hal_gpio.o
 .data          0x0000000000000000        0x0 build/stm32f1xx_hal_gpio.o
 .bss           0x0000000000000000        0x0 build/stm32f1xx_hal_gpio.o
 .text.HAL_GPIO_DeInit
                0x0000000000000000      0x108 build/stm32f1xx_hal_gpio.o
 .text.HAL_GPIO_ReadPin
                0x0000000000000000        0xc build/stm32f1xx_hal_gpio.o
 .text.HAL_GPIO_TogglePin
                0x0000000000000000        0xc build/stm32f1xx_hal_gpio.o
 .text.HAL_GPIO_LockPin
                0x0000000000000000       0x2c build/stm32f1xx_hal_gpio.o
 .text          0x0000000000000000        0x0 build/stm32f1xx_hal_dma.o
 .data          0x0000000000000000        0x0 build/stm32f1xx_hal_dma.o
 .bss           0x0000000000000000        0x0 build/stm32f1xx_hal_dma.o
 .text.HAL_DMA_Init
                0x0000000000000000       0x68 build/stm32f1xx_hal_dma.o
 .text.HAL_DMA_DeInit
                0x0000000000000000       0x5c build/stm32f1xx_hal_dma.o
 .text.HAL_DMA_Start
                0x0000000000000000       0x6c build/stm32f1xx_hal_dma.o
 .text.HAL_DMA_Start_IT
                0x0000000000000000       0x88 build/stm32f1xx_hal_dma.o
 .text.HAL_DMA_Abort
                0x0000000000000000       0x48 build/stm32f1xx_hal_dma.o
 .text.HAL_DMA_Abort_IT
                0x0000000000000000       0x98 build/stm32f1xx_hal_dma.o
 .text.HAL_DMA_PollForTransfer
                0x0000000000000000      0x348 build/stm32f1xx_hal_dma.o
 .text.HAL_DMA_IRQHandler
                0x0000000000000000      0x12c build/stm32f1xx_hal_dma.o
 .text.HAL_DMA_RegisterCallback
                0x0000000000000000       0x50 build/stm32f1xx_hal_dma.o
 .text.HAL_DMA_UnRegisterCallback
                0x0000000000000000       0x5c build/stm32f1xx_hal_dma.o
 .text.HAL_DMA_GetState
                0x0000000000000000        0x8 build/stm32f1xx_hal_dma.o
 .text.HAL_DMA_GetError
                0x0000000000000000        0x4 build/stm32f1xx_hal_dma.o
 .debug_info    0x0000000000000000      0x8ba build/stm32f1xx_hal_dma.o
 .debug_abbrev  0x0000000000000000      0x261 build/stm32f1xx_hal_dma.o
 .debug_loc     0x0000000000000000      0xbe9 build/stm32f1xx_hal_dma.o
 .debug_aranges
                0x0000000000000000       0x78 build/stm32f1xx_hal_dma.o
 .debug_ranges  0x0000000000000000       0xc0 build/stm32f1xx_hal_dma.o
 .debug_line    0x0000000000000000      0x713 build/stm32f1xx_hal_dma.o
 .debug_str     0x0000000000000000      0x6af build/stm32f1xx_hal_dma.o
 .comment       0x0000000000000000       0x80 build/stm32f1xx_hal_dma.o
 .debug_frame   0x0000000000000000      0x1f0 build/stm32f1xx_hal_dma.o
 .ARM.attributes
                0x0000000000000000       0x33 build/stm32f1xx_hal_dma.o
 .text          0x0000000000000000        0x0 build/stm32f1xx_hal_cortex.o
 .data          0x0000000000000000        0x0 build/stm32f1xx_hal_cortex.o
 .bss           0x0000000000000000        0x0 build/stm32f1xx_hal_cortex.o
 .text.HAL_NVIC_DisableIRQ
                0x0000000000000000       0x24 build/stm32f1xx_hal_cortex.o
 .text.HAL_NVIC_SystemReset
                0x0000000000000000       0x24 build/stm32f1xx_hal_cortex.o
 .text.HAL_NVIC_GetPriorityGrouping
                0x0000000000000000       0x10 build/stm32f1xx_hal_cortex.o
 .text.HAL_NVIC_GetPriority
                0x0000000000000000       0x60 build/stm32f1xx_hal_cortex.o
 .text.HAL_NVIC_SetPendingIRQ
                0x0000000000000000       0x1c build/stm32f1xx_hal_cortex.o
 .text.HAL_NVIC_GetPendingIRQ
                0x0000000000000000       0x24 build/stm32f1xx_hal_cortex.o
 .text.HAL_NVIC_GetActive
                0x0000000000000000       0x24 build/stm32f1xx_hal_cortex.o
 .text.HAL_SYSTICK_CLKSourceConfig
                0x0000000000000000       0x18 build/stm32f1xx_hal_cortex.o
 .text.HAL_SYSTICK_Callback
                0x0000000000000000        0x4 build/stm32f1xx_hal_cortex.o
 .text.HAL_SYSTICK_IRQHandler
                0x0000000000000000        0x8 build/stm32f1xx_hal_cortex.o
 .text          0x0000000000000000        0x0 build/stm32f1xx_hal_pwr.o
 .data          0x0000000000000000        0x0 build/stm32f1xx_hal_pwr.o
 .bss           0x0000000000000000        0x0 build/stm32f1xx_hal_pwr.o
 .text.PWR_OverloadWfe
                0x0000000000000000        0x8 build/stm32f1xx_hal_pwr.o
 .text.HAL_PWR_DeInit
                0x0000000000000000       0x18 build/stm32f1xx_hal_pwr.o
 .text.HAL_PWR_EnableBkUpAccess
                0x0000000000000000        0xc build/stm32f1xx_hal_pwr.o
 .text.HAL_PWR_DisableBkUpAccess
                0x0000000000000000        0xc build/stm32f1xx_hal_pwr.o
 .text.HAL_PWR_ConfigPVD
                0x0000000000000000       0x78 build/stm32f1xx_hal_pwr.o
 .text.HAL_PWR_EnablePVD
                0x0000000000000000        0xc build/stm32f1xx_hal_pwr.o
 .text.HAL_PWR_DisablePVD
                0x0000000000000000        0xc build/stm32f1xx_hal_pwr.o
 .text.HAL_PWR_EnableWakeUpPin
                0x0000000000000000       0x18 build/stm32f1xx_hal_pwr.o
 .text.HAL_PWR_DisableWakeUpPin
                0x0000000000000000       0x18 build/stm32f1xx_hal_pwr.o
 .text.HAL_PWR_EnterSLEEPMode
                0x0000000000000000       0x20 build/stm32f1xx_hal_pwr.o
 .text.HAL_PWR_EnterSTOPMode
                0x0000000000000000       0x48 build/stm32f1xx_hal_pwr.o
 .text.HAL_PWR_EnterSTANDBYMode
                0x0000000000000000       0x20 build/stm32f1xx_hal_pwr.o
 .text.HAL_PWR_EnableSleepOnExit
                0x0000000000000000       0x10 build/stm32f1xx_hal_pwr.o
 .text.HAL_PWR_DisableSleepOnExit
                0x0000000000000000       0x10 build/stm32f1xx_hal_pwr.o
 .text.HAL_PWR_EnableSEVOnPend
                0x0000000000000000       0x10 build/stm32f1xx_hal_pwr.o
 .text.HAL_PWR_DisableSEVOnPend
                0x0000000000000000       0x10 build/stm32f1xx_hal_pwr.o
 .text.HAL_PWR_PVDCallback
                0x0000000000000000        0x4 build/stm32f1xx_hal_pwr.o
 .text.HAL_PWR_PVD_IRQHandler
                0x0000000000000000       0x1c build/stm32f1xx_hal_pwr.o
 .debug_info    0x0000000000000000      0x79e build/stm32f1xx_hal_pwr.o
 .debug_abbrev  0x0000000000000000      0x1f1 build/stm32f1xx_hal_pwr.o
 .debug_loc     0x0000000000000000      0x116 build/stm32f1xx_hal_pwr.o
 .debug_aranges
                0x0000000000000000       0xa8 build/stm32f1xx_hal_pwr.o
 .debug_ranges  0x0000000000000000       0x98 build/stm32f1xx_hal_pwr.o
 .debug_line    0x0000000000000000      0x37b build/stm32f1xx_hal_pwr.o
 .debug_str     0x0000000000000000      0x53b build/stm32f1xx_hal_pwr.o
 .comment       0x0000000000000000       0x80 build/stm32f1xx_hal_pwr.o
 .debug_frame   0x0000000000000000      0x154 build/stm32f1xx_hal_pwr.o
 .ARM.attributes
                0x0000000000000000       0x33 build/stm32f1xx_hal_pwr.o
 .text          0x0000000000000000        0x0 build/stm32f1xx_hal_flash.o
 .data          0x0000000000000000        0x0 build/stm32f1xx_hal_flash.o
 .bss           0x0000000000000000        0x0 build/stm32f1xx_hal_flash.o
 .text.HAL_FLASH_Program_IT
                0x0000000000000000       0x68 build/stm32f1xx_hal_flash.o
 .text.HAL_FLASH_EndOfOperationCallback
                0x0000000000000000        0x4 build/stm32f1xx_hal_flash.o
 .text.HAL_FLASH_OperationErrorCallback
                0x0000000000000000        0x4 build/stm32f1xx_hal_flash.o
 .text.HAL_FLASH_IRQHandler
                0x0000000000000000      0x168 build/stm32f1xx_hal_flash.o
 .text.HAL_FLASH_OB_Unlock
                0x0000000000000000       0x24 build/stm32f1xx_hal_flash.o
 .text.HAL_FLASH_OB_Lock
                0x0000000000000000       0x14 build/stm32f1xx_hal_flash.o
 .text.HAL_FLASH_OB_Launch
                0x0000000000000000        0x4 build/stm32f1xx_hal_flash.o
 .text.HAL_FLASH_GetError
                0x0000000000000000        0xc build/stm32f1xx_hal_flash.o
 .text          0x0000000000000000        0x0 build/stm32f1xx_hal_flash_ex.o
 .data          0x0000000000000000        0x0 build/stm32f1xx_hal_flash_ex.o
 .bss           0x0000000000000000        0x0 build/stm32f1xx_hal_flash_ex.o
 .text.HAL_FLASHEx_Erase
                0x0000000000000000       0xcc build/stm32f1xx_hal_flash_ex.o
 .text.HAL_FLASHEx_Erase_IT
                0x0000000000000000       0x78 build/stm32f1xx_hal_flash_ex.o
 .text.HAL_FLASHEx_OBErase
                0x0000000000000000       0xac build/stm32f1xx_hal_flash_ex.o
 .text.HAL_FLASHEx_OBProgram
                0x0000000000000000      0x2a8 build/stm32f1xx_hal_flash_ex.o
 .text.HAL_FLASHEx_OBGetConfig
                0x0000000000000000       0x28 build/stm32f1xx_hal_flash_ex.o
 .text.HAL_FLASHEx_OBGetUserData
                0x0000000000000000       0x1c build/stm32f1xx_hal_flash_ex.o
 .text          0x0000000000000000        0x0 build/stm32f1xx_hal_exti.o
 .data          0x0000000000000000        0x0 build/stm32f1xx_hal_exti.o
 .bss           0x0000000000000000        0x0 build/stm32f1xx_hal_exti.o
 .text.HAL_EXTI_SetConfigLine
                0x0000000000000000       0xa8 build/stm32f1xx_hal_exti.o
 .text.HAL_EXTI_GetConfigLine
                0x0000000000000000       0x94 build/stm32f1xx_hal_exti.o
 .text.HAL_EXTI_ClearConfigLine
                0x0000000000000000       0x70 build/stm32f1xx_hal_exti.o
 .text.HAL_EXTI_RegisterCallback
                0x0000000000000000        0xc build/stm32f1xx_hal_exti.o
 .text.HAL_EXTI_GetHandle
                0x0000000000000000        0xc build/stm32f1xx_hal_exti.o
 .text.HAL_EXTI_IRQHandler
                0x0000000000000000       0x28 build/stm32f1xx_hal_exti.o
 .text.HAL_EXTI_GetPending
                0x0000000000000000       0x1c build/stm32f1xx_hal_exti.o
 .text.HAL_EXTI_ClearPending
                0x0000000000000000       0x14 build/stm32f1xx_hal_exti.o
 .text.HAL_EXTI_GenerateSWI
                0x0000000000000000       0x14 build/stm32f1xx_hal_exti.o
 .debug_info    0x0000000000000000      0x633 build/stm32f1xx_hal_exti.o
 .debug_abbrev  0x0000000000000000      0x201 build/stm32f1xx_hal_exti.o
 .debug_loc     0x0000000000000000      0x5fd build/stm32f1xx_hal_exti.o
 .debug_aranges
                0x0000000000000000       0x60 build/stm32f1xx_hal_exti.o
 .debug_ranges  0x0000000000000000       0x50 build/stm32f1xx_hal_exti.o
 .debug_line    0x0000000000000000      0x365 build/stm32f1xx_hal_exti.o
 .debug_str     0x0000000000000000      0x488 build/stm32f1xx_hal_exti.o
 .comment       0x0000000000000000       0x80 build/stm32f1xx_hal_exti.o
 .debug_frame   0x0000000000000000      0x128 build/stm32f1xx_hal_exti.o
 .ARM.attributes
                0x0000000000000000       0x33 build/stm32f1xx_hal_exti.o
 .text          0x0000000000000000        0x0 build/stm32f1xx_ll_rcc.o
 .data          0x0000000000000000        0x0 build/stm32f1xx_ll_rcc.o
 .bss           0x0000000000000000        0x0 build/stm32f1xx_ll_rcc.o
 .text.LL_RCC_DeInit
                0x0000000000000000       0x60 build/stm32f1xx_ll_rcc.o
 .text.LL_RCC_GetUSBClockFreq
                0x0000000000000000       0x80 build/stm32f1xx_ll_rcc.o
 .text.LL_RCC_GetADCClockFreq
                0x0000000000000000       0x84 build/stm32f1xx_ll_rcc.o
 .text.RCC_GetSystemClockFreq
                0x0000000000000000       0x48 build/stm32f1xx_ll_rcc.o
 .text.RCC_GetHCLKClockFreq
                0x0000000000000000       0x18 build/stm32f1xx_ll_rcc.o
 .text.RCC_GetPCLK1ClockFreq
                0x0000000000000000       0x18 build/stm32f1xx_ll_rcc.o
 .text.RCC_GetPCLK2ClockFreq
                0x0000000000000000       0x18 build/stm32f1xx_ll_rcc.o
 .text.RCC_PLL_GetFreqDomain_SYS
                0x0000000000000000       0x38 build/stm32f1xx_ll_rcc.o
 .text          0x0000000000000000        0x0 build/stm32f1xx_ll_utils.o
 .data          0x0000000000000000        0x0 build/stm32f1xx_ll_utils.o
 .bss           0x0000000000000000        0x0 build/stm32f1xx_ll_utils.o
 .text.LL_Init1msTick
                0x0000000000000000       0x24 build/stm32f1xx_ll_utils.o
 .text.LL_mDelay
                0x0000000000000000       0x24 build/stm32f1xx_ll_utils.o
 .text.LL_SetSystemCoreClock
                0x0000000000000000        0xc build/stm32f1xx_ll_utils.o
 .text.LL_PLL_ConfigSystemClock_HSI
                0x0000000000000000      0x140 build/stm32f1xx_ll_utils.o
 .text.LL_PLL_ConfigSystemClock_HSE
                0x0000000000000000      0x154 build/stm32f1xx_ll_utils.o
 .debug_info    0x0000000000000000      0xd4c build/stm32f1xx_ll_utils.o
 .debug_abbrev  0x0000000000000000      0x2c1 build/stm32f1xx_ll_utils.o
 .debug_loc     0x0000000000000000      0x7f9 build/stm32f1xx_ll_utils.o
 .debug_aranges
                0x0000000000000000       0x40 build/stm32f1xx_ll_utils.o
 .debug_ranges  0x0000000000000000      0x338 build/stm32f1xx_ll_utils.o
 .debug_line    0x0000000000000000      0x4a2 build/stm32f1xx_ll_utils.o
 .debug_str     0x0000000000000000      0x68a build/stm32f1xx_ll_utils.o
 .comment       0x0000000000000000       0x80 build/stm32f1xx_ll_utils.o
 .debug_frame   0x0000000000000000       0xe0 build/stm32f1xx_ll_utils.o
 .ARM.attributes
                0x0000000000000000       0x33 build/stm32f1xx_ll_utils.o
 .text          0x0000000000000000        0x0 build/stm32f1xx_ll_exti.o
 .data          0x0000000000000000        0x0 build/stm32f1xx_ll_exti.o
 .bss           0x0000000000000000        0x0 build/stm32f1xx_ll_exti.o
 .text.LL_EXTI_DeInit
                0x0000000000000000       0x20 build/stm32f1xx_ll_exti.o
 .text.LL_EXTI_Init
                0x0000000000000000       0xbc build/stm32f1xx_ll_exti.o
 .text.LL_EXTI_StructInit
                0x0000000000000000       0x10 build/stm32f1xx_ll_exti.o
 .debug_info    0x0000000000000000      0x51f build/stm32f1xx_ll_exti.o
 .debug_abbrev  0x0000000000000000      0x1dd build/stm32f1xx_ll_exti.o
 .debug_loc     0x0000000000000000      0x176 build/stm32f1xx_ll_exti.o
 .debug_aranges
                0x0000000000000000       0x30 build/stm32f1xx_ll_exti.o
 .debug_ranges  0x0000000000000000       0xd0 build/stm32f1xx_ll_exti.o
 .debug_line    0x0000000000000000      0x2a8 build/stm32f1xx_ll_exti.o
 .debug_str     0x0000000000000000      0x421 build/stm32f1xx_ll_exti.o
 .comment       0x0000000000000000       0x80 build/stm32f1xx_ll_exti.o
 .debug_frame   0x0000000000000000       0x64 build/stm32f1xx_ll_exti.o
 .ARM.attributes
                0x0000000000000000       0x33 build/stm32f1xx_ll_exti.o
 .text          0x0000000000000000        0x0 build/stm32f1xx_hal_tim.o
 .data          0x0000000000000000        0x0 build/stm32f1xx_hal_tim.o
 .bss           0x0000000000000000        0x0 build/stm32f1xx_hal_tim.o
 .debug_info    0x0000000000000000      0x161 build/stm32f1xx_hal_tim.o
 .debug_abbrev  0x0000000000000000       0x8f build/stm32f1xx_hal_tim.o
 .debug_aranges
                0x0000000000000000       0x18 build/stm32f1xx_hal_tim.o
 .debug_line    0x0000000000000000      0x168 build/stm32f1xx_hal_tim.o
 .debug_str     0x0000000000000000      0x269 build/stm32f1xx_hal_tim.o
 .comment       0x0000000000000000       0x80 build/stm32f1xx_hal_tim.o
 .ARM.attributes
                0x0000000000000000       0x33 build/stm32f1xx_hal_tim.o
 .text          0x0000000000000000        0x0 build/stm32f1xx_hal_tim_ex.o
 .data          0x0000000000000000        0x0 build/stm32f1xx_hal_tim_ex.o
 .bss           0x0000000000000000        0x0 build/stm32f1xx_hal_tim_ex.o
 .debug_info    0x0000000000000000      0x161 build/stm32f1xx_hal_tim_ex.o
 .debug_abbrev  0x0000000000000000       0x8f build/stm32f1xx_hal_tim_ex.o
 .debug_aranges
                0x0000000000000000       0x18 build/stm32f1xx_hal_tim_ex.o
 .debug_line    0x0000000000000000      0x168 build/stm32f1xx_hal_tim_ex.o
 .debug_str     0x0000000000000000      0x26c build/stm32f1xx_hal_tim_ex.o
 .comment       0x0000000000000000       0x80 build/stm32f1xx_hal_tim_ex.o
 .ARM.attributes
                0x0000000000000000       0x33 build/stm32f1xx_hal_tim_ex.o
 .text          0x0000000000000000        0x0 build/stm32f1xx_ll_tim.o
 .data          0x0000000000000000        0x0 build/stm32f1xx_ll_tim.o
 .bss           0x0000000000000000        0x0 build/stm32f1xx_ll_tim.o
 .text.LL_TIM_DeInit
                0x0000000000000000       0x8c build/stm32f1xx_ll_tim.o
 .text.LL_TIM_StructInit
                0x0000000000000000       0x14 build/stm32f1xx_ll_tim.o
 .text.LL_TIM_OC_StructInit
                0x0000000000000000       0x14 build/stm32f1xx_ll_tim.o
 .text.LL_TIM_IC_StructInit
                0x0000000000000000       0x10 build/stm32f1xx_ll_tim.o
 .text.LL_TIM_IC_Init
                0x0000000000000000       0xf4 build/stm32f1xx_ll_tim.o
 .text.LL_TIM_ENCODER_StructInit
                0x0000000000000000       0x1c build/stm32f1xx_ll_tim.o
 .text.LL_TIM_ENCODER_Init
                0x0000000000000000       0x64 build/stm32f1xx_ll_tim.o
 .text.LL_TIM_HALLSENSOR_StructInit
                0x0000000000000000        0xc build/stm32f1xx_ll_tim.o
 .text.LL_TIM_HALLSENSOR_Init
                0x0000000000000000       0x58 build/stm32f1xx_ll_tim.o
 .text.LL_TIM_BDTR_StructInit
                0x0000000000000000       0x14 build/stm32f1xx_ll_tim.o
 .text          0x0000000000000000        0x0 build/stm32f1xx_ll_gpio.o
 .data          0x0000000000000000        0x0 build/stm32f1xx_ll_gpio.o
 .bss           0x0000000000000000        0x0 build/stm32f1xx_ll_gpio.o
 .text.LL_GPIO_DeInit
                0x0000000000000000       0xb0 build/stm32f1xx_ll_gpio.o
 .text.LL_GPIO_StructInit
                0x0000000000000000       0x1c build/stm32f1xx_ll_gpio.o
 .text          0x0000000000000000        0x0 build/stm32f1xx_ll_dma.o
 .data          0x0000000000000000        0x0 build/stm32f1xx_ll_dma.o
 .bss           0x0000000000000000        0x0 build/stm32f1xx_ll_dma.o
 .text.LL_DMA_DeInit
                0x0000000000000000      0x114 build/stm32f1xx_ll_dma.o
 .text.LL_DMA_Init
                0x0000000000000000       0x54 build/stm32f1xx_ll_dma.o
 .text.LL_DMA_StructInit
                0x0000000000000000       0x18 build/stm32f1xx_ll_dma.o
 .rodata.CHANNEL_OFFSET_TAB
                0x0000000000000000        0x7 build/stm32f1xx_ll_dma.o
 .debug_info    0x0000000000000000      0x6ca build/stm32f1xx_ll_dma.o
 .debug_abbrev  0x0000000000000000      0x203 build/stm32f1xx_ll_dma.o
 .debug_loc     0x0000000000000000      0x460 build/stm32f1xx_ll_dma.o
 .debug_aranges
                0x0000000000000000       0x30 build/stm32f1xx_ll_dma.o
 .debug_ranges  0x0000000000000000       0x80 build/stm32f1xx_ll_dma.o
 .debug_line    0x0000000000000000      0x34f build/stm32f1xx_ll_dma.o
 .debug_str     0x0000000000000000      0x4e9 build/stm32f1xx_ll_dma.o
 .comment       0x0000000000000000       0x80 build/stm32f1xx_ll_dma.o
 .debug_frame   0x0000000000000000       0x8c build/stm32f1xx_ll_dma.o
 .ARM.attributes
                0x0000000000000000       0x33 build/stm32f1xx_ll_dma.o
 .text          0x0000000000000000        0x0 build/stm32f1xx_ll_usart.o
 .data          0x0000000000000000        0x0 build/stm32f1xx_ll_usart.o
 .bss           0x0000000000000000        0x0 build/stm32f1xx_ll_usart.o
 .text.LL_USART_DeInit
                0x0000000000000000       0x6c build/stm32f1xx_ll_usart.o
 .text.LL_USART_StructInit
                0x0000000000000000       0x18 build/stm32f1xx_ll_usart.o
 .text.LL_USART_ClockInit
                0x0000000000000000       0x40 build/stm32f1xx_ll_usart.o
 .text.LL_USART_ClockStructInit
                0x0000000000000000        0xc build/stm32f1xx_ll_usart.o
 .text          0x0000000000000000        0x0 build/system_stm32f1xx.o
 .data          0x0000000000000000        0x0 build/system_stm32f1xx.o
 .bss           0x0000000000000000        0x0 build/system_stm32f1xx.o
 .text.SystemCoreClockUpdate
                0x0000000000000000       0x5c build/system_stm32f1xx.o
 .text          0x0000000000000000        0x0 build/inoutputs.o
 .data          0x0000000000000000        0x0 build/inoutputs.o
 .bss           0x0000000000000000        0x0 build/inoutputs.o
 .text.outputs_digital_reset
                0x0000000000000000       0x30 build/inoutputs.o
 .text.outputs_digital_set
                0x0000000000000000       0x30 build/inoutputs.o
 .text.outputs_get_digital_state
                0x0000000000000000       0x30 build/inoutputs.o
 .text.outputs_set_digital
                0x0000000000000000       0x28 build/inoutputs.o
 .text.outputs_analog_set
                0x0000000000000000        0x4 build/inoutputs.o
 .text.outputs_set_analog
                0x0000000000000000        0x4 build/inoutputs.o
 .text.outputs_compute_pwm_value
                0x0000000000000000        0x4 build/inoutputs.o
 .text.inputs_digital_init
                0x0000000000000000        0x4 build/inoutputs.o
 .text          0x0000000000000000        0x0 build/lcd-i2c.o
 .data          0x0000000000000000        0x0 build/lcd-i2c.o
 .bss           0x0000000000000000        0x0 build/lcd-i2c.o
 .text.I2C_Scan
                0x0000000000000000       0x78 build/lcd-i2c.o
 .text.LCD_SendInternal
                0x0000000000000000       0x70 build/lcd-i2c.o
 .text.LCD_SendCommand
                0x0000000000000000       0x64 build/lcd-i2c.o
 .text.LCD_SendData
                0x0000000000000000       0x64 build/lcd-i2c.o
 .text.LCD_Init
                0x0000000000000000       0xe0 build/lcd-i2c.o
 .text.LCD_SendString
                0x0000000000000000       0x78 build/lcd-i2c.o
 .bss.pHI2C     0x0000000000000000        0x4 build/lcd-i2c.o
 .rodata.I2C_Scan.str1.4
                0x0000000000000000       0x26 build/lcd-i2c.o
 .debug_info    0x0000000000000000     0x1d97 build/lcd-i2c.o
 .debug_abbrev  0x0000000000000000      0x392 build/lcd-i2c.o
 .debug_loc     0x0000000000000000      0x42d build/lcd-i2c.o
 .debug_aranges
                0x0000000000000000       0x48 build/lcd-i2c.o
 .debug_ranges  0x0000000000000000       0x50 build/lcd-i2c.o
 .debug_line    0x0000000000000000      0x433 build/lcd-i2c.o
 .debug_str     0x0000000000000000     0x109d build/lcd-i2c.o
 .comment       0x0000000000000000       0x80 build/lcd-i2c.o
 .debug_frame   0x0000000000000000      0x10c build/lcd-i2c.o
 .ARM.attributes
                0x0000000000000000       0x33 build/lcd-i2c.o
 .text          0x0000000000000000        0x0 build/stm32utilities.o
 .data          0x0000000000000000        0x0 build/stm32utilities.o
 .bss           0x0000000000000000        0x0 build/stm32utilities.o
 .text.ByteToBin
                0x0000000000000000       0x54 build/stm32utilities.o
 .text.Int16ToBin
                0x0000000000000000       0xa4 build/stm32utilities.o
 .text.uart_sendstr
                0x0000000000000000       0x20 build/stm32utilities.o
 .text.spi_limits_init
                0x0000000000000000        0x4 build/stm32utilities.o
 .data.pHello   0x0000000000000000        0x4 build/stm32utilities.o
 .rodata.str1.4
                0x0000000000000000        0xb build/stm32utilities.o
 .text          0x0000000000000000        0x0 build/coolant_control.o
 .data          0x0000000000000000        0x0 build/coolant_control.o
 .bss           0x0000000000000000        0x0 build/coolant_control.o
 .text          0x0000000000000000        0x0 build/eeprom.o
 .data          0x0000000000000000        0x0 build/eeprom.o
 .bss           0x0000000000000000        0x0 build/eeprom.o
 .text.eeprom_flush
                0x0000000000000000       0x80 build/eeprom.o
 .text          0x0000000000000000        0x0 build/gcode.o
 .data          0x0000000000000000        0x0 build/gcode.o
 .bss           0x0000000000000000        0x0 build/gcode.o
 .text          0x0000000000000000        0x0 build/jog.o
 .data          0x0000000000000000        0x0 build/jog.o
 .bss           0x0000000000000000        0x0 build/jog.o
 .text          0x0000000000000000        0x0 build/limits.o
 .data          0x0000000000000000        0x0 build/limits.o
 .bss           0x0000000000000000        0x0 build/limits.o
 .text.limits_enable
                0x0000000000000000        0x4 build/limits.o
 .text          0x0000000000000000        0x0 build/motion_control.o
 .data          0x0000000000000000        0x0 build/motion_control.o
 .bss           0x0000000000000000        0x0 build/motion_control.o
 .text          0x0000000000000000        0x0 build/nuts_bolts.o
 .data          0x0000000000000000        0x0 build/nuts_bolts.o
 .bss           0x0000000000000000        0x0 build/nuts_bolts.o
 .text._delay_ms
                0x0000000000000000       0x24 build/nuts_bolts.o
 .text.delay_us
                0x0000000000000000       0x6c build/nuts_bolts.o
 .text          0x0000000000000000        0x0 build/planner.o
 .data          0x0000000000000000        0x0 build/planner.o
 .bss           0x0000000000000000        0x0 build/planner.o
 .text.plan_next_block_index
                0x0000000000000000        0xc build/planner.o
 .text.plan_reset_buffer
                0x0000000000000000       0x2c build/planner.o
 .text.plan_get_block_buffer_count
                0x0000000000000000       0x1c build/planner.o
 .text          0x0000000000000000        0x0 build/print.o
 .data          0x0000000000000000        0x0 build/print.o
 .bss           0x0000000000000000        0x0 build/print.o
 .text.print_uint8_base2_ndigit
                0x0000000000000000       0x4c build/print.o
 .text.print_uint32_base10
                0x0000000000000000       0x5c build/print.o
 .text.printInteger
                0x0000000000000000       0xb8 build/print.o
 .text          0x0000000000000000        0x0 build/probe.o
 .data          0x0000000000000000        0x0 build/probe.o
 .bss           0x0000000000000000        0x0 build/probe.o
 .text          0x0000000000000000        0x0 build/protocol.o
 .data          0x0000000000000000        0x0 build/protocol.o
 .bss           0x0000000000000000        0x0 build/protocol.o
 .text          0x0000000000000000        0x0 build/report.o
 .data          0x0000000000000000        0x0 build/report.o
 .bss           0x0000000000000000        0x0 build/report.o
 .text.report_util_setting_prefix
                0x0000000000000000       0x1c build/report.o
 .text.report_echo_line_received
                0x0000000000000000       0x28 build/report.o
 .rodata.report_echo_line_received.str1.4
                0x0000000000000000        0x8 build/report.o
 .text          0x0000000000000000        0x0 build/serial.o
 .data          0x0000000000000000        0x0 build/serial.o
 .bss           0x0000000000000000        0x0 build/serial.o
 .text.serial_get_rx_buffer_count
                0x0000000000000000       0x20 build/serial.o
 .text.serial_get_tx_buffer_count
                0x0000000000000000       0x20 build/serial.o
 .bss.serial_tx_buffer_head
                0x0000000000000000        0x1 build/serial.o
 .bss.serial_tx_buffer_tail
                0x0000000000000000        0x1 build/serial.o
 .text          0x0000000000000000        0x0 build/settings.o
 .data          0x0000000000000000        0x0 build/settings.o
 .bss           0x0000000000000000        0x0 build/settings.o
 .text.write_global_settings
                0x0000000000000000       0x1c build/settings.o
 .text.read_global_settings
                0x0000000000000000       0x28 build/settings.o
 .text          0x0000000000000000        0x0 build/spindle_control.o
 .data          0x0000000000000000        0x0 build/spindle_control.o
 .bss           0x0000000000000000        0x0 build/spindle_control.o
 .text          0x0000000000000000        0x0 build/stepper.o
 .data          0x0000000000000000        0x0 build/stepper.o
 .bss           0x0000000000000000        0x0 build/stepper.o
 .text          0x0000000000000000        0x0 build/system.o
 .data          0x0000000000000000        0x0 build/system.o
 .bss           0x0000000000000000        0x0 build/system.o
 .text.system_convert_axis_steps_to_mpos
                0x0000000000000000       0x1c build/system.o
 .text          0x0000000000000000       0x14 build/startup_stm32f103xb.o
 .data          0x0000000000000000        0x0 build/startup_stm32f103xb.o
 .bss           0x0000000000000000        0x0 build/startup_stm32f103xb.o
 .text          0x0000000000000000        0x0 /usr/local/Cellar/gcc-arm-none-eabi/20180627/bin/../lib/gcc/arm-none-eabi/7.3.1/../../../../arm-none-eabi/lib/thumb/v7-m/libc_nano.a(lib_a-exit.o)
 .data          0x0000000000000000        0x0 /usr/local/Cellar/gcc-arm-none-eabi/20180627/bin/../lib/gcc/arm-none-eabi/7.3.1/../../../../arm-none-eabi/lib/thumb/v7-m/libc_nano.a(lib_a-exit.o)
 .bss           0x0000000000000000        0x0 /usr/local/Cellar/gcc-arm-none-eabi/20180627/bin/../lib/gcc/arm-none-eabi/7.3.1/../../../../arm-none-eabi/lib/thumb/v7-m/libc_nano.a(lib_a-exit.o)
 .text.exit     0x0000000000000000       0x28 /usr/local/Cellar/gcc-arm-none-eabi/20180627/bin/../lib/gcc/arm-none-eabi/7.3.1/../../../../arm-none-eabi/lib/thumb/v7-m/libc_nano.a(lib_a-exit.o)
 .debug_frame   0x0000000000000000       0x28 /usr/local/Cellar/gcc-arm-none-eabi/20180627/bin/../lib/gcc/arm-none-eabi/7.3.1/../../../../arm-none-eabi/lib/thumb/v7-m/libc_nano.a(lib_a-exit.o)
 .ARM.attributes
                0x0000000000000000       0x2d /usr/local/Cellar/gcc-arm-none-eabi/20180627/bin/../lib/gcc/arm-none-eabi/7.3.1/../../../../arm-none-eabi/lib/thumb/v7-m/libc_nano.a(lib_a-exit.o)
 .text          0x0000000000000000        0x0 /usr/local/Cellar/gcc-arm-none-eabi/20180627/bin/../lib/gcc/arm-none-eabi/7.3.1/../../../../arm-none-eabi/lib/thumb/v7-m/libc_nano.a(lib_a-impure.o)
 .data          0x0000000000000000        0x0 /usr/local/Cellar/gcc-arm-none-eabi/20180627/bin/../lib/gcc/arm-none-eabi/7.3.1/../../../../arm-none-eabi/lib/thumb/v7-m/libc_nano.a(lib_a-impure.o)
 .bss           0x0000000000000000        0x0 /usr/local/Cellar/gcc-arm-none-eabi/20180627/bin/../lib/gcc/arm-none-eabi/7.3.1/../../../../arm-none-eabi/lib/thumb/v7-m/libc_nano.a(lib_a-impure.o)
 .rodata._global_impure_ptr
                0x0000000000000000        0x4 /usr/local/Cellar/gcc-arm-none-eabi/20180627/bin/../lib/gcc/arm-none-eabi/7.3.1/../../../../arm-none-eabi/lib/thumb/v7-m/libc_nano.a(lib_a-impure.o)
 .text          0x0000000000000000        0x0 /usr/local/Cellar/gcc-arm-none-eabi/20180627/bin/../lib/gcc/arm-none-eabi/7.3.1/../../../../arm-none-eabi/lib/thumb/v7-m/libc_nano.a(lib_a-init.o)
 .data          0x0000000000000000        0x0 /usr/local/Cellar/gcc-arm-none-eabi/20180627/bin/../lib/gcc/arm-none-eabi/7.3.1/../../../../arm-none-eabi/lib/thumb/v7-m/libc_nano.a(lib_a-init.o)
 .bss           0x0000000000000000        0x0 /usr/local/Cellar/gcc-arm-none-eabi/20180627/bin/../lib/gcc/arm-none-eabi/7.3.1/../../../../arm-none-eabi/lib/thumb/v7-m/libc_nano.a(lib_a-init.o)
 .text          0x0000000000000000        0x0 /usr/local/Cellar/gcc-arm-none-eabi/20180627/bin/../lib/gcc/arm-none-eabi/7.3.1/../../../../arm-none-eabi/lib/thumb/v7-m/libc_nano.a(lib_a-memcmp.o)
 .data          0x0000000000000000        0x0 /usr/local/Cellar/gcc-arm-none-eabi/20180627/bin/../lib/gcc/arm-none-eabi/7.3.1/../../../../arm-none-eabi/lib/thumb/v7-m/libc_nano.a(lib_a-memcmp.o)
 .bss           0x0000000000000000        0x0 /usr/local/Cellar/gcc-arm-none-eabi/20180627/bin/../lib/gcc/arm-none-eabi/7.3.1/../../../../arm-none-eabi/lib/thumb/v7-m/libc_nano.a(lib_a-memcmp.o)
 .text          0x0000000000000000        0x0 /usr/local/Cellar/gcc-arm-none-eabi/20180627/bin/../lib/gcc/arm-none-eabi/7.3.1/../../../../arm-none-eabi/lib/thumb/v7-m/libc_nano.a(lib_a-memset.o)
 .data          0x0000000000000000        0x0 /usr/local/Cellar/gcc-arm-none-eabi/20180627/bin/../lib/gcc/arm-none-eabi/7.3.1/../../../../arm-none-eabi/lib/thumb/v7-m/libc_nano.a(lib_a-memset.o)
 .bss           0x0000000000000000        0x0 /usr/local/Cellar/gcc-arm-none-eabi/20180627/bin/../lib/gcc/arm-none-eabi/7.3.1/../../../../arm-none-eabi/lib/thumb/v7-m/libc_nano.a(lib_a-memset.o)
 .text          0x0000000000000000        0x0 /usr/local/Cellar/gcc-arm-none-eabi/20180627/bin/../lib/gcc/arm-none-eabi/7.3.1/../../../../arm-none-eabi/lib/thumb/v7-m/libc_nano.a(lib_a-sprintf.o)
 .data          0x0000000000000000        0x0 /usr/local/Cellar/gcc-arm-none-eabi/20180627/bin/../lib/gcc/arm-none-eabi/7.3.1/../../../../arm-none-eabi/lib/thumb/v7-m/libc_nano.a(lib_a-sprintf.o)
 .bss           0x0000000000000000        0x0 /usr/local/Cellar/gcc-arm-none-eabi/20180627/bin/../lib/gcc/arm-none-eabi/7.3.1/../../../../arm-none-eabi/lib/thumb/v7-m/libc_nano.a(lib_a-sprintf.o)
 .text._sprintf_r
                0x0000000000000000       0x38 /usr/local/Cellar/gcc-arm-none-eabi/20180627/bin/../lib/gcc/arm-none-eabi/7.3.1/../../../../arm-none-eabi/lib/thumb/v7-m/libc_nano.a(lib_a-sprintf.o)
 .text          0x0000000000000000        0x0 /usr/local/Cellar/gcc-arm-none-eabi/20180627/bin/../lib/gcc/arm-none-eabi/7.3.1/../../../../arm-none-eabi/lib/thumb/v7-m/libc_nano.a(lib_a-nano-svfprintf.o)
 .data          0x0000000000000000        0x0 /usr/local/Cellar/gcc-arm-none-eabi/20180627/bin/../lib/gcc/arm-none-eabi/7.3.1/../../../../arm-none-eabi/lib/thumb/v7-m/libc_nano.a(lib_a-nano-svfprintf.o)
 .bss           0x0000000000000000        0x0 /usr/local/Cellar/gcc-arm-none-eabi/20180627/bin/../lib/gcc/arm-none-eabi/7.3.1/../../../../arm-none-eabi/lib/thumb/v7-m/libc_nano.a(lib_a-nano-svfprintf.o)
 .text.__ssprint_r
                0x0000000000000000       0xf0 /usr/local/Cellar/gcc-arm-none-eabi/20180627/bin/../lib/gcc/arm-none-eabi/7.3.1/../../../../arm-none-eabi/lib/thumb/v7-m/libc_nano.a(lib_a-nano-svfprintf.o)
 .text          0x0000000000000000        0x0 /usr/local/Cellar/gcc-arm-none-eabi/20180627/bin/../lib/gcc/arm-none-eabi/7.3.1/../../../../arm-none-eabi/lib/thumb/v7-m/libc_nano.a(lib_a-nano-vfprintf_i.o)
 .data          0x0000000000000000        0x0 /usr/local/Cellar/gcc-arm-none-eabi/20180627/bin/../lib/gcc/arm-none-eabi/7.3.1/../../../../arm-none-eabi/lib/thumb/v7-m/libc_nano.a(lib_a-nano-vfprintf_i.o)
 .bss           0x0000000000000000        0x0 /usr/local/Cellar/gcc-arm-none-eabi/20180627/bin/../lib/gcc/arm-none-eabi/7.3.1/../../../../arm-none-eabi/lib/thumb/v7-m/libc_nano.a(lib_a-nano-vfprintf_i.o)
 .text          0x0000000000000000        0x0 /usr/local/Cellar/gcc-arm-none-eabi/20180627/bin/../lib/gcc/arm-none-eabi/7.3.1/../../../../arm-none-eabi/lib/thumb/v7-m/libc_nano.a(lib_a-memchr-stub.o)
 .data          0x0000000000000000        0x0 /usr/local/Cellar/gcc-arm-none-eabi/20180627/bin/../lib/gcc/arm-none-eabi/7.3.1/../../../../arm-none-eabi/lib/thumb/v7-m/libc_nano.a(lib_a-memchr-stub.o)
 .bss           0x0000000000000000        0x0 /usr/local/Cellar/gcc-arm-none-eabi/20180627/bin/../lib/gcc/arm-none-eabi/7.3.1/../../../../arm-none-eabi/lib/thumb/v7-m/libc_nano.a(lib_a-memchr-stub.o)
 .text          0x0000000000000000        0x0 /usr/local/Cellar/gcc-arm-none-eabi/20180627/bin/../lib/gcc/arm-none-eabi/7.3.1/../../../../arm-none-eabi/lib/thumb/v7-m/libc_nano.a(lib_a-memcpy-stub.o)
 .data          0x0000000000000000        0x0 /usr/local/Cellar/gcc-arm-none-eabi/20180627/bin/../lib/gcc/arm-none-eabi/7.3.1/../../../../arm-none-eabi/lib/thumb/v7-m/libc_nano.a(lib_a-memcpy-stub.o)
 .bss           0x0000000000000000        0x0 /usr/local/Cellar/gcc-arm-none-eabi/20180627/bin/../lib/gcc/arm-none-eabi/7.3.1/../../../../arm-none-eabi/lib/thumb/v7-m/libc_nano.a(lib_a-memcpy-stub.o)
 .text          0x0000000000000000        0x0 /usr/local/Cellar/gcc-arm-none-eabi/20180627/bin/../lib/gcc/arm-none-eabi/7.3.1/../../../../arm-none-eabi/lib/thumb/v7-m/libc_nano.a(lib_a-memmove.o)
 .data          0x0000000000000000        0x0 /usr/local/Cellar/gcc-arm-none-eabi/20180627/bin/../lib/gcc/arm-none-eabi/7.3.1/../../../../arm-none-eabi/lib/thumb/v7-m/libc_nano.a(lib_a-memmove.o)
 .bss           0x0000000000000000        0x0 /usr/local/Cellar/gcc-arm-none-eabi/20180627/bin/../lib/gcc/arm-none-eabi/7.3.1/../../../../arm-none-eabi/lib/thumb/v7-m/libc_nano.a(lib_a-memmove.o)
 .text          0x0000000000000000        0x0 /usr/local/Cellar/gcc-arm-none-eabi/20180627/bin/../lib/gcc/arm-none-eabi/7.3.1/../../../../arm-none-eabi/lib/thumb/v7-m/libc_nano.a(lib_a-nano-freer.o)
 .data          0x0000000000000000        0x0 /usr/local/Cellar/gcc-arm-none-eabi/20180627/bin/../lib/gcc/arm-none-eabi/7.3.1/../../../../arm-none-eabi/lib/thumb/v7-m/libc_nano.a(lib_a-nano-freer.o)
 .bss           0x0000000000000000        0x0 /usr/local/Cellar/gcc-arm-none-eabi/20180627/bin/../lib/gcc/arm-none-eabi/7.3.1/../../../../arm-none-eabi/lib/thumb/v7-m/libc_nano.a(lib_a-nano-freer.o)
 .text          0x0000000000000000        0x0 /usr/local/Cellar/gcc-arm-none-eabi/20180627/bin/../lib/gcc/arm-none-eabi/7.3.1/../../../../arm-none-eabi/lib/thumb/v7-m/libc_nano.a(lib_a-nano-mallocr.o)
 .data          0x0000000000000000        0x0 /usr/local/Cellar/gcc-arm-none-eabi/20180627/bin/../lib/gcc/arm-none-eabi/7.3.1/../../../../arm-none-eabi/lib/thumb/v7-m/libc_nano.a(lib_a-nano-mallocr.o)
 .bss           0x0000000000000000        0x0 /usr/local/Cellar/gcc-arm-none-eabi/20180627/bin/../lib/gcc/arm-none-eabi/7.3.1/../../../../arm-none-eabi/lib/thumb/v7-m/libc_nano.a(lib_a-nano-mallocr.o)
 .text          0x0000000000000000        0x0 /usr/local/Cellar/gcc-arm-none-eabi/20180627/bin/../lib/gcc/arm-none-eabi/7.3.1/../../../../arm-none-eabi/lib/thumb/v7-m/libc_nano.a(lib_a-nano-reallocr.o)
 .data          0x0000000000000000        0x0 /usr/local/Cellar/gcc-arm-none-eabi/20180627/bin/../lib/gcc/arm-none-eabi/7.3.1/../../../../arm-none-eabi/lib/thumb/v7-m/libc_nano.a(lib_a-nano-reallocr.o)
 .bss           0x0000000000000000        0x0 /usr/local/Cellar/gcc-arm-none-eabi/20180627/bin/../lib/gcc/arm-none-eabi/7.3.1/../../../../arm-none-eabi/lib/thumb/v7-m/libc_nano.a(lib_a-nano-reallocr.o)
 .text          0x0000000000000000        0x0 /usr/local/Cellar/gcc-arm-none-eabi/20180627/bin/../lib/gcc/arm-none-eabi/7.3.1/../../../../arm-none-eabi/lib/thumb/v7-m/libc_nano.a(lib_a-sbrkr.o)
 .data          0x0000000000000000        0x0 /usr/local/Cellar/gcc-arm-none-eabi/20180627/bin/../lib/gcc/arm-none-eabi/7.3.1/../../../../arm-none-eabi/lib/thumb/v7-m/libc_nano.a(lib_a-sbrkr.o)
 .bss           0x0000000000000000        0x0 /usr/local/Cellar/gcc-arm-none-eabi/20180627/bin/../lib/gcc/arm-none-eabi/7.3.1/../../../../arm-none-eabi/lib/thumb/v7-m/libc_nano.a(lib_a-sbrkr.o)
 .text          0x0000000000000000        0x0 /usr/local/Cellar/gcc-arm-none-eabi/20180627/bin/../lib/gcc/arm-none-eabi/7.3.1/../../../../arm-none-eabi/lib/thumb/v7-m/libc_nano.a(lib_a-mlock.o)
 .data          0x0000000000000000        0x0 /usr/local/Cellar/gcc-arm-none-eabi/20180627/bin/../lib/gcc/arm-none-eabi/7.3.1/../../../../arm-none-eabi/lib/thumb/v7-m/libc_nano.a(lib_a-mlock.o)
 .bss           0x0000000000000000        0x0 /usr/local/Cellar/gcc-arm-none-eabi/20180627/bin/../lib/gcc/arm-none-eabi/7.3.1/../../../../arm-none-eabi/lib/thumb/v7-m/libc_nano.a(lib_a-mlock.o)
 .text          0x0000000000000000        0x0 /usr/local/Cellar/gcc-arm-none-eabi/20180627/bin/../lib/gcc/arm-none-eabi/7.3.1/../../../../arm-none-eabi/lib/thumb/v7-m/libc_nano.a(lib_a-nano-msizer.o)
 .data          0x0000000000000000        0x0 /usr/local/Cellar/gcc-arm-none-eabi/20180627/bin/../lib/gcc/arm-none-eabi/7.3.1/../../../../arm-none-eabi/lib/thumb/v7-m/libc_nano.a(lib_a-nano-msizer.o)
 .bss           0x0000000000000000        0x0 /usr/local/Cellar/gcc-arm-none-eabi/20180627/bin/../lib/gcc/arm-none-eabi/7.3.1/../../../../arm-none-eabi/lib/thumb/v7-m/libc_nano.a(lib_a-nano-msizer.o)
 .text          0x0000000000000000        0x0 /usr/local/Cellar/gcc-arm-none-eabi/20180627/bin/../lib/gcc/arm-none-eabi/7.3.1/../../../../arm-none-eabi/lib/thumb/v7-m/libc_nano.a(lib_a-reent.o)
 .data          0x0000000000000000        0x0 /usr/local/Cellar/gcc-arm-none-eabi/20180627/bin/../lib/gcc/arm-none-eabi/7.3.1/../../../../arm-none-eabi/lib/thumb/v7-m/libc_nano.a(lib_a-reent.o)
 .bss           0x0000000000000000        0x0 /usr/local/Cellar/gcc-arm-none-eabi/20180627/bin/../lib/gcc/arm-none-eabi/7.3.1/../../../../arm-none-eabi/lib/thumb/v7-m/libc_nano.a(lib_a-reent.o)
 .text.cleanup_glue
                0x0000000000000000       0x1a /usr/local/Cellar/gcc-arm-none-eabi/20180627/bin/../lib/gcc/arm-none-eabi/7.3.1/../../../../arm-none-eabi/lib/thumb/v7-m/libc_nano.a(lib_a-reent.o)
 .text._reclaim_reent
                0x0000000000000000       0xb8 /usr/local/Cellar/gcc-arm-none-eabi/20180627/bin/../lib/gcc/arm-none-eabi/7.3.1/../../../../arm-none-eabi/lib/thumb/v7-m/libc_nano.a(lib_a-reent.o)
 .text          0x0000000000000000        0x0 /usr/local/Cellar/gcc-arm-none-eabi/20180627/bin/../lib/gcc/arm-none-eabi/7.3.1/../../../../arm-none-eabi/lib/thumb/v7-m/libm.a(lib_a-s_ceil.o)
 .data          0x0000000000000000        0x0 /usr/local/Cellar/gcc-arm-none-eabi/20180627/bin/../lib/gcc/arm-none-eabi/7.3.1/../../../../arm-none-eabi/lib/thumb/v7-m/libm.a(lib_a-s_ceil.o)
 .bss           0x0000000000000000        0x0 /usr/local/Cellar/gcc-arm-none-eabi/20180627/bin/../lib/gcc/arm-none-eabi/7.3.1/../../../../arm-none-eabi/lib/thumb/v7-m/libm.a(lib_a-s_ceil.o)
 .text          0x0000000000000000        0x0 /usr/local/Cellar/gcc-arm-none-eabi/20180627/bin/../lib/gcc/arm-none-eabi/7.3.1/../../../../arm-none-eabi/lib/thumb/v7-m/libm.a(lib_a-s_floor.o)
 .data          0x0000000000000000        0x0 /usr/local/Cellar/gcc-arm-none-eabi/20180627/bin/../lib/gcc/arm-none-eabi/7.3.1/../../../../arm-none-eabi/lib/thumb/v7-m/libm.a(lib_a-s_floor.o)
 .bss           0x0000000000000000        0x0 /usr/local/Cellar/gcc-arm-none-eabi/20180627/bin/../lib/gcc/arm-none-eabi/7.3.1/../../../../arm-none-eabi/lib/thumb/v7-m/libm.a(lib_a-s_floor.o)
 .text          0x0000000000000000        0x0 /usr/local/Cellar/gcc-arm-none-eabi/20180627/bin/../lib/gcc/arm-none-eabi/7.3.1/../../../../arm-none-eabi/lib/thumb/v7-m/libm.a(lib_a-s_lround.o)
 .data          0x0000000000000000        0x0 /usr/local/Cellar/gcc-arm-none-eabi/20180627/bin/../lib/gcc/arm-none-eabi/7.3.1/../../../../arm-none-eabi/lib/thumb/v7-m/libm.a(lib_a-s_lround.o)
 .bss           0x0000000000000000        0x0 /usr/local/Cellar/gcc-arm-none-eabi/20180627/bin/../lib/gcc/arm-none-eabi/7.3.1/../../../../arm-none-eabi/lib/thumb/v7-m/libm.a(lib_a-s_lround.o)
 .text          0x0000000000000000        0x0 /usr/local/Cellar/gcc-arm-none-eabi/20180627/bin/../lib/gcc/arm-none-eabi/7.3.1/../../../../arm-none-eabi/lib/thumb/v7-m/libm.a(lib_a-s_round.o)
 .data          0x0000000000000000        0x0 /usr/local/Cellar/gcc-arm-none-eabi/20180627/bin/../lib/gcc/arm-none-eabi/7.3.1/../../../../arm-none-eabi/lib/thumb/v7-m/libm.a(lib_a-s_round.o)
 .bss           0x0000000000000000        0x0 /usr/local/Cellar/gcc-arm-none-eabi/20180627/bin/../lib/gcc/arm-none-eabi/7.3.1/../../../../arm-none-eabi/lib/thumb/v7-m/libm.a(lib_a-s_round.o)
 .text          0x0000000000000000        0x0 /usr/local/Cellar/gcc-arm-none-eabi/20180627/bin/../lib/gcc/arm-none-eabi/7.3.1/../../../../arm-none-eabi/lib/thumb/v7-m/libm.a(lib_a-s_trunc.o)
 .data          0x0000000000000000        0x0 /usr/local/Cellar/gcc-arm-none-eabi/20180627/bin/../lib/gcc/arm-none-eabi/7.3.1/../../../../arm-none-eabi/lib/thumb/v7-m/libm.a(lib_a-s_trunc.o)
 .bss           0x0000000000000000        0x0 /usr/local/Cellar/gcc-arm-none-eabi/20180627/bin/../lib/gcc/arm-none-eabi/7.3.1/../../../../arm-none-eabi/lib/thumb/v7-m/libm.a(lib_a-s_trunc.o)
 .text          0x0000000000000000        0x0 /usr/local/Cellar/gcc-arm-none-eabi/20180627/bin/../lib/gcc/arm-none-eabi/7.3.1/../../../../arm-none-eabi/lib/thumb/v7-m/libm.a(lib_a-sf_ceil.o)
 .data          0x0000000000000000        0x0 /usr/local/Cellar/gcc-arm-none-eabi/20180627/bin/../lib/gcc/arm-none-eabi/7.3.1/../../../../arm-none-eabi/lib/thumb/v7-m/libm.a(lib_a-sf_ceil.o)
 .bss           0x0000000000000000        0x0 /usr/local/Cellar/gcc-arm-none-eabi/20180627/bin/../lib/gcc/arm-none-eabi/7.3.1/../../../../arm-none-eabi/lib/thumb/v7-m/libm.a(lib_a-sf_ceil.o)
 .text          0x0000000000000000        0x0 /usr/local/Cellar/gcc-arm-none-eabi/20180627/bin/../lib/gcc/arm-none-eabi/7.3.1/../../../../arm-none-eabi/lib/thumb/v7-m/libm.a(lib_a-sf_cos.o)
 .data          0x0000000000000000        0x0 /usr/local/Cellar/gcc-arm-none-eabi/20180627/bin/../lib/gcc/arm-none-eabi/7.3.1/../../../../arm-none-eabi/lib/thumb/v7-m/libm.a(lib_a-sf_cos.o)
 .bss           0x0000000000000000        0x0 /usr/local/Cellar/gcc-arm-none-eabi/20180627/bin/../lib/gcc/arm-none-eabi/7.3.1/../../../../arm-none-eabi/lib/thumb/v7-m/libm.a(lib_a-sf_cos.o)
 .text          0x0000000000000000        0x0 /usr/local/Cellar/gcc-arm-none-eabi/20180627/bin/../lib/gcc/arm-none-eabi/7.3.1/../../../../arm-none-eabi/lib/thumb/v7-m/libm.a(lib_a-sf_sin.o)
 .data          0x0000000000000000        0x0 /usr/local/Cellar/gcc-arm-none-eabi/20180627/bin/../lib/gcc/arm-none-eabi/7.3.1/../../../../arm-none-eabi/lib/thumb/v7-m/libm.a(lib_a-sf_sin.o)
 .bss           0x0000000000000000        0x0 /usr/local/Cellar/gcc-arm-none-eabi/20180627/bin/../lib/gcc/arm-none-eabi/7.3.1/../../../../arm-none-eabi/lib/thumb/v7-m/libm.a(lib_a-sf_sin.o)
 .text          0x0000000000000000        0x0 /usr/local/Cellar/gcc-arm-none-eabi/20180627/bin/../lib/gcc/arm-none-eabi/7.3.1/../../../../arm-none-eabi/lib/thumb/v7-m/libm.a(lib_a-w_sqrt.o)
 .data          0x0000000000000000        0x0 /usr/local/Cellar/gcc-arm-none-eabi/20180627/bin/../lib/gcc/arm-none-eabi/7.3.1/../../../../arm-none-eabi/lib/thumb/v7-m/libm.a(lib_a-w_sqrt.o)
 .bss           0x0000000000000000        0x0 /usr/local/Cellar/gcc-arm-none-eabi/20180627/bin/../lib/gcc/arm-none-eabi/7.3.1/../../../../arm-none-eabi/lib/thumb/v7-m/libm.a(lib_a-w_sqrt.o)
 .text          0x0000000000000000        0x0 /usr/local/Cellar/gcc-arm-none-eabi/20180627/bin/../lib/gcc/arm-none-eabi/7.3.1/../../../../arm-none-eabi/lib/thumb/v7-m/libm.a(lib_a-wf_atan2.o)
 .data          0x0000000000000000        0x0 /usr/local/Cellar/gcc-arm-none-eabi/20180627/bin/../lib/gcc/arm-none-eabi/7.3.1/../../../../arm-none-eabi/lib/thumb/v7-m/libm.a(lib_a-wf_atan2.o)
 .bss           0x0000000000000000        0x0 /usr/local/Cellar/gcc-arm-none-eabi/20180627/bin/../lib/gcc/arm-none-eabi/7.3.1/../../../../arm-none-eabi/lib/thumb/v7-m/libm.a(lib_a-wf_atan2.o)
 .text          0x0000000000000000        0x0 /usr/local/Cellar/gcc-arm-none-eabi/20180627/bin/../lib/gcc/arm-none-eabi/7.3.1/../../../../arm-none-eabi/lib/thumb/v7-m/libm.a(lib_a-wf_sqrt.o)
 .data          0x0000000000000000        0x0 /usr/local/Cellar/gcc-arm-none-eabi/20180627/bin/../lib/gcc/arm-none-eabi/7.3.1/../../../../arm-none-eabi/lib/thumb/v7-m/libm.a(lib_a-wf_sqrt.o)
 .bss           0x0000000000000000        0x0 /usr/local/Cellar/gcc-arm-none-eabi/20180627/bin/../lib/gcc/arm-none-eabi/7.3.1/../../../../arm-none-eabi/lib/thumb/v7-m/libm.a(lib_a-wf_sqrt.o)
 .text          0x0000000000000000        0x0 /usr/local/Cellar/gcc-arm-none-eabi/20180627/bin/../lib/gcc/arm-none-eabi/7.3.1/../../../../arm-none-eabi/lib/thumb/v7-m/libm.a(lib_a-e_sqrt.o)
 .data          0x0000000000000000        0x0 /usr/local/Cellar/gcc-arm-none-eabi/20180627/bin/../lib/gcc/arm-none-eabi/7.3.1/../../../../arm-none-eabi/lib/thumb/v7-m/libm.a(lib_a-e_sqrt.o)
 .bss           0x0000000000000000        0x0 /usr/local/Cellar/gcc-arm-none-eabi/20180627/bin/../lib/gcc/arm-none-eabi/7.3.1/../../../../arm-none-eabi/lib/thumb/v7-m/libm.a(lib_a-e_sqrt.o)
 .text          0x0000000000000000        0x0 /usr/local/Cellar/gcc-arm-none-eabi/20180627/bin/../lib/gcc/arm-none-eabi/7.3.1/../../../../arm-none-eabi/lib/thumb/v7-m/libm.a(lib_a-ef_atan2.o)
 .data          0x0000000000000000        0x0 /usr/local/Cellar/gcc-arm-none-eabi/20180627/bin/../lib/gcc/arm-none-eabi/7.3.1/../../../../arm-none-eabi/lib/thumb/v7-m/libm.a(lib_a-ef_atan2.o)
 .bss           0x0000000000000000        0x0 /usr/local/Cellar/gcc-arm-none-eabi/20180627/bin/../lib/gcc/arm-none-eabi/7.3.1/../../../../arm-none-eabi/lib/thumb/v7-m/libm.a(lib_a-ef_atan2.o)
 .text          0x0000000000000000        0x0 /usr/local/Cellar/gcc-arm-none-eabi/20180627/bin/../lib/gcc/arm-none-eabi/7.3.1/../../../../arm-none-eabi/lib/thumb/v7-m/libm.a(lib_a-ef_rem_pio2.o)
 .data          0x0000000000000000        0x0 /usr/local/Cellar/gcc-arm-none-eabi/20180627/bin/../lib/gcc/arm-none-eabi/7.3.1/../../../../arm-none-eabi/lib/thumb/v7-m/libm.a(lib_a-ef_rem_pio2.o)
 .bss           0x0000000000000000        0x0 /usr/local/Cellar/gcc-arm-none-eabi/20180627/bin/../lib/gcc/arm-none-eabi/7.3.1/../../../../arm-none-eabi/lib/thumb/v7-m/libm.a(lib_a-ef_rem_pio2.o)
 .text          0x0000000000000000        0x0 /usr/local/Cellar/gcc-arm-none-eabi/20180627/bin/../lib/gcc/arm-none-eabi/7.3.1/../../../../arm-none-eabi/lib/thumb/v7-m/libm.a(lib_a-ef_sqrt.o)
 .data          0x0000000000000000        0x0 /usr/local/Cellar/gcc-arm-none-eabi/20180627/bin/../lib/gcc/arm-none-eabi/7.3.1/../../../../arm-none-eabi/lib/thumb/v7-m/libm.a(lib_a-ef_sqrt.o)
 .bss           0x0000000000000000        0x0 /usr/local/Cellar/gcc-arm-none-eabi/20180627/bin/../lib/gcc/arm-none-eabi/7.3.1/../../../../arm-none-eabi/lib/thumb/v7-m/libm.a(lib_a-ef_sqrt.o)
 .text          0x0000000000000000        0x0 /usr/local/Cellar/gcc-arm-none-eabi/20180627/bin/../lib/gcc/arm-none-eabi/7.3.1/../../../../arm-none-eabi/lib/thumb/v7-m/libm.a(lib_a-kf_cos.o)
 .data          0x0000000000000000        0x0 /usr/local/Cellar/gcc-arm-none-eabi/20180627/bin/../lib/gcc/arm-none-eabi/7.3.1/../../../../arm-none-eabi/lib/thumb/v7-m/libm.a(lib_a-kf_cos.o)
 .bss           0x0000000000000000        0x0 /usr/local/Cellar/gcc-arm-none-eabi/20180627/bin/../lib/gcc/arm-none-eabi/7.3.1/../../../../arm-none-eabi/lib/thumb/v7-m/libm.a(lib_a-kf_cos.o)
 .text          0x0000000000000000        0x0 /usr/local/Cellar/gcc-arm-none-eabi/20180627/bin/../lib/gcc/arm-none-eabi/7.3.1/../../../../arm-none-eabi/lib/thumb/v7-m/libm.a(lib_a-kf_rem_pio2.o)
 .data          0x0000000000000000        0x0 /usr/local/Cellar/gcc-arm-none-eabi/20180627/bin/../lib/gcc/arm-none-eabi/7.3.1/../../../../arm-none-eabi/lib/thumb/v7-m/libm.a(lib_a-kf_rem_pio2.o)
 .bss           0x0000000000000000        0x0 /usr/local/Cellar/gcc-arm-none-eabi/20180627/bin/../lib/gcc/arm-none-eabi/7.3.1/../../../../arm-none-eabi/lib/thumb/v7-m/libm.a(lib_a-kf_rem_pio2.o)
 .text          0x0000000000000000        0x0 /usr/local/Cellar/gcc-arm-none-eabi/20180627/bin/../lib/gcc/arm-none-eabi/7.3.1/../../../../arm-none-eabi/lib/thumb/v7-m/libm.a(lib_a-kf_sin.o)
 .data          0x0000000000000000        0x0 /usr/local/Cellar/gcc-arm-none-eabi/20180627/bin/../lib/gcc/arm-none-eabi/7.3.1/../../../../arm-none-eabi/lib/thumb/v7-m/libm.a(lib_a-kf_sin.o)
 .bss           0x0000000000000000        0x0 /usr/local/Cellar/gcc-arm-none-eabi/20180627/bin/../lib/gcc/arm-none-eabi/7.3.1/../../../../arm-none-eabi/lib/thumb/v7-m/libm.a(lib_a-kf_sin.o)
 .text          0x0000000000000000        0x0 /usr/local/Cellar/gcc-arm-none-eabi/20180627/bin/../lib/gcc/arm-none-eabi/7.3.1/../../../../arm-none-eabi/lib/thumb/v7-m/libm.a(lib_a-s_lib_ver.o)
 .data          0x0000000000000000        0x0 /usr/local/Cellar/gcc-arm-none-eabi/20180627/bin/../lib/gcc/arm-none-eabi/7.3.1/../../../../arm-none-eabi/lib/thumb/v7-m/libm.a(lib_a-s_lib_ver.o)
 .bss           0x0000000000000000        0x0 /usr/local/Cellar/gcc-arm-none-eabi/20180627/bin/../lib/gcc/arm-none-eabi/7.3.1/../../../../arm-none-eabi/lib/thumb/v7-m/libm.a(lib_a-s_lib_ver.o)
 .text          0x0000000000000000        0x0 /usr/local/Cellar/gcc-arm-none-eabi/20180627/bin/../lib/gcc/arm-none-eabi/7.3.1/../../../../arm-none-eabi/lib/thumb/v7-m/libm.a(lib_a-s_matherr.o)
 .data          0x0000000000000000        0x0 /usr/local/Cellar/gcc-arm-none-eabi/20180627/bin/../lib/gcc/arm-none-eabi/7.3.1/../../../../arm-none-eabi/lib/thumb/v7-m/libm.a(lib_a-s_matherr.o)
 .bss           0x0000000000000000        0x0 /usr/local/Cellar/gcc-arm-none-eabi/20180627/bin/../lib/gcc/arm-none-eabi/7.3.1/../../../../arm-none-eabi/lib/thumb/v7-m/libm.a(lib_a-s_matherr.o)
 .text          0x0000000000000000        0x0 /usr/local/Cellar/gcc-arm-none-eabi/20180627/bin/../lib/gcc/arm-none-eabi/7.3.1/../../../../arm-none-eabi/lib/thumb/v7-m/libm.a(lib_a-sf_atan.o)
 .data          0x0000000000000000        0x0 /usr/local/Cellar/gcc-arm-none-eabi/20180627/bin/../lib/gcc/arm-none-eabi/7.3.1/../../../../arm-none-eabi/lib/thumb/v7-m/libm.a(lib_a-sf_atan.o)
 .bss           0x0000000000000000        0x0 /usr/local/Cellar/gcc-arm-none-eabi/20180627/bin/../lib/gcc/arm-none-eabi/7.3.1/../../../../arm-none-eabi/lib/thumb/v7-m/libm.a(lib_a-sf_atan.o)
 .text          0x0000000000000000        0x0 /usr/local/Cellar/gcc-arm-none-eabi/20180627/bin/../lib/gcc/arm-none-eabi/7.3.1/../../../../arm-none-eabi/lib/thumb/v7-m/libm.a(lib_a-sf_fabs.o)
 .data          0x0000000000000000        0x0 /usr/local/Cellar/gcc-arm-none-eabi/20180627/bin/../lib/gcc/arm-none-eabi/7.3.1/../../../../arm-none-eabi/lib/thumb/v7-m/libm.a(lib_a-sf_fabs.o)
 .bss           0x0000000000000000        0x0 /usr/local/Cellar/gcc-arm-none-eabi/20180627/bin/../lib/gcc/arm-none-eabi/7.3.1/../../../../arm-none-eabi/lib/thumb/v7-m/libm.a(lib_a-sf_fabs.o)
 .text          0x0000000000000000        0x0 /usr/local/Cellar/gcc-arm-none-eabi/20180627/bin/../lib/gcc/arm-none-eabi/7.3.1/../../../../arm-none-eabi/lib/thumb/v7-m/libm.a(lib_a-sf_floor.o)
 .data          0x0000000000000000        0x0 /usr/local/Cellar/gcc-arm-none-eabi/20180627/bin/../lib/gcc/arm-none-eabi/7.3.1/../../../../arm-none-eabi/lib/thumb/v7-m/libm.a(lib_a-sf_floor.o)
 .bss           0x0000000000000000        0x0 /usr/local/Cellar/gcc-arm-none-eabi/20180627/bin/../lib/gcc/arm-none-eabi/7.3.1/../../../../arm-none-eabi/lib/thumb/v7-m/libm.a(lib_a-sf_floor.o)
 .text          0x0000000000000000        0x0 /usr/local/Cellar/gcc-arm-none-eabi/20180627/bin/../lib/gcc/arm-none-eabi/7.3.1/../../../../arm-none-eabi/lib/thumb/v7-m/libm.a(lib_a-sf_scalbn.o)
 .data          0x0000000000000000        0x0 /usr/local/Cellar/gcc-arm-none-eabi/20180627/bin/../lib/gcc/arm-none-eabi/7.3.1/../../../../arm-none-eabi/lib/thumb/v7-m/libm.a(lib_a-sf_scalbn.o)
 .bss           0x0000000000000000        0x0 /usr/local/Cellar/gcc-arm-none-eabi/20180627/bin/../lib/gcc/arm-none-eabi/7.3.1/../../../../arm-none-eabi/lib/thumb/v7-m/libm.a(lib_a-sf_scalbn.o)
 .text          0x0000000000000000        0x0 /usr/local/Cellar/gcc-arm-none-eabi/20180627/bin/../lib/gcc/arm-none-eabi/7.3.1/../../../../arm-none-eabi/lib/thumb/v7-m/libm.a(lib_a-sf_copysign.o)
 .data          0x0000000000000000        0x0 /usr/local/Cellar/gcc-arm-none-eabi/20180627/bin/../lib/gcc/arm-none-eabi/7.3.1/../../../../arm-none-eabi/lib/thumb/v7-m/libm.a(lib_a-sf_copysign.o)
 .bss           0x0000000000000000        0x0 /usr/local/Cellar/gcc-arm-none-eabi/20180627/bin/../lib/gcc/arm-none-eabi/7.3.1/../../../../arm-none-eabi/lib/thumb/v7-m/libm.a(lib_a-sf_copysign.o)
 .text          0x0000000000000000        0x0 /usr/local/Cellar/gcc-arm-none-eabi/20180627/bin/../lib/gcc/arm-none-eabi/7.3.1/../../../../arm-none-eabi/lib/thumb/v7-m/libnosys.a(sbrk.o)
 .data          0x0000000000000000        0x0 /usr/local/Cellar/gcc-arm-none-eabi/20180627/bin/../lib/gcc/arm-none-eabi/7.3.1/../../../../arm-none-eabi/lib/thumb/v7-m/libnosys.a(sbrk.o)
 .bss           0x0000000000000000        0x0 /usr/local/Cellar/gcc-arm-none-eabi/20180627/bin/../lib/gcc/arm-none-eabi/7.3.1/../../../../arm-none-eabi/lib/thumb/v7-m/libnosys.a(sbrk.o)
 .text          0x0000000000000000        0x0 /usr/local/Cellar/gcc-arm-none-eabi/20180627/bin/../lib/gcc/arm-none-eabi/7.3.1/../../../../arm-none-eabi/lib/thumb/v7-m/libnosys.a(_exit.o)
 .data          0x0000000000000000        0x0 /usr/local/Cellar/gcc-arm-none-eabi/20180627/bin/../lib/gcc/arm-none-eabi/7.3.1/../../../../arm-none-eabi/lib/thumb/v7-m/libnosys.a(_exit.o)
 .bss           0x0000000000000000        0x0 /usr/local/Cellar/gcc-arm-none-eabi/20180627/bin/../lib/gcc/arm-none-eabi/7.3.1/../../../../arm-none-eabi/lib/thumb/v7-m/libnosys.a(_exit.o)
 .text._exit    0x0000000000000000        0x4 /usr/local/Cellar/gcc-arm-none-eabi/20180627/bin/../lib/gcc/arm-none-eabi/7.3.1/../../../../arm-none-eabi/lib/thumb/v7-m/libnosys.a(_exit.o)
 .debug_frame   0x0000000000000000       0x20 /usr/local/Cellar/gcc-arm-none-eabi/20180627/bin/../lib/gcc/arm-none-eabi/7.3.1/../../../../arm-none-eabi/lib/thumb/v7-m/libnosys.a(_exit.o)
 .ARM.attributes
                0x0000000000000000       0x2d /usr/local/Cellar/gcc-arm-none-eabi/20180627/bin/../lib/gcc/arm-none-eabi/7.3.1/../../../../arm-none-eabi/lib/thumb/v7-m/libnosys.a(_exit.o)
 .data          0x0000000000000000        0x0 /usr/local/Cellar/gcc-arm-none-eabi/20180627/bin/../lib/gcc/arm-none-eabi/7.3.1/thumb/v7-m/libgcc.a(_arm_addsubdf3.o)
 .bss           0x0000000000000000        0x0 /usr/local/Cellar/gcc-arm-none-eabi/20180627/bin/../lib/gcc/arm-none-eabi/7.3.1/thumb/v7-m/libgcc.a(_arm_addsubdf3.o)
 .data          0x0000000000000000        0x0 /usr/local/Cellar/gcc-arm-none-eabi/20180627/bin/../lib/gcc/arm-none-eabi/7.3.1/thumb/v7-m/libgcc.a(_arm_muldivdf3.o)
 .bss           0x0000000000000000        0x0 /usr/local/Cellar/gcc-arm-none-eabi/20180627/bin/../lib/gcc/arm-none-eabi/7.3.1/thumb/v7-m/libgcc.a(_arm_muldivdf3.o)
 .data          0x0000000000000000        0x0 /usr/local/Cellar/gcc-arm-none-eabi/20180627/bin/../lib/gcc/arm-none-eabi/7.3.1/thumb/v7-m/libgcc.a(_arm_cmpdf2.o)
 .bss           0x0000000000000000        0x0 /usr/local/Cellar/gcc-arm-none-eabi/20180627/bin/../lib/gcc/arm-none-eabi/7.3.1/thumb/v7-m/libgcc.a(_arm_cmpdf2.o)
 .data          0x0000000000000000        0x0 /usr/local/Cellar/gcc-arm-none-eabi/20180627/bin/../lib/gcc/arm-none-eabi/7.3.1/thumb/v7-m/libgcc.a(_arm_unorddf2.o)
 .bss           0x0000000000000000        0x0 /usr/local/Cellar/gcc-arm-none-eabi/20180627/bin/../lib/gcc/arm-none-eabi/7.3.1/thumb/v7-m/libgcc.a(_arm_unorddf2.o)
 .data          0x0000000000000000        0x0 /usr/local/Cellar/gcc-arm-none-eabi/20180627/bin/../lib/gcc/arm-none-eabi/7.3.1/thumb/v7-m/libgcc.a(_arm_fixdfsi.o)
 .bss           0x0000000000000000        0x0 /usr/local/Cellar/gcc-arm-none-eabi/20180627/bin/../lib/gcc/arm-none-eabi/7.3.1/thumb/v7-m/libgcc.a(_arm_fixdfsi.o)
 .data          0x0000000000000000        0x0 /usr/local/Cellar/gcc-arm-none-eabi/20180627/bin/../lib/gcc/arm-none-eabi/7.3.1/thumb/v7-m/libgcc.a(_arm_fixunsdfsi.o)
 .bss           0x0000000000000000        0x0 /usr/local/Cellar/gcc-arm-none-eabi/20180627/bin/../lib/gcc/arm-none-eabi/7.3.1/thumb/v7-m/libgcc.a(_arm_fixunsdfsi.o)
 .data          0x0000000000000000        0x0 /usr/local/Cellar/gcc-arm-none-eabi/20180627/bin/../lib/gcc/arm-none-eabi/7.3.1/thumb/v7-m/libgcc.a(_arm_truncdfsf2.o)
 .bss           0x0000000000000000        0x0 /usr/local/Cellar/gcc-arm-none-eabi/20180627/bin/../lib/gcc/arm-none-eabi/7.3.1/thumb/v7-m/libgcc.a(_arm_truncdfsf2.o)
 .data          0x0000000000000000        0x0 /usr/local/Cellar/gcc-arm-none-eabi/20180627/bin/../lib/gcc/arm-none-eabi/7.3.1/thumb/v7-m/libgcc.a(_arm_addsubsf3.o)
 .bss           0x0000000000000000        0x0 /usr/local/Cellar/gcc-arm-none-eabi/20180627/bin/../lib/gcc/arm-none-eabi/7.3.1/thumb/v7-m/libgcc.a(_arm_addsubsf3.o)
 .data          0x0000000000000000        0x0 /usr/local/Cellar/gcc-arm-none-eabi/20180627/bin/../lib/gcc/arm-none-eabi/7.3.1/thumb/v7-m/libgcc.a(_arm_muldivsf3.o)
 .bss           0x0000000000000000        0x0 /usr/local/Cellar/gcc-arm-none-eabi/20180627/bin/../lib/gcc/arm-none-eabi/7.3.1/thumb/v7-m/libgcc.a(_arm_muldivsf3.o)
 .data          0x0000000000000000        0x0 /usr/local/Cellar/gcc-arm-none-eabi/20180627/bin/../lib/gcc/arm-none-eabi/7.3.1/thumb/v7-m/libgcc.a(_arm_cmpsf2.o)
 .bss           0x0000000000000000        0x0 /usr/local/Cellar/gcc-arm-none-eabi/20180627/bin/../lib/gcc/arm-none-eabi/7.3.1/thumb/v7-m/libgcc.a(_arm_cmpsf2.o)
 .data          0x0000000000000000        0x0 /usr/local/Cellar/gcc-arm-none-eabi/20180627/bin/../lib/gcc/arm-none-eabi/7.3.1/thumb/v7-m/libgcc.a(_arm_unordsf2.o)
 .bss           0x0000000000000000        0x0 /usr/local/Cellar/gcc-arm-none-eabi/20180627/bin/../lib/gcc/arm-none-eabi/7.3.1/thumb/v7-m/libgcc.a(_arm_unordsf2.o)
 .data          0x0000000000000000        0x0 /usr/local/Cellar/gcc-arm-none-eabi/20180627/bin/../lib/gcc/arm-none-eabi/7.3.1/thumb/v7-m/libgcc.a(_arm_fixsfsi.o)
 .bss           0x0000000000000000        0x0 /usr/local/Cellar/gcc-arm-none-eabi/20180627/bin/../lib/gcc/arm-none-eabi/7.3.1/thumb/v7-m/libgcc.a(_arm_fixsfsi.o)
 .data          0x0000000000000000        0x0 /usr/local/Cellar/gcc-arm-none-eabi/20180627/bin/../lib/gcc/arm-none-eabi/7.3.1/thumb/v7-m/libgcc.a(_arm_fixunssfsi.o)
 .bss           0x0000000000000000        0x0 /usr/local/Cellar/gcc-arm-none-eabi/20180627/bin/../lib/gcc/arm-none-eabi/7.3.1/thumb/v7-m/libgcc.a(_arm_fixunssfsi.o)
 .text          0x0000000000000000        0x0 /usr/local/Cellar/gcc-arm-none-eabi/20180627/bin/../lib/gcc/arm-none-eabi/7.3.1/../../../../arm-none-eabi/lib/thumb/v7-m/libc_nano.a(lib_a-errno.o)
 .data          0x0000000000000000        0x0 /usr/local/Cellar/gcc-arm-none-eabi/20180627/bin/../lib/gcc/arm-none-eabi/7.3.1/../../../../arm-none-eabi/lib/thumb/v7-m/libc_nano.a(lib_a-errno.o)
 .bss           0x0000000000000000        0x0 /usr/local/Cellar/gcc-arm-none-eabi/20180627/bin/../lib/gcc/arm-none-eabi/7.3.1/../../../../arm-none-eabi/lib/thumb/v7-m/libc_nano.a(lib_a-errno.o)
 .text          0x0000000000000000        0x0 /usr/local/Cellar/gcc-arm-none-eabi/20180627/bin/../lib/gcc/arm-none-eabi/7.3.1/thumb/v7-m/crtend.o
 .data          0x0000000000000000        0x0 /usr/local/Cellar/gcc-arm-none-eabi/20180627/bin/../lib/gcc/arm-none-eabi/7.3.1/thumb/v7-m/crtend.o
 .bss           0x0000000000000000        0x0 /usr/local/Cellar/gcc-arm-none-eabi/20180627/bin/../lib/gcc/arm-none-eabi/7.3.1/thumb/v7-m/crtend.o
 .eh_frame      0x0000000000000000        0x4 /usr/local/Cellar/gcc-arm-none-eabi/20180627/bin/../lib/gcc/arm-none-eabi/7.3.1/thumb/v7-m/crtend.o
 .ARM.attributes
                0x0000000000000000       0x2d /usr/local/Cellar/gcc-arm-none-eabi/20180627/bin/../lib/gcc/arm-none-eabi/7.3.1/thumb/v7-m/crtend.o
 .text          0x0000000000000000        0x0 /usr/local/Cellar/gcc-arm-none-eabi/20180627/bin/../lib/gcc/arm-none-eabi/7.3.1/thumb/v7-m/crtn.o
 .data          0x0000000000000000        0x0 /usr/local/Cellar/gcc-arm-none-eabi/20180627/bin/../lib/gcc/arm-none-eabi/7.3.1/thumb/v7-m/crtn.o
 .bss           0x0000000000000000        0x0 /usr/local/Cellar/gcc-arm-none-eabi/20180627/bin/../lib/gcc/arm-none-eabi/7.3.1/thumb/v7-m/crtn.o

Memory Configuration

Name             Origin             Length             Attributes
RAM              0x0000000020000000 0x0000000000005000 xrw
FLASH            0x0000000008000000 0x0000000000010000 xr
*default*        0x0000000000000000 0xffffffffffffffff

Linker script and memory map

LOAD /usr/local/Cellar/gcc-arm-none-eabi/20180627/bin/../lib/gcc/arm-none-eabi/7.3.1/thumb/v7-m/crti.o
LOAD /usr/local/Cellar/gcc-arm-none-eabi/20180627/bin/../lib/gcc/arm-none-eabi/7.3.1/thumb/v7-m/crtbegin.o
LOAD /usr/local/Cellar/gcc-arm-none-eabi/20180627/bin/../lib/gcc/arm-none-eabi/7.3.1/../../../../arm-none-eabi/lib/thumb/v7-m/crt0.o
LOAD build/main.o
LOAD build/gpio.o
LOAD build/i2c.o
LOAD build/tim.o
LOAD build/usart.o
LOAD build/stm32f1xx_it.o
LOAD build/stm32f1xx_hal_msp.o
LOAD build/stm32f1xx_hal_gpio_ex.o
LOAD build/stm32f1xx_hal_i2c.o
LOAD build/stm32f1xx_hal.o
LOAD build/stm32f1xx_hal_rcc.o
LOAD build/stm32f1xx_hal_rcc_ex.o
LOAD build/stm32f1xx_hal_gpio.o
LOAD build/stm32f1xx_hal_dma.o
LOAD build/stm32f1xx_hal_cortex.o
LOAD build/stm32f1xx_hal_pwr.o
LOAD build/stm32f1xx_hal_flash.o
LOAD build/stm32f1xx_hal_flash_ex.o
LOAD build/stm32f1xx_hal_exti.o
LOAD build/stm32f1xx_ll_rcc.o
LOAD build/stm32f1xx_ll_utils.o
LOAD build/stm32f1xx_ll_exti.o
LOAD build/stm32f1xx_hal_tim.o
LOAD build/stm32f1xx_hal_tim_ex.o
LOAD build/stm32f1xx_ll_tim.o
LOAD build/stm32f1xx_ll_gpio.o
LOAD build/stm32f1xx_ll_dma.o
LOAD build/stm32f1xx_ll_usart.o
LOAD build/system_stm32f1xx.o
LOAD build/inoutputs.o
LOAD build/lcd-i2c.o
LOAD build/stm32utilities.o
LOAD build/coolant_control.o
LOAD build/eeprom.o
LOAD build/gcode.o
LOAD build/jog.o
LOAD build/limits.o
LOAD build/motion_control.o
LOAD build/nuts_bolts.o
LOAD build/planner.o
LOAD build/print.o
LOAD build/probe.o
LOAD build/protocol.o
LOAD build/report.o
LOAD build/serial.o
LOAD build/settings.o
LOAD build/spindle_control.o
LOAD build/stepper.o
LOAD build/system.o
LOAD build/startup_stm32f103xb.o
LOAD /usr/local/Cellar/gcc-arm-none-eabi/20180627/bin/../lib/gcc/arm-none-eabi/7.3.1/../../../../arm-none-eabi/lib/thumb/v7-m/libc_nano.a
LOAD /usr/local/Cellar/gcc-arm-none-eabi/20180627/bin/../lib/gcc/arm-none-eabi/7.3.1/../../../../arm-none-eabi/lib/thumb/v7-m/libm.a
LOAD /usr/local/Cellar/gcc-arm-none-eabi/20180627/bin/../lib/gcc/arm-none-eabi/7.3.1/../../../../arm-none-eabi/lib/thumb/v7-m/libnosys.a
START GROUP
LOAD /usr/local/Cellar/gcc-arm-none-eabi/20180627/bin/../lib/gcc/arm-none-eabi/7.3.1/thumb/v7-m/libgcc.a
LOAD /usr/local/Cellar/gcc-arm-none-eabi/20180627/bin/../lib/gcc/arm-none-eabi/7.3.1/../../../../arm-none-eabi/lib/thumb/v7-m/libc_nano.a
END GROUP
START GROUP
LOAD /usr/local/Cellar/gcc-arm-none-eabi/20180627/bin/../lib/gcc/arm-none-eabi/7.3.1/thumb/v7-m/libgcc.a
LOAD /usr/local/Cellar/gcc-arm-none-eabi/20180627/bin/../lib/gcc/arm-none-eabi/7.3.1/../../../../arm-none-eabi/lib/thumb/v7-m/libc_nano.a
END GROUP
LOAD /usr/local/Cellar/gcc-arm-none-eabi/20180627/bin/../lib/gcc/arm-none-eabi/7.3.1/thumb/v7-m/crtend.o
LOAD /usr/local/Cellar/gcc-arm-none-eabi/20180627/bin/../lib/gcc/arm-none-eabi/7.3.1/thumb/v7-m/crtn.o
                0x0000000020005000                _estack = 0x20005000
                0x0000000000000200                _Min_Heap_Size = 0x200
                0x0000000000000400                _Min_Stack_Size = 0x400

.isr_vector     0x0000000008000000      0x10c
                0x0000000008000000                . = ALIGN (0x4)
 *(.isr_vector)
 .isr_vector    0x0000000008000000      0x10c build/startup_stm32f103xb.o
                0x0000000008000000                g_pfnVectors
                0x000000000800010c                . = ALIGN (0x4)

.text           0x0000000008000110     0xcbb4
                0x0000000008000110                . = ALIGN (0x4)
 *(.text)
 .text          0x0000000008000110       0x40 /usr/local/Cellar/gcc-arm-none-eabi/20180627/bin/../lib/gcc/arm-none-eabi/7.3.1/thumb/v7-m/crtbegin.o
 .text          0x0000000008000150      0x378 /usr/local/Cellar/gcc-arm-none-eabi/20180627/bin/../lib/gcc/arm-none-eabi/7.3.1/thumb/v7-m/libgcc.a(_arm_addsubdf3.o)
                0x0000000008000150                __aeabi_drsub
                0x0000000008000158                __subdf3
                0x0000000008000158                __aeabi_dsub
                0x000000000800015c                __aeabi_dadd
                0x000000000800015c                __adddf3
                0x00000000080003d4                __aeabi_ui2d
                0x00000000080003d4                __floatunsidf
                0x00000000080003f4                __floatsidf
                0x00000000080003f4                __aeabi_i2d
                0x0000000008000418                __extendsfdf2
                0x0000000008000418                __aeabi_f2d
                0x000000000800045c                __aeabi_ul2d
                0x000000000800045c                __floatundidf
                0x000000000800046c                __aeabi_l2d
                0x000000000800046c                __floatdidf
 .text          0x00000000080004c8      0x424 /usr/local/Cellar/gcc-arm-none-eabi/20180627/bin/../lib/gcc/arm-none-eabi/7.3.1/thumb/v7-m/libgcc.a(_arm_muldivdf3.o)
                0x00000000080004c8                __aeabi_dmul
                0x00000000080004c8                __muldf3
                0x000000000800071c                __aeabi_ddiv
                0x000000000800071c                __divdf3
 .text          0x00000000080008ec      0x110 /usr/local/Cellar/gcc-arm-none-eabi/20180627/bin/../lib/gcc/arm-none-eabi/7.3.1/thumb/v7-m/libgcc.a(_arm_cmpdf2.o)
                0x00000000080008ec                __gedf2
                0x00000000080008ec                __gtdf2
                0x00000000080008f4                __ledf2
                0x00000000080008f4                __ltdf2
                0x00000000080008fc                __cmpdf2
                0x00000000080008fc                __eqdf2
                0x00000000080008fc                __nedf2
                0x0000000008000978                __aeabi_cdrcmple
                0x0000000008000988                __aeabi_cdcmple
                0x0000000008000988                __aeabi_cdcmpeq
                0x0000000008000998                __aeabi_dcmpeq
                0x00000000080009ac                __aeabi_dcmplt
                0x00000000080009c0                __aeabi_dcmple
                0x00000000080009d4                __aeabi_dcmpge
                0x00000000080009e8                __aeabi_dcmpgt
 .text          0x00000000080009fc       0x2c /usr/local/Cellar/gcc-arm-none-eabi/20180627/bin/../lib/gcc/arm-none-eabi/7.3.1/thumb/v7-m/libgcc.a(_arm_unorddf2.o)
                0x00000000080009fc                __aeabi_dcmpun
                0x00000000080009fc                __unorddf2
 .text          0x0000000008000a28       0x50 /usr/local/Cellar/gcc-arm-none-eabi/20180627/bin/../lib/gcc/arm-none-eabi/7.3.1/thumb/v7-m/libgcc.a(_arm_fixdfsi.o)
                0x0000000008000a28                __fixdfsi
                0x0000000008000a28                __aeabi_d2iz
 .text          0x0000000008000a78       0x40 /usr/local/Cellar/gcc-arm-none-eabi/20180627/bin/../lib/gcc/arm-none-eabi/7.3.1/thumb/v7-m/libgcc.a(_arm_fixunsdfsi.o)
                0x0000000008000a78                __fixunsdfsi
                0x0000000008000a78                __aeabi_d2uiz
 .text          0x0000000008000ab8       0xa0 /usr/local/Cellar/gcc-arm-none-eabi/20180627/bin/../lib/gcc/arm-none-eabi/7.3.1/thumb/v7-m/libgcc.a(_arm_truncdfsf2.o)
                0x0000000008000ab8                __aeabi_d2f
                0x0000000008000ab8                __truncdfsf2
 .text          0x0000000008000b58      0x21c /usr/local/Cellar/gcc-arm-none-eabi/20180627/bin/../lib/gcc/arm-none-eabi/7.3.1/thumb/v7-m/libgcc.a(_arm_addsubsf3.o)
                0x0000000008000b58                __aeabi_frsub
                0x0000000008000b60                __aeabi_fsub
                0x0000000008000b60                __subsf3
                0x0000000008000b64                __aeabi_fadd
                0x0000000008000b64                __addsf3
                0x0000000008000cc4                __aeabi_ui2f
                0x0000000008000cc4                __floatunsisf
                0x0000000008000ccc                __floatsisf
                0x0000000008000ccc                __aeabi_i2f
                0x0000000008000ce8                __aeabi_ul2f
                0x0000000008000ce8                __floatundisf
                0x0000000008000cf8                __aeabi_l2f
                0x0000000008000cf8                __floatdisf
 .text          0x0000000008000d74      0x2a0 /usr/local/Cellar/gcc-arm-none-eabi/20180627/bin/../lib/gcc/arm-none-eabi/7.3.1/thumb/v7-m/libgcc.a(_arm_muldivsf3.o)
                0x0000000008000d74                __mulsf3
                0x0000000008000d74                __aeabi_fmul
                0x0000000008000edc                __divsf3
                0x0000000008000edc                __aeabi_fdiv
 .text          0x0000000008001014       0xec /usr/local/Cellar/gcc-arm-none-eabi/20180627/bin/../lib/gcc/arm-none-eabi/7.3.1/thumb/v7-m/libgcc.a(_arm_cmpsf2.o)
                0x0000000008001014                __gesf2
                0x0000000008001014                __gtsf2
                0x000000000800101c                __ltsf2
                0x000000000800101c                __lesf2
                0x0000000008001024                __nesf2
                0x0000000008001024                __eqsf2
                0x0000000008001024                __cmpsf2
                0x0000000008001084                __aeabi_cfrcmple
                0x000000000800108c                __aeabi_cfcmpeq
                0x000000000800108c                __aeabi_cfcmple
                0x000000000800109c                __aeabi_fcmpeq
                0x00000000080010b0                __aeabi_fcmplt
                0x00000000080010c4                __aeabi_fcmple
                0x00000000080010d8                __aeabi_fcmpge
                0x00000000080010ec                __aeabi_fcmpgt
 .text          0x0000000008001100       0x2c /usr/local/Cellar/gcc-arm-none-eabi/20180627/bin/../lib/gcc/arm-none-eabi/7.3.1/thumb/v7-m/libgcc.a(_arm_unordsf2.o)
                0x0000000008001100                __aeabi_fcmpun
                0x0000000008001100                __unordsf2
 .text          0x000000000800112c       0x4c /usr/local/Cellar/gcc-arm-none-eabi/20180627/bin/../lib/gcc/arm-none-eabi/7.3.1/thumb/v7-m/libgcc.a(_arm_fixsfsi.o)
                0x000000000800112c                __fixsfsi
                0x000000000800112c                __aeabi_f2iz
 .text          0x0000000008001178       0x40 /usr/local/Cellar/gcc-arm-none-eabi/20180627/bin/../lib/gcc/arm-none-eabi/7.3.1/thumb/v7-m/libgcc.a(_arm_fixunssfsi.o)
                0x0000000008001178                __aeabi_f2uiz
                0x0000000008001178                __fixunssfsi
 *(.text*)
 .text.SystemClock_Config
                0x00000000080011b8       0x54 build/main.o
                0x00000000080011b8                SystemClock_Config
 .text.startup.main
                0x000000000800120c      0x14c build/main.o
                0x000000000800120c                main
 .text.Error_Handler
                0x0000000008001358        0x4 build/main.o
                0x0000000008001358                Error_Handler
 .text.MX_GPIO_Init
                0x000000000800135c      0x12c build/gpio.o
                0x000000000800135c                MX_GPIO_Init
 .text.MX_I2C1_Init
                0x0000000008001488       0x40 build/i2c.o
                0x0000000008001488                MX_I2C1_Init
 .text.HAL_I2C_MspInit
                0x00000000080014c8       0x78 build/i2c.o
                0x00000000080014c8                HAL_I2C_MspInit
 .text.MX_TIM1_Init
                0x0000000008001540       0xf4 build/tim.o
                0x0000000008001540                MX_TIM1_Init
 .text.MX_TIM2_Init
                0x0000000008001634       0x78 build/tim.o
                0x0000000008001634                MX_TIM2_Init
 .text.MX_TIM3_Init
                0x00000000080016ac       0x78 build/tim.o
                0x00000000080016ac                MX_TIM3_Init
 .text.MX_USART1_UART_Init
                0x0000000008001724       0xc0 build/usart.o
                0x0000000008001724                MX_USART1_UART_Init
 .text.NMI_Handler
                0x00000000080017e4        0x4 build/stm32f1xx_it.o
                0x00000000080017e4                NMI_Handler
 .text.HardFault_Handler
                0x00000000080017e8        0x4 build/stm32f1xx_it.o
                0x00000000080017e8                HardFault_Handler
 .text.MemManage_Handler
                0x00000000080017ec        0x4 build/stm32f1xx_it.o
                0x00000000080017ec                MemManage_Handler
 .text.BusFault_Handler
                0x00000000080017f0        0x4 build/stm32f1xx_it.o
                0x00000000080017f0                BusFault_Handler
 .text.UsageFault_Handler
                0x00000000080017f4        0x4 build/stm32f1xx_it.o
                0x00000000080017f4                UsageFault_Handler
 .text.SVC_Handler
                0x00000000080017f8        0x4 build/stm32f1xx_it.o
                0x00000000080017f8                SVC_Handler
 .text.DebugMon_Handler
                0x00000000080017fc        0x4 build/stm32f1xx_it.o
                0x00000000080017fc                DebugMon_Handler
 .text.PendSV_Handler
                0x0000000008001800        0x4 build/stm32f1xx_it.o
                0x0000000008001800                PendSV_Handler
 .text.SysTick_Handler
                0x0000000008001804        0x4 build/stm32f1xx_it.o
                0x0000000008001804                SysTick_Handler
 .text.EXTI0_IRQHandler
                0x0000000008001808       0x1c build/stm32f1xx_it.o
                0x0000000008001808                EXTI0_IRQHandler
 .text.EXTI1_IRQHandler
                0x0000000008001824       0x1c build/stm32f1xx_it.o
                0x0000000008001824                EXTI1_IRQHandler
 .text.EXTI3_IRQHandler
                0x0000000008001840       0x20 build/stm32f1xx_it.o
                0x0000000008001840                EXTI3_IRQHandler
 .text.EXTI4_IRQHandler
                0x0000000008001860       0x20 build/stm32f1xx_it.o
                0x0000000008001860                EXTI4_IRQHandler
 .text.TIM2_IRQHandler
                0x0000000008001880       0x1c build/stm32f1xx_it.o
                0x0000000008001880                TIM2_IRQHandler
 .text.TIM3_IRQHandler
                0x000000000800189c       0x38 build/stm32f1xx_it.o
                0x000000000800189c                TIM3_IRQHandler
 .text.USART1_IRQHandler
                0x00000000080018d4       0x20 build/stm32f1xx_it.o
                0x00000000080018d4                USART1_IRQHandler
 .text.EXTI15_10_IRQHandler
                0x00000000080018f4       0x30 build/stm32f1xx_it.o
                0x00000000080018f4                EXTI15_10_IRQHandler
 .text.HAL_MspInit
                0x0000000008001924       0x44 build/stm32f1xx_hal_msp.o
                0x0000000008001924                HAL_MspInit
 .text.HAL_I2C_Init
                0x0000000008001968      0x170 build/stm32f1xx_hal_i2c.o
                0x0000000008001968                HAL_I2C_Init
 .text.HAL_InitTick
                0x0000000008001ad8       0x48 build/stm32f1xx_hal.o
                0x0000000008001ad8                HAL_InitTick
 .text.HAL_Init
                0x0000000008001b20       0x24 build/stm32f1xx_hal.o
                0x0000000008001b20                HAL_Init
 .text.HAL_IncTick
                0x0000000008001b44       0x18 build/stm32f1xx_hal.o
                0x0000000008001b44                HAL_IncTick
 .text.HAL_GetTick
                0x0000000008001b5c        0xc build/stm32f1xx_hal.o
                0x0000000008001b5c                HAL_GetTick
 .text.HAL_Delay
                0x0000000008001b68       0x24 build/stm32f1xx_hal.o
                0x0000000008001b68                HAL_Delay
 .text.HAL_RCC_OscConfig
                0x0000000008001b8c      0x3f0 build/stm32f1xx_hal_rcc.o
                0x0000000008001b8c                HAL_RCC_OscConfig
 .text.HAL_RCC_ClockConfig
                0x0000000008001f7c      0x198 build/stm32f1xx_hal_rcc.o
                0x0000000008001f7c                HAL_RCC_ClockConfig
 .text.HAL_RCC_GetPCLK1Freq
                0x0000000008002114       0x20 build/stm32f1xx_hal_rcc.o
                0x0000000008002114                HAL_RCC_GetPCLK1Freq
 .text.HAL_GPIO_Init
                0x0000000008002134      0x1f4 build/stm32f1xx_hal_gpio.o
                0x0000000008002134                HAL_GPIO_Init
 .text.HAL_GPIO_WritePin
                0x0000000008002328        0x8 build/stm32f1xx_hal_gpio.o
                0x0000000008002328                HAL_GPIO_WritePin
 .text.HAL_GPIO_EXTI_Callback
                0x0000000008002330        0x4 build/stm32f1xx_hal_gpio.o
                0x0000000008002330                HAL_GPIO_EXTI_Callback
 .text.HAL_GPIO_EXTI_IRQHandler
                0x0000000008002334       0x18 build/stm32f1xx_hal_gpio.o
                0x0000000008002334                HAL_GPIO_EXTI_IRQHandler
 .text.HAL_NVIC_SetPriorityGrouping
                0x000000000800234c       0x24 build/stm32f1xx_hal_cortex.o
                0x000000000800234c                HAL_NVIC_SetPriorityGrouping
 .text.HAL_NVIC_SetPriority
                0x0000000008002370       0x6c build/stm32f1xx_hal_cortex.o
                0x0000000008002370                HAL_NVIC_SetPriority
 .text.HAL_NVIC_EnableIRQ
                0x00000000080023dc       0x1c build/stm32f1xx_hal_cortex.o
                0x00000000080023dc                HAL_NVIC_EnableIRQ
 .text.HAL_SYSTICK_Config
                0x00000000080023f8       0x30 build/stm32f1xx_hal_cortex.o
                0x00000000080023f8                HAL_SYSTICK_Config
 .text.HAL_NVIC_ClearPendingIRQ
                0x0000000008002428       0x1c build/stm32f1xx_hal_cortex.o
                0x0000000008002428                HAL_NVIC_ClearPendingIRQ
 .text.HAL_FLASH_Program
                0x0000000008002444      0x1c8 build/stm32f1xx_hal_flash.o
                0x0000000008002444                HAL_FLASH_Program
 .text.HAL_FLASH_Unlock
                0x000000000800260c       0x28 build/stm32f1xx_hal_flash.o
                0x000000000800260c                HAL_FLASH_Unlock
 .text.HAL_FLASH_Lock
                0x0000000008002634       0x14 build/stm32f1xx_hal_flash.o
                0x0000000008002634                HAL_FLASH_Lock
 .text.FLASH_WaitForLastOperation
                0x0000000008002648       0xb8 build/stm32f1xx_hal_flash.o
                0x0000000008002648                FLASH_WaitForLastOperation
 .text.FLASH_PageErase
                0x0000000008002700       0x24 build/stm32f1xx_hal_flash_ex.o
                0x0000000008002700                FLASH_PageErase
 .text.LL_RCC_GetSystemClocksFreq
                0x0000000008002724       0x80 build/stm32f1xx_ll_rcc.o
                0x0000000008002724                LL_RCC_GetSystemClocksFreq
 .text.LL_TIM_Init
                0x00000000080027a4       0x6c build/stm32f1xx_ll_tim.o
                0x00000000080027a4                LL_TIM_Init
 .text.LL_TIM_OC_Init
                0x0000000008002810      0x1b4 build/stm32f1xx_ll_tim.o
                0x0000000008002810                LL_TIM_OC_Init
 .text.LL_TIM_BDTR_Init
                0x00000000080029c4       0x38 build/stm32f1xx_ll_tim.o
                0x00000000080029c4                LL_TIM_BDTR_Init
 .text.LL_GPIO_Init
                0x00000000080029fc      0x10c build/stm32f1xx_ll_gpio.o
                0x00000000080029fc                LL_GPIO_Init
 .text.LL_USART_Init
                0x0000000008002b08       0xb4 build/stm32f1xx_ll_usart.o
                0x0000000008002b08                LL_USART_Init
 .text.SystemInit
                0x0000000008002bbc       0x50 build/system_stm32f1xx.o
                0x0000000008002bbc                SystemInit
 .text.inoutputs_init
                0x0000000008002c0c       0x30 build/inoutputs.o
                0x0000000008002c0c                inoutputs_init
 .text.outputs_digital_action
                0x0000000008002c3c       0x9c build/inoutputs.o
                0x0000000008002c3c                outputs_digital_action
 .text.outputs_analog_init
                0x0000000008002cd8        0x4 build/inoutputs.o
                0x0000000008002cd8                outputs_analog_init
 .text.outputs_analog_action
                0x0000000008002cdc        0x4 build/inoutputs.o
                0x0000000008002cdc                outputs_analog_action
 .text.wait_on_input_action
                0x0000000008002ce0        0x4 build/inoutputs.o
                0x0000000008002ce0                wait_on_input_action
 .text.timing_init
                0x0000000008002ce4       0x38 build/stm32utilities.o
                0x0000000008002ce4                timing_init
 .text.uart_init
                0x0000000008002d1c       0x50 build/stm32utilities.o
                0x0000000008002d1c                uart_init
 .text.uart_sendch
                0x0000000008002d6c       0x14 build/stm32utilities.o
                0x0000000008002d6c                uart_sendch
 .text.Spindle_Disable
                0x0000000008002d80       0x34 build/stm32utilities.o
                0x0000000008002d80                Spindle_Disable
 .text.Spindle_Enable
                0x0000000008002db4       0x30 build/stm32utilities.o
                0x0000000008002db4                Spindle_Enable
 .text.GPIO_ResetBits
                0x0000000008002de4        0x8 build/stm32utilities.o
                0x0000000008002de4                GPIO_ResetBits
 .text.GPIO_SetBits
                0x0000000008002dec        0x8 build/stm32utilities.o
                0x0000000008002dec                GPIO_SetBits
 .text.coolant_init
                0x0000000008002df4       0x20 build/coolant_control.o
                0x0000000008002df4                coolant_init
 .text.coolant_get_state
                0x0000000008002e14       0x18 build/coolant_control.o
                0x0000000008002e14                coolant_get_state
 .text.coolant_stop
                0x0000000008002e2c       0x20 build/coolant_control.o
                0x0000000008002e2c                coolant_stop
 .text.coolant_set_state
                0x0000000008002e4c       0x50 build/coolant_control.o
                0x0000000008002e4c                coolant_set_state
 .text.coolant_sync
                0x0000000008002e9c       0x5c build/coolant_control.o
                0x0000000008002e9c                coolant_sync
 .text.eeprom_init
                0x0000000008002ef8       0x3c build/eeprom.o
                0x0000000008002ef8                eeprom_init
 .text.eeprom_get_char
                0x0000000008002f34        0xc build/eeprom.o
                0x0000000008002f34                eeprom_get_char
 .text.eeprom_put_char
                0x0000000008002f40        0xc build/eeprom.o
                0x0000000008002f40                eeprom_put_char
 .text.memcpy_to_eeprom_with_checksum
                0x0000000008002f4c       0xc0 build/eeprom.o
                0x0000000008002f4c                memcpy_to_eeprom_with_checksum
 .text.memcpy_from_eeprom_with_checksum
                0x000000000800300c       0x54 build/eeprom.o
                0x000000000800300c                memcpy_from_eeprom_with_checksum
 .text.gc_init  0x0000000008003060       0x2c build/gcode.o
                0x0000000008003060                gc_init
 .text.gc_sync_position
                0x000000000800308c       0x10 build/gcode.o
                0x000000000800308c                gc_sync_position
 *fill*         0x000000000800309c        0x4 
 .text.gc_execute_line
                0x00000000080030a0     0x13b0 build/gcode.o
                0x00000000080030a0                gc_execute_line
 .text.jog_execute
                0x0000000008004450       0x60 build/jog.o
                0x0000000008004450                jog_execute
 .text.limits_init
                0x00000000080044b0       0x28 build/limits.o
                0x00000000080044b0                limits_init
 .text.limits_disable
                0x00000000080044d8       0x18 build/limits.o
                0x00000000080044d8                limits_disable
 .text.limits_get_state
                0x00000000080044f0       0x4c build/limits.o
                0x00000000080044f0                limits_get_state
 .text.HandleLimitIT
                0x000000000800453c       0x68 build/limits.o
                0x000000000800453c                HandleLimitIT
 .text.limits_go_home
                0x00000000080045a4      0x3bc build/limits.o
                0x00000000080045a4                limits_go_home
 .text.limits_soft_check
                0x0000000008004960       0x44 build/limits.o
                0x0000000008004960                limits_soft_check
 .text.mc_line  0x00000000080049a4       0x68 build/motion_control.o
                0x00000000080049a4                mc_line
 *fill*         0x0000000008004a0c        0x4 
 .text.mc_arc   0x0000000008004a10      0x434 build/motion_control.o
                0x0000000008004a10                mc_arc
 .text.mc_dwell
                0x0000000008004e44       0x24 build/motion_control.o
                0x0000000008004e44                mc_dwell
 .text.mc_homing_cycle
                0x0000000008004e68       0x5c build/motion_control.o
                0x0000000008004e68                mc_homing_cycle
 .text.mc_probe_cycle
                0x0000000008004ec4      0x124 build/motion_control.o
                0x0000000008004ec4                mc_probe_cycle
 .text.mc_reset
                0x0000000008004fe8       0x64 build/motion_control.o
                0x0000000008004fe8                mc_reset
 *fill*         0x000000000800504c        0x4 
 .text.read_float
                0x0000000008005050      0x124 build/nuts_bolts.o
                0x0000000008005050                read_float
 .text.delay_sec
                0x0000000008005174       0x74 build/nuts_bolts.o
                0x0000000008005174                delay_sec
 .text.delay_ms
                0x00000000080051e8       0x3c build/nuts_bolts.o
                0x00000000080051e8                delay_ms
 .text.hypot_f  0x0000000008005224       0x24 build/nuts_bolts.o
                0x0000000008005224                hypot_f
 .text.convert_delta_vector_to_unit_vector
                0x0000000008005248       0x98 build/nuts_bolts.o
                0x0000000008005248                convert_delta_vector_to_unit_vector
 .text.limit_value_by_axis_maximum
                0x00000000080052e0       0x7c build/nuts_bolts.o
                0x00000000080052e0                limit_value_by_axis_maximum
 .text.planner_recalculate
                0x000000000800535c      0x1c4 build/planner.o
 .text.plan_reset
                0x0000000008005520       0x40 build/planner.o
                0x0000000008005520                plan_reset
 .text.plan_discard_current_block
                0x0000000008005560       0x38 build/planner.o
                0x0000000008005560                plan_discard_current_block
 .text.plan_get_system_motion_block
                0x0000000008005598       0x18 build/planner.o
                0x0000000008005598                plan_get_system_motion_block
 .text.plan_get_current_block
                0x00000000080055b0       0x24 build/planner.o
                0x00000000080055b0                plan_get_current_block
 .text.plan_get_exec_block_exit_speed_sqr
                0x00000000080055d4       0x34 build/planner.o
                0x00000000080055d4                plan_get_exec_block_exit_speed_sqr
 .text.plan_check_full_buffer
                0x0000000008005608       0x1c build/planner.o
                0x0000000008005608                plan_check_full_buffer
 *fill*         0x0000000008005624        0x4 
 .text.plan_compute_profile_nominal_speed
                0x0000000008005628       0xa4 build/planner.o
                0x0000000008005628                plan_compute_profile_nominal_speed
 *fill*         0x00000000080056cc        0x4 
 .text.plan_update_velocity_profile_parameters
                0x00000000080056d0      0x128 build/planner.o
                0x00000000080056d0                plan_update_velocity_profile_parameters
 .text.plan_buffer_line
                0x00000000080057f8      0x404 build/planner.o
                0x00000000080057f8                plan_buffer_line
 .text.plan_sync_position
                0x0000000008005bfc       0x1c build/planner.o
                0x0000000008005bfc                plan_sync_position
 .text.plan_get_block_buffer_available
                0x0000000008005c18       0x24 build/planner.o
                0x0000000008005c18                plan_get_block_buffer_available
 .text.plan_cycle_reinitialize
                0x0000000008005c3c       0x20 build/planner.o
                0x0000000008005c3c                plan_cycle_reinitialize
 .text.printString
                0x0000000008005c5c       0x18 build/print.o
                0x0000000008005c5c                printString
 .text.print_uint8_base10
                0x0000000008005c74       0x84 build/print.o
                0x0000000008005c74                print_uint8_base10
 .text.printFloat
                0x0000000008005cf8      0x1e0 build/print.o
                0x0000000008005cf8                printFloat
 .text.printFloat_CoordValue
                0x0000000008005ed8      0x200 build/print.o
                0x0000000008005ed8                printFloat_CoordValue
 .text.printFloat_RateValue
                0x00000000080060d8      0x154 build/print.o
                0x00000000080060d8                printFloat_RateValue
 .text.probe_init
                0x000000000800622c       0x20 build/probe.o
                0x000000000800622c                probe_init
 .text.probe_configure_invert_mask
                0x000000000800624c       0x28 build/probe.o
                0x000000000800624c                probe_configure_invert_mask
 .text.probe_get_state
                0x0000000008006274       0x20 build/probe.o
                0x0000000008006274                probe_get_state
 .text.probe_state_monitor
                0x0000000008006294       0x4c build/probe.o
                0x0000000008006294                probe_state_monitor
 .text.protocol_auto_cycle_start
                0x00000000080062e0       0x14 build/protocol.o
                0x00000000080062e0                protocol_auto_cycle_start
 .text.protocol_exec_rt_system
                0x00000000080062f4      0x3cc build/protocol.o
                0x00000000080062f4                protocol_exec_rt_system
 .text.protocol_exec_rt_suspend
                0x00000000080066c0      0x630 build/protocol.o
 .text.protocol_execute_realtime
                0x0000000008006cf0      0x3dc build/protocol.o
                0x0000000008006cf0                protocol_execute_realtime
 .text.protocol_buffer_synchronize
                0x00000000080070cc      0x448 build/protocol.o
                0x00000000080070cc                protocol_buffer_synchronize
 .text.protocol_main_loop
                0x0000000008007514      0x164 build/protocol.o
                0x0000000008007514                protocol_main_loop
 .text.report_status_message
                0x0000000008007678       0x30 build/report.o
                0x0000000008007678                report_status_message
 .text.report_alarm_message
                0x00000000080076a8       0x2c build/report.o
                0x00000000080076a8                report_alarm_message
 .text.report_feedback_message
                0x00000000080076d4       0xbc build/report.o
                0x00000000080076d4                report_feedback_message
 .text.report_init_message
                0x0000000008007790        0xc build/report.o
                0x0000000008007790                report_init_message
 .text.report_grbl_help
                0x000000000800779c        0xc build/report.o
                0x000000000800779c                report_grbl_help
 .text.report_grbl_settings
                0x00000000080077a8      0x538 build/report.o
                0x00000000080077a8                report_grbl_settings
 .text.report_probe_parameters
                0x0000000008007ce0       0x60 build/report.o
                0x0000000008007ce0                report_probe_parameters
 .text.report_ngc_parameters
                0x0000000008007d40      0x194 build/report.o
                0x0000000008007d40                report_ngc_parameters
 .text.report_gcode_modes
                0x0000000008007ed4      0x16c build/report.o
                0x0000000008007ed4                report_gcode_modes
 .text.report_startup_line
                0x0000000008008040       0x30 build/report.o
                0x0000000008008040                report_startup_line
 .text.report_execute_startup_message
                0x0000000008008070       0x48 build/report.o
                0x0000000008008070                report_execute_startup_message
 .text.report_build_info
                0x00000000080080b8       0x6c build/report.o
                0x00000000080080b8                report_build_info
 .text.report_realtime_status
                0x0000000008008124      0x3b0 build/report.o
                0x0000000008008124                report_realtime_status
 .text.serial_get_rx_buffer_available
                0x00000000080084d4       0x24 build/serial.o
                0x00000000080084d4                serial_get_rx_buffer_available
 .text.serial_init
                0x00000000080084f8        0x4 build/serial.o
                0x00000000080084f8                serial_init
 .text.serial_write
                0x00000000080084fc        0x4 build/serial.o
                0x00000000080084fc                serial_write
 .text.serial_read
                0x0000000008008500       0x30 build/serial.o
                0x0000000008008500                serial_read
 .text.HandleUartIT
                0x0000000008008530       0xfc build/serial.o
                0x0000000008008530                HandleUartIT
 .text.serial_reset_read_buffer
                0x000000000800862c       0x14 build/serial.o
                0x000000000800862c                serial_reset_read_buffer
 .text.settings_store_startup_line
                0x0000000008008640       0x24 build/settings.o
                0x0000000008008640                settings_store_startup_line
 .text.settings_store_build_info
                0x0000000008008664        0xc build/settings.o
                0x0000000008008664                settings_store_build_info
 .text.settings_write_coord_data
                0x0000000008008670       0x24 build/settings.o
                0x0000000008008670                settings_write_coord_data
 .text.settings_restore
                0x0000000008008694      0x12c build/settings.o
                0x0000000008008694                settings_restore
 .text.settings_read_startup_line
                0x00000000080087c0       0x38 build/settings.o
                0x00000000080087c0                settings_read_startup_line
 .text.settings_read_build_info
                0x00000000080087f8       0x28 build/settings.o
                0x00000000080087f8                settings_read_build_info
 .text.settings_read_coord_data
                0x0000000008008820       0x3c build/settings.o
                0x0000000008008820                settings_read_coord_data
 .text.settings_store_global_setting
                0x000000000800885c      0x32c build/settings.o
                0x000000000800885c                settings_store_global_setting
 .text.acceleration_scaling
                0x0000000008008b88       0x7c build/settings.o
                0x0000000008008b88                acceleration_scaling
 .text.settings_init
                0x0000000008008c04      0x158 build/settings.o
                0x0000000008008c04                settings_init
 .text.spindle_init
                0x0000000008008d5c       0x4c build/spindle_control.o
                0x0000000008008d5c                spindle_init
 .text.spindle_get_state
                0x0000000008008da8        0xc build/spindle_control.o
                0x0000000008008da8                spindle_get_state
 .text.spindle_stop
                0x0000000008008db4        0x4 build/spindle_control.o
                0x0000000008008db4                spindle_stop
 .text.spindle_set_speed
                0x0000000008008db8       0x14 build/spindle_control.o
                0x0000000008008db8                spindle_set_speed
 *fill*         0x0000000008008dcc        0x4 
 .text.spindle_compute_pwm_value
                0x0000000008008dd0       0xbc build/spindle_control.o
                0x0000000008008dd0                spindle_compute_pwm_value
 *fill*         0x0000000008008e8c        0x4 
 .text.spindle_set_state
                0x0000000008008e90      0x12c build/spindle_control.o
                0x0000000008008e90                spindle_set_state
 *fill*         0x0000000008008fbc        0x4 
 .text.spindle_sync
                0x0000000008008fc0      0x134 build/spindle_control.o
                0x0000000008008fc0                spindle_sync
 .text.st_wake_up
                0x00000000080090f4       0x88 build/stepper.o
                0x00000000080090f4                st_wake_up
 .text.st_go_idle
                0x000000000800917c       0x84 build/stepper.o
                0x000000000800917c                st_go_idle
 .text.HandleStepSetIT
                0x0000000008009200      0x268 build/stepper.o
                0x0000000008009200                HandleStepSetIT
 .text.HandleStepResetIT
                0x0000000008009468       0x20 build/stepper.o
                0x0000000008009468                HandleStepResetIT
 .text.st_generate_step_dir_invert_masks
                0x0000000008009488       0xa4 build/stepper.o
                0x0000000008009488                st_generate_step_dir_invert_masks
 .text.st_reset
                0x000000000800952c      0x184 build/stepper.o
                0x000000000800952c                st_reset
 .text.stepper_init
                0x00000000080096b0       0x58 build/stepper.o
                0x00000000080096b0                stepper_init
 .text.st_update_plan_block_parameters
                0x0000000008009708       0x2c build/stepper.o
                0x0000000008009708                st_update_plan_block_parameters
 *fill*         0x0000000008009734        0x4 
 .text.st_prep_buffer
                0x0000000008009738      0xc8c build/stepper.o
                0x0000000008009738                st_prep_buffer
 .text.st_get_realtime_rate
                0x000000000800a3c4       0x1c build/stepper.o
                0x000000000800a3c4                st_get_realtime_rate
 .text.system_init
                0x000000000800a3e0        0x4 build/system.o
                0x000000000800a3e0                system_init
 .text.system_control_get_state
                0x000000000800a3e4       0x30 build/system.o
                0x000000000800a3e4                system_control_get_state
 .text.HandleControlIT
                0x000000000800a414       0x98 build/system.o
                0x000000000800a414                HandleControlIT
 .text.system_check_safety_door_ajar
                0x000000000800a4ac       0x2c build/system.o
                0x000000000800a4ac                system_check_safety_door_ajar
 .text.system_execute_startup
                0x000000000800a4d8       0x44 build/system.o
                0x000000000800a4d8                system_execute_startup
 .text.system_execute_line
                0x000000000800a51c      0x3ec build/system.o
                0x000000000800a51c                system_execute_line
 .text.system_flag_wco_change
                0x000000000800a908       0x14 build/system.o
                0x000000000800a908                system_flag_wco_change
 .text.system_convert_array_steps_to_mpos
                0x000000000800a91c       0x38 build/system.o
                0x000000000800a91c                system_convert_array_steps_to_mpos
 .text.system_check_travel_limits
                0x000000000800a954       0x60 build/system.o
                0x000000000800a954                system_check_travel_limits
 .text.system_set_exec_state_flag
                0x000000000800a9b4       0x14 build/system.o
                0x000000000800a9b4                system_set_exec_state_flag
 .text.system_clear_exec_state_flag
                0x000000000800a9c8       0x14 build/system.o
                0x000000000800a9c8                system_clear_exec_state_flag
 .text.system_set_exec_alarm
                0x000000000800a9dc       0x14 build/system.o
                0x000000000800a9dc                system_set_exec_alarm
 .text.system_clear_exec_alarm
                0x000000000800a9f0       0x10 build/system.o
                0x000000000800a9f0                system_clear_exec_alarm
 .text.system_set_exec_motion_override_flag
                0x000000000800aa00       0x14 build/system.o
                0x000000000800aa00                system_set_exec_motion_override_flag
 .text.system_set_exec_accessory_override_flag
                0x000000000800aa14       0x14 build/system.o
                0x000000000800aa14                system_set_exec_accessory_override_flag
 .text.system_clear_exec_motion_overrides
                0x000000000800aa28       0x10 build/system.o
                0x000000000800aa28                system_clear_exec_motion_overrides
 .text.system_clear_exec_accessory_overrides
                0x000000000800aa38       0x10 build/system.o
                0x000000000800aa38                system_clear_exec_accessory_overrides
 .text.Reset_Handler
                0x000000000800aa48       0x48 build/startup_stm32f103xb.o
                0x000000000800aa48                Reset_Handler
 .text.Default_Handler
                0x000000000800aa90        0x2 build/startup_stm32f103xb.o
                0x000000000800aa90                USBWakeUp_IRQHandler
                0x000000000800aa90                EXTI2_IRQHandler
                0x000000000800aa90                TIM1_CC_IRQHandler
                0x000000000800aa90                PVD_IRQHandler
                0x000000000800aa90                I2C2_EV_IRQHandler
                0x000000000800aa90                ADC1_2_IRQHandler
                0x000000000800aa90                SPI1_IRQHandler
                0x000000000800aa90                TAMPER_IRQHandler
                0x000000000800aa90                DMA1_Channel4_IRQHandler
                0x000000000800aa90                USART3_IRQHandler
                0x000000000800aa90                RTC_IRQHandler
                0x000000000800aa90                DMA1_Channel7_IRQHandler
                0x000000000800aa90                CAN1_RX1_IRQHandler
                0x000000000800aa90                TIM4_IRQHandler
                0x000000000800aa90                I2C1_EV_IRQHandler
                0x000000000800aa90                DMA1_Channel6_IRQHandler
                0x000000000800aa90                RCC_IRQHandler
                0x000000000800aa90                TIM1_TRG_COM_IRQHandler
                0x000000000800aa90                DMA1_Channel1_IRQHandler
                0x000000000800aa90                Default_Handler
                0x000000000800aa90                EXTI9_5_IRQHandler
                0x000000000800aa90                SPI2_IRQHandler
                0x000000000800aa90                DMA1_Channel5_IRQHandler
                0x000000000800aa90                USB_LP_CAN1_RX0_IRQHandler
                0x000000000800aa90                USB_HP_CAN1_TX_IRQHandler
                0x000000000800aa90                DMA1_Channel3_IRQHandler
                0x000000000800aa90                TIM1_UP_IRQHandler
                0x000000000800aa90                WWDG_IRQHandler
                0x000000000800aa90                TIM1_BRK_IRQHandler
                0x000000000800aa90                USART2_IRQHandler
                0x000000000800aa90                I2C2_ER_IRQHandler
                0x000000000800aa90                DMA1_Channel2_IRQHandler
                0x000000000800aa90                CAN1_SCE_IRQHandler
                0x000000000800aa90                FLASH_IRQHandler
                0x000000000800aa90                I2C1_ER_IRQHandler
                0x000000000800aa90                RTC_Alarm_IRQHandler
 *fill*         0x000000000800aa92        0x2 
 .text.__libc_init_array
                0x000000000800aa94       0x48 /usr/local/Cellar/gcc-arm-none-eabi/20180627/bin/../lib/gcc/arm-none-eabi/7.3.1/../../../../arm-none-eabi/lib/thumb/v7-m/libc_nano.a(lib_a-init.o)
                0x000000000800aa94                __libc_init_array
 .text.memcmp   0x000000000800aadc       0x1e /usr/local/Cellar/gcc-arm-none-eabi/20180627/bin/../lib/gcc/arm-none-eabi/7.3.1/../../../../arm-none-eabi/lib/thumb/v7-m/libc_nano.a(lib_a-memcmp.o)
                0x000000000800aadc                memcmp
 .text.memset   0x000000000800aafa       0x10 /usr/local/Cellar/gcc-arm-none-eabi/20180627/bin/../lib/gcc/arm-none-eabi/7.3.1/../../../../arm-none-eabi/lib/thumb/v7-m/libc_nano.a(lib_a-memset.o)
                0x000000000800aafa                memset
 *fill*         0x000000000800ab0a        0x2 
 .text.sprintf  0x000000000800ab0c       0x40 /usr/local/Cellar/gcc-arm-none-eabi/20180627/bin/../lib/gcc/arm-none-eabi/7.3.1/../../../../arm-none-eabi/lib/thumb/v7-m/libc_nano.a(lib_a-sprintf.o)
                0x000000000800ab0c                sprintf
                0x000000000800ab0c                siprintf
 .text.__ssputs_r
                0x000000000800ab4c       0xb4 /usr/local/Cellar/gcc-arm-none-eabi/20180627/bin/../lib/gcc/arm-none-eabi/7.3.1/../../../../arm-none-eabi/lib/thumb/v7-m/libc_nano.a(lib_a-nano-svfprintf.o)
                0x000000000800ab4c                __ssputs_r
 .text._svfprintf_r
                0x000000000800ac00      0x1f0 /usr/local/Cellar/gcc-arm-none-eabi/20180627/bin/../lib/gcc/arm-none-eabi/7.3.1/../../../../arm-none-eabi/lib/thumb/v7-m/libc_nano.a(lib_a-nano-svfprintf.o)
                0x000000000800ac00                _svfprintf_r
                0x000000000800ac00                _svfiprintf_r
 .text._printf_common
                0x000000000800adf0       0xec /usr/local/Cellar/gcc-arm-none-eabi/20180627/bin/../lib/gcc/arm-none-eabi/7.3.1/../../../../arm-none-eabi/lib/thumb/v7-m/libc_nano.a(lib_a-nano-vfprintf_i.o)
                0x000000000800adf0                _printf_common
 .text._printf_i
                0x000000000800aedc      0x224 /usr/local/Cellar/gcc-arm-none-eabi/20180627/bin/../lib/gcc/arm-none-eabi/7.3.1/../../../../arm-none-eabi/lib/thumb/v7-m/libc_nano.a(lib_a-nano-vfprintf_i.o)
                0x000000000800aedc                _printf_i
 .text.memchr   0x000000000800b100       0x1c /usr/local/Cellar/gcc-arm-none-eabi/20180627/bin/../lib/gcc/arm-none-eabi/7.3.1/../../../../arm-none-eabi/lib/thumb/v7-m/libc_nano.a(lib_a-memchr-stub.o)
                0x000000000800b100                memchr
 .text.memcpy   0x000000000800b11c       0x16 /usr/local/Cellar/gcc-arm-none-eabi/20180627/bin/../lib/gcc/arm-none-eabi/7.3.1/../../../../arm-none-eabi/lib/thumb/v7-m/libc_nano.a(lib_a-memcpy-stub.o)
                0x000000000800b11c                memcpy
 .text.memmove  0x000000000800b132       0x32 /usr/local/Cellar/gcc-arm-none-eabi/20180627/bin/../lib/gcc/arm-none-eabi/7.3.1/../../../../arm-none-eabi/lib/thumb/v7-m/libc_nano.a(lib_a-memmove.o)
                0x000000000800b132                memmove
 .text._free_r  0x000000000800b164       0x98 /usr/local/Cellar/gcc-arm-none-eabi/20180627/bin/../lib/gcc/arm-none-eabi/7.3.1/../../../../arm-none-eabi/lib/thumb/v7-m/libc_nano.a(lib_a-nano-freer.o)
                0x000000000800b164                _free_r
 .text._malloc_r
                0x000000000800b1fc       0xb4 /usr/local/Cellar/gcc-arm-none-eabi/20180627/bin/../lib/gcc/arm-none-eabi/7.3.1/../../../../arm-none-eabi/lib/thumb/v7-m/libc_nano.a(lib_a-nano-mallocr.o)
                0x000000000800b1fc                _malloc_r
 .text._realloc_r
                0x000000000800b2b0       0x4c /usr/local/Cellar/gcc-arm-none-eabi/20180627/bin/../lib/gcc/arm-none-eabi/7.3.1/../../../../arm-none-eabi/lib/thumb/v7-m/libc_nano.a(lib_a-nano-reallocr.o)
                0x000000000800b2b0                _realloc_r
 .text._sbrk_r  0x000000000800b2fc       0x20 /usr/local/Cellar/gcc-arm-none-eabi/20180627/bin/../lib/gcc/arm-none-eabi/7.3.1/../../../../arm-none-eabi/lib/thumb/v7-m/libc_nano.a(lib_a-sbrkr.o)
                0x000000000800b2fc                _sbrk_r
 .text.__malloc_lock
                0x000000000800b31c        0x2 /usr/local/Cellar/gcc-arm-none-eabi/20180627/bin/../lib/gcc/arm-none-eabi/7.3.1/../../../../arm-none-eabi/lib/thumb/v7-m/libc_nano.a(lib_a-mlock.o)
                0x000000000800b31c                __malloc_lock
 .text.__malloc_unlock
                0x000000000800b31e        0x2 /usr/local/Cellar/gcc-arm-none-eabi/20180627/bin/../lib/gcc/arm-none-eabi/7.3.1/../../../../arm-none-eabi/lib/thumb/v7-m/libc_nano.a(lib_a-mlock.o)
                0x000000000800b31e                __malloc_unlock
 .text._malloc_usable_size_r
                0x000000000800b320       0x10 /usr/local/Cellar/gcc-arm-none-eabi/20180627/bin/../lib/gcc/arm-none-eabi/7.3.1/../../../../arm-none-eabi/lib/thumb/v7-m/libc_nano.a(lib_a-nano-msizer.o)
                0x000000000800b320                _malloc_usable_size_r
 .text.ceil     0x000000000800b330      0x110 /usr/local/Cellar/gcc-arm-none-eabi/20180627/bin/../lib/gcc/arm-none-eabi/7.3.1/../../../../arm-none-eabi/lib/thumb/v7-m/libm.a(lib_a-s_ceil.o)
                0x000000000800b330                ceil
 .text.floor    0x000000000800b440      0x108 /usr/local/Cellar/gcc-arm-none-eabi/20180627/bin/../lib/gcc/arm-none-eabi/7.3.1/../../../../arm-none-eabi/lib/thumb/v7-m/libm.a(lib_a-s_floor.o)
                0x000000000800b440                floor
 .text.lround   0x000000000800b548       0x8c /usr/local/Cellar/gcc-arm-none-eabi/20180627/bin/../lib/gcc/arm-none-eabi/7.3.1/../../../../arm-none-eabi/lib/thumb/v7-m/libm.a(lib_a-s_lround.o)
                0x000000000800b548                lround
 .text.round    0x000000000800b5d4       0x9c /usr/local/Cellar/gcc-arm-none-eabi/20180627/bin/../lib/gcc/arm-none-eabi/7.3.1/../../../../arm-none-eabi/lib/thumb/v7-m/libm.a(lib_a-s_round.o)
                0x000000000800b5d4                round
 .text.trunc    0x000000000800b670       0x64 /usr/local/Cellar/gcc-arm-none-eabi/20180627/bin/../lib/gcc/arm-none-eabi/7.3.1/../../../../arm-none-eabi/lib/thumb/v7-m/libm.a(lib_a-s_trunc.o)
                0x000000000800b670                trunc
 .text.ceilf    0x000000000800b6d4       0x88 /usr/local/Cellar/gcc-arm-none-eabi/20180627/bin/../lib/gcc/arm-none-eabi/7.3.1/../../../../arm-none-eabi/lib/thumb/v7-m/libm.a(lib_a-sf_ceil.o)
                0x000000000800b6d4                ceilf
 .text.cosf     0x000000000800b75c       0x78 /usr/local/Cellar/gcc-arm-none-eabi/20180627/bin/../lib/gcc/arm-none-eabi/7.3.1/../../../../arm-none-eabi/lib/thumb/v7-m/libm.a(lib_a-sf_cos.o)
                0x000000000800b75c                cosf
 .text.sinf     0x000000000800b7d4       0x7c /usr/local/Cellar/gcc-arm-none-eabi/20180627/bin/../lib/gcc/arm-none-eabi/7.3.1/../../../../arm-none-eabi/lib/thumb/v7-m/libm.a(lib_a-sf_sin.o)
                0x000000000800b7d4                sinf
 .text.sqrt     0x000000000800b850       0xbc /usr/local/Cellar/gcc-arm-none-eabi/20180627/bin/../lib/gcc/arm-none-eabi/7.3.1/../../../../arm-none-eabi/lib/thumb/v7-m/libm.a(lib_a-w_sqrt.o)
                0x000000000800b850                sqrt
 .text.atan2f   0x000000000800b90c        0x4 /usr/local/Cellar/gcc-arm-none-eabi/20180627/bin/../lib/gcc/arm-none-eabi/7.3.1/../../../../arm-none-eabi/lib/thumb/v7-m/libm.a(lib_a-wf_atan2.o)
                0x000000000800b90c                atan2f
 .text.sqrtf    0x000000000800b910       0xa0 /usr/local/Cellar/gcc-arm-none-eabi/20180627/bin/../lib/gcc/arm-none-eabi/7.3.1/../../../../arm-none-eabi/lib/thumb/v7-m/libm.a(lib_a-wf_sqrt.o)
                0x000000000800b910                sqrtf
 .text.__ieee754_sqrt
                0x000000000800b9b0      0x184 /usr/local/Cellar/gcc-arm-none-eabi/20180627/bin/../lib/gcc/arm-none-eabi/7.3.1/../../../../arm-none-eabi/lib/thumb/v7-m/libm.a(lib_a-e_sqrt.o)
                0x000000000800b9b0                __ieee754_sqrt
 .text.__ieee754_atan2f
                0x000000000800bb34      0x120 /usr/local/Cellar/gcc-arm-none-eabi/20180627/bin/../lib/gcc/arm-none-eabi/7.3.1/../../../../arm-none-eabi/lib/thumb/v7-m/libm.a(lib_a-ef_atan2.o)
                0x000000000800bb34                __ieee754_atan2f
 .text.__ieee754_rem_pio2f
                0x000000000800bc54      0x2e4 /usr/local/Cellar/gcc-arm-none-eabi/20180627/bin/../lib/gcc/arm-none-eabi/7.3.1/../../../../arm-none-eabi/lib/thumb/v7-m/libm.a(lib_a-ef_rem_pio2.o)
                0x000000000800bc54                __ieee754_rem_pio2f
 .text.__ieee754_sqrtf
                0x000000000800bf38       0xa8 /usr/local/Cellar/gcc-arm-none-eabi/20180627/bin/../lib/gcc/arm-none-eabi/7.3.1/../../../../arm-none-eabi/lib/thumb/v7-m/libm.a(lib_a-ef_sqrt.o)
                0x000000000800bf38                __ieee754_sqrtf
 .text.__kernel_cosf
                0x000000000800bfe0      0x188 /usr/local/Cellar/gcc-arm-none-eabi/20180627/bin/../lib/gcc/arm-none-eabi/7.3.1/../../../../arm-none-eabi/lib/thumb/v7-m/libm.a(lib_a-kf_cos.o)
                0x000000000800bfe0                __kernel_cosf
 .text.__kernel_rem_pio2f
                0x000000000800c168      0x6c4 /usr/local/Cellar/gcc-arm-none-eabi/20180627/bin/../lib/gcc/arm-none-eabi/7.3.1/../../../../arm-none-eabi/lib/thumb/v7-m/libm.a(lib_a-kf_rem_pio2.o)
                0x000000000800c168                __kernel_rem_pio2f
 .text.__kernel_sinf
                0x000000000800c82c       0xec /usr/local/Cellar/gcc-arm-none-eabi/20180627/bin/../lib/gcc/arm-none-eabi/7.3.1/../../../../arm-none-eabi/lib/thumb/v7-m/libm.a(lib_a-kf_sin.o)
                0x000000000800c82c                __kernel_sinf
 .text.matherr  0x000000000800c918        0x4 /usr/local/Cellar/gcc-arm-none-eabi/20180627/bin/../lib/gcc/arm-none-eabi/7.3.1/../../../../arm-none-eabi/lib/thumb/v7-m/libm.a(lib_a-s_matherr.o)
                0x000000000800c918                matherr
 .text.atanf    0x000000000800c91c      0x21c /usr/local/Cellar/gcc-arm-none-eabi/20180627/bin/../lib/gcc/arm-none-eabi/7.3.1/../../../../arm-none-eabi/lib/thumb/v7-m/libm.a(lib_a-sf_atan.o)
                0x000000000800c91c                atanf
 .text.fabsf    0x000000000800cb38        0x8 /usr/local/Cellar/gcc-arm-none-eabi/20180627/bin/../lib/gcc/arm-none-eabi/7.3.1/../../../../arm-none-eabi/lib/thumb/v7-m/libm.a(lib_a-sf_fabs.o)
                0x000000000800cb38                fabsf
 .text.floorf   0x000000000800cb40       0x88 /usr/local/Cellar/gcc-arm-none-eabi/20180627/bin/../lib/gcc/arm-none-eabi/7.3.1/../../../../arm-none-eabi/lib/thumb/v7-m/libm.a(lib_a-sf_floor.o)
                0x000000000800cb40                floorf
 .text.scalbnf  0x000000000800cbc8       0xb0 /usr/local/Cellar/gcc-arm-none-eabi/20180627/bin/../lib/gcc/arm-none-eabi/7.3.1/../../../../arm-none-eabi/lib/thumb/v7-m/libm.a(lib_a-sf_scalbn.o)
                0x000000000800cbc8                scalbnf
 .text.copysignf
                0x000000000800cc78        0xc /usr/local/Cellar/gcc-arm-none-eabi/20180627/bin/../lib/gcc/arm-none-eabi/7.3.1/../../../../arm-none-eabi/lib/thumb/v7-m/libm.a(lib_a-sf_copysign.o)
                0x000000000800cc78                copysignf
 .text._sbrk    0x000000000800cc84       0x1c /usr/local/Cellar/gcc-arm-none-eabi/20180627/bin/../lib/gcc/arm-none-eabi/7.3.1/../../../../arm-none-eabi/lib/thumb/v7-m/libnosys.a(sbrk.o)
                0x000000000800cc84                _sbrk
 .text.__errno  0x000000000800cca0        0xc /usr/local/Cellar/gcc-arm-none-eabi/20180627/bin/../lib/gcc/arm-none-eabi/7.3.1/../../../../arm-none-eabi/lib/thumb/v7-m/libc_nano.a(lib_a-errno.o)
                0x000000000800cca0                __errno
 *(.glue_7)
 .glue_7        0x000000000800ccac        0x0 linker stubs
 *(.glue_7t)
 .glue_7t       0x000000000800ccac        0x0 linker stubs
 *(.eh_frame)
 .eh_frame      0x000000000800ccac        0x0 /usr/local/Cellar/gcc-arm-none-eabi/20180627/bin/../lib/gcc/arm-none-eabi/7.3.1/thumb/v7-m/crtbegin.o
 *(.init)
 .init          0x000000000800ccac        0x4 /usr/local/Cellar/gcc-arm-none-eabi/20180627/bin/../lib/gcc/arm-none-eabi/7.3.1/thumb/v7-m/crti.o
                0x000000000800ccac                _init
 .init          0x000000000800ccb0        0x8 /usr/local/Cellar/gcc-arm-none-eabi/20180627/bin/../lib/gcc/arm-none-eabi/7.3.1/thumb/v7-m/crtn.o
 *(.fini)
 .fini          0x000000000800ccb8        0x4 /usr/local/Cellar/gcc-arm-none-eabi/20180627/bin/../lib/gcc/arm-none-eabi/7.3.1/thumb/v7-m/crti.o
                0x000000000800ccb8                _fini
 .fini          0x000000000800ccbc        0x8 /usr/local/Cellar/gcc-arm-none-eabi/20180627/bin/../lib/gcc/arm-none-eabi/7.3.1/thumb/v7-m/crtn.o
                0x000000000800ccc4                . = ALIGN (0x4)
                0x000000000800ccc4                _etext = .

.vfp11_veneer   0x000000000800ccc4        0x0
 .vfp11_veneer  0x000000000800ccc4        0x0 linker stubs

.v4_bx          0x000000000800ccc4        0x0
 .v4_bx         0x000000000800ccc4        0x0 linker stubs

.iplt           0x000000000800ccc4        0x0
 .iplt          0x000000000800ccc4        0x0 /usr/local/Cellar/gcc-arm-none-eabi/20180627/bin/../lib/gcc/arm-none-eabi/7.3.1/thumb/v7-m/crtbegin.o

.rodata         0x000000000800ccc4      0x6ac
                0x000000000800ccc4                . = ALIGN (0x4)
 *(.rodata)
 .rodata        0x000000000800ccc4       0x10 build/stm32f1xx_hal_rcc.o
 *(.rodata*)
 .rodata.AHBPrescTable
                0x000000000800ccd4       0x10 build/system_stm32f1xx.o
                0x000000000800ccd4                AHBPrescTable
 .rodata.APBPrescTable
                0x000000000800cce4        0x8 build/system_stm32f1xx.o
                0x000000000800cce4                APBPrescTable
 .rodata.outputs_pin_mask
                0x000000000800ccec        0x8 build/inoutputs.o
                0x000000000800ccec                outputs_pin_mask
 .rodata.direction_pin_mask
                0x000000000800ccf4        0x6 build/stm32utilities.o
                0x000000000800ccf4                direction_pin_mask
 *fill*         0x000000000800ccfa        0x2 
 .rodata.limit_pin_mask
                0x000000000800ccfc        0x6 build/stm32utilities.o
                0x000000000800ccfc                limit_pin_mask
 *fill*         0x000000000800cd02        0x2 
 .rodata.step_pin_mask
                0x000000000800cd04        0x6 build/stm32utilities.o
                0x000000000800cd04                step_pin_mask
 *fill*         0x000000000800cd0a        0x2 
 .rodata.uart_init.str1.4
                0x000000000800cd0c        0xf build/stm32utilities.o
 *fill*         0x000000000800cd1b        0x1 
 .rodata.report_alarm_message.str1.4
                0x000000000800cd1c        0x7 build/report.o
 *fill*         0x000000000800cd23        0x1 
 .rodata.report_build_info.str1.4
                0x000000000800cd24       0x22 build/report.o
 *fill*         0x000000000800cd46        0x2 
 .rodata.report_feedback_message.str1.4
                0x000000000800cd48       0xad build/report.o
 *fill*         0x000000000800cdf5        0x3 
 .rodata.report_gcode_modes.str1.4
                0x000000000800cdf8       0x1f build/report.o
 *fill*         0x000000000800ce17        0x1 
 .rodata.report_grbl_help.str1.4
                0x000000000800ce18       0x4a build/report.o
 *fill*         0x000000000800ce62        0x2 
 .rodata.report_init_message.str1.4
                0x000000000800ce64       0x22 build/report.o
 *fill*         0x000000000800ce86        0x2 
 .rodata.report_ngc_parameters.str1.4
                0x000000000800ce88       0x1a build/report.o
 *fill*         0x000000000800cea2        0x2 
 .rodata.report_probe_parameters.str1.4
                0x000000000800cea4        0x6 build/report.o
 *fill*         0x000000000800ceaa        0x2 
 .rodata.report_realtime_status.str1.4
                0x000000000800ceac       0x7b build/report.o
 *fill*         0x000000000800cf27        0x1 
 .rodata.report_startup_line.str1.4
                0x000000000800cf28        0x3 build/report.o
 *fill*         0x000000000800cf2b        0x1 
 .rodata.report_status_message.str1.4
                0x000000000800cf2c        0xf build/report.o
                                         0x13 (size before relaxing)
 .rodata._svfprintf_r.str1.1
                0x000000000800cf3b       0x11 /usr/local/Cellar/gcc-arm-none-eabi/20180627/bin/../lib/gcc/arm-none-eabi/7.3.1/../../../../arm-none-eabi/lib/thumb/v7-m/libc_nano.a(lib_a-nano-svfprintf.o)
 .rodata._printf_i.str1.1
                0x000000000800cf4c       0x22 /usr/local/Cellar/gcc-arm-none-eabi/20180627/bin/../lib/gcc/arm-none-eabi/7.3.1/../../../../arm-none-eabi/lib/thumb/v7-m/libc_nano.a(lib_a-nano-vfprintf_i.o)
 *fill*         0x000000000800cf6e        0x2 
 .rodata.sqrt.str1.4
                0x000000000800cf70        0x5 /usr/local/Cellar/gcc-arm-none-eabi/20180627/bin/../lib/gcc/arm-none-eabi/7.3.1/../../../../arm-none-eabi/lib/thumb/v7-m/libm.a(lib_a-w_sqrt.o)
 *fill*         0x000000000800cf75        0x3 
 .rodata.sqrtf.str1.4
                0x000000000800cf78        0x8 /usr/local/Cellar/gcc-arm-none-eabi/20180627/bin/../lib/gcc/arm-none-eabi/7.3.1/../../../../arm-none-eabi/lib/thumb/v7-m/libm.a(lib_a-wf_sqrt.o)
                                          0x6 (size before relaxing)
 .rodata.npio2_hw
                0x000000000800cf80       0x80 /usr/local/Cellar/gcc-arm-none-eabi/20180627/bin/../lib/gcc/arm-none-eabi/7.3.1/../../../../arm-none-eabi/lib/thumb/v7-m/libm.a(lib_a-ef_rem_pio2.o)
 .rodata.two_over_pi
                0x000000000800d000      0x318 /usr/local/Cellar/gcc-arm-none-eabi/20180627/bin/../lib/gcc/arm-none-eabi/7.3.1/../../../../arm-none-eabi/lib/thumb/v7-m/libm.a(lib_a-ef_rem_pio2.o)
 .rodata.PIo2   0x000000000800d318       0x2c /usr/local/Cellar/gcc-arm-none-eabi/20180627/bin/../lib/gcc/arm-none-eabi/7.3.1/../../../../arm-none-eabi/lib/thumb/v7-m/libm.a(lib_a-kf_rem_pio2.o)
 .rodata.init_jk
                0x000000000800d344        0xc /usr/local/Cellar/gcc-arm-none-eabi/20180627/bin/../lib/gcc/arm-none-eabi/7.3.1/../../../../arm-none-eabi/lib/thumb/v7-m/libm.a(lib_a-kf_rem_pio2.o)
 .rodata.atanhi
                0x000000000800d350       0x10 /usr/local/Cellar/gcc-arm-none-eabi/20180627/bin/../lib/gcc/arm-none-eabi/7.3.1/../../../../arm-none-eabi/lib/thumb/v7-m/libm.a(lib_a-sf_atan.o)
 .rodata.atanlo
                0x000000000800d360       0x10 /usr/local/Cellar/gcc-arm-none-eabi/20180627/bin/../lib/gcc/arm-none-eabi/7.3.1/../../../../arm-none-eabi/lib/thumb/v7-m/libm.a(lib_a-sf_atan.o)
                0x000000000800d370                . = ALIGN (0x4)

.rel.dyn        0x000000000800d370        0x0
 .rel.iplt      0x000000000800d370        0x0 /usr/local/Cellar/gcc-arm-none-eabi/20180627/bin/../lib/gcc/arm-none-eabi/7.3.1/thumb/v7-m/crtbegin.o

.ARM.extab
 *(.ARM.extab* .gnu.linkonce.armextab.*)

.ARM            0x000000000800d370        0x0
                0x000000000800d370                __exidx_start = .
 *(.ARM.exidx*)
                0x000000000800d370                __exidx_end = .

.preinit_array  0x000000000800d370        0x0
                0x000000000800d370                PROVIDE (__preinit_array_start = .)
 *(.preinit_array*)
                0x000000000800d370                PROVIDE (__preinit_array_end = .)

.init_array     0x000000000800d370        0x4
                0x000000000800d370                PROVIDE (__init_array_start = .)
 *(SORT_BY_NAME(.init_array.*))
 *(.init_array*)
 .init_array    0x000000000800d370        0x4 /usr/local/Cellar/gcc-arm-none-eabi/20180627/bin/../lib/gcc/arm-none-eabi/7.3.1/thumb/v7-m/crtbegin.o
                0x000000000800d374                PROVIDE (__init_array_end = .)

.fini_array     0x000000000800d374        0x4
                [!provide]                        PROVIDE (__fini_array_start = .)
 *(SORT_BY_NAME(.fini_array.*))
 *(.fini_array*)
 .fini_array    0x000000000800d374        0x4 /usr/local/Cellar/gcc-arm-none-eabi/20180627/bin/../lib/gcc/arm-none-eabi/7.3.1/thumb/v7-m/crtbegin.o
                [!provide]                        PROVIDE (__fini_array_end = .)
                0x000000000800d378                _sidata = LOADADDR (.data)

.data           0x0000000020000000       0x74 load address 0x000000000800d378
                0x0000000020000000                . = ALIGN (0x4)
                0x0000000020000000                _sdata = .
 *(.data)
 *(.data*)
 .data.uwTickFreq
                0x0000000020000000        0x1 build/stm32f1xx_hal.o
                0x0000000020000000                uwTickFreq
 *fill*         0x0000000020000001        0x3 
 .data.uwTickPrio
                0x0000000020000004        0x4 build/stm32f1xx_hal.o
                0x0000000020000004                uwTickPrio
 .data.SystemCoreClock
                0x0000000020000008        0x4 build/system_stm32f1xx.o
                0x0000000020000008                SystemCoreClock
 .data._impure_ptr
                0x000000002000000c        0x4 /usr/local/Cellar/gcc-arm-none-eabi/20180627/bin/../lib/gcc/arm-none-eabi/7.3.1/../../../../arm-none-eabi/lib/thumb/v7-m/libc_nano.a(lib_a-impure.o)
                0x000000002000000c                _impure_ptr
 .data.impure_data
                0x0000000020000010       0x60 /usr/local/Cellar/gcc-arm-none-eabi/20180627/bin/../lib/gcc/arm-none-eabi/7.3.1/../../../../arm-none-eabi/lib/thumb/v7-m/libc_nano.a(lib_a-impure.o)
 .data.__fdlib_version
                0x0000000020000070        0x1 /usr/local/Cellar/gcc-arm-none-eabi/20180627/bin/../lib/gcc/arm-none-eabi/7.3.1/../../../../arm-none-eabi/lib/thumb/v7-m/libm.a(lib_a-s_lib_ver.o)
                0x0000000020000070                __fdlib_version
                0x0000000020000074                . = ALIGN (0x4)
 *fill*         0x0000000020000071        0x3 
                0x0000000020000074                _edata = .

.igot.plt       0x0000000020000074        0x0 load address 0x000000000800d3ec
 .igot.plt      0x0000000020000074        0x0 /usr/local/Cellar/gcc-arm-none-eabi/20180627/bin/../lib/gcc/arm-none-eabi/7.3.1/thumb/v7-m/crtbegin.o
                0x0000000020000074                . = ALIGN (0x4)

.bss            0x0000000020000078     0x34fc load address 0x000000000800d3ec
                0x0000000020000078                _sbss = .
                0x0000000020000078                __bss_start__ = _sbss
 *(.bss)
 .bss           0x0000000020000078       0x1c /usr/local/Cellar/gcc-arm-none-eabi/20180627/bin/../lib/gcc/arm-none-eabi/7.3.1/thumb/v7-m/crtbegin.o
 *(.bss*)
 .bss.fTICKS_PER_MINUTE
                0x0000000020000094        0x4 build/stm32utilities.o
                0x0000000020000094                fTICKS_PER_MINUTE
 .bss.uTICKS_PER_MICROSECOND
                0x0000000020000098        0x4 build/stm32utilities.o
                0x0000000020000098                uTICKS_PER_MICROSECOND
 .bss.block_buffer
                0x000000002000009c     0x28a0 build/planner.o
 .bss.block_buffer_head
                0x000000002000293c        0x1 build/planner.o
 .bss.block_buffer_planned
                0x000000002000293d        0x1 build/planner.o
 .bss.block_buffer_tail
                0x000000002000293e        0x1 build/planner.o
 .bss.next_buffer_head
                0x000000002000293f        0x1 build/planner.o
 .bss.pl        0x0000000020002940       0x1c build/planner.o
 .bss.line      0x000000002000295c       0x50 build/protocol.o
 .bss.serial_rx_buffer_head
                0x00000000200029ac        0x1 build/serial.o
                0x00000000200029ac                serial_rx_buffer_head
 .bss.serial_rx_buffer_tail
                0x00000000200029ad        0x1 build/serial.o
                0x00000000200029ad                serial_rx_buffer_tail
 *fill*         0x00000000200029ae        0x2 
 .bss.pwm_gradient
                0x00000000200029b0        0x4 build/spindle_control.o
 .bss.busy      0x00000000200029b4        0x1 build/stepper.o
 *fill*         0x00000000200029b5        0x1 
 .bss.dir_port_invert_mask
                0x00000000200029b6        0x2 build/stepper.o
 .bss.pl_block  0x00000000200029b8        0x4 build/stepper.o
 .bss.prep      0x00000000200029bc       0x38 build/stepper.o
 .bss.segment_buffer
                0x00000000200029f4      0x100 build/stepper.o
 .bss.segment_buffer_head
                0x0000000020002af4        0x1 build/stepper.o
 .bss.segment_buffer_tail
                0x0000000020002af5        0x1 build/stepper.o
 .bss.segment_next_head
                0x0000000020002af6        0x1 build/stepper.o
 *fill*         0x0000000020002af7        0x1 
 .bss.st        0x0000000020002af8       0x38 build/stepper.o
 .bss.st_block_buffer
                0x0000000020002b30      0x26c build/stepper.o
 .bss.st_prep_block
                0x0000000020002d9c        0x4 build/stepper.o
 .bss.step_port_invert_mask
                0x0000000020002da0        0x2 build/stepper.o
 *fill*         0x0000000020002da2        0x2 
 .bss.__malloc_free_list
                0x0000000020002da4        0x4 /usr/local/Cellar/gcc-arm-none-eabi/20180627/bin/../lib/gcc/arm-none-eabi/7.3.1/../../../../arm-none-eabi/lib/thumb/v7-m/libc_nano.a(lib_a-nano-mallocr.o)
                0x0000000020002da4                __malloc_free_list
 .bss.__malloc_sbrk_start
                0x0000000020002da8        0x4 /usr/local/Cellar/gcc-arm-none-eabi/20180627/bin/../lib/gcc/arm-none-eabi/7.3.1/../../../../arm-none-eabi/lib/thumb/v7-m/libc_nano.a(lib_a-nano-mallocr.o)
                0x0000000020002da8                __malloc_sbrk_start
 .bss.heap_end.4102
                0x0000000020002dac        0x4 /usr/local/Cellar/gcc-arm-none-eabi/20180627/bin/../lib/gcc/arm-none-eabi/7.3.1/../../../../arm-none-eabi/lib/thumb/v7-m/libnosys.a(sbrk.o)
 *(COMMON)
 COMMON         0x0000000020002db0       0x35 build/main.o
                0x0000000020002db0                sys_rt_exec_motion_override
                0x0000000020002db4                sys
                0x0000000020002dc8                sys_rt_exec_accessory_override
                0x0000000020002dc9                sys_rt_exec_state
                0x0000000020002dca                sys_probe_state
                0x0000000020002dcc                sys_probe_position
                0x0000000020002dd8                sys_position
                0x0000000020002de4                sys_rt_exec_alarm
 *fill*         0x0000000020002de5        0x3 
 COMMON         0x0000000020002de8       0x54 build/i2c.o
                0x0000000020002de8                hi2c1
 COMMON         0x0000000020002e3c        0x4 build/stm32f1xx_hal.o
                0x0000000020002e3c                uwTick
 COMMON         0x0000000020002e40       0x20 build/stm32f1xx_hal_flash.o
                0x0000000020002e40                pFlash
 COMMON         0x0000000020002e60       0x79 build/stm32utilities.o
                0x0000000020002e60                pDbgStr
                0x0000000020002eb0                pDbgVal8a
                0x0000000020002ebc                pDbgVal16
                0x0000000020002ed0                pDbgVal8b
 *fill*         0x0000000020002ed9        0x3 
 COMMON         0x0000000020002edc      0x400 build/eeprom.o
                0x0000000020002edc                EE_Buffer
 COMMON         0x00000000200032dc       0x94 build/gcode.o
                0x00000000200032dc                gc_state
                0x0000000020003324                gc_block
 COMMON         0x0000000020003370        0x2 build/probe.o
                0x0000000020003370                probe_invert_mask
 *fill*         0x0000000020003372        0x2 
 COMMON         0x0000000020003374      0x17e build/serial.o
                0x0000000020003374                serial_tx_buffer
                0x00000000200033f4                serial_rx_buffer
 *fill*         0x00000000200034f2        0x2 
 COMMON         0x00000000200034f4       0x7c build/settings.o
                0x00000000200034f4                settings
                0x0000000020003558                adjustments
 COMMON         0x0000000020003570        0x4 /usr/local/Cellar/gcc-arm-none-eabi/20180627/bin/../lib/gcc/arm-none-eabi/7.3.1/../../../../arm-none-eabi/lib/thumb/v7-m/libc_nano.a(lib_a-reent.o)
                0x0000000020003570                errno
                0x0000000020003574                . = ALIGN (0x4)
                0x0000000020003574                _ebss = .
                0x0000000020003574                __bss_end__ = _ebss

._user_heap_stack
                0x0000000020003574      0x604 load address 0x000000000800d3ec
                0x0000000020003578                . = ALIGN (0x8)
 *fill*         0x0000000020003574        0x4 
                0x0000000020003578                PROVIDE (end = .)
                [!provide]                        PROVIDE (_end = .)
                0x0000000020003778                . = (. + _Min_Heap_Size)
 *fill*         0x0000000020003578      0x200 
                0x0000000020003b78                . = (. + _Min_Stack_Size)
 *fill*         0x0000000020003778      0x400 
                0x0000000020003b78                . = ALIGN (0x8)

/DISCARD/
 libc.a(*)
 libm.a(*)
 libgcc.a(*)

.ARM.attributes
                0x0000000000000000       0x29
 *(.ARM.attributes)
 .ARM.attributes
                0x0000000000000000       0x1d /usr/local/Cellar/gcc-arm-none-eabi/20180627/bin/../lib/gcc/arm-none-eabi/7.3.1/thumb/v7-m/crti.o
 .ARM.attributes
                0x000000000000001d       0x2d /usr/local/Cellar/gcc-arm-none-eabi/20180627/bin/../lib/gcc/arm-none-eabi/7.3.1/thumb/v7-m/crtbegin.o
 .ARM.attributes
                0x000000000000004a       0x33 build/main.o
 .ARM.attributes
                0x000000000000007d       0x33 build/gpio.o
 .ARM.attributes
                0x00000000000000b0       0x33 build/i2c.o
 .ARM.attributes
                0x00000000000000e3       0x33 build/tim.o
 .ARM.attributes
                0x0000000000000116       0x33 build/usart.o
 .ARM.attributes
                0x0000000000000149       0x33 build/stm32f1xx_it.o
 .ARM.attributes
                0x000000000000017c       0x33 build/stm32f1xx_hal_msp.o
 .ARM.attributes
                0x00000000000001af       0x33 build/stm32f1xx_hal_i2c.o
 .ARM.attributes
                0x00000000000001e2       0x33 build/stm32f1xx_hal.o
 .ARM.attributes
                0x0000000000000215       0x33 build/stm32f1xx_hal_rcc.o
 .ARM.attributes
                0x0000000000000248       0x33 build/stm32f1xx_hal_gpio.o
 .ARM.attributes
                0x000000000000027b       0x33 build/stm32f1xx_hal_cortex.o
 .ARM.attributes
                0x00000000000002ae       0x33 build/stm32f1xx_hal_flash.o
 .ARM.attributes
                0x00000000000002e1       0x33 build/stm32f1xx_hal_flash_ex.o
 .ARM.attributes
                0x0000000000000314       0x33 build/stm32f1xx_ll_rcc.o
 .ARM.attributes
                0x0000000000000347       0x33 build/stm32f1xx_ll_tim.o
 .ARM.attributes
                0x000000000000037a       0x33 build/stm32f1xx_ll_gpio.o
 .ARM.attributes
                0x00000000000003ad       0x33 build/stm32f1xx_ll_usart.o
 .ARM.attributes
                0x00000000000003e0       0x33 build/system_stm32f1xx.o
 .ARM.attributes
                0x0000000000000413       0x33 build/inoutputs.o
 .ARM.attributes
                0x0000000000000446       0x33 build/stm32utilities.o
 .ARM.attributes
                0x0000000000000479       0x33 build/coolant_control.o
 .ARM.attributes
                0x00000000000004ac       0x33 build/eeprom.o
 .ARM.attributes
                0x00000000000004df       0x33 build/gcode.o
 .ARM.attributes
                0x0000000000000512       0x33 build/jog.o
 .ARM.attributes
                0x0000000000000545       0x33 build/limits.o
 .ARM.attributes
                0x0000000000000578       0x33 build/motion_control.o
 .ARM.attributes
                0x00000000000005ab       0x33 build/nuts_bolts.o
 .ARM.attributes
                0x00000000000005de       0x33 build/planner.o
 .ARM.attributes
                0x0000000000000611       0x33 build/print.o
 .ARM.attributes
                0x0000000000000644       0x33 build/probe.o
 .ARM.attributes
                0x0000000000000677       0x33 build/protocol.o
 .ARM.attributes
                0x00000000000006aa       0x33 build/report.o
 .ARM.attributes
                0x00000000000006dd       0x33 build/serial.o
 .ARM.attributes
                0x0000000000000710       0x33 build/settings.o
 .ARM.attributes
                0x0000000000000743       0x33 build/spindle_control.o
 .ARM.attributes
                0x0000000000000776       0x33 build/stepper.o
 .ARM.attributes
                0x00000000000007a9       0x33 build/system.o
 .ARM.attributes
                0x00000000000007dc       0x21 build/startup_stm32f103xb.o
 .ARM.attributes
                0x00000000000007fd       0x2d /usr/local/Cellar/gcc-arm-none-eabi/20180627/bin/../lib/gcc/arm-none-eabi/7.3.1/../../../../arm-none-eabi/lib/thumb/v7-m/libc_nano.a(lib_a-impure.o)
 .ARM.attributes
                0x000000000000082a       0x2d /usr/local/Cellar/gcc-arm-none-eabi/20180627/bin/../lib/gcc/arm-none-eabi/7.3.1/../../../../arm-none-eabi/lib/thumb/v7-m/libc_nano.a(lib_a-init.o)
 .ARM.attributes
                0x0000000000000857       0x2d /usr/local/Cellar/gcc-arm-none-eabi/20180627/bin/../lib/gcc/arm-none-eabi/7.3.1/../../../../arm-none-eabi/lib/thumb/v7-m/libc_nano.a(lib_a-memcmp.o)
 .ARM.attributes
                0x0000000000000884       0x2d /usr/local/Cellar/gcc-arm-none-eabi/20180627/bin/../lib/gcc/arm-none-eabi/7.3.1/../../../../arm-none-eabi/lib/thumb/v7-m/libc_nano.a(lib_a-memset.o)
 .ARM.attributes
                0x00000000000008b1       0x2d /usr/local/Cellar/gcc-arm-none-eabi/20180627/bin/../lib/gcc/arm-none-eabi/7.3.1/../../../../arm-none-eabi/lib/thumb/v7-m/libc_nano.a(lib_a-sprintf.o)
 .ARM.attributes
                0x00000000000008de       0x2d /usr/local/Cellar/gcc-arm-none-eabi/20180627/bin/../lib/gcc/arm-none-eabi/7.3.1/../../../../arm-none-eabi/lib/thumb/v7-m/libc_nano.a(lib_a-nano-svfprintf.o)
 .ARM.attributes
                0x000000000000090b       0x2d /usr/local/Cellar/gcc-arm-none-eabi/20180627/bin/../lib/gcc/arm-none-eabi/7.3.1/../../../../arm-none-eabi/lib/thumb/v7-m/libc_nano.a(lib_a-nano-vfprintf_i.o)
 .ARM.attributes
                0x0000000000000938       0x2d /usr/local/Cellar/gcc-arm-none-eabi/20180627/bin/../lib/gcc/arm-none-eabi/7.3.1/../../../../arm-none-eabi/lib/thumb/v7-m/libc_nano.a(lib_a-memchr-stub.o)
 .ARM.attributes
                0x0000000000000965       0x2d /usr/local/Cellar/gcc-arm-none-eabi/20180627/bin/../lib/gcc/arm-none-eabi/7.3.1/../../../../arm-none-eabi/lib/thumb/v7-m/libc_nano.a(lib_a-memcpy-stub.o)
 .ARM.attributes
                0x0000000000000992       0x2d /usr/local/Cellar/gcc-arm-none-eabi/20180627/bin/../lib/gcc/arm-none-eabi/7.3.1/../../../../arm-none-eabi/lib/thumb/v7-m/libc_nano.a(lib_a-memmove.o)
 .ARM.attributes
                0x00000000000009bf       0x2d /usr/local/Cellar/gcc-arm-none-eabi/20180627/bin/../lib/gcc/arm-none-eabi/7.3.1/../../../../arm-none-eabi/lib/thumb/v7-m/libc_nano.a(lib_a-nano-freer.o)
 .ARM.attributes
                0x00000000000009ec       0x2d /usr/local/Cellar/gcc-arm-none-eabi/20180627/bin/../lib/gcc/arm-none-eabi/7.3.1/../../../../arm-none-eabi/lib/thumb/v7-m/libc_nano.a(lib_a-nano-mallocr.o)
 .ARM.attributes
                0x0000000000000a19       0x2d /usr/local/Cellar/gcc-arm-none-eabi/20180627/bin/../lib/gcc/arm-none-eabi/7.3.1/../../../../arm-none-eabi/lib/thumb/v7-m/libc_nano.a(lib_a-nano-reallocr.o)
 .ARM.attributes
                0x0000000000000a46       0x2d /usr/local/Cellar/gcc-arm-none-eabi/20180627/bin/../lib/gcc/arm-none-eabi/7.3.1/../../../../arm-none-eabi/lib/thumb/v7-m/libc_nano.a(lib_a-sbrkr.o)
 .ARM.attributes
                0x0000000000000a73       0x2d /usr/local/Cellar/gcc-arm-none-eabi/20180627/bin/../lib/gcc/arm-none-eabi/7.3.1/../../../../arm-none-eabi/lib/thumb/v7-m/libc_nano.a(lib_a-mlock.o)
 .ARM.attributes
                0x0000000000000aa0       0x2d /usr/local/Cellar/gcc-arm-none-eabi/20180627/bin/../lib/gcc/arm-none-eabi/7.3.1/../../../../arm-none-eabi/lib/thumb/v7-m/libc_nano.a(lib_a-nano-msizer.o)
 .ARM.attributes
                0x0000000000000acd       0x2d /usr/local/Cellar/gcc-arm-none-eabi/20180627/bin/../lib/gcc/arm-none-eabi/7.3.1/../../../../arm-none-eabi/lib/thumb/v7-m/libc_nano.a(lib_a-reent.o)
 .ARM.attributes
                0x0000000000000afa       0x2d /usr/local/Cellar/gcc-arm-none-eabi/20180627/bin/../lib/gcc/arm-none-eabi/7.3.1/../../../../arm-none-eabi/lib/thumb/v7-m/libm.a(lib_a-s_ceil.o)
 .ARM.attributes
                0x0000000000000b27       0x2d /usr/local/Cellar/gcc-arm-none-eabi/20180627/bin/../lib/gcc/arm-none-eabi/7.3.1/../../../../arm-none-eabi/lib/thumb/v7-m/libm.a(lib_a-s_floor.o)
 .ARM.attributes
                0x0000000000000b54       0x2d /usr/local/Cellar/gcc-arm-none-eabi/20180627/bin/../lib/gcc/arm-none-eabi/7.3.1/../../../../arm-none-eabi/lib/thumb/v7-m/libm.a(lib_a-s_lround.o)
 .ARM.attributes
                0x0000000000000b81       0x2d /usr/local/Cellar/gcc-arm-none-eabi/20180627/bin/../lib/gcc/arm-none-eabi/7.3.1/../../../../arm-none-eabi/lib/thumb/v7-m/libm.a(lib_a-s_round.o)
 .ARM.attributes
                0x0000000000000bae       0x2d /usr/local/Cellar/gcc-arm-none-eabi/20180627/bin/../lib/gcc/arm-none-eabi/7.3.1/../../../../arm-none-eabi/lib/thumb/v7-m/libm.a(lib_a-s_trunc.o)
 .ARM.attributes
                0x0000000000000bdb       0x2d /usr/local/Cellar/gcc-arm-none-eabi/20180627/bin/../lib/gcc/arm-none-eabi/7.3.1/../../../../arm-none-eabi/lib/thumb/v7-m/libm.a(lib_a-sf_ceil.o)
 .ARM.attributes
                0x0000000000000c08       0x2d /usr/local/Cellar/gcc-arm-none-eabi/20180627/bin/../lib/gcc/arm-none-eabi/7.3.1/../../../../arm-none-eabi/lib/thumb/v7-m/libm.a(lib_a-sf_cos.o)
 .ARM.attributes
                0x0000000000000c35       0x2d /usr/local/Cellar/gcc-arm-none-eabi/20180627/bin/../lib/gcc/arm-none-eabi/7.3.1/../../../../arm-none-eabi/lib/thumb/v7-m/libm.a(lib_a-sf_sin.o)
 .ARM.attributes
                0x0000000000000c62       0x2d /usr/local/Cellar/gcc-arm-none-eabi/20180627/bin/../lib/gcc/arm-none-eabi/7.3.1/../../../../arm-none-eabi/lib/thumb/v7-m/libm.a(lib_a-w_sqrt.o)
 .ARM.attributes
                0x0000000000000c8f       0x2d /usr/local/Cellar/gcc-arm-none-eabi/20180627/bin/../lib/gcc/arm-none-eabi/7.3.1/../../../../arm-none-eabi/lib/thumb/v7-m/libm.a(lib_a-wf_atan2.o)
 .ARM.attributes
                0x0000000000000cbc       0x2d /usr/local/Cellar/gcc-arm-none-eabi/20180627/bin/../lib/gcc/arm-none-eabi/7.3.1/../../../../arm-none-eabi/lib/thumb/v7-m/libm.a(lib_a-wf_sqrt.o)
 .ARM.attributes
                0x0000000000000ce9       0x2d /usr/local/Cellar/gcc-arm-none-eabi/20180627/bin/../lib/gcc/arm-none-eabi/7.3.1/../../../../arm-none-eabi/lib/thumb/v7-m/libm.a(lib_a-e_sqrt.o)
 .ARM.attributes
                0x0000000000000d16       0x2d /usr/local/Cellar/gcc-arm-none-eabi/20180627/bin/../lib/gcc/arm-none-eabi/7.3.1/../../../../arm-none-eabi/lib/thumb/v7-m/libm.a(lib_a-ef_atan2.o)
 .ARM.attributes
                0x0000000000000d43       0x2d /usr/local/Cellar/gcc-arm-none-eabi/20180627/bin/../lib/gcc/arm-none-eabi/7.3.1/../../../../arm-none-eabi/lib/thumb/v7-m/libm.a(lib_a-ef_rem_pio2.o)
 .ARM.attributes
                0x0000000000000d70       0x2d /usr/local/Cellar/gcc-arm-none-eabi/20180627/bin/../lib/gcc/arm-none-eabi/7.3.1/../../../../arm-none-eabi/lib/thumb/v7-m/libm.a(lib_a-ef_sqrt.o)
 .ARM.attributes
                0x0000000000000d9d       0x2d /usr/local/Cellar/gcc-arm-none-eabi/20180627/bin/../lib/gcc/arm-none-eabi/7.3.1/../../../../arm-none-eabi/lib/thumb/v7-m/libm.a(lib_a-kf_cos.o)
 .ARM.attributes
                0x0000000000000dca       0x2d /usr/local/Cellar/gcc-arm-none-eabi/20180627/bin/../lib/gcc/arm-none-eabi/7.3.1/../../../../arm-none-eabi/lib/thumb/v7-m/libm.a(lib_a-kf_rem_pio2.o)
 .ARM.attributes
                0x0000000000000df7       0x2d /usr/local/Cellar/gcc-arm-none-eabi/20180627/bin/../lib/gcc/arm-none-eabi/7.3.1/../../../../arm-none-eabi/lib/thumb/v7-m/libm.a(lib_a-kf_sin.o)
 .ARM.attributes
                0x0000000000000e24       0x2d /usr/local/Cellar/gcc-arm-none-eabi/20180627/bin/../lib/gcc/arm-none-eabi/7.3.1/../../../../arm-none-eabi/lib/thumb/v7-m/libm.a(lib_a-s_lib_ver.o)
 .ARM.attributes
                0x0000000000000e51       0x2d /usr/local/Cellar/gcc-arm-none-eabi/20180627/bin/../lib/gcc/arm-none-eabi/7.3.1/../../../../arm-none-eabi/lib/thumb/v7-m/libm.a(lib_a-s_matherr.o)
 .ARM.attributes
                0x0000000000000e7e       0x2d /usr/local/Cellar/gcc-arm-none-eabi/20180627/bin/../lib/gcc/arm-none-eabi/7.3.1/../../../../arm-none-eabi/lib/thumb/v7-m/libm.a(lib_a-sf_atan.o)
 .ARM.attributes
                0x0000000000000eab       0x2d /usr/local/Cellar/gcc-arm-none-eabi/20180627/bin/../lib/gcc/arm-none-eabi/7.3.1/../../../../arm-none-eabi/lib/thumb/v7-m/libm.a(lib_a-sf_fabs.o)
 .ARM.attributes
                0x0000000000000ed8       0x2d /usr/local/Cellar/gcc-arm-none-eabi/20180627/bin/../lib/gcc/arm-none-eabi/7.3.1/../../../../arm-none-eabi/lib/thumb/v7-m/libm.a(lib_a-sf_floor.o)
 .ARM.attributes
                0x0000000000000f05       0x2d /usr/local/Cellar/gcc-arm-none-eabi/20180627/bin/../lib/gcc/arm-none-eabi/7.3.1/../../../../arm-none-eabi/lib/thumb/v7-m/libm.a(lib_a-sf_scalbn.o)
 .ARM.attributes
                0x0000000000000f32       0x2d /usr/local/Cellar/gcc-arm-none-eabi/20180627/bin/../lib/gcc/arm-none-eabi/7.3.1/../../../../arm-none-eabi/lib/thumb/v7-m/libm.a(lib_a-sf_copysign.o)
 .ARM.attributes
                0x0000000000000f5f       0x2d /usr/local/Cellar/gcc-arm-none-eabi/20180627/bin/../lib/gcc/arm-none-eabi/7.3.1/../../../../arm-none-eabi/lib/thumb/v7-m/libnosys.a(sbrk.o)
 .ARM.attributes
                0x0000000000000f8c       0x1d /usr/local/Cellar/gcc-arm-none-eabi/20180627/bin/../lib/gcc/arm-none-eabi/7.3.1/thumb/v7-m/libgcc.a(_arm_addsubdf3.o)
 .ARM.attributes
                0x0000000000000fa9       0x1d /usr/local/Cellar/gcc-arm-none-eabi/20180627/bin/../lib/gcc/arm-none-eabi/7.3.1/thumb/v7-m/libgcc.a(_arm_muldivdf3.o)
 .ARM.attributes
                0x0000000000000fc6       0x1d /usr/local/Cellar/gcc-arm-none-eabi/20180627/bin/../lib/gcc/arm-none-eabi/7.3.1/thumb/v7-m/libgcc.a(_arm_cmpdf2.o)
 .ARM.attributes
                0x0000000000000fe3       0x1d /usr/local/Cellar/gcc-arm-none-eabi/20180627/bin/../lib/gcc/arm-none-eabi/7.3.1/thumb/v7-m/libgcc.a(_arm_unorddf2.o)
 .ARM.attributes
                0x0000000000001000       0x1d /usr/local/Cellar/gcc-arm-none-eabi/20180627/bin/../lib/gcc/arm-none-eabi/7.3.1/thumb/v7-m/libgcc.a(_arm_fixdfsi.o)
 .ARM.attributes
                0x000000000000101d       0x1d /usr/local/Cellar/gcc-arm-none-eabi/20180627/bin/../lib/gcc/arm-none-eabi/7.3.1/thumb/v7-m/libgcc.a(_arm_fixunsdfsi.o)
 .ARM.attributes
                0x000000000000103a       0x1d /usr/local/Cellar/gcc-arm-none-eabi/20180627/bin/../lib/gcc/arm-none-eabi/7.3.1/thumb/v7-m/libgcc.a(_arm_truncdfsf2.o)
 .ARM.attributes
                0x0000000000001057       0x1d /usr/local/Cellar/gcc-arm-none-eabi/20180627/bin/../lib/gcc/arm-none-eabi/7.3.1/thumb/v7-m/libgcc.a(_arm_addsubsf3.o)
 .ARM.attributes
                0x0000000000001074       0x1d /usr/local/Cellar/gcc-arm-none-eabi/20180627/bin/../lib/gcc/arm-none-eabi/7.3.1/thumb/v7-m/libgcc.a(_arm_muldivsf3.o)
 .ARM.attributes
                0x0000000000001091       0x1d /usr/local/Cellar/gcc-arm-none-eabi/20180627/bin/../lib/gcc/arm-none-eabi/7.3.1/thumb/v7-m/libgcc.a(_arm_cmpsf2.o)
 .ARM.attributes
                0x00000000000010ae       0x1d /usr/local/Cellar/gcc-arm-none-eabi/20180627/bin/../lib/gcc/arm-none-eabi/7.3.1/thumb/v7-m/libgcc.a(_arm_unordsf2.o)
 .ARM.attributes
                0x00000000000010cb       0x1d /usr/local/Cellar/gcc-arm-none-eabi/20180627/bin/../lib/gcc/arm-none-eabi/7.3.1/thumb/v7-m/libgcc.a(_arm_fixsfsi.o)
 .ARM.attributes
                0x00000000000010e8       0x1d /usr/local/Cellar/gcc-arm-none-eabi/20180627/bin/../lib/gcc/arm-none-eabi/7.3.1/thumb/v7-m/libgcc.a(_arm_fixunssfsi.o)
 .ARM.attributes
                0x0000000000001105       0x2d /usr/local/Cellar/gcc-arm-none-eabi/20180627/bin/../lib/gcc/arm-none-eabi/7.3.1/../../../../arm-none-eabi/lib/thumb/v7-m/libc_nano.a(lib_a-errno.o)
 .ARM.attributes
                0x0000000000001132       0x1d /usr/local/Cellar/gcc-arm-none-eabi/20180627/bin/../lib/gcc/arm-none-eabi/7.3.1/thumb/v7-m/crtn.o
OUTPUT(build/Grbl32_F103C8.elf elf32-littlearm)

.debug_info     0x0000000000000000    0x30766
 .debug_info    0x0000000000000000     0x2074 build/main.o
 .debug_info    0x0000000000002074      0x6d4 build/gpio.o
 .debug_info    0x0000000000002748      0xaa3 build/i2c.o
 .debug_info    0x00000000000031eb     0x11a8 build/tim.o
 .debug_info    0x0000000000004393      0x694 build/usart.o
 .debug_info    0x0000000000004a27     0x1af2 build/stm32f1xx_it.o
 .debug_info    0x0000000000006519      0x378 build/stm32f1xx_hal_msp.o
 .debug_info    0x0000000000006891     0x3e8a build/stm32f1xx_hal_i2c.o
 .debug_info    0x000000000000a71b      0x87d build/stm32f1xx_hal.o
 .debug_info    0x000000000000af98      0xb30 build/stm32f1xx_hal_rcc.o
 .debug_info    0x000000000000bac8      0x705 build/stm32f1xx_hal_gpio.o
 .debug_info    0x000000000000c1cd      0xd54 build/stm32f1xx_hal_cortex.o
 .debug_info    0x000000000000cf21      0x817 build/stm32f1xx_hal_flash.o
 .debug_info    0x000000000000d738      0xccb build/stm32f1xx_hal_flash_ex.o
 .debug_info    0x000000000000e403      0xa71 build/stm32f1xx_ll_rcc.o
 .debug_info    0x000000000000ee74     0x11e9 build/stm32f1xx_ll_tim.o
 .debug_info    0x000000000001005d      0x891 build/stm32f1xx_ll_gpio.o
 .debug_info    0x00000000000108ee      0x7fd build/stm32f1xx_ll_usart.o
 .debug_info    0x00000000000110eb      0x48e build/system_stm32f1xx.o
 .debug_info    0x0000000000011579     0x1699 build/inoutputs.o
 .debug_info    0x0000000000012c12     0x18b5 build/stm32utilities.o
 .debug_info    0x00000000000144c7     0x13c6 build/coolant_control.o
 .debug_info    0x000000000001588d     0x1501 build/eeprom.o
 .debug_info    0x0000000000016d8e     0x19de build/gcode.o
 .debug_info    0x000000000001876c     0x121c build/jog.o
 .debug_info    0x0000000000019988     0x19a6 build/limits.o
 .debug_info    0x000000000001b32e     0x1b2e build/motion_control.o
 .debug_info    0x000000000001ce5c     0x1457 build/nuts_bolts.o
 .debug_info    0x000000000001e2b3     0x18a7 build/planner.o
 .debug_info    0x000000000001fb5a     0x16b7 build/print.o
 .debug_info    0x0000000000021211     0x11e2 build/probe.o
 .debug_info    0x00000000000223f3     0x1dfc build/protocol.o
 .debug_info    0x00000000000241ef     0x3f54 build/report.o
 .debug_info    0x0000000000028143     0x1402 build/serial.o
 .debug_info    0x0000000000029545     0x1a50 build/settings.o
 .debug_info    0x000000000002af95     0x1775 build/spindle_control.o
 .debug_info    0x000000000002c70a     0x24fd build/stepper.o
 .debug_info    0x000000000002ec07     0x1b3d build/system.o
 .debug_info    0x0000000000030744       0x22 build/startup_stm32f103xb.o

.debug_abbrev   0x0000000000000000     0x77ed
 .debug_abbrev  0x0000000000000000      0x361 build/main.o
 .debug_abbrev  0x0000000000000361      0x18a build/gpio.o
 .debug_abbrev  0x00000000000004eb      0x21c build/i2c.o
 .debug_abbrev  0x0000000000000707      0x25e build/tim.o
 .debug_abbrev  0x0000000000000965      0x1f3 build/usart.o
 .debug_abbrev  0x0000000000000b58      0x3c3 build/stm32f1xx_it.o
 .debug_abbrev  0x0000000000000f1b      0x11e build/stm32f1xx_hal_msp.o
 .debug_abbrev  0x0000000000001039      0x3b6 build/stm32f1xx_hal_i2c.o
 .debug_abbrev  0x00000000000013ef      0x251 build/stm32f1xx_hal.o
 .debug_abbrev  0x0000000000001640      0x320 build/stm32f1xx_hal_rcc.o
 .debug_abbrev  0x0000000000001960      0x211 build/stm32f1xx_hal_gpio.o
 .debug_abbrev  0x0000000000001b71      0x310 build/stm32f1xx_hal_cortex.o
 .debug_abbrev  0x0000000000001e81      0x33f build/stm32f1xx_hal_flash.o
 .debug_abbrev  0x00000000000021c0      0x319 build/stm32f1xx_hal_flash_ex.o
 .debug_abbrev  0x00000000000024d9      0x2f9 build/stm32f1xx_ll_rcc.o
 .debug_abbrev  0x00000000000027d2      0x290 build/stm32f1xx_ll_tim.o
 .debug_abbrev  0x0000000000002a62      0x271 build/stm32f1xx_ll_gpio.o
 .debug_abbrev  0x0000000000002cd3      0x288 build/stm32f1xx_ll_usart.o
 .debug_abbrev  0x0000000000002f5b      0x133 build/system_stm32f1xx.o
 .debug_abbrev  0x000000000000308e      0x3f2 build/inoutputs.o
 .debug_abbrev  0x0000000000003480      0x3be build/stm32utilities.o
 .debug_abbrev  0x000000000000383e      0x35b build/coolant_control.o
 .debug_abbrev  0x0000000000003b99      0x3c5 build/eeprom.o
 .debug_abbrev  0x0000000000003f5e      0x32d build/gcode.o
 .debug_abbrev  0x000000000000428b      0x231 build/jog.o
 .debug_abbrev  0x00000000000044bc      0x46d build/limits.o
 .debug_abbrev  0x0000000000004929      0x3a4 build/motion_control.o
 .debug_abbrev  0x0000000000004ccd      0x36b build/nuts_bolts.o
 .debug_abbrev  0x0000000000005038      0x512 build/planner.o
 .debug_abbrev  0x000000000000554a      0x38f build/print.o
 .debug_abbrev  0x00000000000058d9      0x2ce build/probe.o
 .debug_abbrev  0x0000000000005ba7      0x377 build/protocol.o
 .debug_abbrev  0x0000000000005f1e      0x476 build/report.o
 .debug_abbrev  0x0000000000006394      0x2c5 build/serial.o
 .debug_abbrev  0x0000000000006659      0x43d build/settings.o
 .debug_abbrev  0x0000000000006a96      0x3ea build/spindle_control.o
 .debug_abbrev  0x0000000000006e80      0x47e build/stepper.o
 .debug_abbrev  0x00000000000072fe      0x4dd build/system.o
 .debug_abbrev  0x00000000000077db       0x12 build/startup_stm32f103xb.o

.debug_loc      0x0000000000000000    0x123d1
 .debug_loc     0x0000000000000000       0x9a build/main.o
 .debug_loc     0x000000000000009a       0x39 build/gpio.o
 .debug_loc     0x00000000000000d3       0xee build/i2c.o
 .debug_loc     0x00000000000001c1      0x337 build/tim.o
 .debug_loc     0x00000000000004f8       0x93 build/usart.o
 .debug_loc     0x000000000000058b      0x253 build/stm32f1xx_it.o
 .debug_loc     0x00000000000007de       0x2c build/stm32f1xx_hal_msp.o
 .debug_loc     0x000000000000080a     0x5332 build/stm32f1xx_hal_i2c.o
 .debug_loc     0x0000000000005b3c      0x1ad build/stm32f1xx_hal.o
 .debug_loc     0x0000000000005ce9      0x7a1 build/stm32f1xx_hal_rcc.o
 .debug_loc     0x000000000000648a      0x4a1 build/stm32f1xx_hal_gpio.o
 .debug_loc     0x000000000000692b      0x650 build/stm32f1xx_hal_cortex.o
 .debug_loc     0x0000000000006f7b      0x669 build/stm32f1xx_hal_flash.o
 .debug_loc     0x00000000000075e4      0x84d build/stm32f1xx_hal_flash_ex.o
 .debug_loc     0x0000000000007e31      0x427 build/stm32f1xx_ll_rcc.o
 .debug_loc     0x0000000000008258     0x1061 build/stm32f1xx_ll_tim.o
 .debug_loc     0x00000000000092b9      0x3ad build/stm32f1xx_ll_gpio.o
 .debug_loc     0x0000000000009666      0x464 build/stm32f1xx_ll_usart.o
 .debug_loc     0x0000000000009aca       0xf9 build/system_stm32f1xx.o
 .debug_loc     0x0000000000009bc3      0x35e build/inoutputs.o
 .debug_loc     0x0000000000009f21      0x334 build/stm32utilities.o
 .debug_loc     0x000000000000a255      0x1b4 build/coolant_control.o
 .debug_loc     0x000000000000a409      0x40f build/eeprom.o
 .debug_loc     0x000000000000a818     0x13b7 build/gcode.o
 .debug_loc     0x000000000000bbcf       0x7a build/jog.o
 .debug_loc     0x000000000000bc49      0x616 build/limits.o
 .debug_loc     0x000000000000c25f      0xafb build/motion_control.o
 .debug_loc     0x000000000000cd5a      0x7ba build/nuts_bolts.o
 .debug_loc     0x000000000000d514      0x715 build/planner.o
 .debug_loc     0x000000000000dc29      0xb13 build/print.o
 .debug_loc     0x000000000000e73c       0x83 build/probe.o
 .debug_loc     0x000000000000e7bf      0x40e build/protocol.o
 .debug_loc     0x000000000000ebcd     0x1054 build/report.o
 .debug_loc     0x000000000000fc21      0x121 build/serial.o
 .debug_loc     0x000000000000fd42      0x752 build/settings.o
 .debug_loc     0x0000000000010494      0x610 build/spindle_control.o
 .debug_loc     0x0000000000010aa4     0x123d build/stepper.o
 .debug_loc     0x0000000000011ce1      0x6f0 build/system.o

.debug_aranges  0x0000000000000000      0xe70
 .debug_aranges
                0x0000000000000000       0x30 build/main.o
 .debug_aranges
                0x0000000000000030       0x20 build/gpio.o
 .debug_aranges
                0x0000000000000050       0x30 build/i2c.o
 .debug_aranges
                0x0000000000000080       0x30 build/tim.o
 .debug_aranges
                0x00000000000000b0       0x20 build/usart.o
 .debug_aranges
                0x00000000000000d0       0x88 build/stm32f1xx_it.o
 .debug_aranges
                0x0000000000000158       0x20 build/stm32f1xx_hal_msp.o
 .debug_aranges
                0x0000000000000178      0x178 build/stm32f1xx_hal_i2c.o
 .debug_aranges
                0x00000000000002f0       0xd8 build/stm32f1xx_hal.o
 .debug_aranges
                0x00000000000003c8       0x88 build/stm32f1xx_hal_rcc.o
 .debug_aranges
                0x0000000000000450       0x58 build/stm32f1xx_hal_gpio.o
 .debug_aranges
                0x00000000000004a8       0x90 build/stm32f1xx_hal_cortex.o
 .debug_aranges
                0x0000000000000538       0x70 build/stm32f1xx_hal_flash.o
 .debug_aranges
                0x00000000000005a8       0x50 build/stm32f1xx_hal_flash_ex.o
 .debug_aranges
                0x00000000000005f8       0x60 build/stm32f1xx_ll_rcc.o
 .debug_aranges
                0x0000000000000658       0x80 build/stm32f1xx_ll_tim.o
 .debug_aranges
                0x00000000000006d8       0x30 build/stm32f1xx_ll_gpio.o
 .debug_aranges
                0x0000000000000708       0x40 build/stm32f1xx_ll_usart.o
 .debug_aranges
                0x0000000000000748       0x28 build/system_stm32f1xx.o
 .debug_aranges
                0x0000000000000770       0x70 build/inoutputs.o
 .debug_aranges
                0x00000000000007e0       0x70 build/stm32utilities.o
 .debug_aranges
                0x0000000000000850       0x40 build/coolant_control.o
 .debug_aranges
                0x0000000000000890       0x48 build/eeprom.o
 .debug_aranges
                0x00000000000008d8       0x30 build/gcode.o
 .debug_aranges
                0x0000000000000908       0x20 build/jog.o
 .debug_aranges
                0x0000000000000928       0x50 build/limits.o
 .debug_aranges
                0x0000000000000978       0x48 build/motion_control.o
 .debug_aranges
                0x00000000000009c0       0x58 build/nuts_bolts.o
 .debug_aranges
                0x0000000000000a18       0x98 build/planner.o
 .debug_aranges
                0x0000000000000ab0       0x58 build/print.o
 .debug_aranges
                0x0000000000000b08       0x38 build/probe.o
 .debug_aranges
                0x0000000000000b40       0x48 build/protocol.o
 .debug_aranges
                0x0000000000000b88       0x90 build/report.o
 .debug_aranges
                0x0000000000000c18       0x58 build/serial.o
 .debug_aranges
                0x0000000000000c70       0x78 build/settings.o
 .debug_aranges
                0x0000000000000ce8       0x50 build/spindle_control.o
 .debug_aranges
                0x0000000000000d38       0x68 build/stepper.o
 .debug_aranges
                0x0000000000000da0       0xa8 build/system.o
 .debug_aranges
                0x0000000000000e48       0x28 build/startup_stm32f103xb.o

.debug_ranges   0x0000000000000000     0x3c70
 .debug_ranges  0x0000000000000000       0xb0 build/main.o
 .debug_ranges  0x00000000000000b0       0x98 build/gpio.o
 .debug_ranges  0x0000000000000148       0x48 build/i2c.o
 .debug_ranges  0x0000000000000190      0x1d0 build/tim.o
 .debug_ranges  0x0000000000000360       0x78 build/usart.o
 .debug_ranges  0x00000000000003d8       0xf0 build/stm32f1xx_it.o
 .debug_ranges  0x00000000000004c8       0x48 build/stm32f1xx_hal_msp.o
 .debug_ranges  0x0000000000000510      0xc80 build/stm32f1xx_hal_i2c.o
 .debug_ranges  0x0000000000001190       0xc8 build/stm32f1xx_hal.o
 .debug_ranges  0x0000000000001258       0xf8 build/stm32f1xx_hal_rcc.o
 .debug_ranges  0x0000000000001350       0x68 build/stm32f1xx_hal_gpio.o
 .debug_ranges  0x00000000000013b8      0x148 build/stm32f1xx_hal_cortex.o
 .debug_ranges  0x0000000000001500      0x190 build/stm32f1xx_hal_flash.o
 .debug_ranges  0x0000000000001690      0x1b0 build/stm32f1xx_hal_flash_ex.o
 .debug_ranges  0x0000000000001840      0x340 build/stm32f1xx_ll_rcc.o
 .debug_ranges  0x0000000000001b80      0x1e8 build/stm32f1xx_ll_tim.o
 .debug_ranges  0x0000000000001d68      0x108 build/stm32f1xx_ll_gpio.o
 .debug_ranges  0x0000000000001e70       0xa8 build/stm32f1xx_ll_usart.o
 .debug_ranges  0x0000000000001f18       0x18 build/system_stm32f1xx.o
 .debug_ranges  0x0000000000001f30      0x108 build/inoutputs.o
 .debug_ranges  0x0000000000002038      0x180 build/stm32utilities.o
 .debug_ranges  0x00000000000021b8       0x98 build/coolant_control.o
 .debug_ranges  0x0000000000002250       0x68 build/eeprom.o
 .debug_ranges  0x00000000000022b8       0xc0 build/gcode.o
 .debug_ranges  0x0000000000002378       0x10 build/jog.o
 .debug_ranges  0x0000000000002388      0x130 build/limits.o
 .debug_ranges  0x00000000000024b8      0x100 build/motion_control.o
 .debug_ranges  0x00000000000025b8       0x78 build/nuts_bolts.o
 .debug_ranges  0x0000000000002630      0x208 build/planner.o
 .debug_ranges  0x0000000000002838      0x120 build/print.o
 .debug_ranges  0x0000000000002958       0x58 build/probe.o
 .debug_ranges  0x00000000000029b0      0x1c8 build/protocol.o
 .debug_ranges  0x0000000000002b78      0x890 build/report.o
 .debug_ranges  0x0000000000003408       0x48 build/serial.o
 .debug_ranges  0x0000000000003450      0x148 build/settings.o
 .debug_ranges  0x0000000000003598      0x258 build/spindle_control.o
 .debug_ranges  0x00000000000037f0      0x378 build/stepper.o
 .debug_ranges  0x0000000000003b68       0xe8 build/system.o
 .debug_ranges  0x0000000000003c50       0x20 build/startup_stm32f103xb.o

.debug_line     0x0000000000000000     0xd3f8
 .debug_line    0x0000000000000000      0x56a build/main.o
 .debug_line    0x000000000000056a      0x24c build/gpio.o
 .debug_line    0x00000000000007b6      0x29a build/i2c.o
 .debug_line    0x0000000000000a50      0x3fb build/tim.o
 .debug_line    0x0000000000000e4b      0x2a8 build/usart.o
 .debug_line    0x00000000000010f3      0x4e9 build/stm32f1xx_it.o
 .debug_line    0x00000000000015dc      0x1da build/stm32f1xx_hal_msp.o
 .debug_line    0x00000000000017b6     0x1f3b build/stm32f1xx_hal_i2c.o
 .debug_line    0x00000000000036f1      0x3c0 build/stm32f1xx_hal.o
 .debug_line    0x0000000000003ab1      0x61f build/stm32f1xx_hal_rcc.o
 .debug_line    0x00000000000040d0      0x3b8 build/stm32f1xx_hal_gpio.o
 .debug_line    0x0000000000004488      0x3f3 build/stm32f1xx_hal_cortex.o
 .debug_line    0x000000000000487b      0x4de build/stm32f1xx_hal_flash.o
 .debug_line    0x0000000000004d59      0x4f6 build/stm32f1xx_hal_flash_ex.o
 .debug_line    0x000000000000524f      0x556 build/stm32f1xx_ll_rcc.o
 .debug_line    0x00000000000057a5      0x600 build/stm32f1xx_ll_tim.o
 .debug_line    0x0000000000005da5      0x35a build/stm32f1xx_ll_gpio.o
 .debug_line    0x00000000000060ff      0x32c build/stm32f1xx_ll_usart.o
 .debug_line    0x000000000000642b      0x1fc build/system_stm32f1xx.o
 .debug_line    0x0000000000006627      0x427 build/inoutputs.o
 .debug_line    0x0000000000006a4e      0x4ed build/stm32utilities.o
 .debug_line    0x0000000000006f3b      0x397 build/coolant_control.o
 .debug_line    0x00000000000072d2      0x3f6 build/eeprom.o
 .debug_line    0x00000000000076c8      0x8d1 build/gcode.o
 .debug_line    0x0000000000007f99      0x312 build/jog.o
 .debug_line    0x00000000000082ab      0x59f build/limits.o
 .debug_line    0x000000000000884a      0x582 build/motion_control.o
 .debug_line    0x0000000000008dcc      0x44a build/nuts_bolts.o
 .debug_line    0x0000000000009216      0x613 build/planner.o
 .debug_line    0x0000000000009829      0x4f3 build/print.o
 .debug_line    0x0000000000009d1c      0x370 build/probe.o
 .debug_line    0x000000000000a08c      0x94a build/protocol.o
 .debug_line    0x000000000000a9d6      0x9ac build/report.o
 .debug_line    0x000000000000b382      0x3ad build/serial.o
 .debug_line    0x000000000000b72f      0x631 build/settings.o
 .debug_line    0x000000000000bd60      0x4fd build/spindle_control.o
 .debug_line    0x000000000000c25d      0x9f9 build/stepper.o
 .debug_line    0x000000000000cc56      0x730 build/system.o
 .debug_line    0x000000000000d386       0x72 build/startup_stm32f103xb.o

.debug_str      0x0000000000000000     0x562d
 .debug_str     0x0000000000000000     0x1575 build/main.o
                                       0x172f (size before relaxing)
 .debug_str     0x0000000000001575       0xb4 build/gpio.o
                                        0x687 (size before relaxing)
 .debug_str     0x0000000000001629       0x77 build/i2c.o
                                        0x871 (size before relaxing)
 .debug_str     0x00000000000016a0      0x2e1 build/tim.o
                                        0xac5 (size before relaxing)
 .debug_str     0x0000000000001981       0xee build/usart.o
                                        0x497 (size before relaxing)
 .debug_str     0x0000000000001a6f      0x26a build/stm32f1xx_it.o
                                       0x114a (size before relaxing)
 .debug_str     0x0000000000001cd9       0x24 build/stm32f1xx_hal_msp.o
                                        0x32c (size before relaxing)
 .debug_str     0x0000000000001cfd      0x8c8 build/stm32f1xx_hal_i2c.o
                                       0x1015 (size before relaxing)
 .debug_str     0x00000000000025c5      0x25c build/stm32f1xx_hal.o
                                        0x83f (size before relaxing)
 .debug_str     0x0000000000002821      0x1d1 build/stm32f1xx_hal_rcc.o
                                        0x694 (size before relaxing)
 .debug_str     0x00000000000029f2       0xfe build/stm32f1xx_hal_gpio.o
                                        0x4b2 (size before relaxing)
 .debug_str     0x0000000000002af0      0x21a build/stm32f1xx_hal_cortex.o
                                        0x961 (size before relaxing)
 .debug_str     0x0000000000002d0a      0x28d build/stm32f1xx_hal_flash.o
                                        0x5cf (size before relaxing)
 .debug_str     0x0000000000002f97      0x2be build/stm32f1xx_hal_flash_ex.o
                                        0x6e5 (size before relaxing)
 .debug_str     0x0000000000003255      0x335 build/stm32f1xx_ll_rcc.o
                                        0x5d2 (size before relaxing)
 .debug_str     0x000000000000358a      0x41e build/stm32f1xx_ll_tim.o
                                        0x90b (size before relaxing)
 .debug_str     0x00000000000039a8       0xbc build/stm32f1xx_ll_gpio.o
                                        0x414 (size before relaxing)
 .debug_str     0x0000000000003a64      0x181 build/stm32f1xx_ll_usart.o
                                        0x5a9 (size before relaxing)
 .debug_str     0x0000000000003be5       0x40 build/system_stm32f1xx.o
                                        0x321 (size before relaxing)
 .debug_str     0x0000000000003c25      0x1b2 build/inoutputs.o
                                        0xd19 (size before relaxing)
 .debug_str     0x0000000000003dd7      0x135 build/stm32utilities.o
                                        0xd65 (size before relaxing)
 .debug_str     0x0000000000003f0c       0x5e build/coolant_control.o
                                        0xc04 (size before relaxing)
 .debug_str     0x0000000000003f6a       0xca build/eeprom.o
                                        0xcbb (size before relaxing)
 .debug_str     0x0000000000004034      0x2ca build/gcode.o
                                        0xedb (size before relaxing)
 .debug_str     0x00000000000042fe       0x57 build/jog.o
                                        0xbf3 (size before relaxing)
 .debug_str     0x0000000000004355      0x148 build/limits.o
                                       0x10d8 (size before relaxing)
 .debug_str     0x000000000000449d      0x1b1 build/motion_control.o
                                       0x11a8 (size before relaxing)
 .debug_str     0x000000000000464e       0xe4 build/nuts_bolts.o
                                        0xcb2 (size before relaxing)
 .debug_str     0x0000000000004732      0x326 build/planner.o
                                        0xf93 (size before relaxing)
 .debug_str     0x0000000000004a58       0xd8 build/print.o
                                        0xc00 (size before relaxing)
 .debug_str     0x0000000000004b30       0x33 build/probe.o
                                        0xbd3 (size before relaxing)
 .debug_str     0x0000000000004b63      0x1a2 build/protocol.o
                                        0xf9c (size before relaxing)
 .debug_str     0x0000000000004d05      0x280 build/report.o
                                        0xf41 (size before relaxing)
 .debug_str     0x0000000000004f85       0xef build/serial.o
                                        0xced (size before relaxing)
 .debug_str     0x0000000000005074      0x120 build/settings.o
                                        0xde6 (size before relaxing)
 .debug_str     0x0000000000005194       0x86 build/spindle_control.o
                                        0xd1b (size before relaxing)
 .debug_str     0x000000000000521a      0x39a build/stepper.o
                                       0x161b (size before relaxing)
 .debug_str     0x00000000000055b4       0x55 build/system.o
                                        0xf9b (size before relaxing)
 .debug_str     0x0000000000005609       0x24 build/startup_stm32f103xb.o
                                         0x47 (size before relaxing)

.comment        0x0000000000000000       0x7f
 .comment       0x0000000000000000       0x7f build/main.o
                                         0x80 (size before relaxing)
 .comment       0x000000000000007f       0x80 build/gpio.o
 .comment       0x000000000000007f       0x80 build/i2c.o
 .comment       0x000000000000007f       0x80 build/tim.o
 .comment       0x000000000000007f       0x80 build/usart.o
 .comment       0x000000000000007f       0x80 build/stm32f1xx_it.o
 .comment       0x000000000000007f       0x80 build/stm32f1xx_hal_msp.o
 .comment       0x000000000000007f       0x80 build/stm32f1xx_hal_i2c.o
 .comment       0x000000000000007f       0x80 build/stm32f1xx_hal.o
 .comment       0x000000000000007f       0x80 build/stm32f1xx_hal_rcc.o
 .comment       0x000000000000007f       0x80 build/stm32f1xx_hal_gpio.o
 .comment       0x000000000000007f       0x80 build/stm32f1xx_hal_cortex.o
 .comment       0x000000000000007f       0x80 build/stm32f1xx_hal_flash.o
 .comment       0x000000000000007f       0x80 build/stm32f1xx_hal_flash_ex.o
 .comment       0x000000000000007f       0x80 build/stm32f1xx_ll_rcc.o
 .comment       0x000000000000007f       0x80 build/stm32f1xx_ll_tim.o
 .comment       0x000000000000007f       0x80 build/stm32f1xx_ll_gpio.o
 .comment       0x000000000000007f       0x80 build/stm32f1xx_ll_usart.o
 .comment       0x000000000000007f       0x80 build/system_stm32f1xx.o
 .comment       0x000000000000007f       0x80 build/inoutputs.o
 .comment       0x000000000000007f       0x80 build/stm32utilities.o
 .comment       0x000000000000007f       0x80 build/coolant_control.o
 .comment       0x000000000000007f       0x80 build/eeprom.o
 .comment       0x000000000000007f       0x80 build/gcode.o
 .comment       0x000000000000007f       0x80 build/jog.o
 .comment       0x000000000000007f       0x80 build/limits.o
 .comment       0x000000000000007f       0x80 build/motion_control.o
 .comment       0x000000000000007f       0x80 build/nuts_bolts.o
 .comment       0x000000000000007f       0x80 build/planner.o
 .comment       0x000000000000007f       0x80 build/print.o
 .comment       0x000000000000007f       0x80 build/probe.o
 .comment       0x000000000000007f       0x80 build/protocol.o
 .comment       0x000000000000007f       0x80 build/report.o
 .comment       0x000000000000007f       0x80 build/serial.o
 .comment       0x000000000000007f       0x80 build/settings.o
 .comment       0x000000000000007f       0x80 build/spindle_control.o
 .comment       0x000000000000007f       0x80 build/stepper.o
 .comment       0x000000000000007f       0x80 build/system.o

.debug_frame    0x0000000000000000     0x3bfc
 .debug_frame   0x0000000000000000       0x78 build/main.o
 .debug_frame   0x0000000000000078       0x48 build/gpio.o
 .debug_frame   0x00000000000000c0       0x78 build/i2c.o
 .debug_frame   0x0000000000000138       0x88 build/tim.o
 .debug_frame   0x00000000000001c0       0x3c build/usart.o
 .debug_frame   0x00000000000001fc      0x178 build/stm32f1xx_it.o
 .debug_frame   0x0000000000000374       0x28 build/stm32f1xx_hal_msp.o
 .debug_frame   0x000000000000039c      0x95c build/stm32f1xx_hal_i2c.o
 .debug_frame   0x0000000000000cf8      0x1e8 build/stm32f1xx_hal.o
 .debug_frame   0x0000000000000ee0      0x1c8 build/stm32f1xx_hal_rcc.o
 .debug_frame   0x00000000000010a8      0x144 build/stm32f1xx_hal_gpio.o
 .debug_frame   0x00000000000011ec      0x14c build/stm32f1xx_hal_cortex.o
 .debug_frame   0x0000000000001338      0x154 build/stm32f1xx_hal_flash.o
 .debug_frame   0x000000000000148c      0x100 build/stm32f1xx_hal_flash_ex.o
 .debug_frame   0x000000000000158c       0xc4 build/stm32f1xx_ll_rcc.o
 .debug_frame   0x0000000000001650      0x1bc build/stm32f1xx_ll_tim.o
 .debug_frame   0x000000000000180c       0x6c build/stm32f1xx_ll_gpio.o
 .debug_frame   0x0000000000001878       0x88 build/stm32f1xx_ll_usart.o
 .debug_frame   0x0000000000001900       0x40 build/system_stm32f1xx.o
 .debug_frame   0x0000000000001940      0x158 build/inoutputs.o
 .debug_frame   0x0000000000001a98       0xf0 build/stm32utilities.o
 .debug_frame   0x0000000000001b88       0xa0 build/coolant_control.o
 .debug_frame   0x0000000000001c28       0xf4 build/eeprom.o
 .debug_frame   0x0000000000001d1c       0x8c build/gcode.o
 .debug_frame   0x0000000000001da8       0x30 build/jog.o
 .debug_frame   0x0000000000001dd8       0xd8 build/limits.o
 .debug_frame   0x0000000000001eb0      0x134 build/motion_control.o
 .debug_frame   0x0000000000001fe4      0x134 build/nuts_bolts.o
 .debug_frame   0x0000000000002118      0x1f0 build/planner.o
 .debug_frame   0x0000000000002308      0x1b4 build/print.o
 .debug_frame   0x00000000000024bc       0x60 build/probe.o
 .debug_frame   0x000000000000251c      0x144 build/protocol.o
 .debug_frame   0x0000000000002660      0x258 build/report.o
 .debug_frame   0x00000000000028b8       0x9c build/serial.o
 .debug_frame   0x0000000000002954      0x1ac build/settings.o
 .debug_frame   0x0000000000002b00       0xe4 build/spindle_control.o
 .debug_frame   0x0000000000002be4      0x1c4 build/stepper.o
 .debug_frame   0x0000000000002da8      0x1a0 build/system.o
 .debug_frame   0x0000000000002f48       0x2c /usr/local/Cellar/gcc-arm-none-eabi/20180627/bin/../lib/gcc/arm-none-eabi/7.3.1/../../../../arm-none-eabi/lib/thumb/v7-m/libc_nano.a(lib_a-init.o)
 .debug_frame   0x0000000000002f74       0x2c /usr/local/Cellar/gcc-arm-none-eabi/20180627/bin/../lib/gcc/arm-none-eabi/7.3.1/../../../../arm-none-eabi/lib/thumb/v7-m/libc_nano.a(lib_a-memcmp.o)
 .debug_frame   0x0000000000002fa0       0x20 /usr/local/Cellar/gcc-arm-none-eabi/20180627/bin/../lib/gcc/arm-none-eabi/7.3.1/../../../../arm-none-eabi/lib/thumb/v7-m/libc_nano.a(lib_a-memset.o)
 .debug_frame   0x0000000000002fc0       0x6c /usr/local/Cellar/gcc-arm-none-eabi/20180627/bin/../lib/gcc/arm-none-eabi/7.3.1/../../../../arm-none-eabi/lib/thumb/v7-m/libc_nano.a(lib_a-sprintf.o)
 .debug_frame   0x000000000000302c       0x90 /usr/local/Cellar/gcc-arm-none-eabi/20180627/bin/../lib/gcc/arm-none-eabi/7.3.1/../../../../arm-none-eabi/lib/thumb/v7-m/libc_nano.a(lib_a-nano-svfprintf.o)
 .debug_frame   0x00000000000030bc       0x60 /usr/local/Cellar/gcc-arm-none-eabi/20180627/bin/../lib/gcc/arm-none-eabi/7.3.1/../../../../arm-none-eabi/lib/thumb/v7-m/libc_nano.a(lib_a-nano-vfprintf_i.o)
 .debug_frame   0x000000000000311c       0x28 /usr/local/Cellar/gcc-arm-none-eabi/20180627/bin/../lib/gcc/arm-none-eabi/7.3.1/../../../../arm-none-eabi/lib/thumb/v7-m/libc_nano.a(lib_a-memchr-stub.o)
 .debug_frame   0x0000000000003144       0x28 /usr/local/Cellar/gcc-arm-none-eabi/20180627/bin/../lib/gcc/arm-none-eabi/7.3.1/../../../../arm-none-eabi/lib/thumb/v7-m/libc_nano.a(lib_a-memcpy-stub.o)
 .debug_frame   0x000000000000316c       0x28 /usr/local/Cellar/gcc-arm-none-eabi/20180627/bin/../lib/gcc/arm-none-eabi/7.3.1/../../../../arm-none-eabi/lib/thumb/v7-m/libc_nano.a(lib_a-memmove.o)
 .debug_frame   0x0000000000003194       0x38 /usr/local/Cellar/gcc-arm-none-eabi/20180627/bin/../lib/gcc/arm-none-eabi/7.3.1/../../../../arm-none-eabi/lib/thumb/v7-m/libc_nano.a(lib_a-nano-freer.o)
 .debug_frame   0x00000000000031cc       0x2c /usr/local/Cellar/gcc-arm-none-eabi/20180627/bin/../lib/gcc/arm-none-eabi/7.3.1/../../../../arm-none-eabi/lib/thumb/v7-m/libc_nano.a(lib_a-nano-mallocr.o)
 .debug_frame   0x00000000000031f8       0x3c /usr/local/Cellar/gcc-arm-none-eabi/20180627/bin/../lib/gcc/arm-none-eabi/7.3.1/../../../../arm-none-eabi/lib/thumb/v7-m/libc_nano.a(lib_a-nano-reallocr.o)
 .debug_frame   0x0000000000003234       0x2c /usr/local/Cellar/gcc-arm-none-eabi/20180627/bin/../lib/gcc/arm-none-eabi/7.3.1/../../../../arm-none-eabi/lib/thumb/v7-m/libc_nano.a(lib_a-sbrkr.o)
 .debug_frame   0x0000000000003260       0x30 /usr/local/Cellar/gcc-arm-none-eabi/20180627/bin/../lib/gcc/arm-none-eabi/7.3.1/../../../../arm-none-eabi/lib/thumb/v7-m/libc_nano.a(lib_a-mlock.o)
 .debug_frame   0x0000000000003290       0x20 /usr/local/Cellar/gcc-arm-none-eabi/20180627/bin/../lib/gcc/arm-none-eabi/7.3.1/../../../../arm-none-eabi/lib/thumb/v7-m/libc_nano.a(lib_a-nano-msizer.o)
 .debug_frame   0x00000000000032b0       0x5c /usr/local/Cellar/gcc-arm-none-eabi/20180627/bin/../lib/gcc/arm-none-eabi/7.3.1/../../../../arm-none-eabi/lib/thumb/v7-m/libc_nano.a(lib_a-reent.o)
 .debug_frame   0x000000000000330c       0x34 /usr/local/Cellar/gcc-arm-none-eabi/20180627/bin/../lib/gcc/arm-none-eabi/7.3.1/../../../../arm-none-eabi/lib/thumb/v7-m/libm.a(lib_a-s_ceil.o)
 .debug_frame   0x0000000000003340       0x34 /usr/local/Cellar/gcc-arm-none-eabi/20180627/bin/../lib/gcc/arm-none-eabi/7.3.1/../../../../arm-none-eabi/lib/thumb/v7-m/libm.a(lib_a-s_floor.o)
 .debug_frame   0x0000000000003374       0x2c /usr/local/Cellar/gcc-arm-none-eabi/20180627/bin/../lib/gcc/arm-none-eabi/7.3.1/../../../../arm-none-eabi/lib/thumb/v7-m/libm.a(lib_a-s_lround.o)
 .debug_frame   0x00000000000033a0       0x30 /usr/local/Cellar/gcc-arm-none-eabi/20180627/bin/../lib/gcc/arm-none-eabi/7.3.1/../../../../arm-none-eabi/lib/thumb/v7-m/libm.a(lib_a-s_round.o)
 .debug_frame   0x00000000000033d0       0x2c /usr/local/Cellar/gcc-arm-none-eabi/20180627/bin/../lib/gcc/arm-none-eabi/7.3.1/../../../../arm-none-eabi/lib/thumb/v7-m/libm.a(lib_a-s_trunc.o)
 .debug_frame   0x00000000000033fc       0x30 /usr/local/Cellar/gcc-arm-none-eabi/20180627/bin/../lib/gcc/arm-none-eabi/7.3.1/../../../../arm-none-eabi/lib/thumb/v7-m/libm.a(lib_a-sf_ceil.o)
 .debug_frame   0x000000000000342c       0x34 /usr/local/Cellar/gcc-arm-none-eabi/20180627/bin/../lib/gcc/arm-none-eabi/7.3.1/../../../../arm-none-eabi/lib/thumb/v7-m/libm.a(lib_a-sf_cos.o)
 .debug_frame   0x0000000000003460       0x34 /usr/local/Cellar/gcc-arm-none-eabi/20180627/bin/../lib/gcc/arm-none-eabi/7.3.1/../../../../arm-none-eabi/lib/thumb/v7-m/libm.a(lib_a-sf_sin.o)
 .debug_frame   0x0000000000003494       0x44 /usr/local/Cellar/gcc-arm-none-eabi/20180627/bin/../lib/gcc/arm-none-eabi/7.3.1/../../../../arm-none-eabi/lib/thumb/v7-m/libm.a(lib_a-w_sqrt.o)
 .debug_frame   0x00000000000034d8       0x20 /usr/local/Cellar/gcc-arm-none-eabi/20180627/bin/../lib/gcc/arm-none-eabi/7.3.1/../../../../arm-none-eabi/lib/thumb/v7-m/libm.a(lib_a-wf_atan2.o)
 .debug_frame   0x00000000000034f8       0x3c /usr/local/Cellar/gcc-arm-none-eabi/20180627/bin/../lib/gcc/arm-none-eabi/7.3.1/../../../../arm-none-eabi/lib/thumb/v7-m/libm.a(lib_a-wf_sqrt.o)
 .debug_frame   0x0000000000003534       0x30 /usr/local/Cellar/gcc-arm-none-eabi/20180627/bin/../lib/gcc/arm-none-eabi/7.3.1/../../../../arm-none-eabi/lib/thumb/v7-m/libm.a(lib_a-e_sqrt.o)
 .debug_frame   0x0000000000003564       0x3c /usr/local/Cellar/gcc-arm-none-eabi/20180627/bin/../lib/gcc/arm-none-eabi/7.3.1/../../../../arm-none-eabi/lib/thumb/v7-m/libm.a(lib_a-ef_atan2.o)
 .debug_frame   0x00000000000035a0       0x48 /usr/local/Cellar/gcc-arm-none-eabi/20180627/bin/../lib/gcc/arm-none-eabi/7.3.1/../../../../arm-none-eabi/lib/thumb/v7-m/libm.a(lib_a-ef_rem_pio2.o)
 .debug_frame   0x00000000000035e8       0x30 /usr/local/Cellar/gcc-arm-none-eabi/20180627/bin/../lib/gcc/arm-none-eabi/7.3.1/../../../../arm-none-eabi/lib/thumb/v7-m/libm.a(lib_a-ef_sqrt.o)
 .debug_frame   0x0000000000003618       0x34 /usr/local/Cellar/gcc-arm-none-eabi/20180627/bin/../lib/gcc/arm-none-eabi/7.3.1/../../../../arm-none-eabi/lib/thumb/v7-m/libm.a(lib_a-kf_cos.o)
 .debug_frame   0x000000000000364c       0x50 /usr/local/Cellar/gcc-arm-none-eabi/20180627/bin/../lib/gcc/arm-none-eabi/7.3.1/../../../../arm-none-eabi/lib/thumb/v7-m/libm.a(lib_a-kf_rem_pio2.o)
 .debug_frame   0x000000000000369c       0x34 /usr/local/Cellar/gcc-arm-none-eabi/20180627/bin/../lib/gcc/arm-none-eabi/7.3.1/../../../../arm-none-eabi/lib/thumb/v7-m/libm.a(lib_a-kf_sin.o)
 .debug_frame   0x00000000000036d0       0x20 /usr/local/Cellar/gcc-arm-none-eabi/20180627/bin/../lib/gcc/arm-none-eabi/7.3.1/../../../../arm-none-eabi/lib/thumb/v7-m/libm.a(lib_a-s_matherr.o)
 .debug_frame   0x00000000000036f0       0x30 /usr/local/Cellar/gcc-arm-none-eabi/20180627/bin/../lib/gcc/arm-none-eabi/7.3.1/../../../../arm-none-eabi/lib/thumb/v7-m/libm.a(lib_a-sf_atan.o)
 .debug_frame   0x0000000000003720       0x20 /usr/local/Cellar/gcc-arm-none-eabi/20180627/bin/../lib/gcc/arm-none-eabi/7.3.1/../../../../arm-none-eabi/lib/thumb/v7-m/libm.a(lib_a-sf_fabs.o)
 .debug_frame   0x0000000000003740       0x30 /usr/local/Cellar/gcc-arm-none-eabi/20180627/bin/../lib/gcc/arm-none-eabi/7.3.1/../../../../arm-none-eabi/lib/thumb/v7-m/libm.a(lib_a-sf_floor.o)
 .debug_frame   0x0000000000003770       0x28 /usr/local/Cellar/gcc-arm-none-eabi/20180627/bin/../lib/gcc/arm-none-eabi/7.3.1/../../../../arm-none-eabi/lib/thumb/v7-m/libm.a(lib_a-sf_scalbn.o)
 .debug_frame   0x0000000000003798       0x20 /usr/local/Cellar/gcc-arm-none-eabi/20180627/bin/../lib/gcc/arm-none-eabi/7.3.1/../../../../arm-none-eabi/lib/thumb/v7-m/libm.a(lib_a-sf_copysign.o)
 .debug_frame   0x00000000000037b8       0x20 /usr/local/Cellar/gcc-arm-none-eabi/20180627/bin/../lib/gcc/arm-none-eabi/7.3.1/../../../../arm-none-eabi/lib/thumb/v7-m/libnosys.a(sbrk.o)
 .debug_frame   0x00000000000037d8       0xac /usr/local/Cellar/gcc-arm-none-eabi/20180627/bin/../lib/gcc/arm-none-eabi/7.3.1/thumb/v7-m/libgcc.a(_arm_addsubdf3.o)
 .debug_frame   0x0000000000003884       0x50 /usr/local/Cellar/gcc-arm-none-eabi/20180627/bin/../lib/gcc/arm-none-eabi/7.3.1/thumb/v7-m/libgcc.a(_arm_muldivdf3.o)
 .debug_frame   0x00000000000038d4       0xc4 /usr/local/Cellar/gcc-arm-none-eabi/20180627/bin/../lib/gcc/arm-none-eabi/7.3.1/thumb/v7-m/libgcc.a(_arm_cmpdf2.o)
 .debug_frame   0x0000000000003998       0x20 /usr/local/Cellar/gcc-arm-none-eabi/20180627/bin/../lib/gcc/arm-none-eabi/7.3.1/thumb/v7-m/libgcc.a(_arm_unorddf2.o)
 .debug_frame   0x00000000000039b8       0x24 /usr/local/Cellar/gcc-arm-none-eabi/20180627/bin/../lib/gcc/arm-none-eabi/7.3.1/thumb/v7-m/libgcc.a(_arm_fixdfsi.o)
 .debug_frame   0x00000000000039dc       0x24 /usr/local/Cellar/gcc-arm-none-eabi/20180627/bin/../lib/gcc/arm-none-eabi/7.3.1/thumb/v7-m/libgcc.a(_arm_fixunsdfsi.o)
 .debug_frame   0x0000000000003a00       0x24 /usr/local/Cellar/gcc-arm-none-eabi/20180627/bin/../lib/gcc/arm-none-eabi/7.3.1/thumb/v7-m/libgcc.a(_arm_truncdfsf2.o)
 .debug_frame   0x0000000000003a24       0x4c /usr/local/Cellar/gcc-arm-none-eabi/20180627/bin/../lib/gcc/arm-none-eabi/7.3.1/thumb/v7-m/libgcc.a(_arm_addsubsf3.o)
 .debug_frame   0x0000000000003a70       0x38 /usr/local/Cellar/gcc-arm-none-eabi/20180627/bin/../lib/gcc/arm-none-eabi/7.3.1/thumb/v7-m/libgcc.a(_arm_muldivsf3.o)
 .debug_frame   0x0000000000003aa8       0xc8 /usr/local/Cellar/gcc-arm-none-eabi/20180627/bin/../lib/gcc/arm-none-eabi/7.3.1/thumb/v7-m/libgcc.a(_arm_cmpsf2.o)
 .debug_frame   0x0000000000003b70       0x24 /usr/local/Cellar/gcc-arm-none-eabi/20180627/bin/../lib/gcc/arm-none-eabi/7.3.1/thumb/v7-m/libgcc.a(_arm_unordsf2.o)
 .debug_frame   0x0000000000003b94       0x24 /usr/local/Cellar/gcc-arm-none-eabi/20180627/bin/../lib/gcc/arm-none-eabi/7.3.1/thumb/v7-m/libgcc.a(_arm_fixsfsi.o)
 .debug_frame   0x0000000000003bb8       0x24 /usr/local/Cellar/gcc-arm-none-eabi/20180627/bin/../lib/gcc/arm-none-eabi/7.3.1/thumb/v7-m/libgcc.a(_arm_fixunssfsi.o)
 .debug_frame   0x0000000000003bdc       0x20 /usr/local/Cellar/gcc-arm-none-eabi/20180627/bin/../lib/gcc/arm-none-eabi/7.3.1/../../../../arm-none-eabi/lib/thumb/v7-m/libc_nano.a(lib_a-errno.o)

Cross Reference Table

Symbol                                            File
ADC1_2_IRQHandler                                 build/startup_stm32f103xb.o
AHBPrescTable                                     build/system_stm32f1xx.o
                                                  build/stm32f1xx_ll_utils.o
                                                  build/stm32f1xx_ll_rcc.o
                                                  build/stm32f1xx_hal_rcc.o
APBPrescTable                                     build/system_stm32f1xx.o
                                                  build/stm32f1xx_ll_rcc.o
                                                  build/stm32f1xx_hal_rcc.o
BusFault_Handler                                  build/stm32f1xx_it.o
ByteToBin                                         build/stm32utilities.o
CAN1_RX1_IRQHandler                               build/startup_stm32f103xb.o
CAN1_SCE_IRQHandler                               build/startup_stm32f103xb.o
DMA1_Channel1_IRQHandler                          build/startup_stm32f103xb.o
DMA1_Channel2_IRQHandler                          build/startup_stm32f103xb.o
DMA1_Channel3_IRQHandler                          build/startup_stm32f103xb.o
DMA1_Channel4_IRQHandler                          build/startup_stm32f103xb.o
DMA1_Channel5_IRQHandler                          build/startup_stm32f103xb.o
DMA1_Channel6_IRQHandler                          build/startup_stm32f103xb.o
DMA1_Channel7_IRQHandler                          build/startup_stm32f103xb.o
DebugMon_Handler                                  build/stm32f1xx_it.o
Default_Handler                                   build/startup_stm32f103xb.o
EE_Buffer                                         build/eeprom.o
EXTI0_IRQHandler                                  build/stm32f1xx_it.o
EXTI15_10_IRQHandler                              build/stm32f1xx_it.o
EXTI1_IRQHandler                                  build/stm32f1xx_it.o
EXTI2_IRQHandler                                  build/startup_stm32f103xb.o
EXTI3_IRQHandler                                  build/stm32f1xx_it.o
EXTI4_IRQHandler                                  build/stm32f1xx_it.o
EXTI9_5_IRQHandler                                build/startup_stm32f103xb.o
Error_Handler                                     build/main.o
                                                  build/i2c.o
FLASH_IRQHandler                                  build/startup_stm32f103xb.o
FLASH_PageErase                                   build/stm32f1xx_hal_flash_ex.o
                                                  build/eeprom.o
                                                  build/stm32f1xx_hal_flash.o
FLASH_WaitForLastOperation                        build/stm32f1xx_hal_flash.o
                                                  build/eeprom.o
                                                  build/stm32f1xx_hal_flash_ex.o
GPIO_ResetBits                                    build/stm32utilities.o
                                                  build/stepper.o
                                                  build/spindle_control.o
                                                  build/coolant_control.o
                                                  build/inoutputs.o
GPIO_SetBits                                      build/stm32utilities.o
                                                  build/stepper.o
                                                  build/spindle_control.o
                                                  build/coolant_control.o
                                                  build/inoutputs.o
HAL_DBGMCU_DisableDBGSleepMode                    build/stm32f1xx_hal.o
HAL_DBGMCU_DisableDBGStandbyMode                  build/stm32f1xx_hal.o
HAL_DBGMCU_DisableDBGStopMode                     build/stm32f1xx_hal.o
HAL_DBGMCU_EnableDBGSleepMode                     build/stm32f1xx_hal.o
HAL_DBGMCU_EnableDBGStandbyMode                   build/stm32f1xx_hal.o
HAL_DBGMCU_EnableDBGStopMode                      build/stm32f1xx_hal.o
HAL_DMA_Abort                                     build/stm32f1xx_hal_dma.o
HAL_DMA_Abort_IT                                  build/stm32f1xx_hal_dma.o
                                                  build/stm32f1xx_hal_i2c.o
HAL_DMA_DeInit                                    build/stm32f1xx_hal_dma.o
HAL_DMA_GetError                                  build/stm32f1xx_hal_dma.o
HAL_DMA_GetState                                  build/stm32f1xx_hal_dma.o
                                                  build/stm32f1xx_hal_i2c.o
HAL_DMA_IRQHandler                                build/stm32f1xx_hal_dma.o
HAL_DMA_Init                                      build/stm32f1xx_hal_dma.o
HAL_DMA_PollForTransfer                           build/stm32f1xx_hal_dma.o
HAL_DMA_RegisterCallback                          build/stm32f1xx_hal_dma.o
HAL_DMA_Start                                     build/stm32f1xx_hal_dma.o
HAL_DMA_Start_IT                                  build/stm32f1xx_hal_dma.o
                                                  build/stm32f1xx_hal_i2c.o
HAL_DMA_UnRegisterCallback                        build/stm32f1xx_hal_dma.o
HAL_DeInit                                        build/stm32f1xx_hal.o
HAL_Delay                                         build/stm32f1xx_hal.o
                                                  build/nuts_bolts.o
                                                  build/lcd-i2c.o
HAL_EXTI_ClearConfigLine                          build/stm32f1xx_hal_exti.o
HAL_EXTI_ClearPending                             build/stm32f1xx_hal_exti.o
HAL_EXTI_GenerateSWI                              build/stm32f1xx_hal_exti.o
HAL_EXTI_GetConfigLine                            build/stm32f1xx_hal_exti.o
HAL_EXTI_GetHandle                                build/stm32f1xx_hal_exti.o
HAL_EXTI_GetPending                               build/stm32f1xx_hal_exti.o
HAL_EXTI_IRQHandler                               build/stm32f1xx_hal_exti.o
HAL_EXTI_RegisterCallback                         build/stm32f1xx_hal_exti.o
HAL_EXTI_SetConfigLine                            build/stm32f1xx_hal_exti.o
HAL_FLASHEx_Erase                                 build/stm32f1xx_hal_flash_ex.o
HAL_FLASHEx_Erase_IT                              build/stm32f1xx_hal_flash_ex.o
HAL_FLASHEx_OBErase                               build/stm32f1xx_hal_flash_ex.o
HAL_FLASHEx_OBGetConfig                           build/stm32f1xx_hal_flash_ex.o
HAL_FLASHEx_OBGetUserData                         build/stm32f1xx_hal_flash_ex.o
HAL_FLASHEx_OBProgram                             build/stm32f1xx_hal_flash_ex.o
HAL_FLASH_EndOfOperationCallback                  build/stm32f1xx_hal_flash.o
HAL_FLASH_GetError                                build/stm32f1xx_hal_flash.o
HAL_FLASH_IRQHandler                              build/stm32f1xx_hal_flash.o
HAL_FLASH_Lock                                    build/stm32f1xx_hal_flash.o
                                                  build/eeprom.o
HAL_FLASH_OB_Launch                               build/stm32f1xx_hal_flash.o
HAL_FLASH_OB_Lock                                 build/stm32f1xx_hal_flash.o
HAL_FLASH_OB_Unlock                               build/stm32f1xx_hal_flash.o
HAL_FLASH_OperationErrorCallback                  build/stm32f1xx_hal_flash.o
HAL_FLASH_Program                                 build/stm32f1xx_hal_flash.o
                                                  build/eeprom.o
HAL_FLASH_Program_IT                              build/stm32f1xx_hal_flash.o
HAL_FLASH_Unlock                                  build/stm32f1xx_hal_flash.o
                                                  build/eeprom.o
HAL_GPIOEx_ConfigEventout                         build/stm32f1xx_hal_gpio_ex.o
HAL_GPIOEx_DisableEventout                        build/stm32f1xx_hal_gpio_ex.o
HAL_GPIOEx_EnableEventout                         build/stm32f1xx_hal_gpio_ex.o
HAL_GPIO_DeInit                                   build/stm32f1xx_hal_gpio.o
                                                  build/i2c.o
HAL_GPIO_EXTI_Callback                            build/stm32f1xx_hal_gpio.o
HAL_GPIO_EXTI_IRQHandler                          build/stm32f1xx_hal_gpio.o
                                                  build/stm32f1xx_it.o
HAL_GPIO_Init                                     build/stm32f1xx_hal_gpio.o
                                                  build/stm32f1xx_hal_rcc.o
                                                  build/i2c.o
                                                  build/gpio.o
HAL_GPIO_LockPin                                  build/stm32f1xx_hal_gpio.o
HAL_GPIO_ReadPin                                  build/stm32f1xx_hal_gpio.o
HAL_GPIO_TogglePin                                build/stm32f1xx_hal_gpio.o
HAL_GPIO_WritePin                                 build/stm32f1xx_hal_gpio.o
                                                  build/stm32utilities.o
                                                  build/gpio.o
HAL_GetDEVID                                      build/stm32f1xx_hal.o
HAL_GetHalVersion                                 build/stm32f1xx_hal.o
HAL_GetREVID                                      build/stm32f1xx_hal.o
HAL_GetTick                                       build/stm32f1xx_hal.o
                                                  build/stm32f1xx_hal_flash.o
                                                  build/stm32f1xx_hal_dma.o
                                                  build/stm32f1xx_hal_rcc_ex.o
                                                  build/stm32f1xx_hal_rcc.o
                                                  build/stm32f1xx_hal_i2c.o
HAL_GetTickFreq                                   build/stm32f1xx_hal.o
HAL_GetTickPrio                                   build/stm32f1xx_hal.o
HAL_GetUIDw0                                      build/stm32f1xx_hal.o
HAL_GetUIDw1                                      build/stm32f1xx_hal.o
HAL_GetUIDw2                                      build/stm32f1xx_hal.o
HAL_I2C_AbortCpltCallback                         build/stm32f1xx_hal_i2c.o
HAL_I2C_AddrCallback                              build/stm32f1xx_hal_i2c.o
HAL_I2C_DeInit                                    build/stm32f1xx_hal_i2c.o
HAL_I2C_DisableListen_IT                          build/stm32f1xx_hal_i2c.o
HAL_I2C_ER_IRQHandler                             build/stm32f1xx_hal_i2c.o
HAL_I2C_EV_IRQHandler                             build/stm32f1xx_hal_i2c.o
HAL_I2C_EnableListen_IT                           build/stm32f1xx_hal_i2c.o
HAL_I2C_ErrorCallback                             build/stm32f1xx_hal_i2c.o
HAL_I2C_GetError                                  build/stm32f1xx_hal_i2c.o
HAL_I2C_GetMode                                   build/stm32f1xx_hal_i2c.o
HAL_I2C_GetState                                  build/stm32f1xx_hal_i2c.o
HAL_I2C_Init                                      build/stm32f1xx_hal_i2c.o
                                                  build/i2c.o
HAL_I2C_IsDeviceReady                             build/stm32f1xx_hal_i2c.o
                                                  build/lcd-i2c.o
HAL_I2C_ListenCpltCallback                        build/stm32f1xx_hal_i2c.o
HAL_I2C_MasterRxCpltCallback                      build/stm32f1xx_hal_i2c.o
HAL_I2C_MasterTxCpltCallback                      build/stm32f1xx_hal_i2c.o
HAL_I2C_Master_Abort_IT                           build/stm32f1xx_hal_i2c.o
HAL_I2C_Master_Receive                            build/stm32f1xx_hal_i2c.o
HAL_I2C_Master_Receive_DMA                        build/stm32f1xx_hal_i2c.o
HAL_I2C_Master_Receive_IT                         build/stm32f1xx_hal_i2c.o
HAL_I2C_Master_Seq_Receive_DMA                    build/stm32f1xx_hal_i2c.o
HAL_I2C_Master_Seq_Receive_IT                     build/stm32f1xx_hal_i2c.o
HAL_I2C_Master_Seq_Transmit_DMA                   build/stm32f1xx_hal_i2c.o
HAL_I2C_Master_Seq_Transmit_IT                    build/stm32f1xx_hal_i2c.o
HAL_I2C_Master_Transmit                           build/stm32f1xx_hal_i2c.o
                                                  build/lcd-i2c.o
HAL_I2C_Master_Transmit_DMA                       build/stm32f1xx_hal_i2c.o
HAL_I2C_Master_Transmit_IT                        build/stm32f1xx_hal_i2c.o
HAL_I2C_MemRxCpltCallback                         build/stm32f1xx_hal_i2c.o
HAL_I2C_MemTxCpltCallback                         build/stm32f1xx_hal_i2c.o
HAL_I2C_Mem_Read                                  build/stm32f1xx_hal_i2c.o
HAL_I2C_Mem_Read_DMA                              build/stm32f1xx_hal_i2c.o
HAL_I2C_Mem_Read_IT                               build/stm32f1xx_hal_i2c.o
HAL_I2C_Mem_Write                                 build/stm32f1xx_hal_i2c.o
HAL_I2C_Mem_Write_DMA                             build/stm32f1xx_hal_i2c.o
HAL_I2C_Mem_Write_IT                              build/stm32f1xx_hal_i2c.o
HAL_I2C_MspDeInit                                 build/i2c.o
HAL_I2C_MspInit                                   build/i2c.o
HAL_I2C_SlaveRxCpltCallback                       build/stm32f1xx_hal_i2c.o
HAL_I2C_SlaveTxCpltCallback                       build/stm32f1xx_hal_i2c.o
HAL_I2C_Slave_Receive                             build/stm32f1xx_hal_i2c.o
HAL_I2C_Slave_Receive_DMA                         build/stm32f1xx_hal_i2c.o
HAL_I2C_Slave_Receive_IT                          build/stm32f1xx_hal_i2c.o
HAL_I2C_Slave_Seq_Receive_DMA                     build/stm32f1xx_hal_i2c.o
HAL_I2C_Slave_Seq_Receive_IT                      build/stm32f1xx_hal_i2c.o
HAL_I2C_Slave_Seq_Transmit_DMA                    build/stm32f1xx_hal_i2c.o
HAL_I2C_Slave_Seq_Transmit_IT                     build/stm32f1xx_hal_i2c.o
HAL_I2C_Slave_Transmit                            build/stm32f1xx_hal_i2c.o
HAL_I2C_Slave_Transmit_DMA                        build/stm32f1xx_hal_i2c.o
HAL_I2C_Slave_Transmit_IT                         build/stm32f1xx_hal_i2c.o
HAL_IncTick                                       build/stm32f1xx_hal.o
                                                  build/stm32f1xx_it.o
HAL_Init                                          build/stm32f1xx_hal.o
                                                  build/main.o
HAL_InitTick                                      build/stm32f1xx_hal.o
                                                  build/stm32f1xx_hal_rcc.o
HAL_MspDeInit                                     build/stm32f1xx_hal.o
HAL_MspInit                                       build/stm32f1xx_hal_msp.o
HAL_NVIC_ClearPendingIRQ                          build/stm32f1xx_hal_cortex.o
                                                  build/motion_control.o
HAL_NVIC_DisableIRQ                               build/stm32f1xx_hal_cortex.o
HAL_NVIC_EnableIRQ                                build/stm32f1xx_hal_cortex.o
                                                  build/motion_control.o
                                                  build/gpio.o
                                                  build/main.o
HAL_NVIC_GetActive                                build/stm32f1xx_hal_cortex.o
HAL_NVIC_GetPendingIRQ                            build/stm32f1xx_hal_cortex.o
HAL_NVIC_GetPriority                              build/stm32f1xx_hal_cortex.o
HAL_NVIC_GetPriorityGrouping                      build/stm32f1xx_hal_cortex.o
HAL_NVIC_SetPendingIRQ                            build/stm32f1xx_hal_cortex.o
HAL_NVIC_SetPriority                              build/stm32f1xx_hal_cortex.o
                                                  build/stm32f1xx_hal.o
                                                  build/gpio.o
                                                  build/main.o
HAL_NVIC_SetPriorityGrouping                      build/stm32f1xx_hal_cortex.o
                                                  build/stm32f1xx_hal.o
HAL_NVIC_SystemReset                              build/stm32f1xx_hal_cortex.o
                                                  build/stm32f1xx_hal_flash.o
HAL_PWR_ConfigPVD                                 build/stm32f1xx_hal_pwr.o
HAL_PWR_DeInit                                    build/stm32f1xx_hal_pwr.o
HAL_PWR_DisableBkUpAccess                         build/stm32f1xx_hal_pwr.o
HAL_PWR_DisablePVD                                build/stm32f1xx_hal_pwr.o
HAL_PWR_DisableSEVOnPend                          build/stm32f1xx_hal_pwr.o
HAL_PWR_DisableSleepOnExit                        build/stm32f1xx_hal_pwr.o
HAL_PWR_DisableWakeUpPin                          build/stm32f1xx_hal_pwr.o
HAL_PWR_EnableBkUpAccess                          build/stm32f1xx_hal_pwr.o
HAL_PWR_EnablePVD                                 build/stm32f1xx_hal_pwr.o
HAL_PWR_EnableSEVOnPend                           build/stm32f1xx_hal_pwr.o
HAL_PWR_EnableSleepOnExit                         build/stm32f1xx_hal_pwr.o
HAL_PWR_EnableWakeUpPin                           build/stm32f1xx_hal_pwr.o
HAL_PWR_EnterSLEEPMode                            build/stm32f1xx_hal_pwr.o
HAL_PWR_EnterSTANDBYMode                          build/stm32f1xx_hal_pwr.o
HAL_PWR_EnterSTOPMode                             build/stm32f1xx_hal_pwr.o
HAL_PWR_PVDCallback                               build/stm32f1xx_hal_pwr.o
HAL_PWR_PVD_IRQHandler                            build/stm32f1xx_hal_pwr.o
HAL_RCCEx_GetPeriphCLKConfig                      build/stm32f1xx_hal_rcc_ex.o
HAL_RCCEx_GetPeriphCLKFreq                        build/stm32f1xx_hal_rcc_ex.o
HAL_RCCEx_PeriphCLKConfig                         build/stm32f1xx_hal_rcc_ex.o
HAL_RCC_CSSCallback                               build/stm32f1xx_hal_rcc.o
HAL_RCC_ClockConfig                               build/stm32f1xx_hal_rcc.o
                                                  build/main.o
HAL_RCC_DeInit                                    build/stm32f1xx_hal_rcc.o
HAL_RCC_DisableCSS                                build/stm32f1xx_hal_rcc.o
HAL_RCC_EnableCSS                                 build/stm32f1xx_hal_rcc.o
HAL_RCC_GetClockConfig                            build/stm32f1xx_hal_rcc.o
HAL_RCC_GetHCLKFreq                               build/stm32f1xx_hal_rcc.o
HAL_RCC_GetOscConfig                              build/stm32f1xx_hal_rcc.o
HAL_RCC_GetPCLK1Freq                              build/stm32f1xx_hal_rcc.o
                                                  build/stm32f1xx_hal_i2c.o
HAL_RCC_GetPCLK2Freq                              build/stm32f1xx_hal_rcc.o
                                                  build/stm32f1xx_hal_rcc_ex.o
HAL_RCC_GetSysClockFreq                           build/stm32f1xx_hal_rcc.o
HAL_RCC_MCOConfig                                 build/stm32f1xx_hal_rcc.o
HAL_RCC_NMI_IRQHandler                            build/stm32f1xx_hal_rcc.o
HAL_RCC_OscConfig                                 build/stm32f1xx_hal_rcc.o
                                                  build/main.o
HAL_ResumeTick                                    build/stm32f1xx_hal.o
HAL_SYSTICK_CLKSourceConfig                       build/stm32f1xx_hal_cortex.o
HAL_SYSTICK_Callback                              build/stm32f1xx_hal_cortex.o
HAL_SYSTICK_Config                                build/stm32f1xx_hal_cortex.o
                                                  build/stm32f1xx_hal.o
HAL_SYSTICK_IRQHandler                            build/stm32f1xx_hal_cortex.o
HAL_SetTickFreq                                   build/stm32f1xx_hal.o
HAL_SuspendTick                                   build/stm32f1xx_hal.o
HandleControlIT                                   build/system.o
                                                  build/stm32f1xx_it.o
HandleLimitIT                                     build/limits.o
                                                  build/stm32f1xx_it.o
HandleStepResetIT                                 build/stepper.o
                                                  build/stm32f1xx_it.o
HandleStepSetIT                                   build/stepper.o
                                                  build/stm32f1xx_it.o
HandleUartIT                                      build/serial.o
                                                  build/stm32f1xx_it.o
HardFault_Handler                                 build/stm32f1xx_it.o
I2C1_ER_IRQHandler                                build/startup_stm32f103xb.o
I2C1_EV_IRQHandler                                build/startup_stm32f103xb.o
I2C2_ER_IRQHandler                                build/startup_stm32f103xb.o
I2C2_EV_IRQHandler                                build/startup_stm32f103xb.o
I2C_Scan                                          build/lcd-i2c.o
Int16ToBin                                        build/stm32utilities.o
LCD_Init                                          build/lcd-i2c.o
LCD_SendCommand                                   build/lcd-i2c.o
LCD_SendData                                      build/lcd-i2c.o
LCD_SendInternal                                  build/lcd-i2c.o
LCD_SendString                                    build/lcd-i2c.o
LL_DMA_DeInit                                     build/stm32f1xx_ll_dma.o
LL_DMA_Init                                       build/stm32f1xx_ll_dma.o
LL_DMA_StructInit                                 build/stm32f1xx_ll_dma.o
LL_EXTI_DeInit                                    build/stm32f1xx_ll_exti.o
LL_EXTI_Init                                      build/stm32f1xx_ll_exti.o
LL_EXTI_StructInit                                build/stm32f1xx_ll_exti.o
LL_GPIO_DeInit                                    build/stm32f1xx_ll_gpio.o
LL_GPIO_Init                                      build/stm32f1xx_ll_gpio.o
                                                  build/usart.o
                                                  build/tim.o
LL_GPIO_StructInit                                build/stm32f1xx_ll_gpio.o
LL_Init1msTick                                    build/stm32f1xx_ll_utils.o
LL_PLL_ConfigSystemClock_HSE                      build/stm32f1xx_ll_utils.o
LL_PLL_ConfigSystemClock_HSI                      build/stm32f1xx_ll_utils.o
LL_RCC_DeInit                                     build/stm32f1xx_ll_rcc.o
LL_RCC_GetADCClockFreq                            build/stm32f1xx_ll_rcc.o
LL_RCC_GetSystemClocksFreq                        build/stm32f1xx_ll_rcc.o
                                                  build/stm32f1xx_ll_usart.o
LL_RCC_GetUSBClockFreq                            build/stm32f1xx_ll_rcc.o
LL_SetSystemCoreClock                             build/stm32f1xx_ll_utils.o
LL_TIM_BDTR_Init                                  build/stm32f1xx_ll_tim.o
                                                  build/tim.o
LL_TIM_BDTR_StructInit                            build/stm32f1xx_ll_tim.o
LL_TIM_DeInit                                     build/stm32f1xx_ll_tim.o
LL_TIM_ENCODER_Init                               build/stm32f1xx_ll_tim.o
LL_TIM_ENCODER_StructInit                         build/stm32f1xx_ll_tim.o
LL_TIM_HALLSENSOR_Init                            build/stm32f1xx_ll_tim.o
LL_TIM_HALLSENSOR_StructInit                      build/stm32f1xx_ll_tim.o
LL_TIM_IC_Init                                    build/stm32f1xx_ll_tim.o
LL_TIM_IC_StructInit                              build/stm32f1xx_ll_tim.o
LL_TIM_Init                                       build/stm32f1xx_ll_tim.o
                                                  build/tim.o
LL_TIM_OC_Init                                    build/stm32f1xx_ll_tim.o
                                                  build/tim.o
LL_TIM_OC_StructInit                              build/stm32f1xx_ll_tim.o
LL_TIM_StructInit                                 build/stm32f1xx_ll_tim.o
LL_USART_ClockInit                                build/stm32f1xx_ll_usart.o
LL_USART_ClockStructInit                          build/stm32f1xx_ll_usart.o
LL_USART_DeInit                                   build/stm32f1xx_ll_usart.o
LL_USART_Init                                     build/stm32f1xx_ll_usart.o
                                                  build/usart.o
LL_USART_StructInit                               build/stm32f1xx_ll_usart.o
LL_mDelay                                         build/stm32f1xx_ll_utils.o
MX_GPIO_Init                                      build/gpio.o
                                                  build/main.o
MX_I2C1_Init                                      build/i2c.o
                                                  build/main.o
MX_TIM1_Init                                      build/tim.o
                                                  build/main.o
MX_TIM2_Init                                      build/tim.o
                                                  build/main.o
MX_TIM3_Init                                      build/tim.o
                                                  build/main.o
MX_USART1_UART_Init                               build/usart.o
                                                  build/main.o
MemManage_Handler                                 build/stm32f1xx_it.o
NMI_Handler                                       build/stm32f1xx_it.o
PVD_IRQHandler                                    build/startup_stm32f103xb.o
PendSV_Handler                                    build/stm32f1xx_it.o
RCC_GetHCLKClockFreq                              build/stm32f1xx_ll_rcc.o
RCC_GetPCLK1ClockFreq                             build/stm32f1xx_ll_rcc.o
RCC_GetPCLK2ClockFreq                             build/stm32f1xx_ll_rcc.o
RCC_GetSystemClockFreq                            build/stm32f1xx_ll_rcc.o
RCC_IRQHandler                                    build/startup_stm32f103xb.o
RCC_PLL_GetFreqDomain_SYS                         build/stm32f1xx_ll_rcc.o
RTC_Alarm_IRQHandler                              build/startup_stm32f103xb.o
RTC_IRQHandler                                    build/startup_stm32f103xb.o
Reset_Handler                                     build/startup_stm32f103xb.o
SPI1_IRQHandler                                   build/startup_stm32f103xb.o
SPI2_IRQHandler                                   build/startup_stm32f103xb.o
SVC_Handler                                       build/stm32f1xx_it.o
Spindle_Disable                                   build/stm32utilities.o
                                                  build/spindle_control.o
Spindle_Enable                                    build/stm32utilities.o
                                                  build/spindle_control.o
SysTick_Handler                                   build/stm32f1xx_it.o
SystemClock_Config                                build/main.o
SystemCoreClock                                   build/system_stm32f1xx.o
                                                  build/stepper.o
                                                  build/nuts_bolts.o
                                                  build/stm32utilities.o
                                                  build/stm32f1xx_ll_utils.o
                                                  build/stm32f1xx_hal_rcc.o
                                                  build/stm32f1xx_hal.o
                                                  build/stm32f1xx_hal_i2c.o
SystemCoreClockUpdate                             build/system_stm32f1xx.o
SystemInit                                        build/system_stm32f1xx.o
                                                  build/startup_stm32f103xb.o
TAMPER_IRQHandler                                 build/startup_stm32f103xb.o
TIM1_BRK_IRQHandler                               build/startup_stm32f103xb.o
TIM1_CC_IRQHandler                                build/startup_stm32f103xb.o
TIM1_TRG_COM_IRQHandler                           build/startup_stm32f103xb.o
TIM1_UP_IRQHandler                                build/startup_stm32f103xb.o
TIM2_IRQHandler                                   build/stm32f1xx_it.o
TIM3_IRQHandler                                   build/stm32f1xx_it.o
TIM4_IRQHandler                                   build/startup_stm32f103xb.o
USART1_IRQHandler                                 build/stm32f1xx_it.o
USART2_IRQHandler                                 build/startup_stm32f103xb.o
USART3_IRQHandler                                 build/startup_stm32f103xb.o
USBWakeUp_IRQHandler                              build/startup_stm32f103xb.o
USB_HP_CAN1_TX_IRQHandler                         build/startup_stm32f103xb.o
USB_LP_CAN1_RX0_IRQHandler                        build/startup_stm32f103xb.o
UsageFault_Handler                                build/stm32f1xx_it.o
WWDG_IRQHandler                                   build/startup_stm32f103xb.o
__adddf3                                          /usr/local/Cellar/gcc-arm-none-eabi/20180627/bin/../lib/gcc/arm-none-eabi/7.3.1/thumb/v7-m/libgcc.a(_arm_addsubdf3.o)
__addsf3                                          /usr/local/Cellar/gcc-arm-none-eabi/20180627/bin/../lib/gcc/arm-none-eabi/7.3.1/thumb/v7-m/libgcc.a(_arm_addsubsf3.o)
__aeabi_cdcmpeq                                   /usr/local/Cellar/gcc-arm-none-eabi/20180627/bin/../lib/gcc/arm-none-eabi/7.3.1/thumb/v7-m/libgcc.a(_arm_cmpdf2.o)
__aeabi_cdcmple                                   /usr/local/Cellar/gcc-arm-none-eabi/20180627/bin/../lib/gcc/arm-none-eabi/7.3.1/thumb/v7-m/libgcc.a(_arm_cmpdf2.o)
__aeabi_cdrcmple                                  /usr/local/Cellar/gcc-arm-none-eabi/20180627/bin/../lib/gcc/arm-none-eabi/7.3.1/thumb/v7-m/libgcc.a(_arm_cmpdf2.o)
__aeabi_cfcmpeq                                   /usr/local/Cellar/gcc-arm-none-eabi/20180627/bin/../lib/gcc/arm-none-eabi/7.3.1/thumb/v7-m/libgcc.a(_arm_cmpsf2.o)
__aeabi_cfcmple                                   /usr/local/Cellar/gcc-arm-none-eabi/20180627/bin/../lib/gcc/arm-none-eabi/7.3.1/thumb/v7-m/libgcc.a(_arm_cmpsf2.o)
__aeabi_cfrcmple                                  /usr/local/Cellar/gcc-arm-none-eabi/20180627/bin/../lib/gcc/arm-none-eabi/7.3.1/thumb/v7-m/libgcc.a(_arm_cmpsf2.o)
__aeabi_d2f                                       /usr/local/Cellar/gcc-arm-none-eabi/20180627/bin/../lib/gcc/arm-none-eabi/7.3.1/thumb/v7-m/libgcc.a(_arm_truncdfsf2.o)
                                                  /usr/local/Cellar/gcc-arm-none-eabi/20180627/bin/../lib/gcc/arm-none-eabi/7.3.1/../../../../arm-none-eabi/lib/thumb/v7-m/libm.a(lib_a-wf_sqrt.o)
                                                  build/stepper.o
                                                  build/spindle_control.o
                                                  build/print.o
                                                  build/planner.o
                                                  build/nuts_bolts.o
                                                  build/motion_control.o
                                                  build/limits.o
                                                  build/gcode.o
__aeabi_d2iz                                      /usr/local/Cellar/gcc-arm-none-eabi/20180627/bin/../lib/gcc/arm-none-eabi/7.3.1/thumb/v7-m/libgcc.a(_arm_fixdfsi.o)
                                                  /usr/local/Cellar/gcc-arm-none-eabi/20180627/bin/../lib/gcc/arm-none-eabi/7.3.1/../../../../arm-none-eabi/lib/thumb/v7-m/libm.a(lib_a-s_lround.o)
__aeabi_d2uiz                                     /usr/local/Cellar/gcc-arm-none-eabi/20180627/bin/../lib/gcc/arm-none-eabi/7.3.1/thumb/v7-m/libgcc.a(_arm_fixunsdfsi.o)
                                                  build/system.o
                                                  build/spindle_control.o
                                                  build/settings.o
                                                  build/nuts_bolts.o
                                                  build/motion_control.o
                                                  build/gcode.o
__aeabi_dadd                                      /usr/local/Cellar/gcc-arm-none-eabi/20180627/bin/../lib/gcc/arm-none-eabi/7.3.1/thumb/v7-m/libgcc.a(_arm_addsubdf3.o)
                                                  /usr/local/Cellar/gcc-arm-none-eabi/20180627/bin/../lib/gcc/arm-none-eabi/7.3.1/../../../../arm-none-eabi/lib/thumb/v7-m/libm.a(lib_a-e_sqrt.o)
                                                  /usr/local/Cellar/gcc-arm-none-eabi/20180627/bin/../lib/gcc/arm-none-eabi/7.3.1/../../../../arm-none-eabi/lib/thumb/v7-m/libm.a(lib_a-s_trunc.o)
                                                  /usr/local/Cellar/gcc-arm-none-eabi/20180627/bin/../lib/gcc/arm-none-eabi/7.3.1/../../../../arm-none-eabi/lib/thumb/v7-m/libm.a(lib_a-s_round.o)
                                                  /usr/local/Cellar/gcc-arm-none-eabi/20180627/bin/../lib/gcc/arm-none-eabi/7.3.1/../../../../arm-none-eabi/lib/thumb/v7-m/libm.a(lib_a-s_floor.o)
                                                  /usr/local/Cellar/gcc-arm-none-eabi/20180627/bin/../lib/gcc/arm-none-eabi/7.3.1/../../../../arm-none-eabi/lib/thumb/v7-m/libm.a(lib_a-s_ceil.o)
                                                  build/stepper.o
                                                  build/motion_control.o
__aeabi_dcmpeq                                    /usr/local/Cellar/gcc-arm-none-eabi/20180627/bin/../lib/gcc/arm-none-eabi/7.3.1/thumb/v7-m/libgcc.a(_arm_cmpdf2.o)
__aeabi_dcmpge                                    /usr/local/Cellar/gcc-arm-none-eabi/20180627/bin/../lib/gcc/arm-none-eabi/7.3.1/thumb/v7-m/libgcc.a(_arm_cmpdf2.o)
                                                  build/motion_control.o
__aeabi_dcmpgt                                    /usr/local/Cellar/gcc-arm-none-eabi/20180627/bin/../lib/gcc/arm-none-eabi/7.3.1/thumb/v7-m/libgcc.a(_arm_cmpdf2.o)
                                                  /usr/local/Cellar/gcc-arm-none-eabi/20180627/bin/../lib/gcc/arm-none-eabi/7.3.1/../../../../arm-none-eabi/lib/thumb/v7-m/libm.a(lib_a-s_floor.o)
                                                  /usr/local/Cellar/gcc-arm-none-eabi/20180627/bin/../lib/gcc/arm-none-eabi/7.3.1/../../../../arm-none-eabi/lib/thumb/v7-m/libm.a(lib_a-s_ceil.o)
                                                  build/planner.o
                                                  build/limits.o
                                                  build/gcode.o
__aeabi_dcmple                                    /usr/local/Cellar/gcc-arm-none-eabi/20180627/bin/../lib/gcc/arm-none-eabi/7.3.1/thumb/v7-m/libgcc.a(_arm_cmpdf2.o)
                                                  build/motion_control.o
__aeabi_dcmplt                                    /usr/local/Cellar/gcc-arm-none-eabi/20180627/bin/../lib/gcc/arm-none-eabi/7.3.1/thumb/v7-m/libgcc.a(_arm_cmpdf2.o)
                                                  /usr/local/Cellar/gcc-arm-none-eabi/20180627/bin/../lib/gcc/arm-none-eabi/7.3.1/../../../../arm-none-eabi/lib/thumb/v7-m/libm.a(lib_a-w_sqrt.o)
                                                  build/planner.o
                                                  build/limits.o
__aeabi_dcmpun                                    /usr/local/Cellar/gcc-arm-none-eabi/20180627/bin/../lib/gcc/arm-none-eabi/7.3.1/thumb/v7-m/libgcc.a(_arm_unorddf2.o)
                                                  /usr/local/Cellar/gcc-arm-none-eabi/20180627/bin/../lib/gcc/arm-none-eabi/7.3.1/../../../../arm-none-eabi/lib/thumb/v7-m/libm.a(lib_a-w_sqrt.o)
__aeabi_ddiv                                      /usr/local/Cellar/gcc-arm-none-eabi/20180627/bin/../lib/gcc/arm-none-eabi/7.3.1/thumb/v7-m/libgcc.a(_arm_muldivdf3.o)
                                                  /usr/local/Cellar/gcc-arm-none-eabi/20180627/bin/../lib/gcc/arm-none-eabi/7.3.1/../../../../arm-none-eabi/lib/thumb/v7-m/libm.a(lib_a-e_sqrt.o)
                                                  /usr/local/Cellar/gcc-arm-none-eabi/20180627/bin/../lib/gcc/arm-none-eabi/7.3.1/../../../../arm-none-eabi/lib/thumb/v7-m/libm.a(lib_a-wf_sqrt.o)
                                                  /usr/local/Cellar/gcc-arm-none-eabi/20180627/bin/../lib/gcc/arm-none-eabi/7.3.1/../../../../arm-none-eabi/lib/thumb/v7-m/libm.a(lib_a-w_sqrt.o)
                                                  build/planner.o
                                                  build/motion_control.o
                                                  build/gcode.o
__aeabi_dmul                                      /usr/local/Cellar/gcc-arm-none-eabi/20180627/bin/../lib/gcc/arm-none-eabi/7.3.1/thumb/v7-m/libgcc.a(_arm_muldivdf3.o)
                                                  /usr/local/Cellar/gcc-arm-none-eabi/20180627/bin/../lib/gcc/arm-none-eabi/7.3.1/../../../../arm-none-eabi/lib/thumb/v7-m/libm.a(lib_a-e_sqrt.o)
                                                  build/spindle_control.o
                                                  build/print.o
                                                  build/planner.o
                                                  build/nuts_bolts.o
                                                  build/motion_control.o
                                                  build/limits.o
                                                  build/gcode.o
__aeabi_drsub                                     /usr/local/Cellar/gcc-arm-none-eabi/20180627/bin/../lib/gcc/arm-none-eabi/7.3.1/thumb/v7-m/libgcc.a(_arm_addsubdf3.o)
__aeabi_dsub                                      /usr/local/Cellar/gcc-arm-none-eabi/20180627/bin/../lib/gcc/arm-none-eabi/7.3.1/thumb/v7-m/libgcc.a(_arm_addsubdf3.o)
                                                  /usr/local/Cellar/gcc-arm-none-eabi/20180627/bin/../lib/gcc/arm-none-eabi/7.3.1/../../../../arm-none-eabi/lib/thumb/v7-m/libm.a(lib_a-e_sqrt.o)
                                                  build/planner.o
                                                  build/motion_control.o
                                                  build/gcode.o
__aeabi_f2d                                       /usr/local/Cellar/gcc-arm-none-eabi/20180627/bin/../lib/gcc/arm-none-eabi/7.3.1/thumb/v7-m/libgcc.a(_arm_addsubdf3.o)
                                                  /usr/local/Cellar/gcc-arm-none-eabi/20180627/bin/../lib/gcc/arm-none-eabi/7.3.1/../../../../arm-none-eabi/lib/thumb/v7-m/libm.a(lib_a-wf_sqrt.o)
                                                  build/system.o
                                                  build/stepper.o
                                                  build/spindle_control.o
                                                  build/settings.o
                                                  build/print.o
                                                  build/planner.o
                                                  build/nuts_bolts.o
                                                  build/motion_control.o
                                                  build/limits.o
                                                  build/gcode.o
__aeabi_f2iz                                      /usr/local/Cellar/gcc-arm-none-eabi/20180627/bin/../lib/gcc/arm-none-eabi/7.3.1/thumb/v7-m/libgcc.a(_arm_fixsfsi.o)
                                                  /usr/local/Cellar/gcc-arm-none-eabi/20180627/bin/../lib/gcc/arm-none-eabi/7.3.1/../../../../arm-none-eabi/lib/thumb/v7-m/libm.a(lib_a-kf_sin.o)
                                                  /usr/local/Cellar/gcc-arm-none-eabi/20180627/bin/../lib/gcc/arm-none-eabi/7.3.1/../../../../arm-none-eabi/lib/thumb/v7-m/libm.a(lib_a-kf_rem_pio2.o)
                                                  /usr/local/Cellar/gcc-arm-none-eabi/20180627/bin/../lib/gcc/arm-none-eabi/7.3.1/../../../../arm-none-eabi/lib/thumb/v7-m/libm.a(lib_a-kf_cos.o)
                                                  /usr/local/Cellar/gcc-arm-none-eabi/20180627/bin/../lib/gcc/arm-none-eabi/7.3.1/../../../../arm-none-eabi/lib/thumb/v7-m/libm.a(lib_a-ef_rem_pio2.o)
                                                  build/print.o
                                                  build/gcode.o
__aeabi_f2uiz                                     /usr/local/Cellar/gcc-arm-none-eabi/20180627/bin/../lib/gcc/arm-none-eabi/7.3.1/thumb/v7-m/libgcc.a(_arm_fixunssfsi.o)
                                                  build/system.o
                                                  build/stepper.o
__aeabi_fadd                                      /usr/local/Cellar/gcc-arm-none-eabi/20180627/bin/../lib/gcc/arm-none-eabi/7.3.1/thumb/v7-m/libgcc.a(_arm_addsubsf3.o)
                                                  /usr/local/Cellar/gcc-arm-none-eabi/20180627/bin/../lib/gcc/arm-none-eabi/7.3.1/../../../../arm-none-eabi/lib/thumb/v7-m/libm.a(lib_a-sf_scalbn.o)
                                                  /usr/local/Cellar/gcc-arm-none-eabi/20180627/bin/../lib/gcc/arm-none-eabi/7.3.1/../../../../arm-none-eabi/lib/thumb/v7-m/libm.a(lib_a-sf_floor.o)
                                                  /usr/local/Cellar/gcc-arm-none-eabi/20180627/bin/../lib/gcc/arm-none-eabi/7.3.1/../../../../arm-none-eabi/lib/thumb/v7-m/libm.a(lib_a-sf_atan.o)
                                                  /usr/local/Cellar/gcc-arm-none-eabi/20180627/bin/../lib/gcc/arm-none-eabi/7.3.1/../../../../arm-none-eabi/lib/thumb/v7-m/libm.a(lib_a-kf_sin.o)
                                                  /usr/local/Cellar/gcc-arm-none-eabi/20180627/bin/../lib/gcc/arm-none-eabi/7.3.1/../../../../arm-none-eabi/lib/thumb/v7-m/libm.a(lib_a-kf_rem_pio2.o)
                                                  /usr/local/Cellar/gcc-arm-none-eabi/20180627/bin/../lib/gcc/arm-none-eabi/7.3.1/../../../../arm-none-eabi/lib/thumb/v7-m/libm.a(lib_a-kf_cos.o)
                                                  /usr/local/Cellar/gcc-arm-none-eabi/20180627/bin/../lib/gcc/arm-none-eabi/7.3.1/../../../../arm-none-eabi/lib/thumb/v7-m/libm.a(lib_a-ef_sqrt.o)
                                                  /usr/local/Cellar/gcc-arm-none-eabi/20180627/bin/../lib/gcc/arm-none-eabi/7.3.1/../../../../arm-none-eabi/lib/thumb/v7-m/libm.a(lib_a-ef_rem_pio2.o)
                                                  /usr/local/Cellar/gcc-arm-none-eabi/20180627/bin/../lib/gcc/arm-none-eabi/7.3.1/../../../../arm-none-eabi/lib/thumb/v7-m/libm.a(lib_a-ef_atan2.o)
                                                  /usr/local/Cellar/gcc-arm-none-eabi/20180627/bin/../lib/gcc/arm-none-eabi/7.3.1/../../../../arm-none-eabi/lib/thumb/v7-m/libm.a(lib_a-sf_ceil.o)
                                                  build/stepper.o
                                                  build/report.o
                                                  build/print.o
                                                  build/planner.o
                                                  build/nuts_bolts.o
                                                  build/motion_control.o
                                                  build/limits.o
                                                  build/gcode.o
__aeabi_fcmpeq                                    /usr/local/Cellar/gcc-arm-none-eabi/20180627/bin/../lib/gcc/arm-none-eabi/7.3.1/thumb/v7-m/libgcc.a(_arm_cmpsf2.o)
                                                  /usr/local/Cellar/gcc-arm-none-eabi/20180627/bin/../lib/gcc/arm-none-eabi/7.3.1/../../../../arm-none-eabi/lib/thumb/v7-m/libm.a(lib_a-kf_rem_pio2.o)
                                                  /usr/local/Cellar/gcc-arm-none-eabi/20180627/bin/../lib/gcc/arm-none-eabi/7.3.1/../../../../arm-none-eabi/lib/thumb/v7-m/libm.a(lib_a-ef_rem_pio2.o)
                                                  build/stepper.o
                                                  build/spindle_control.o
                                                  build/planner.o
                                                  build/nuts_bolts.o
                                                  build/gcode.o
__aeabi_fcmpge                                    /usr/local/Cellar/gcc-arm-none-eabi/20180627/bin/../lib/gcc/arm-none-eabi/7.3.1/thumb/v7-m/libgcc.a(_arm_cmpsf2.o)
                                                  /usr/local/Cellar/gcc-arm-none-eabi/20180627/bin/../lib/gcc/arm-none-eabi/7.3.1/../../../../arm-none-eabi/lib/thumb/v7-m/libm.a(lib_a-kf_rem_pio2.o)
                                                  build/spindle_control.o
__aeabi_fcmpgt                                    /usr/local/Cellar/gcc-arm-none-eabi/20180627/bin/../lib/gcc/arm-none-eabi/7.3.1/thumb/v7-m/libgcc.a(_arm_cmpsf2.o)
                                                  /usr/local/Cellar/gcc-arm-none-eabi/20180627/bin/../lib/gcc/arm-none-eabi/7.3.1/../../../../arm-none-eabi/lib/thumb/v7-m/libm.a(lib_a-sf_floor.o)
                                                  /usr/local/Cellar/gcc-arm-none-eabi/20180627/bin/../lib/gcc/arm-none-eabi/7.3.1/../../../../arm-none-eabi/lib/thumb/v7-m/libm.a(lib_a-sf_atan.o)
                                                  /usr/local/Cellar/gcc-arm-none-eabi/20180627/bin/../lib/gcc/arm-none-eabi/7.3.1/../../../../arm-none-eabi/lib/thumb/v7-m/libm.a(lib_a-sf_ceil.o)
                                                  build/system.o
                                                  build/stepper.o
                                                  build/settings.o
                                                  build/planner.o
                                                  build/nuts_bolts.o
                                                  build/gcode.o
__aeabi_fcmple                                    /usr/local/Cellar/gcc-arm-none-eabi/20180627/bin/../lib/gcc/arm-none-eabi/7.3.1/thumb/v7-m/libgcc.a(_arm_cmpsf2.o)
                                                  build/stepper.o
                                                  build/spindle_control.o
                                                  build/settings.o
__aeabi_fcmplt                                    /usr/local/Cellar/gcc-arm-none-eabi/20180627/bin/../lib/gcc/arm-none-eabi/7.3.1/thumb/v7-m/libgcc.a(_arm_cmpsf2.o)
                                                  /usr/local/Cellar/gcc-arm-none-eabi/20180627/bin/../lib/gcc/arm-none-eabi/7.3.1/../../../../arm-none-eabi/lib/thumb/v7-m/libm.a(lib_a-wf_sqrt.o)
                                                  build/system.o
                                                  build/stepper.o
                                                  build/settings.o
                                                  build/print.o
                                                  build/planner.o
                                                  build/nuts_bolts.o
                                                  build/gcode.o
__aeabi_fcmpun                                    /usr/local/Cellar/gcc-arm-none-eabi/20180627/bin/../lib/gcc/arm-none-eabi/7.3.1/thumb/v7-m/libgcc.a(_arm_unordsf2.o)
                                                  /usr/local/Cellar/gcc-arm-none-eabi/20180627/bin/../lib/gcc/arm-none-eabi/7.3.1/../../../../arm-none-eabi/lib/thumb/v7-m/libm.a(lib_a-wf_sqrt.o)
__aeabi_fdiv                                      /usr/local/Cellar/gcc-arm-none-eabi/20180627/bin/../lib/gcc/arm-none-eabi/7.3.1/thumb/v7-m/libgcc.a(_arm_muldivsf3.o)
                                                  /usr/local/Cellar/gcc-arm-none-eabi/20180627/bin/../lib/gcc/arm-none-eabi/7.3.1/../../../../arm-none-eabi/lib/thumb/v7-m/libm.a(lib_a-sf_atan.o)
                                                  /usr/local/Cellar/gcc-arm-none-eabi/20180627/bin/../lib/gcc/arm-none-eabi/7.3.1/../../../../arm-none-eabi/lib/thumb/v7-m/libm.a(lib_a-ef_sqrt.o)
                                                  /usr/local/Cellar/gcc-arm-none-eabi/20180627/bin/../lib/gcc/arm-none-eabi/7.3.1/../../../../arm-none-eabi/lib/thumb/v7-m/libm.a(lib_a-ef_atan2.o)
                                                  build/system.o
                                                  build/stepper.o
                                                  build/spindle_control.o
                                                  build/report.o
                                                  build/planner.o
                                                  build/nuts_bolts.o
                                                  build/motion_control.o
__aeabi_fmul                                      /usr/local/Cellar/gcc-arm-none-eabi/20180627/bin/../lib/gcc/arm-none-eabi/7.3.1/thumb/v7-m/libgcc.a(_arm_muldivsf3.o)
                                                  /usr/local/Cellar/gcc-arm-none-eabi/20180627/bin/../lib/gcc/arm-none-eabi/7.3.1/../../../../arm-none-eabi/lib/thumb/v7-m/libm.a(lib_a-sf_scalbn.o)
                                                  /usr/local/Cellar/gcc-arm-none-eabi/20180627/bin/../lib/gcc/arm-none-eabi/7.3.1/../../../../arm-none-eabi/lib/thumb/v7-m/libm.a(lib_a-sf_atan.o)
                                                  /usr/local/Cellar/gcc-arm-none-eabi/20180627/bin/../lib/gcc/arm-none-eabi/7.3.1/../../../../arm-none-eabi/lib/thumb/v7-m/libm.a(lib_a-kf_sin.o)
                                                  /usr/local/Cellar/gcc-arm-none-eabi/20180627/bin/../lib/gcc/arm-none-eabi/7.3.1/../../../../arm-none-eabi/lib/thumb/v7-m/libm.a(lib_a-kf_rem_pio2.o)
                                                  /usr/local/Cellar/gcc-arm-none-eabi/20180627/bin/../lib/gcc/arm-none-eabi/7.3.1/../../../../arm-none-eabi/lib/thumb/v7-m/libm.a(lib_a-kf_cos.o)
                                                  /usr/local/Cellar/gcc-arm-none-eabi/20180627/bin/../lib/gcc/arm-none-eabi/7.3.1/../../../../arm-none-eabi/lib/thumb/v7-m/libm.a(lib_a-ef_sqrt.o)
                                                  /usr/local/Cellar/gcc-arm-none-eabi/20180627/bin/../lib/gcc/arm-none-eabi/7.3.1/../../../../arm-none-eabi/lib/thumb/v7-m/libm.a(lib_a-ef_rem_pio2.o)
                                                  build/stepper.o
                                                  build/spindle_control.o
                                                  build/settings.o
                                                  build/print.o
                                                  build/planner.o
                                                  build/nuts_bolts.o
                                                  build/motion_control.o
                                                  build/limits.o
                                                  build/gcode.o
                                                  build/stm32utilities.o
__aeabi_frsub                                     /usr/local/Cellar/gcc-arm-none-eabi/20180627/bin/../lib/gcc/arm-none-eabi/7.3.1/thumb/v7-m/libgcc.a(_arm_addsubsf3.o)
__aeabi_fsub                                      /usr/local/Cellar/gcc-arm-none-eabi/20180627/bin/../lib/gcc/arm-none-eabi/7.3.1/thumb/v7-m/libgcc.a(_arm_addsubsf3.o)
                                                  /usr/local/Cellar/gcc-arm-none-eabi/20180627/bin/../lib/gcc/arm-none-eabi/7.3.1/../../../../arm-none-eabi/lib/thumb/v7-m/libm.a(lib_a-sf_atan.o)
                                                  /usr/local/Cellar/gcc-arm-none-eabi/20180627/bin/../lib/gcc/arm-none-eabi/7.3.1/../../../../arm-none-eabi/lib/thumb/v7-m/libm.a(lib_a-kf_sin.o)
                                                  /usr/local/Cellar/gcc-arm-none-eabi/20180627/bin/../lib/gcc/arm-none-eabi/7.3.1/../../../../arm-none-eabi/lib/thumb/v7-m/libm.a(lib_a-kf_rem_pio2.o)
                                                  /usr/local/Cellar/gcc-arm-none-eabi/20180627/bin/../lib/gcc/arm-none-eabi/7.3.1/../../../../arm-none-eabi/lib/thumb/v7-m/libm.a(lib_a-kf_cos.o)
                                                  /usr/local/Cellar/gcc-arm-none-eabi/20180627/bin/../lib/gcc/arm-none-eabi/7.3.1/../../../../arm-none-eabi/lib/thumb/v7-m/libm.a(lib_a-ef_sqrt.o)
                                                  /usr/local/Cellar/gcc-arm-none-eabi/20180627/bin/../lib/gcc/arm-none-eabi/7.3.1/../../../../arm-none-eabi/lib/thumb/v7-m/libm.a(lib_a-ef_rem_pio2.o)
                                                  /usr/local/Cellar/gcc-arm-none-eabi/20180627/bin/../lib/gcc/arm-none-eabi/7.3.1/../../../../arm-none-eabi/lib/thumb/v7-m/libm.a(lib_a-ef_atan2.o)
                                                  /usr/local/Cellar/gcc-arm-none-eabi/20180627/bin/../lib/gcc/arm-none-eabi/7.3.1/../../../../arm-none-eabi/lib/thumb/v7-m/libm.a(lib_a-sf_sin.o)
                                                  /usr/local/Cellar/gcc-arm-none-eabi/20180627/bin/../lib/gcc/arm-none-eabi/7.3.1/../../../../arm-none-eabi/lib/thumb/v7-m/libm.a(lib_a-sf_cos.o)
                                                  build/stepper.o
                                                  build/spindle_control.o
                                                  build/report.o
                                                  build/planner.o
                                                  build/motion_control.o
                                                  build/gcode.o
__aeabi_i2d                                       /usr/local/Cellar/gcc-arm-none-eabi/20180627/bin/../lib/gcc/arm-none-eabi/7.3.1/thumb/v7-m/libgcc.a(_arm_addsubdf3.o)
                                                  build/spindle_control.o
                                                  build/planner.o
__aeabi_i2f                                       /usr/local/Cellar/gcc-arm-none-eabi/20180627/bin/../lib/gcc/arm-none-eabi/7.3.1/thumb/v7-m/libgcc.a(_arm_addsubsf3.o)
                                                  /usr/local/Cellar/gcc-arm-none-eabi/20180627/bin/../lib/gcc/arm-none-eabi/7.3.1/../../../../arm-none-eabi/lib/thumb/v7-m/libm.a(lib_a-kf_rem_pio2.o)
                                                  /usr/local/Cellar/gcc-arm-none-eabi/20180627/bin/../lib/gcc/arm-none-eabi/7.3.1/../../../../arm-none-eabi/lib/thumb/v7-m/libm.a(lib_a-ef_rem_pio2.o)
                                                  build/system.o
                                                  build/planner.o
                                                  build/motion_control.o
                                                  build/gcode.o
__aeabi_l2d                                       /usr/local/Cellar/gcc-arm-none-eabi/20180627/bin/../lib/gcc/arm-none-eabi/7.3.1/thumb/v7-m/libgcc.a(_arm_addsubdf3.o)
__aeabi_l2f                                       /usr/local/Cellar/gcc-arm-none-eabi/20180627/bin/../lib/gcc/arm-none-eabi/7.3.1/thumb/v7-m/libgcc.a(_arm_addsubsf3.o)
__aeabi_ui2d                                      /usr/local/Cellar/gcc-arm-none-eabi/20180627/bin/../lib/gcc/arm-none-eabi/7.3.1/thumb/v7-m/libgcc.a(_arm_addsubdf3.o)
__aeabi_ui2f                                      /usr/local/Cellar/gcc-arm-none-eabi/20180627/bin/../lib/gcc/arm-none-eabi/7.3.1/thumb/v7-m/libgcc.a(_arm_addsubsf3.o)
                                                  build/stepper.o
                                                  build/nuts_bolts.o
                                                  build/limits.o
                                                  build/stm32utilities.o
__aeabi_ul2d                                      /usr/local/Cellar/gcc-arm-none-eabi/20180627/bin/../lib/gcc/arm-none-eabi/7.3.1/thumb/v7-m/libgcc.a(_arm_addsubdf3.o)
__aeabi_ul2f                                      /usr/local/Cellar/gcc-arm-none-eabi/20180627/bin/../lib/gcc/arm-none-eabi/7.3.1/thumb/v7-m/libgcc.a(_arm_addsubsf3.o)
__bss_end__                                       /usr/local/Cellar/gcc-arm-none-eabi/20180627/bin/../lib/gcc/arm-none-eabi/7.3.1/../../../../arm-none-eabi/lib/thumb/v7-m/crt0.o
__bss_start__                                     /usr/local/Cellar/gcc-arm-none-eabi/20180627/bin/../lib/gcc/arm-none-eabi/7.3.1/../../../../arm-none-eabi/lib/thumb/v7-m/crt0.o
__call_exitprocs                                  /usr/local/Cellar/gcc-arm-none-eabi/20180627/bin/../lib/gcc/arm-none-eabi/7.3.1/../../../../arm-none-eabi/lib/thumb/v7-m/libc_nano.a(lib_a-exit.o)
__cmpdf2                                          /usr/local/Cellar/gcc-arm-none-eabi/20180627/bin/../lib/gcc/arm-none-eabi/7.3.1/thumb/v7-m/libgcc.a(_arm_cmpdf2.o)
__cmpsf2                                          /usr/local/Cellar/gcc-arm-none-eabi/20180627/bin/../lib/gcc/arm-none-eabi/7.3.1/thumb/v7-m/libgcc.a(_arm_cmpsf2.o)
__deregister_frame_info                           /usr/local/Cellar/gcc-arm-none-eabi/20180627/bin/../lib/gcc/arm-none-eabi/7.3.1/thumb/v7-m/crtbegin.o
__divdf3                                          /usr/local/Cellar/gcc-arm-none-eabi/20180627/bin/../lib/gcc/arm-none-eabi/7.3.1/thumb/v7-m/libgcc.a(_arm_muldivdf3.o)
__divsf3                                          /usr/local/Cellar/gcc-arm-none-eabi/20180627/bin/../lib/gcc/arm-none-eabi/7.3.1/thumb/v7-m/libgcc.a(_arm_muldivsf3.o)
__dso_handle                                      /usr/local/Cellar/gcc-arm-none-eabi/20180627/bin/../lib/gcc/arm-none-eabi/7.3.1/thumb/v7-m/crtbegin.o
__eqdf2                                           /usr/local/Cellar/gcc-arm-none-eabi/20180627/bin/../lib/gcc/arm-none-eabi/7.3.1/thumb/v7-m/libgcc.a(_arm_cmpdf2.o)
__eqsf2                                           /usr/local/Cellar/gcc-arm-none-eabi/20180627/bin/../lib/gcc/arm-none-eabi/7.3.1/thumb/v7-m/libgcc.a(_arm_cmpsf2.o)
__errno                                           /usr/local/Cellar/gcc-arm-none-eabi/20180627/bin/../lib/gcc/arm-none-eabi/7.3.1/../../../../arm-none-eabi/lib/thumb/v7-m/libc_nano.a(lib_a-errno.o)
                                                  /usr/local/Cellar/gcc-arm-none-eabi/20180627/bin/../lib/gcc/arm-none-eabi/7.3.1/../../../../arm-none-eabi/lib/thumb/v7-m/libm.a(lib_a-wf_sqrt.o)
                                                  /usr/local/Cellar/gcc-arm-none-eabi/20180627/bin/../lib/gcc/arm-none-eabi/7.3.1/../../../../arm-none-eabi/lib/thumb/v7-m/libm.a(lib_a-w_sqrt.o)
__extendsfdf2                                     /usr/local/Cellar/gcc-arm-none-eabi/20180627/bin/../lib/gcc/arm-none-eabi/7.3.1/thumb/v7-m/libgcc.a(_arm_addsubdf3.o)
__fdlib_version                                   /usr/local/Cellar/gcc-arm-none-eabi/20180627/bin/../lib/gcc/arm-none-eabi/7.3.1/../../../../arm-none-eabi/lib/thumb/v7-m/libm.a(lib_a-s_lib_ver.o)
                                                  /usr/local/Cellar/gcc-arm-none-eabi/20180627/bin/../lib/gcc/arm-none-eabi/7.3.1/../../../../arm-none-eabi/lib/thumb/v7-m/libm.a(lib_a-wf_sqrt.o)
                                                  /usr/local/Cellar/gcc-arm-none-eabi/20180627/bin/../lib/gcc/arm-none-eabi/7.3.1/../../../../arm-none-eabi/lib/thumb/v7-m/libm.a(lib_a-w_sqrt.o)
__fixdfsi                                         /usr/local/Cellar/gcc-arm-none-eabi/20180627/bin/../lib/gcc/arm-none-eabi/7.3.1/thumb/v7-m/libgcc.a(_arm_fixdfsi.o)
__fixsfsi                                         /usr/local/Cellar/gcc-arm-none-eabi/20180627/bin/../lib/gcc/arm-none-eabi/7.3.1/thumb/v7-m/libgcc.a(_arm_fixsfsi.o)
__fixunsdfsi                                      /usr/local/Cellar/gcc-arm-none-eabi/20180627/bin/../lib/gcc/arm-none-eabi/7.3.1/thumb/v7-m/libgcc.a(_arm_fixunsdfsi.o)
__fixunssfsi                                      /usr/local/Cellar/gcc-arm-none-eabi/20180627/bin/../lib/gcc/arm-none-eabi/7.3.1/thumb/v7-m/libgcc.a(_arm_fixunssfsi.o)
__floatdidf                                       /usr/local/Cellar/gcc-arm-none-eabi/20180627/bin/../lib/gcc/arm-none-eabi/7.3.1/thumb/v7-m/libgcc.a(_arm_addsubdf3.o)
__floatdisf                                       /usr/local/Cellar/gcc-arm-none-eabi/20180627/bin/../lib/gcc/arm-none-eabi/7.3.1/thumb/v7-m/libgcc.a(_arm_addsubsf3.o)
__floatsidf                                       /usr/local/Cellar/gcc-arm-none-eabi/20180627/bin/../lib/gcc/arm-none-eabi/7.3.1/thumb/v7-m/libgcc.a(_arm_addsubdf3.o)
__floatsisf                                       /usr/local/Cellar/gcc-arm-none-eabi/20180627/bin/../lib/gcc/arm-none-eabi/7.3.1/thumb/v7-m/libgcc.a(_arm_addsubsf3.o)
__floatundidf                                     /usr/local/Cellar/gcc-arm-none-eabi/20180627/bin/../lib/gcc/arm-none-eabi/7.3.1/thumb/v7-m/libgcc.a(_arm_addsubdf3.o)
__floatundisf                                     /usr/local/Cellar/gcc-arm-none-eabi/20180627/bin/../lib/gcc/arm-none-eabi/7.3.1/thumb/v7-m/libgcc.a(_arm_addsubsf3.o)
__floatunsidf                                     /usr/local/Cellar/gcc-arm-none-eabi/20180627/bin/../lib/gcc/arm-none-eabi/7.3.1/thumb/v7-m/libgcc.a(_arm_addsubdf3.o)
__floatunsisf                                     /usr/local/Cellar/gcc-arm-none-eabi/20180627/bin/../lib/gcc/arm-none-eabi/7.3.1/thumb/v7-m/libgcc.a(_arm_addsubsf3.o)
__gedf2                                           /usr/local/Cellar/gcc-arm-none-eabi/20180627/bin/../lib/gcc/arm-none-eabi/7.3.1/thumb/v7-m/libgcc.a(_arm_cmpdf2.o)
__gesf2                                           /usr/local/Cellar/gcc-arm-none-eabi/20180627/bin/../lib/gcc/arm-none-eabi/7.3.1/thumb/v7-m/libgcc.a(_arm_cmpsf2.o)
__gtdf2                                           /usr/local/Cellar/gcc-arm-none-eabi/20180627/bin/../lib/gcc/arm-none-eabi/7.3.1/thumb/v7-m/libgcc.a(_arm_cmpdf2.o)
__gtsf2                                           /usr/local/Cellar/gcc-arm-none-eabi/20180627/bin/../lib/gcc/arm-none-eabi/7.3.1/thumb/v7-m/libgcc.a(_arm_cmpsf2.o)
__ieee754_atan2f                                  /usr/local/Cellar/gcc-arm-none-eabi/20180627/bin/../lib/gcc/arm-none-eabi/7.3.1/../../../../arm-none-eabi/lib/thumb/v7-m/libm.a(lib_a-ef_atan2.o)
                                                  /usr/local/Cellar/gcc-arm-none-eabi/20180627/bin/../lib/gcc/arm-none-eabi/7.3.1/../../../../arm-none-eabi/lib/thumb/v7-m/libm.a(lib_a-wf_atan2.o)
__ieee754_rem_pio2f                               /usr/local/Cellar/gcc-arm-none-eabi/20180627/bin/../lib/gcc/arm-none-eabi/7.3.1/../../../../arm-none-eabi/lib/thumb/v7-m/libm.a(lib_a-ef_rem_pio2.o)
                                                  /usr/local/Cellar/gcc-arm-none-eabi/20180627/bin/../lib/gcc/arm-none-eabi/7.3.1/../../../../arm-none-eabi/lib/thumb/v7-m/libm.a(lib_a-sf_sin.o)
                                                  /usr/local/Cellar/gcc-arm-none-eabi/20180627/bin/../lib/gcc/arm-none-eabi/7.3.1/../../../../arm-none-eabi/lib/thumb/v7-m/libm.a(lib_a-sf_cos.o)
__ieee754_sqrt                                    /usr/local/Cellar/gcc-arm-none-eabi/20180627/bin/../lib/gcc/arm-none-eabi/7.3.1/../../../../arm-none-eabi/lib/thumb/v7-m/libm.a(lib_a-e_sqrt.o)
                                                  /usr/local/Cellar/gcc-arm-none-eabi/20180627/bin/../lib/gcc/arm-none-eabi/7.3.1/../../../../arm-none-eabi/lib/thumb/v7-m/libm.a(lib_a-w_sqrt.o)
__ieee754_sqrtf                                   /usr/local/Cellar/gcc-arm-none-eabi/20180627/bin/../lib/gcc/arm-none-eabi/7.3.1/../../../../arm-none-eabi/lib/thumb/v7-m/libm.a(lib_a-ef_sqrt.o)
                                                  /usr/local/Cellar/gcc-arm-none-eabi/20180627/bin/../lib/gcc/arm-none-eabi/7.3.1/../../../../arm-none-eabi/lib/thumb/v7-m/libm.a(lib_a-wf_sqrt.o)
__init_array_end                                  /usr/local/Cellar/gcc-arm-none-eabi/20180627/bin/../lib/gcc/arm-none-eabi/7.3.1/../../../../arm-none-eabi/lib/thumb/v7-m/libc_nano.a(lib_a-init.o)
__init_array_start                                /usr/local/Cellar/gcc-arm-none-eabi/20180627/bin/../lib/gcc/arm-none-eabi/7.3.1/../../../../arm-none-eabi/lib/thumb/v7-m/libc_nano.a(lib_a-init.o)
__kernel_cosf                                     /usr/local/Cellar/gcc-arm-none-eabi/20180627/bin/../lib/gcc/arm-none-eabi/7.3.1/../../../../arm-none-eabi/lib/thumb/v7-m/libm.a(lib_a-kf_cos.o)
                                                  /usr/local/Cellar/gcc-arm-none-eabi/20180627/bin/../lib/gcc/arm-none-eabi/7.3.1/../../../../arm-none-eabi/lib/thumb/v7-m/libm.a(lib_a-sf_sin.o)
                                                  /usr/local/Cellar/gcc-arm-none-eabi/20180627/bin/../lib/gcc/arm-none-eabi/7.3.1/../../../../arm-none-eabi/lib/thumb/v7-m/libm.a(lib_a-sf_cos.o)
__kernel_rem_pio2f                                /usr/local/Cellar/gcc-arm-none-eabi/20180627/bin/../lib/gcc/arm-none-eabi/7.3.1/../../../../arm-none-eabi/lib/thumb/v7-m/libm.a(lib_a-kf_rem_pio2.o)
                                                  /usr/local/Cellar/gcc-arm-none-eabi/20180627/bin/../lib/gcc/arm-none-eabi/7.3.1/../../../../arm-none-eabi/lib/thumb/v7-m/libm.a(lib_a-ef_rem_pio2.o)
__kernel_sinf                                     /usr/local/Cellar/gcc-arm-none-eabi/20180627/bin/../lib/gcc/arm-none-eabi/7.3.1/../../../../arm-none-eabi/lib/thumb/v7-m/libm.a(lib_a-kf_sin.o)
                                                  /usr/local/Cellar/gcc-arm-none-eabi/20180627/bin/../lib/gcc/arm-none-eabi/7.3.1/../../../../arm-none-eabi/lib/thumb/v7-m/libm.a(lib_a-sf_sin.o)
                                                  /usr/local/Cellar/gcc-arm-none-eabi/20180627/bin/../lib/gcc/arm-none-eabi/7.3.1/../../../../arm-none-eabi/lib/thumb/v7-m/libm.a(lib_a-sf_cos.o)
__ledf2                                           /usr/local/Cellar/gcc-arm-none-eabi/20180627/bin/../lib/gcc/arm-none-eabi/7.3.1/thumb/v7-m/libgcc.a(_arm_cmpdf2.o)
__lesf2                                           /usr/local/Cellar/gcc-arm-none-eabi/20180627/bin/../lib/gcc/arm-none-eabi/7.3.1/thumb/v7-m/libgcc.a(_arm_cmpsf2.o)
__libc_fini_array                                 /usr/local/Cellar/gcc-arm-none-eabi/20180627/bin/../lib/gcc/arm-none-eabi/7.3.1/../../../../arm-none-eabi/lib/thumb/v7-m/crt0.o
__libc_init_array                                 /usr/local/Cellar/gcc-arm-none-eabi/20180627/bin/../lib/gcc/arm-none-eabi/7.3.1/../../../../arm-none-eabi/lib/thumb/v7-m/libc_nano.a(lib_a-init.o)
                                                  build/startup_stm32f103xb.o
                                                  /usr/local/Cellar/gcc-arm-none-eabi/20180627/bin/../lib/gcc/arm-none-eabi/7.3.1/../../../../arm-none-eabi/lib/thumb/v7-m/crt0.o
__ltdf2                                           /usr/local/Cellar/gcc-arm-none-eabi/20180627/bin/../lib/gcc/arm-none-eabi/7.3.1/thumb/v7-m/libgcc.a(_arm_cmpdf2.o)
__ltsf2                                           /usr/local/Cellar/gcc-arm-none-eabi/20180627/bin/../lib/gcc/arm-none-eabi/7.3.1/thumb/v7-m/libgcc.a(_arm_cmpsf2.o)
__malloc_free_list                                /usr/local/Cellar/gcc-arm-none-eabi/20180627/bin/../lib/gcc/arm-none-eabi/7.3.1/../../../../arm-none-eabi/lib/thumb/v7-m/libc_nano.a(lib_a-nano-mallocr.o)
                                                  /usr/local/Cellar/gcc-arm-none-eabi/20180627/bin/../lib/gcc/arm-none-eabi/7.3.1/../../../../arm-none-eabi/lib/thumb/v7-m/libc_nano.a(lib_a-nano-freer.o)
__malloc_lock                                     /usr/local/Cellar/gcc-arm-none-eabi/20180627/bin/../lib/gcc/arm-none-eabi/7.3.1/../../../../arm-none-eabi/lib/thumb/v7-m/libc_nano.a(lib_a-mlock.o)
                                                  /usr/local/Cellar/gcc-arm-none-eabi/20180627/bin/../lib/gcc/arm-none-eabi/7.3.1/../../../../arm-none-eabi/lib/thumb/v7-m/libc_nano.a(lib_a-nano-mallocr.o)
                                                  /usr/local/Cellar/gcc-arm-none-eabi/20180627/bin/../lib/gcc/arm-none-eabi/7.3.1/../../../../arm-none-eabi/lib/thumb/v7-m/libc_nano.a(lib_a-nano-freer.o)
__malloc_sbrk_start                               /usr/local/Cellar/gcc-arm-none-eabi/20180627/bin/../lib/gcc/arm-none-eabi/7.3.1/../../../../arm-none-eabi/lib/thumb/v7-m/libc_nano.a(lib_a-nano-mallocr.o)
__malloc_unlock                                   /usr/local/Cellar/gcc-arm-none-eabi/20180627/bin/../lib/gcc/arm-none-eabi/7.3.1/../../../../arm-none-eabi/lib/thumb/v7-m/libc_nano.a(lib_a-mlock.o)
                                                  /usr/local/Cellar/gcc-arm-none-eabi/20180627/bin/../lib/gcc/arm-none-eabi/7.3.1/../../../../arm-none-eabi/lib/thumb/v7-m/libc_nano.a(lib_a-nano-mallocr.o)
                                                  /usr/local/Cellar/gcc-arm-none-eabi/20180627/bin/../lib/gcc/arm-none-eabi/7.3.1/../../../../arm-none-eabi/lib/thumb/v7-m/libc_nano.a(lib_a-nano-freer.o)
__muldf3                                          /usr/local/Cellar/gcc-arm-none-eabi/20180627/bin/../lib/gcc/arm-none-eabi/7.3.1/thumb/v7-m/libgcc.a(_arm_muldivdf3.o)
__mulsf3                                          /usr/local/Cellar/gcc-arm-none-eabi/20180627/bin/../lib/gcc/arm-none-eabi/7.3.1/thumb/v7-m/libgcc.a(_arm_muldivsf3.o)
__nedf2                                           /usr/local/Cellar/gcc-arm-none-eabi/20180627/bin/../lib/gcc/arm-none-eabi/7.3.1/thumb/v7-m/libgcc.a(_arm_cmpdf2.o)
__nesf2                                           /usr/local/Cellar/gcc-arm-none-eabi/20180627/bin/../lib/gcc/arm-none-eabi/7.3.1/thumb/v7-m/libgcc.a(_arm_cmpsf2.o)
__preinit_array_end                               /usr/local/Cellar/gcc-arm-none-eabi/20180627/bin/../lib/gcc/arm-none-eabi/7.3.1/../../../../arm-none-eabi/lib/thumb/v7-m/libc_nano.a(lib_a-init.o)
__preinit_array_start                             /usr/local/Cellar/gcc-arm-none-eabi/20180627/bin/../lib/gcc/arm-none-eabi/7.3.1/../../../../arm-none-eabi/lib/thumb/v7-m/libc_nano.a(lib_a-init.o)
__register_frame_info                             /usr/local/Cellar/gcc-arm-none-eabi/20180627/bin/../lib/gcc/arm-none-eabi/7.3.1/thumb/v7-m/crtbegin.o
__sf_fake_stderr                                  /usr/local/Cellar/gcc-arm-none-eabi/20180627/bin/../lib/gcc/arm-none-eabi/7.3.1/../../../../arm-none-eabi/lib/thumb/v7-m/libc_nano.a(lib_a-impure.o)
__sf_fake_stdin                                   /usr/local/Cellar/gcc-arm-none-eabi/20180627/bin/../lib/gcc/arm-none-eabi/7.3.1/../../../../arm-none-eabi/lib/thumb/v7-m/libc_nano.a(lib_a-impure.o)
__sf_fake_stdout                                  /usr/local/Cellar/gcc-arm-none-eabi/20180627/bin/../lib/gcc/arm-none-eabi/7.3.1/../../../../arm-none-eabi/lib/thumb/v7-m/libc_nano.a(lib_a-impure.o)
__ssprint_r                                       /usr/local/Cellar/gcc-arm-none-eabi/20180627/bin/../lib/gcc/arm-none-eabi/7.3.1/../../../../arm-none-eabi/lib/thumb/v7-m/libc_nano.a(lib_a-nano-svfprintf.o)
__ssputs_r                                        /usr/local/Cellar/gcc-arm-none-eabi/20180627/bin/../lib/gcc/arm-none-eabi/7.3.1/../../../../arm-none-eabi/lib/thumb/v7-m/libc_nano.a(lib_a-nano-svfprintf.o)
__stack                                           /usr/local/Cellar/gcc-arm-none-eabi/20180627/bin/../lib/gcc/arm-none-eabi/7.3.1/../../../../arm-none-eabi/lib/thumb/v7-m/crt0.o
__subdf3                                          /usr/local/Cellar/gcc-arm-none-eabi/20180627/bin/../lib/gcc/arm-none-eabi/7.3.1/thumb/v7-m/libgcc.a(_arm_addsubdf3.o)
__subsf3                                          /usr/local/Cellar/gcc-arm-none-eabi/20180627/bin/../lib/gcc/arm-none-eabi/7.3.1/thumb/v7-m/libgcc.a(_arm_addsubsf3.o)
__truncdfsf2                                      /usr/local/Cellar/gcc-arm-none-eabi/20180627/bin/../lib/gcc/arm-none-eabi/7.3.1/thumb/v7-m/libgcc.a(_arm_truncdfsf2.o)
__unorddf2                                        /usr/local/Cellar/gcc-arm-none-eabi/20180627/bin/../lib/gcc/arm-none-eabi/7.3.1/thumb/v7-m/libgcc.a(_arm_unorddf2.o)
__unordsf2                                        /usr/local/Cellar/gcc-arm-none-eabi/20180627/bin/../lib/gcc/arm-none-eabi/7.3.1/thumb/v7-m/libgcc.a(_arm_unordsf2.o)
_delay_ms                                         build/nuts_bolts.o
_delay_us                                         build/nuts_bolts.o
_ebss                                             build/startup_stm32f103xb.o
_edata                                            build/startup_stm32f103xb.o
_estack                                           build/startup_stm32f103xb.o
_exit                                             /usr/local/Cellar/gcc-arm-none-eabi/20180627/bin/../lib/gcc/arm-none-eabi/7.3.1/../../../../arm-none-eabi/lib/thumb/v7-m/libnosys.a(_exit.o)
                                                  /usr/local/Cellar/gcc-arm-none-eabi/20180627/bin/../lib/gcc/arm-none-eabi/7.3.1/../../../../arm-none-eabi/lib/thumb/v7-m/libc_nano.a(lib_a-exit.o)
_fini                                             /usr/local/Cellar/gcc-arm-none-eabi/20180627/bin/../lib/gcc/arm-none-eabi/7.3.1/thumb/v7-m/crti.o
_free_r                                           /usr/local/Cellar/gcc-arm-none-eabi/20180627/bin/../lib/gcc/arm-none-eabi/7.3.1/../../../../arm-none-eabi/lib/thumb/v7-m/libc_nano.a(lib_a-nano-freer.o)
                                                  /usr/local/Cellar/gcc-arm-none-eabi/20180627/bin/../lib/gcc/arm-none-eabi/7.3.1/../../../../arm-none-eabi/lib/thumb/v7-m/libc_nano.a(lib_a-reent.o)
                                                  /usr/local/Cellar/gcc-arm-none-eabi/20180627/bin/../lib/gcc/arm-none-eabi/7.3.1/../../../../arm-none-eabi/lib/thumb/v7-m/libc_nano.a(lib_a-nano-reallocr.o)
                                                  /usr/local/Cellar/gcc-arm-none-eabi/20180627/bin/../lib/gcc/arm-none-eabi/7.3.1/../../../../arm-none-eabi/lib/thumb/v7-m/libc_nano.a(lib_a-nano-svfprintf.o)
_global_impure_ptr                                /usr/local/Cellar/gcc-arm-none-eabi/20180627/bin/../lib/gcc/arm-none-eabi/7.3.1/../../../../arm-none-eabi/lib/thumb/v7-m/libc_nano.a(lib_a-impure.o)
                                                  /usr/local/Cellar/gcc-arm-none-eabi/20180627/bin/../lib/gcc/arm-none-eabi/7.3.1/../../../../arm-none-eabi/lib/thumb/v7-m/libc_nano.a(lib_a-exit.o)
_impure_ptr                                       /usr/local/Cellar/gcc-arm-none-eabi/20180627/bin/../lib/gcc/arm-none-eabi/7.3.1/../../../../arm-none-eabi/lib/thumb/v7-m/libc_nano.a(lib_a-impure.o)
                                                  /usr/local/Cellar/gcc-arm-none-eabi/20180627/bin/../lib/gcc/arm-none-eabi/7.3.1/../../../../arm-none-eabi/lib/thumb/v7-m/libc_nano.a(lib_a-errno.o)
                                                  /usr/local/Cellar/gcc-arm-none-eabi/20180627/bin/../lib/gcc/arm-none-eabi/7.3.1/../../../../arm-none-eabi/lib/thumb/v7-m/libc_nano.a(lib_a-reent.o)
                                                  /usr/local/Cellar/gcc-arm-none-eabi/20180627/bin/../lib/gcc/arm-none-eabi/7.3.1/../../../../arm-none-eabi/lib/thumb/v7-m/libc_nano.a(lib_a-sprintf.o)
_init                                             /usr/local/Cellar/gcc-arm-none-eabi/20180627/bin/../lib/gcc/arm-none-eabi/7.3.1/thumb/v7-m/crti.o
                                                  /usr/local/Cellar/gcc-arm-none-eabi/20180627/bin/../lib/gcc/arm-none-eabi/7.3.1/../../../../arm-none-eabi/lib/thumb/v7-m/libc_nano.a(lib_a-init.o)
_mainCRTStartup                                   /usr/local/Cellar/gcc-arm-none-eabi/20180627/bin/../lib/gcc/arm-none-eabi/7.3.1/../../../../arm-none-eabi/lib/thumb/v7-m/crt0.o
_malloc_r                                         /usr/local/Cellar/gcc-arm-none-eabi/20180627/bin/../lib/gcc/arm-none-eabi/7.3.1/../../../../arm-none-eabi/lib/thumb/v7-m/libc_nano.a(lib_a-nano-mallocr.o)
                                                  /usr/local/Cellar/gcc-arm-none-eabi/20180627/bin/../lib/gcc/arm-none-eabi/7.3.1/../../../../arm-none-eabi/lib/thumb/v7-m/libc_nano.a(lib_a-nano-reallocr.o)
                                                  /usr/local/Cellar/gcc-arm-none-eabi/20180627/bin/../lib/gcc/arm-none-eabi/7.3.1/../../../../arm-none-eabi/lib/thumb/v7-m/libc_nano.a(lib_a-nano-svfprintf.o)
_malloc_usable_size_r                             /usr/local/Cellar/gcc-arm-none-eabi/20180627/bin/../lib/gcc/arm-none-eabi/7.3.1/../../../../arm-none-eabi/lib/thumb/v7-m/libc_nano.a(lib_a-nano-msizer.o)
                                                  /usr/local/Cellar/gcc-arm-none-eabi/20180627/bin/../lib/gcc/arm-none-eabi/7.3.1/../../../../arm-none-eabi/lib/thumb/v7-m/libc_nano.a(lib_a-nano-reallocr.o)
_printf_common                                    /usr/local/Cellar/gcc-arm-none-eabi/20180627/bin/../lib/gcc/arm-none-eabi/7.3.1/../../../../arm-none-eabi/lib/thumb/v7-m/libc_nano.a(lib_a-nano-vfprintf_i.o)
_printf_float                                     /usr/local/Cellar/gcc-arm-none-eabi/20180627/bin/../lib/gcc/arm-none-eabi/7.3.1/../../../../arm-none-eabi/lib/thumb/v7-m/libc_nano.a(lib_a-nano-svfprintf.o)
_printf_i                                         /usr/local/Cellar/gcc-arm-none-eabi/20180627/bin/../lib/gcc/arm-none-eabi/7.3.1/../../../../arm-none-eabi/lib/thumb/v7-m/libc_nano.a(lib_a-nano-vfprintf_i.o)
                                                  /usr/local/Cellar/gcc-arm-none-eabi/20180627/bin/../lib/gcc/arm-none-eabi/7.3.1/../../../../arm-none-eabi/lib/thumb/v7-m/libc_nano.a(lib_a-nano-svfprintf.o)
_realloc_r                                        /usr/local/Cellar/gcc-arm-none-eabi/20180627/bin/../lib/gcc/arm-none-eabi/7.3.1/../../../../arm-none-eabi/lib/thumb/v7-m/libc_nano.a(lib_a-nano-reallocr.o)
                                                  /usr/local/Cellar/gcc-arm-none-eabi/20180627/bin/../lib/gcc/arm-none-eabi/7.3.1/../../../../arm-none-eabi/lib/thumb/v7-m/libc_nano.a(lib_a-nano-svfprintf.o)
_reclaim_reent                                    /usr/local/Cellar/gcc-arm-none-eabi/20180627/bin/../lib/gcc/arm-none-eabi/7.3.1/../../../../arm-none-eabi/lib/thumb/v7-m/libc_nano.a(lib_a-reent.o)
_sbrk                                             /usr/local/Cellar/gcc-arm-none-eabi/20180627/bin/../lib/gcc/arm-none-eabi/7.3.1/../../../../arm-none-eabi/lib/thumb/v7-m/libnosys.a(sbrk.o)
                                                  /usr/local/Cellar/gcc-arm-none-eabi/20180627/bin/../lib/gcc/arm-none-eabi/7.3.1/../../../../arm-none-eabi/lib/thumb/v7-m/libc_nano.a(lib_a-sbrkr.o)
_sbrk_r                                           /usr/local/Cellar/gcc-arm-none-eabi/20180627/bin/../lib/gcc/arm-none-eabi/7.3.1/../../../../arm-none-eabi/lib/thumb/v7-m/libc_nano.a(lib_a-sbrkr.o)
                                                  /usr/local/Cellar/gcc-arm-none-eabi/20180627/bin/../lib/gcc/arm-none-eabi/7.3.1/../../../../arm-none-eabi/lib/thumb/v7-m/libc_nano.a(lib_a-nano-mallocr.o)
_sbss                                             build/startup_stm32f103xb.o
_sdata                                            build/startup_stm32f103xb.o
_sidata                                           build/startup_stm32f103xb.o
_siprintf_r                                       /usr/local/Cellar/gcc-arm-none-eabi/20180627/bin/../lib/gcc/arm-none-eabi/7.3.1/../../../../arm-none-eabi/lib/thumb/v7-m/libc_nano.a(lib_a-sprintf.o)
_sprintf_r                                        /usr/local/Cellar/gcc-arm-none-eabi/20180627/bin/../lib/gcc/arm-none-eabi/7.3.1/../../../../arm-none-eabi/lib/thumb/v7-m/libc_nano.a(lib_a-sprintf.o)
_start                                            /usr/local/Cellar/gcc-arm-none-eabi/20180627/bin/../lib/gcc/arm-none-eabi/7.3.1/../../../../arm-none-eabi/lib/thumb/v7-m/crt0.o
_svfiprintf_r                                     /usr/local/Cellar/gcc-arm-none-eabi/20180627/bin/../lib/gcc/arm-none-eabi/7.3.1/../../../../arm-none-eabi/lib/thumb/v7-m/libc_nano.a(lib_a-nano-svfprintf.o)
_svfprintf_r                                      /usr/local/Cellar/gcc-arm-none-eabi/20180627/bin/../lib/gcc/arm-none-eabi/7.3.1/../../../../arm-none-eabi/lib/thumb/v7-m/libc_nano.a(lib_a-nano-svfprintf.o)
                                                  /usr/local/Cellar/gcc-arm-none-eabi/20180627/bin/../lib/gcc/arm-none-eabi/7.3.1/../../../../arm-none-eabi/lib/thumb/v7-m/libc_nano.a(lib_a-sprintf.o)
acceleration_scaling                              build/settings.o
                                                  build/gcode.o
adjustments                                       build/settings.o
                                                  build/planner.o
atan2f                                            /usr/local/Cellar/gcc-arm-none-eabi/20180627/bin/../lib/gcc/arm-none-eabi/7.3.1/../../../../arm-none-eabi/lib/thumb/v7-m/libm.a(lib_a-wf_atan2.o)
                                                  build/motion_control.o
atanf                                             /usr/local/Cellar/gcc-arm-none-eabi/20180627/bin/../lib/gcc/arm-none-eabi/7.3.1/../../../../arm-none-eabi/lib/thumb/v7-m/libm.a(lib_a-sf_atan.o)
                                                  /usr/local/Cellar/gcc-arm-none-eabi/20180627/bin/../lib/gcc/arm-none-eabi/7.3.1/../../../../arm-none-eabi/lib/thumb/v7-m/libm.a(lib_a-ef_atan2.o)
atexit                                            /usr/local/Cellar/gcc-arm-none-eabi/20180627/bin/../lib/gcc/arm-none-eabi/7.3.1/../../../../arm-none-eabi/lib/thumb/v7-m/crt0.o
ceil                                              /usr/local/Cellar/gcc-arm-none-eabi/20180627/bin/../lib/gcc/arm-none-eabi/7.3.1/../../../../arm-none-eabi/lib/thumb/v7-m/libm.a(lib_a-s_ceil.o)
                                                  build/nuts_bolts.o
ceilf                                             /usr/local/Cellar/gcc-arm-none-eabi/20180627/bin/../lib/gcc/arm-none-eabi/7.3.1/../../../../arm-none-eabi/lib/thumb/v7-m/libm.a(lib_a-sf_ceil.o)
                                                  build/stepper.o
cleanup_glue                                      /usr/local/Cellar/gcc-arm-none-eabi/20180627/bin/../lib/gcc/arm-none-eabi/7.3.1/../../../../arm-none-eabi/lib/thumb/v7-m/libc_nano.a(lib_a-reent.o)
convert_delta_vector_to_unit_vector               build/nuts_bolts.o
                                                  build/planner.o
coolant_get_state                                 build/coolant_control.o
                                                  build/report.o
coolant_init                                      build/coolant_control.o
                                                  build/main.o
coolant_set_state                                 build/coolant_control.o
                                                  build/protocol.o
                                                  build/gcode.o
coolant_stop                                      build/coolant_control.o
                                                  build/motion_control.o
coolant_sync                                      build/coolant_control.o
                                                  build/gcode.o
copysignf                                         /usr/local/Cellar/gcc-arm-none-eabi/20180627/bin/../lib/gcc/arm-none-eabi/7.3.1/../../../../arm-none-eabi/lib/thumb/v7-m/libm.a(lib_a-sf_copysign.o)
                                                  /usr/local/Cellar/gcc-arm-none-eabi/20180627/bin/../lib/gcc/arm-none-eabi/7.3.1/../../../../arm-none-eabi/lib/thumb/v7-m/libm.a(lib_a-sf_scalbn.o)
cosf                                              /usr/local/Cellar/gcc-arm-none-eabi/20180627/bin/../lib/gcc/arm-none-eabi/7.3.1/../../../../arm-none-eabi/lib/thumb/v7-m/libm.a(lib_a-sf_cos.o)
                                                  build/motion_control.o
delay_ms                                          build/nuts_bolts.o
                                                  build/stepper.o
                                                  build/report.o
                                                  build/limits.o
delay_sec                                         build/nuts_bolts.o
                                                  build/protocol.o
                                                  build/motion_control.o
delay_us                                          build/nuts_bolts.o
direction_pin_mask                                build/stm32utilities.o
                                                  build/stepper.o
                                                  build/planner.o
eeprom_flush                                      build/eeprom.o
eeprom_get_char                                   build/eeprom.o
                                                  build/settings.o
eeprom_init                                       build/eeprom.o
                                                  build/main.o
eeprom_put_char                                   build/eeprom.o
                                                  build/settings.o
end                                               /usr/local/Cellar/gcc-arm-none-eabi/20180627/bin/../lib/gcc/arm-none-eabi/7.3.1/../../../../arm-none-eabi/lib/thumb/v7-m/libnosys.a(sbrk.o)
errno                                             /usr/local/Cellar/gcc-arm-none-eabi/20180627/bin/../lib/gcc/arm-none-eabi/7.3.1/../../../../arm-none-eabi/lib/thumb/v7-m/libc_nano.a(lib_a-reent.o)
                                                  /usr/local/Cellar/gcc-arm-none-eabi/20180627/bin/../lib/gcc/arm-none-eabi/7.3.1/../../../../arm-none-eabi/lib/thumb/v7-m/libc_nano.a(lib_a-sbrkr.o)
exit                                              /usr/local/Cellar/gcc-arm-none-eabi/20180627/bin/../lib/gcc/arm-none-eabi/7.3.1/../../../../arm-none-eabi/lib/thumb/v7-m/libc_nano.a(lib_a-exit.o)
                                                  /usr/local/Cellar/gcc-arm-none-eabi/20180627/bin/../lib/gcc/arm-none-eabi/7.3.1/../../../../arm-none-eabi/lib/thumb/v7-m/crt0.o
fTICKS_PER_MINUTE                                 build/stm32utilities.o
                                                  build/stepper.o
fabsf                                             /usr/local/Cellar/gcc-arm-none-eabi/20180627/bin/../lib/gcc/arm-none-eabi/7.3.1/../../../../arm-none-eabi/lib/thumb/v7-m/libm.a(lib_a-sf_fabs.o)
                                                  /usr/local/Cellar/gcc-arm-none-eabi/20180627/bin/../lib/gcc/arm-none-eabi/7.3.1/../../../../arm-none-eabi/lib/thumb/v7-m/libm.a(lib_a-sf_atan.o)
                                                  /usr/local/Cellar/gcc-arm-none-eabi/20180627/bin/../lib/gcc/arm-none-eabi/7.3.1/../../../../arm-none-eabi/lib/thumb/v7-m/libm.a(lib_a-ef_rem_pio2.o)
                                                  /usr/local/Cellar/gcc-arm-none-eabi/20180627/bin/../lib/gcc/arm-none-eabi/7.3.1/../../../../arm-none-eabi/lib/thumb/v7-m/libm.a(lib_a-ef_atan2.o)
floor                                             /usr/local/Cellar/gcc-arm-none-eabi/20180627/bin/../lib/gcc/arm-none-eabi/7.3.1/../../../../arm-none-eabi/lib/thumb/v7-m/libm.a(lib_a-s_floor.o)
                                                  build/spindle_control.o
                                                  build/motion_control.o
floorf                                            /usr/local/Cellar/gcc-arm-none-eabi/20180627/bin/../lib/gcc/arm-none-eabi/7.3.1/../../../../arm-none-eabi/lib/thumb/v7-m/libm.a(lib_a-sf_floor.o)
                                                  /usr/local/Cellar/gcc-arm-none-eabi/20180627/bin/../lib/gcc/arm-none-eabi/7.3.1/../../../../arm-none-eabi/lib/thumb/v7-m/libm.a(lib_a-kf_rem_pio2.o)
g_pfnVectors                                      build/startup_stm32f103xb.o
gc_block                                          build/gcode.o
gc_execute_line                                   build/gcode.o
                                                  build/system.o
                                                  build/protocol.o
gc_init                                           build/gcode.o
                                                  build/main.o
gc_state                                          build/gcode.o
                                                  build/report.o
                                                  build/protocol.o
gc_sync_position                                  build/gcode.o
                                                  build/protocol.o
                                                  build/motion_control.o
                                                  build/main.o
hardware_init_hook                                /usr/local/Cellar/gcc-arm-none-eabi/20180627/bin/../lib/gcc/arm-none-eabi/7.3.1/../../../../arm-none-eabi/lib/thumb/v7-m/crt0.o
hi2c1                                             build/i2c.o
hypot_f                                           build/nuts_bolts.o
                                                  build/gcode.o
inoutputs_init                                    build/inoutputs.o
                                                  build/main.o
inputs_digital_init                               build/inoutputs.o
jog_execute                                       build/jog.o
                                                  build/gcode.o
limit_pin_mask                                    build/stm32utilities.o
                                                  build/limits.o
limit_value_by_axis_maximum                       build/nuts_bolts.o
                                                  build/planner.o
limits_disable                                    build/limits.o
                                                  build/motion_control.o
limits_enable                                     build/limits.o
limits_get_state                                  build/limits.o
                                                  build/report.o
                                                  build/protocol.o
limits_go_home                                    build/limits.o
                                                  build/motion_control.o
limits_init                                       build/limits.o
                                                  build/settings.o
                                                  build/main.o
limits_soft_check                                 build/limits.o
                                                  build/motion_control.o
lround                                            /usr/local/Cellar/gcc-arm-none-eabi/20180627/bin/../lib/gcc/arm-none-eabi/7.3.1/../../../../arm-none-eabi/lib/thumb/v7-m/libm.a(lib_a-s_lround.o)
                                                  build/planner.o
                                                  build/limits.o
main                                              build/main.o
                                                  build/startup_stm32f103xb.o
                                                  /usr/local/Cellar/gcc-arm-none-eabi/20180627/bin/../lib/gcc/arm-none-eabi/7.3.1/../../../../arm-none-eabi/lib/thumb/v7-m/crt0.o
matherr                                           /usr/local/Cellar/gcc-arm-none-eabi/20180627/bin/../lib/gcc/arm-none-eabi/7.3.1/../../../../arm-none-eabi/lib/thumb/v7-m/libm.a(lib_a-s_matherr.o)
                                                  /usr/local/Cellar/gcc-arm-none-eabi/20180627/bin/../lib/gcc/arm-none-eabi/7.3.1/../../../../arm-none-eabi/lib/thumb/v7-m/libm.a(lib_a-wf_sqrt.o)
                                                  /usr/local/Cellar/gcc-arm-none-eabi/20180627/bin/../lib/gcc/arm-none-eabi/7.3.1/../../../../arm-none-eabi/lib/thumb/v7-m/libm.a(lib_a-w_sqrt.o)
mc_arc                                            build/motion_control.o
                                                  build/gcode.o
mc_dwell                                          build/motion_control.o
                                                  build/gcode.o
mc_homing_cycle                                   build/motion_control.o
                                                  build/system.o
mc_line                                           build/motion_control.o
                                                  build/jog.o
                                                  build/gcode.o
mc_probe_cycle                                    build/motion_control.o
                                                  build/gcode.o
mc_reset                                          build/motion_control.o
                                                  build/system.o
                                                  build/serial.o
                                                  build/limits.o
memchr                                            /usr/local/Cellar/gcc-arm-none-eabi/20180627/bin/../lib/gcc/arm-none-eabi/7.3.1/../../../../arm-none-eabi/lib/thumb/v7-m/libc_nano.a(lib_a-memchr-stub.o)
                                                  /usr/local/Cellar/gcc-arm-none-eabi/20180627/bin/../lib/gcc/arm-none-eabi/7.3.1/../../../../arm-none-eabi/lib/thumb/v7-m/libc_nano.a(lib_a-nano-vfprintf_i.o)
                                                  /usr/local/Cellar/gcc-arm-none-eabi/20180627/bin/../lib/gcc/arm-none-eabi/7.3.1/../../../../arm-none-eabi/lib/thumb/v7-m/libc_nano.a(lib_a-nano-svfprintf.o)
memcmp                                            /usr/local/Cellar/gcc-arm-none-eabi/20180627/bin/../lib/gcc/arm-none-eabi/7.3.1/../../../../arm-none-eabi/lib/thumb/v7-m/libc_nano.a(lib_a-memcmp.o)
                                                  build/gcode.o
memcpy                                            /usr/local/Cellar/gcc-arm-none-eabi/20180627/bin/../lib/gcc/arm-none-eabi/7.3.1/../../../../arm-none-eabi/lib/thumb/v7-m/libc_nano.a(lib_a-memcpy-stub.o)
                                                  /usr/local/Cellar/gcc-arm-none-eabi/20180627/bin/../lib/gcc/arm-none-eabi/7.3.1/../../../../arm-none-eabi/lib/thumb/v7-m/libc_nano.a(lib_a-nano-reallocr.o)
                                                  /usr/local/Cellar/gcc-arm-none-eabi/20180627/bin/../lib/gcc/arm-none-eabi/7.3.1/../../../../arm-none-eabi/lib/thumb/v7-m/libc_nano.a(lib_a-nano-svfprintf.o)
memcpy_from_eeprom_with_checksum                  build/eeprom.o
                                                  build/settings.o
memcpy_to_eeprom_with_checksum                    build/eeprom.o
                                                  build/settings.o
memmove                                           /usr/local/Cellar/gcc-arm-none-eabi/20180627/bin/../lib/gcc/arm-none-eabi/7.3.1/../../../../arm-none-eabi/lib/thumb/v7-m/libc_nano.a(lib_a-memmove.o)
                                                  /usr/local/Cellar/gcc-arm-none-eabi/20180627/bin/../lib/gcc/arm-none-eabi/7.3.1/../../../../arm-none-eabi/lib/thumb/v7-m/libc_nano.a(lib_a-nano-svfprintf.o)
memset                                            /usr/local/Cellar/gcc-arm-none-eabi/20180627/bin/../lib/gcc/arm-none-eabi/7.3.1/../../../../arm-none-eabi/lib/thumb/v7-m/libc_nano.a(lib_a-memset.o)
                                                  build/stepper.o
                                                  build/planner.o
                                                  build/gcode.o
                                                  build/eeprom.o
                                                  build/stm32utilities.o
                                                  build/tim.o
                                                  /usr/local/Cellar/gcc-arm-none-eabi/20180627/bin/../lib/gcc/arm-none-eabi/7.3.1/../../../../arm-none-eabi/lib/thumb/v7-m/crt0.o
outputs_analog_action                             build/inoutputs.o
                                                  build/gcode.o
outputs_analog_init                               build/inoutputs.o
                                                  build/settings.o
outputs_analog_set                                build/inoutputs.o
outputs_compute_pwm_value                         build/inoutputs.o
outputs_digital_action                            build/inoutputs.o
                                                  build/gcode.o
outputs_digital_reset                             build/inoutputs.o
outputs_digital_set                               build/inoutputs.o
outputs_get_digital_state                         build/inoutputs.o
outputs_pin_mask                                  build/inoutputs.o
outputs_set_analog                                build/inoutputs.o
outputs_set_digital                               build/inoutputs.o
pDbgStr                                           build/stm32utilities.o
pDbgVal16                                         build/stm32utilities.o
pDbgVal8a                                         build/stm32utilities.o
pDbgVal8b                                         build/stm32utilities.o
pFlash                                            build/stm32f1xx_hal_flash.o
                                                  build/stm32f1xx_hal_flash_ex.o
pHI2C                                             build/lcd-i2c.o
pHello                                            build/stm32utilities.o
pinmask                                           build/stm32f1xx_it.o
plan_buffer_line                                  build/planner.o
                                                  build/motion_control.o
                                                  build/limits.o
plan_check_full_buffer                            build/planner.o
                                                  build/motion_control.o
plan_compute_profile_nominal_speed                build/planner.o
                                                  build/stepper.o
plan_cycle_reinitialize                           build/planner.o
                                                  build/protocol.o
plan_discard_current_block                        build/planner.o
                                                  build/stepper.o
plan_get_block_buffer_available                   build/planner.o
                                                  build/report.o
plan_get_block_buffer_count                       build/planner.o
plan_get_current_block                            build/planner.o
                                                  build/stepper.o
                                                  build/protocol.o
                                                  build/jog.o
plan_get_exec_block_exit_speed_sqr                build/planner.o
                                                  build/stepper.o
plan_get_system_motion_block                      build/planner.o
                                                  build/stepper.o
plan_next_block_index                             build/planner.o
plan_reset                                        build/planner.o
                                                  build/protocol.o
                                                  build/motion_control.o
                                                  build/gcode.o
                                                  build/main.o
plan_reset_buffer                                 build/planner.o
plan_sync_position                                build/planner.o
                                                  build/protocol.o
                                                  build/motion_control.o
                                                  build/main.o
plan_update_velocity_profile_parameters           build/planner.o
                                                  build/protocol.o
printFloat                                        build/print.o
                                                  build/report.o
printFloat_CoordValue                             build/print.o
                                                  build/report.o
printFloat_RateValue                              build/print.o
                                                  build/report.o
printInteger                                      build/print.o
printString                                       build/print.o
                                                  build/report.o
print_uint32_base10                               build/print.o
print_uint8_base10                                build/print.o
                                                  build/report.o
print_uint8_base2_ndigit                          build/print.o
probe_configure_invert_mask                       build/probe.o
                                                  build/settings.o
                                                  build/motion_control.o
probe_get_state                                   build/probe.o
                                                  build/report.o
                                                  build/motion_control.o
probe_init                                        build/probe.o
                                                  build/main.o
probe_invert_mask                                 build/probe.o
probe_state_monitor                               build/probe.o
                                                  build/stepper.o
protocol_auto_cycle_start                         build/protocol.o
                                                  build/motion_control.o
protocol_buffer_synchronize                       build/protocol.o
                                                  build/system.o
                                                  build/spindle_control.o
                                                  build/settings.o
                                                  build/motion_control.o
                                                  build/gcode.o
                                                  build/coolant_control.o
                                                  build/inoutputs.o
protocol_exec_rt_system                           build/protocol.o
                                                  build/nuts_bolts.o
protocol_execute_realtime                         build/protocol.o
                                                  build/nuts_bolts.o
                                                  build/motion_control.o
                                                  build/limits.o
                                                  build/gcode.o
protocol_main_loop                                build/protocol.o
                                                  build/main.o
read_float                                        build/nuts_bolts.o
                                                  build/system.o
                                                  build/gcode.o
read_global_settings                              build/settings.o
report_alarm_message                              build/report.o
                                                  build/protocol.o
report_build_info                                 build/report.o
                                                  build/system.o
report_echo_line_received                         build/report.o
report_execute_startup_message                    build/report.o
                                                  build/system.o
report_feedback_message                           build/report.o
                                                  build/system.o
                                                  build/protocol.o
                                                  build/gcode.o
report_gcode_modes                                build/report.o
                                                  build/system.o
report_grbl_help                                  build/report.o
                                                  build/system.o
report_grbl_settings                              build/report.o
                                                  build/system.o
                                                  build/settings.o
report_init_message                               build/report.o
                                                  build/main.o
report_ngc_parameters                             build/report.o
                                                  build/system.o
report_probe_parameters                           build/report.o
                                                  build/motion_control.o
report_realtime_status                            build/report.o
                                                  build/protocol.o
report_startup_line                               build/report.o
                                                  build/system.o
report_status_message                             build/report.o
                                                  build/system.o
                                                  build/settings.o
                                                  build/protocol.o
                                                  build/gcode.o
report_util_setting_prefix                        build/report.o
round                                             /usr/local/Cellar/gcc-arm-none-eabi/20180627/bin/../lib/gcc/arm-none-eabi/7.3.1/../../../../arm-none-eabi/lib/thumb/v7-m/libm.a(lib_a-s_round.o)
                                                  build/gcode.o
scalbnf                                           /usr/local/Cellar/gcc-arm-none-eabi/20180627/bin/../lib/gcc/arm-none-eabi/7.3.1/../../../../arm-none-eabi/lib/thumb/v7-m/libm.a(lib_a-sf_scalbn.o)
                                                  /usr/local/Cellar/gcc-arm-none-eabi/20180627/bin/../lib/gcc/arm-none-eabi/7.3.1/../../../../arm-none-eabi/lib/thumb/v7-m/libm.a(lib_a-kf_rem_pio2.o)
serial_get_rx_buffer_available                    build/serial.o
                                                  build/report.o
serial_get_rx_buffer_count                        build/serial.o
serial_get_tx_buffer_count                        build/serial.o
serial_init                                       build/serial.o
                                                  build/main.o
serial_read                                       build/serial.o
                                                  build/protocol.o
serial_reset_read_buffer                          build/serial.o
                                                  build/main.o
serial_rx_buffer                                  build/serial.o
serial_rx_buffer_head                             build/serial.o
serial_rx_buffer_tail                             build/serial.o
serial_tx_buffer                                  build/serial.o
serial_tx_buffer_head                             build/serial.o
serial_tx_buffer_tail                             build/serial.o
serial_write                                      build/serial.o
                                                  build/report.o
                                                  build/print.o
settings                                          build/settings.o
                                                  build/system.o
                                                  build/stepper.o
                                                  build/spindle_control.o
                                                  build/report.o
                                                  build/protocol.o
                                                  build/probe.o
                                                  build/print.o
                                                  build/planner.o
                                                  build/motion_control.o
                                                  build/limits.o
                                                  build/jog.o
                                                  build/gcode.o
                                                  build/stm32utilities.o
                                                  build/main.o
settings_init                                     build/settings.o
                                                  build/main.o
settings_read_build_info                          build/settings.o
                                                  build/system.o
settings_read_coord_data                          build/settings.o
                                                  build/report.o
                                                  build/gcode.o
settings_read_startup_line                        build/settings.o
                                                  build/system.o
settings_restore                                  build/settings.o
                                                  build/system.o
settings_store_build_info                         build/settings.o
                                                  build/system.o
settings_store_global_setting                     build/settings.o
                                                  build/system.o
settings_store_startup_line                       build/settings.o
                                                  build/system.o
settings_write_coord_data                         build/settings.o
                                                  build/gcode.o
sinf                                              /usr/local/Cellar/gcc-arm-none-eabi/20180627/bin/../lib/gcc/arm-none-eabi/7.3.1/../../../../arm-none-eabi/lib/thumb/v7-m/libm.a(lib_a-sf_sin.o)
                                                  build/motion_control.o
siprintf                                          /usr/local/Cellar/gcc-arm-none-eabi/20180627/bin/../lib/gcc/arm-none-eabi/7.3.1/../../../../arm-none-eabi/lib/thumb/v7-m/libc_nano.a(lib_a-sprintf.o)
software_init_hook                                /usr/local/Cellar/gcc-arm-none-eabi/20180627/bin/../lib/gcc/arm-none-eabi/7.3.1/../../../../arm-none-eabi/lib/thumb/v7-m/crt0.o
spi_limits_init                                   build/stm32utilities.o
spindle_compute_pwm_value                         build/spindle_control.o
                                                  build/stepper.o
spindle_get_state                                 build/spindle_control.o
                                                  build/report.o
spindle_init                                      build/spindle_control.o
                                                  build/settings.o
                                                  build/main.o
spindle_set_speed                                 build/spindle_control.o
                                                  build/stepper.o
spindle_set_state                                 build/spindle_control.o
                                                  build/protocol.o
                                                  build/gcode.o
spindle_stop                                      build/spindle_control.o
                                                  build/motion_control.o
spindle_sync                                      build/spindle_control.o
                                                  build/motion_control.o
                                                  build/gcode.o
sprintf                                           /usr/local/Cellar/gcc-arm-none-eabi/20180627/bin/../lib/gcc/arm-none-eabi/7.3.1/../../../../arm-none-eabi/lib/thumb/v7-m/libc_nano.a(lib_a-sprintf.o)
                                                  build/stm32utilities.o
                                                  build/lcd-i2c.o
sqrt                                              /usr/local/Cellar/gcc-arm-none-eabi/20180627/bin/../lib/gcc/arm-none-eabi/7.3.1/../../../../arm-none-eabi/lib/thumb/v7-m/libm.a(lib_a-w_sqrt.o)
                                                  build/gcode.o
sqrtf                                             /usr/local/Cellar/gcc-arm-none-eabi/20180627/bin/../lib/gcc/arm-none-eabi/7.3.1/../../../../arm-none-eabi/lib/thumb/v7-m/libm.a(lib_a-wf_sqrt.o)
                                                  build/stepper.o
                                                  build/planner.o
                                                  build/nuts_bolts.o
                                                  build/motion_control.o
                                                  build/limits.o
st_generate_step_dir_invert_masks                 build/stepper.o
                                                  build/settings.o
st_get_realtime_rate                              build/stepper.o
                                                  build/report.o
st_go_idle                                        build/stepper.o
                                                  build/system.o
                                                  build/protocol.o
                                                  build/motion_control.o
st_prep_buffer                                    build/stepper.o
                                                  build/protocol.o
                                                  build/limits.o
                                                  build/jog.o
st_reset                                          build/stepper.o
                                                  build/protocol.o
                                                  build/motion_control.o
                                                  build/limits.o
                                                  build/main.o
st_update_plan_block_parameters                   build/stepper.o
                                                  build/protocol.o
                                                  build/planner.o
st_wake_up                                        build/stepper.o
                                                  build/protocol.o
                                                  build/limits.o
                                                  build/jog.o
step_pin_mask                                     build/stm32utilities.o
                                                  build/stepper.o
                                                  build/limits.o
stepper_init                                      build/stepper.o
                                                  build/main.o
sys                                               build/main.o
                                                  build/system.o
                                                  build/stepper.o
                                                  build/spindle_control.o
                                                  build/serial.o
                                                  build/report.o
                                                  build/protocol.o
                                                  build/planner.o
                                                  build/nuts_bolts.o
                                                  build/motion_control.o
                                                  build/limits.o
                                                  build/jog.o
                                                  build/gcode.o
                                                  build/coolant_control.o
sys_position                                      build/main.o
                                                  build/stepper.o
                                                  build/report.o
                                                  build/probe.o
                                                  build/planner.o
                                                  build/motion_control.o
                                                  build/limits.o
                                                  build/gcode.o
sys_probe_position                                build/main.o
                                                  build/report.o
                                                  build/probe.o
                                                  build/motion_control.o
sys_probe_state                                   build/main.o
                                                  build/stepper.o
                                                  build/probe.o
                                                  build/motion_control.o
sys_rt_exec_accessory_override                    build/main.o
                                                  build/system.o
                                                  build/protocol.o
sys_rt_exec_alarm                                 build/main.o
                                                  build/system.o
                                                  build/stepper.o
                                                  build/protocol.o
                                                  build/motion_control.o
                                                  build/limits.o
sys_rt_exec_motion_override                       build/main.o
                                                  build/system.o
                                                  build/protocol.o
sys_rt_exec_state                                 build/main.o
                                                  build/system.o
                                                  build/protocol.o
                                                  build/probe.o
                                                  build/motion_control.o
                                                  build/limits.o
system_check_safety_door_ajar                     build/system.o
                                                  build/protocol.o
system_check_travel_limits                        build/system.o
                                                  build/limits.o
                                                  build/jog.o
system_clear_exec_accessory_overrides             build/system.o
                                                  build/protocol.o
system_clear_exec_alarm                           build/system.o
                                                  build/protocol.o
system_clear_exec_motion_overrides                build/system.o
                                                  build/protocol.o
system_clear_exec_state_flag                      build/system.o
                                                  build/protocol.o
                                                  build/limits.o
system_control_get_state                          build/system.o
                                                  build/report.o
system_convert_array_steps_to_mpos                build/system.o
                                                  build/report.o
                                                  build/limits.o
                                                  build/gcode.o
system_convert_axis_steps_to_mpos                 build/system.o
system_execute_line                               build/system.o
                                                  build/protocol.o
system_execute_startup                            build/system.o
                                                  build/protocol.o
system_flag_wco_change                            build/system.o
                                                  build/settings.o
                                                  build/gcode.o
system_init                                       build/system.o
                                                  build/main.o
system_set_exec_accessory_override_flag           build/system.o
                                                  build/serial.o
                                                  build/protocol.o
system_set_exec_alarm                             build/system.o
                                                  build/motion_control.o
                                                  build/limits.o
system_set_exec_motion_override_flag              build/system.o
                                                  build/serial.o
system_set_exec_state_flag                        build/system.o
                                                  build/stepper.o
                                                  build/serial.o
                                                  build/protocol.o
                                                  build/motion_control.o
                                                  build/limits.o
                                                  build/gcode.o
timing_init                                       build/stm32utilities.o
                                                  build/main.o
trunc                                             /usr/local/Cellar/gcc-arm-none-eabi/20180627/bin/../lib/gcc/arm-none-eabi/7.3.1/../../../../arm-none-eabi/lib/thumb/v7-m/libm.a(lib_a-s_trunc.o)
                                                  build/system.o
                                                  build/settings.o
                                                  build/gcode.o
uTICKS_PER_MICROSECOND                            build/stm32utilities.o
                                                  build/stepper.o
uart_init                                         build/stm32utilities.o
                                                  build/main.o
uart_sendch                                       build/stm32utilities.o
                                                  build/serial.o
uart_sendstr                                      build/stm32utilities.o
                                                  build/lcd-i2c.o
uwTick                                            build/stm32f1xx_hal.o
uwTickFreq                                        build/stm32f1xx_hal.o
uwTickPrio                                        build/stm32f1xx_hal.o
                                                  build/stm32f1xx_hal_rcc.o
wait_on_input_action                              build/inoutputs.o
                                                  build/gcode.o
write_global_settings                             build/settings.o
