ARM GAS  /var/folders/m1/3lv6xmzs0mlckxs4mx90nfb40000gn/T//ccoNYTcn.s 			page 1


   1              		.cpu cortex-m3
   2              		.eabi_attribute 20, 1
   3              		.eabi_attribute 21, 1
   4              		.eabi_attribute 23, 3
   5              		.eabi_attribute 24, 1
   6              		.eabi_attribute 25, 1
   7              		.eabi_attribute 26, 1
   8              		.eabi_attribute 30, 2
   9              		.eabi_attribute 34, 1
  10              		.eabi_attribute 18, 4
  11              		.file	"i2c.c"
  12              		.text
  13              	.Ltext0:
  14              		.cfi_sections	.debug_frame
  15              		.section	.text.MX_I2C1_Init,"ax",%progbits
  16              		.align	1
  17              		.p2align 2,,3
  18              		.global	MX_I2C1_Init
  19              		.syntax unified
  20              		.thumb
  21              		.thumb_func
  22              		.fpu softvfp
  24              	MX_I2C1_Init:
  25              	.LFB703:
  26              		.file 1 "Src/i2c.c"
   1:Src/i2c.c     **** /**
   2:Src/i2c.c     ****   ******************************************************************************
   3:Src/i2c.c     ****   * File Name          : I2C.c
   4:Src/i2c.c     ****   * Description        : This file provides code for the configuration
   5:Src/i2c.c     ****   *                      of the I2C instances.
   6:Src/i2c.c     ****   ******************************************************************************
   7:Src/i2c.c     ****   * @attention
   8:Src/i2c.c     ****   *
   9:Src/i2c.c     ****   * <h2><center>&copy; Copyright (c) 2020 STMicroelectronics.
  10:Src/i2c.c     ****   * All rights reserved.</center></h2>
  11:Src/i2c.c     ****   *
  12:Src/i2c.c     ****   * This software component is licensed by ST under BSD 3-Clause license,
  13:Src/i2c.c     ****   * the "License"; You may not use this file except in compliance with the
  14:Src/i2c.c     ****   * License. You may obtain a copy of the License at:
  15:Src/i2c.c     ****   *                        opensource.org/licenses/BSD-3-Clause
  16:Src/i2c.c     ****   *
  17:Src/i2c.c     ****   ******************************************************************************
  18:Src/i2c.c     ****   */
  19:Src/i2c.c     **** 
  20:Src/i2c.c     **** /* Includes ------------------------------------------------------------------*/
  21:Src/i2c.c     **** #include "i2c.h"
  22:Src/i2c.c     **** 
  23:Src/i2c.c     **** /* USER CODE BEGIN 0 */
  24:Src/i2c.c     **** 
  25:Src/i2c.c     **** /* USER CODE END 0 */
  26:Src/i2c.c     **** 
  27:Src/i2c.c     **** I2C_HandleTypeDef hi2c1;
  28:Src/i2c.c     **** 
  29:Src/i2c.c     **** /* I2C1 init function */
  30:Src/i2c.c     **** void MX_I2C1_Init(void)
  31:Src/i2c.c     **** {
  27              		.loc 1 31 0
ARM GAS  /var/folders/m1/3lv6xmzs0mlckxs4mx90nfb40000gn/T//ccoNYTcn.s 			page 2


  28              		.cfi_startproc
  29              		@ args = 0, pretend = 0, frame = 0
  30              		@ frame_needed = 0, uses_anonymous_args = 0
  32:Src/i2c.c     **** 
  33:Src/i2c.c     ****   hi2c1.Instance = I2C1;
  34:Src/i2c.c     ****   hi2c1.Init.ClockSpeed = 100000;
  35:Src/i2c.c     ****   hi2c1.Init.DutyCycle = I2C_DUTYCYCLE_2;
  31              		.loc 1 35 0
  32 0000 0022     		movs	r2, #0
  36:Src/i2c.c     ****   hi2c1.Init.OwnAddress1 = 0;
  37:Src/i2c.c     ****   hi2c1.Init.AddressingMode = I2C_ADDRESSINGMODE_7BIT;
  33              		.loc 1 37 0
  34 0002 4FF48041 		mov	r1, #16384
  31:Src/i2c.c     **** 
  35              		.loc 1 31 0
  36 0006 38B5     		push	{r3, r4, r5, lr}
  37              	.LCFI0:
  38              		.cfi_def_cfa_offset 16
  39              		.cfi_offset 3, -16
  40              		.cfi_offset 4, -12
  41              		.cfi_offset 5, -8
  42              		.cfi_offset 14, -4
  33:Src/i2c.c     ****   hi2c1.Init.ClockSpeed = 100000;
  43              		.loc 1 33 0
  44 0008 0A4B     		ldr	r3, .L6
  45 000a 0B4D     		ldr	r5, .L6+4
  34:Src/i2c.c     ****   hi2c1.Init.DutyCycle = I2C_DUTYCYCLE_2;
  46              		.loc 1 34 0
  47 000c 0B4C     		ldr	r4, .L6+8
  38:Src/i2c.c     ****   hi2c1.Init.DualAddressMode = I2C_DUALADDRESS_DISABLE;
  39:Src/i2c.c     ****   hi2c1.Init.OwnAddress2 = 0;
  40:Src/i2c.c     ****   hi2c1.Init.GeneralCallMode = I2C_GENERALCALL_DISABLE;
  41:Src/i2c.c     ****   hi2c1.Init.NoStretchMode = I2C_NOSTRETCH_DISABLE;
  42:Src/i2c.c     ****   if (HAL_I2C_Init(&hi2c1) != HAL_OK)
  48              		.loc 1 42 0
  49 000e 1846     		mov	r0, r3
  36:Src/i2c.c     ****   hi2c1.Init.AddressingMode = I2C_ADDRESSINGMODE_7BIT;
  50              		.loc 1 36 0
  51 0010 C3E90222 		strd	r2, r2, [r3, #8]
  39:Src/i2c.c     ****   hi2c1.Init.GeneralCallMode = I2C_GENERALCALL_DISABLE;
  52              		.loc 1 39 0
  53 0014 C3E90522 		strd	r2, r2, [r3, #20]
  41:Src/i2c.c     ****   if (HAL_I2C_Init(&hi2c1) != HAL_OK)
  54              		.loc 1 41 0
  55 0018 C3E90722 		strd	r2, r2, [r3, #28]
  34:Src/i2c.c     ****   hi2c1.Init.DutyCycle = I2C_DUTYCYCLE_2;
  56              		.loc 1 34 0
  57 001c C3E90054 		strd	r5, r4, [r3]
  37:Src/i2c.c     ****   hi2c1.Init.DualAddressMode = I2C_DUALADDRESS_DISABLE;
  58              		.loc 1 37 0
  59 0020 1961     		str	r1, [r3, #16]
  60              		.loc 1 42 0
  61 0022 FFF7FEFF 		bl	HAL_I2C_Init
  62              	.LVL0:
  63 0026 00B9     		cbnz	r0, .L5
  43:Src/i2c.c     ****   {
  44:Src/i2c.c     ****     Error_Handler();
ARM GAS  /var/folders/m1/3lv6xmzs0mlckxs4mx90nfb40000gn/T//ccoNYTcn.s 			page 3


  45:Src/i2c.c     ****   }
  46:Src/i2c.c     **** 
  47:Src/i2c.c     **** }
  64              		.loc 1 47 0
  65 0028 38BD     		pop	{r3, r4, r5, pc}
  66              	.L5:
  67 002a BDE83840 		pop	{r3, r4, r5, lr}
  68              	.LCFI1:
  69              		.cfi_restore 14
  70              		.cfi_restore 5
  71              		.cfi_restore 4
  72              		.cfi_restore 3
  73              		.cfi_def_cfa_offset 0
  44:Src/i2c.c     ****   }
  74              		.loc 1 44 0
  75 002e FFF7FEBF 		b	Error_Handler
  76              	.LVL1:
  77              	.L7:
  78 0032 00BF     		.align	2
  79              	.L6:
  80 0034 00000000 		.word	hi2c1
  81 0038 00540040 		.word	1073763328
  82 003c A0860100 		.word	100000
  83              		.cfi_endproc
  84              	.LFE703:
  86              		.section	.text.HAL_I2C_MspInit,"ax",%progbits
  87              		.align	1
  88              		.p2align 2,,3
  89              		.global	HAL_I2C_MspInit
  90              		.syntax unified
  91              		.thumb
  92              		.thumb_func
  93              		.fpu softvfp
  95              	HAL_I2C_MspInit:
  96              	.LFB704:
  48:Src/i2c.c     **** 
  49:Src/i2c.c     **** void HAL_I2C_MspInit(I2C_HandleTypeDef* i2cHandle)
  50:Src/i2c.c     **** {
  97              		.loc 1 50 0
  98              		.cfi_startproc
  99              		@ args = 0, pretend = 0, frame = 24
 100              		@ frame_needed = 0, uses_anonymous_args = 0
 101              	.LVL2:
  51:Src/i2c.c     **** 
  52:Src/i2c.c     ****   GPIO_InitTypeDef GPIO_InitStruct = {0};
 102              		.loc 1 52 0
 103 0000 0023     		movs	r3, #0
  50:Src/i2c.c     **** 
 104              		.loc 1 50 0
 105 0002 30B5     		push	{r4, r5, lr}
 106              	.LCFI2:
 107              		.cfi_def_cfa_offset 12
 108              		.cfi_offset 4, -12
 109              		.cfi_offset 5, -8
 110              		.cfi_offset 14, -4
  53:Src/i2c.c     ****   if(i2cHandle->Instance==I2C1)
 111              		.loc 1 53 0
ARM GAS  /var/folders/m1/3lv6xmzs0mlckxs4mx90nfb40000gn/T//ccoNYTcn.s 			page 4


 112 0004 0168     		ldr	r1, [r0]
 113 0006 184A     		ldr	r2, .L12
  50:Src/i2c.c     **** 
 114              		.loc 1 50 0
 115 0008 87B0     		sub	sp, sp, #28
 116              	.LCFI3:
 117              		.cfi_def_cfa_offset 40
 118              		.loc 1 53 0
 119 000a 9142     		cmp	r1, r2
  52:Src/i2c.c     ****   if(i2cHandle->Instance==I2C1)
 120              		.loc 1 52 0
 121 000c CDE90233 		strd	r3, r3, [sp, #8]
 122 0010 CDE90433 		strd	r3, r3, [sp, #16]
 123              		.loc 1 53 0
 124 0014 01D0     		beq	.L11
  54:Src/i2c.c     ****   {
  55:Src/i2c.c     ****   /* USER CODE BEGIN I2C1_MspInit 0 */
  56:Src/i2c.c     **** 
  57:Src/i2c.c     ****   /* USER CODE END I2C1_MspInit 0 */
  58:Src/i2c.c     ****   
  59:Src/i2c.c     ****     __HAL_RCC_GPIOB_CLK_ENABLE();
  60:Src/i2c.c     ****     /**I2C1 GPIO Configuration    
  61:Src/i2c.c     ****     PB8     ------> I2C1_SCL
  62:Src/i2c.c     ****     PB9     ------> I2C1_SDA 
  63:Src/i2c.c     ****     */
  64:Src/i2c.c     ****     GPIO_InitStruct.Pin = GPIO_PIN_8|GPIO_PIN_9;
  65:Src/i2c.c     ****     GPIO_InitStruct.Mode = GPIO_MODE_AF_OD;
  66:Src/i2c.c     ****     GPIO_InitStruct.Speed = GPIO_SPEED_FREQ_HIGH;
  67:Src/i2c.c     ****     HAL_GPIO_Init(GPIOB, &GPIO_InitStruct);
  68:Src/i2c.c     **** 
  69:Src/i2c.c     ****     __HAL_AFIO_REMAP_I2C1_ENABLE();
  70:Src/i2c.c     **** 
  71:Src/i2c.c     ****     /* I2C1 clock enable */
  72:Src/i2c.c     ****     __HAL_RCC_I2C1_CLK_ENABLE();
  73:Src/i2c.c     ****   /* USER CODE BEGIN I2C1_MspInit 1 */
  74:Src/i2c.c     **** 
  75:Src/i2c.c     ****   /* USER CODE END I2C1_MspInit 1 */
  76:Src/i2c.c     ****   }
  77:Src/i2c.c     **** }
 125              		.loc 1 77 0
 126 0016 07B0     		add	sp, sp, #28
 127              	.LCFI4:
 128              		.cfi_remember_state
 129              		.cfi_def_cfa_offset 12
 130              		@ sp needed
 131 0018 30BD     		pop	{r4, r5, pc}
 132              	.L11:
 133              	.LCFI5:
 134              		.cfi_restore_state
  64:Src/i2c.c     ****     GPIO_InitStruct.Mode = GPIO_MODE_AF_OD;
 135              		.loc 1 64 0
 136 001a 4FF44070 		mov	r0, #768
 137              	.LVL3:
  66:Src/i2c.c     ****     HAL_GPIO_Init(GPIOB, &GPIO_InitStruct);
 138              		.loc 1 66 0
 139 001e 0322     		movs	r2, #3
  65:Src/i2c.c     ****     GPIO_InitStruct.Speed = GPIO_SPEED_FREQ_HIGH;
ARM GAS  /var/folders/m1/3lv6xmzs0mlckxs4mx90nfb40000gn/T//ccoNYTcn.s 			page 5


 140              		.loc 1 65 0
 141 0020 1225     		movs	r5, #18
 142              	.LBB2:
  59:Src/i2c.c     ****     /**I2C1 GPIO Configuration    
 143              		.loc 1 59 0
 144 0022 124C     		ldr	r4, .L12+4
 145              	.LBE2:
  67:Src/i2c.c     **** 
 146              		.loc 1 67 0
 147 0024 02A9     		add	r1, sp, #8
 148              	.LBB3:
  59:Src/i2c.c     ****     /**I2C1 GPIO Configuration    
 149              		.loc 1 59 0
 150 0026 A369     		ldr	r3, [r4, #24]
 151 0028 43F00803 		orr	r3, r3, #8
 152 002c A361     		str	r3, [r4, #24]
 153 002e A369     		ldr	r3, [r4, #24]
 154              	.LBE3:
  64:Src/i2c.c     ****     GPIO_InitStruct.Mode = GPIO_MODE_AF_OD;
 155              		.loc 1 64 0
 156 0030 0290     		str	r0, [sp, #8]
 157              	.LBB4:
  59:Src/i2c.c     ****     /**I2C1 GPIO Configuration    
 158              		.loc 1 59 0
 159 0032 03F00803 		and	r3, r3, #8
 160 0036 0093     		str	r3, [sp]
 161              	.LBE4:
  67:Src/i2c.c     **** 
 162              		.loc 1 67 0
 163 0038 0D48     		ldr	r0, .L12+8
 164              	.LBB5:
  59:Src/i2c.c     ****     /**I2C1 GPIO Configuration    
 165              		.loc 1 59 0
 166 003a 009B     		ldr	r3, [sp]
 167              	.LBE5:
  66:Src/i2c.c     ****     HAL_GPIO_Init(GPIOB, &GPIO_InitStruct);
 168              		.loc 1 66 0
 169 003c 0592     		str	r2, [sp, #20]
  65:Src/i2c.c     ****     GPIO_InitStruct.Speed = GPIO_SPEED_FREQ_HIGH;
 170              		.loc 1 65 0
 171 003e 0395     		str	r5, [sp, #12]
  67:Src/i2c.c     **** 
 172              		.loc 1 67 0
 173 0040 FFF7FEFF 		bl	HAL_GPIO_Init
 174              	.LVL4:
 175              	.LBB6:
  69:Src/i2c.c     **** 
 176              		.loc 1 69 0
 177 0044 0B4A     		ldr	r2, .L12+12
 178 0046 5368     		ldr	r3, [r2, #4]
 179              	.LVL5:
 180 0048 43F0E063 		orr	r3, r3, #117440512
 181              	.LVL6:
 182 004c 43F00203 		orr	r3, r3, #2
 183              	.LVL7:
 184 0050 5360     		str	r3, [r2, #4]
 185              	.LBE6:
ARM GAS  /var/folders/m1/3lv6xmzs0mlckxs4mx90nfb40000gn/T//ccoNYTcn.s 			page 6


 186              	.LBB7:
  72:Src/i2c.c     ****   /* USER CODE BEGIN I2C1_MspInit 1 */
 187              		.loc 1 72 0
 188 0052 E369     		ldr	r3, [r4, #28]
 189              	.LVL8:
 190 0054 43F40013 		orr	r3, r3, #2097152
 191 0058 E361     		str	r3, [r4, #28]
 192              	.LVL9:
 193 005a E369     		ldr	r3, [r4, #28]
 194 005c 03F40013 		and	r3, r3, #2097152
 195 0060 0193     		str	r3, [sp, #4]
 196 0062 019B     		ldr	r3, [sp, #4]
 197              	.LBE7:
 198              		.loc 1 77 0
 199 0064 07B0     		add	sp, sp, #28
 200              	.LCFI6:
 201              		.cfi_def_cfa_offset 12
 202              		@ sp needed
 203 0066 30BD     		pop	{r4, r5, pc}
 204              	.L13:
 205              		.align	2
 206              	.L12:
 207 0068 00540040 		.word	1073763328
 208 006c 00100240 		.word	1073876992
 209 0070 000C0140 		.word	1073810432
 210 0074 00000140 		.word	1073807360
 211              		.cfi_endproc
 212              	.LFE704:
 214              		.section	.text.HAL_I2C_MspDeInit,"ax",%progbits
 215              		.align	1
 216              		.p2align 2,,3
 217              		.global	HAL_I2C_MspDeInit
 218              		.syntax unified
 219              		.thumb
 220              		.thumb_func
 221              		.fpu softvfp
 223              	HAL_I2C_MspDeInit:
 224              	.LFB705:
  78:Src/i2c.c     **** 
  79:Src/i2c.c     **** void HAL_I2C_MspDeInit(I2C_HandleTypeDef* i2cHandle)
  80:Src/i2c.c     **** {
 225              		.loc 1 80 0
 226              		.cfi_startproc
 227              		@ args = 0, pretend = 0, frame = 0
 228              		@ frame_needed = 0, uses_anonymous_args = 0
 229              		@ link register save eliminated.
 230              	.LVL10:
  81:Src/i2c.c     **** 
  82:Src/i2c.c     ****   if(i2cHandle->Instance==I2C1)
 231              		.loc 1 82 0
 232 0000 0268     		ldr	r2, [r0]
 233 0002 074B     		ldr	r3, .L17
 234 0004 9A42     		cmp	r2, r3
 235 0006 00D0     		beq	.L16
  83:Src/i2c.c     ****   {
  84:Src/i2c.c     ****   /* USER CODE BEGIN I2C1_MspDeInit 0 */
  85:Src/i2c.c     **** 
ARM GAS  /var/folders/m1/3lv6xmzs0mlckxs4mx90nfb40000gn/T//ccoNYTcn.s 			page 7


  86:Src/i2c.c     ****   /* USER CODE END I2C1_MspDeInit 0 */
  87:Src/i2c.c     ****     /* Peripheral clock disable */
  88:Src/i2c.c     ****     __HAL_RCC_I2C1_CLK_DISABLE();
  89:Src/i2c.c     ****   
  90:Src/i2c.c     ****     /**I2C1 GPIO Configuration    
  91:Src/i2c.c     ****     PB8     ------> I2C1_SCL
  92:Src/i2c.c     ****     PB9     ------> I2C1_SDA 
  93:Src/i2c.c     ****     */
  94:Src/i2c.c     ****     HAL_GPIO_DeInit(GPIOB, GPIO_PIN_8|GPIO_PIN_9);
  95:Src/i2c.c     **** 
  96:Src/i2c.c     ****   /* USER CODE BEGIN I2C1_MspDeInit 1 */
  97:Src/i2c.c     **** 
  98:Src/i2c.c     ****   /* USER CODE END I2C1_MspDeInit 1 */
  99:Src/i2c.c     ****   }
 100:Src/i2c.c     **** } 
 236              		.loc 1 100 0
 237 0008 7047     		bx	lr
 238              	.L16:
  88:Src/i2c.c     ****   
 239              		.loc 1 88 0
 240 000a 064A     		ldr	r2, .L17+4
  94:Src/i2c.c     **** 
 241              		.loc 1 94 0
 242 000c 4FF44071 		mov	r1, #768
  88:Src/i2c.c     ****   
 243              		.loc 1 88 0
 244 0010 D369     		ldr	r3, [r2, #28]
  94:Src/i2c.c     **** 
 245              		.loc 1 94 0
 246 0012 0548     		ldr	r0, .L17+8
 247              	.LVL11:
  88:Src/i2c.c     ****   
 248              		.loc 1 88 0
 249 0014 23F40013 		bic	r3, r3, #2097152
 250 0018 D361     		str	r3, [r2, #28]
  94:Src/i2c.c     **** 
 251              		.loc 1 94 0
 252 001a FFF7FEBF 		b	HAL_GPIO_DeInit
 253              	.LVL12:
 254              	.L18:
 255 001e 00BF     		.align	2
 256              	.L17:
 257 0020 00540040 		.word	1073763328
 258 0024 00100240 		.word	1073876992
 259 0028 000C0140 		.word	1073810432
 260              		.cfi_endproc
 261              	.LFE705:
 263              		.comm	hi2c1,84,4
 264              		.text
 265              	.Letext0:
 266              		.file 2 "/usr/local/Cellar/gcc-arm-none-eabi/20180627/arm-none-eabi/include/machine/_default_types
 267              		.file 3 "/usr/local/Cellar/gcc-arm-none-eabi/20180627/arm-none-eabi/include/sys/_stdint.h"
 268              		.file 4 "Drivers/CMSIS/Include/core_cm3.h"
 269              		.file 5 "Drivers/CMSIS/Device/ST/STM32F1xx/Include/system_stm32f1xx.h"
 270              		.file 6 "Drivers/CMSIS/Device/ST/STM32F1xx/Include/stm32f103xb.h"
 271              		.file 7 "Drivers/STM32F1xx_HAL_Driver/Inc/stm32f1xx_hal_def.h"
 272              		.file 8 "Drivers/STM32F1xx_HAL_Driver/Inc/stm32f1xx_hal_gpio.h"
ARM GAS  /var/folders/m1/3lv6xmzs0mlckxs4mx90nfb40000gn/T//ccoNYTcn.s 			page 8


 273              		.file 9 "Drivers/STM32F1xx_HAL_Driver/Inc/stm32f1xx_hal_dma.h"
 274              		.file 10 "Drivers/STM32F1xx_HAL_Driver/Inc/stm32f1xx_hal_i2c.h"
 275              		.file 11 "Drivers/STM32F1xx_HAL_Driver/Inc/stm32f1xx_hal.h"
 276              		.file 12 "Drivers/STM32F1xx_HAL_Driver/Inc/stm32f1xx_ll_tim.h"
 277              		.file 13 "Drivers/STM32F1xx_HAL_Driver/Inc/stm32f1xx_ll_dma.h"
 278              		.file 14 "Inc/i2c.h"
 279              		.file 15 "Inc/main.h"
ARM GAS  /var/folders/m1/3lv6xmzs0mlckxs4mx90nfb40000gn/T//ccoNYTcn.s 			page 9

