ARM GAS  /var/folders/m1/3lv6xmzs0mlckxs4mx90nfb40000gn/T//ccxdmtnn.s 			page 1


   1              		.cpu cortex-m3
   2              		.eabi_attribute 20, 1
   3              		.eabi_attribute 21, 1
   4              		.eabi_attribute 23, 3
   5              		.eabi_attribute 24, 1
   6              		.eabi_attribute 25, 1
   7              		.eabi_attribute 26, 1
   8              		.eabi_attribute 30, 2
   9              		.eabi_attribute 34, 1
  10              		.eabi_attribute 18, 4
  11              		.file	"report.c"
  12              		.text
  13              	.Ltext0:
  14              		.cfi_sections	.debug_frame
  15              		.section	.text.report_util_setting_prefix,"ax",%progbits
  16              		.align	1
  17              		.p2align 2,,3
  18              		.global	report_util_setting_prefix
  19              		.syntax unified
  20              		.thumb
  21              		.thumb_func
  22              		.fpu softvfp
  24              	report_util_setting_prefix:
  25              	.LFB703:
  26              		.file 1 "grbl/report.c"
   1:grbl/report.c **** /*
   2:grbl/report.c ****   report.c - reporting and messaging methods
   3:grbl/report.c ****   Part of Grbl
   4:grbl/report.c **** 
   5:grbl/report.c ****   Copyright (c) 2012-2016 Sungeun K. Jeon for Gnea Research LLC
   6:grbl/report.c ****   Copyright (c) 2018-2019 Thomas Truong
   7:grbl/report.c **** 
   8:grbl/report.c ****   Grbl is free software: you can redistribute it and/or modify
   9:grbl/report.c ****   it under the terms of the GNU General Public License as published by
  10:grbl/report.c ****   the Free Software Foundation, either version 3 of the License, or
  11:grbl/report.c ****   (at your option) any later version.
  12:grbl/report.c **** 
  13:grbl/report.c ****   Grbl is distributed in the hope that it will be useful,
  14:grbl/report.c ****   but WITHOUT ANY WARRANTY; without even the implied warranty of
  15:grbl/report.c ****   MERCHANTABILITY or FITNESS FOR A PARTICULAR PURPOSE.  See the
  16:grbl/report.c ****   GNU General Public License for more details.
  17:grbl/report.c **** 
  18:grbl/report.c ****   You should have received a copy of the GNU General Public License
  19:grbl/report.c ****   along with Grbl.  If not, see <http://www.gnu.org/licenses/>.
  20:grbl/report.c **** */
  21:grbl/report.c **** 
  22:grbl/report.c **** /*
  23:grbl/report.c ****   This file functions as the primary feedback interface for Grbl. Any outgoing data, such
  24:grbl/report.c ****   as the protocol status messages, feedback messages, and status reports, are stored here.
  25:grbl/report.c ****   For the most part, these functions primarily are called from protocol.c methods. If a
  26:grbl/report.c ****   different style feedback is desired (i.e. JSON), then a user can change these following
  27:grbl/report.c ****   methods to accomodate their needs.
  28:grbl/report.c **** */
  29:grbl/report.c **** 
  30:grbl/report.c **** #include "grbl.h"
  31:grbl/report.c **** 
  32:grbl/report.c **** // Internal report utilities to reduce flash with repetitive tasks turned into functions.
ARM GAS  /var/folders/m1/3lv6xmzs0mlckxs4mx90nfb40000gn/T//ccxdmtnn.s 			page 2


  33:grbl/report.c **** void report_util_setting_prefix(uint8_t n) { serial_write('$'); print_uint8_base10(n); serial_write
  27              		.loc 1 33 0
  28              		.cfi_startproc
  29              		@ args = 0, pretend = 0, frame = 0
  30              		@ frame_needed = 0, uses_anonymous_args = 0
  31              	.LVL0:
  32 0000 10B5     		push	{r4, lr}
  33              	.LCFI0:
  34              		.cfi_def_cfa_offset 8
  35              		.cfi_offset 4, -8
  36              		.cfi_offset 14, -4
  37              		.loc 1 33 0
  38 0002 0446     		mov	r4, r0
  39 0004 2420     		movs	r0, #36
  40              	.LVL1:
  41 0006 FFF7FEFF 		bl	serial_write
  42              	.LVL2:
  43 000a 2046     		mov	r0, r4
  44 000c FFF7FEFF 		bl	print_uint8_base10
  45              	.LVL3:
  46 0010 BDE81040 		pop	{r4, lr}
  47              	.LCFI1:
  48              		.cfi_restore 14
  49              		.cfi_restore 4
  50              		.cfi_def_cfa_offset 0
  51 0014 3D20     		movs	r0, #61
  52 0016 FFF7FEBF 		b	serial_write
  53              	.LVL4:
  54              		.cfi_endproc
  55              	.LFE703:
  57 001a 00BF     		.section	.text.report_status_message,"ax",%progbits
  58              		.align	1
  59              		.p2align 2,,3
  60              		.global	report_status_message
  61              		.syntax unified
  62              		.thumb
  63              		.thumb_func
  64              		.fpu softvfp
  66              	report_status_message:
  67              	.LFB711:
  34:grbl/report.c **** static void report_util_line_feed() { printPgmString(PSTR("\r\n")); }
  35:grbl/report.c **** static void report_util_feedback_line_feed() { serial_write(']'); report_util_line_feed(); }
  36:grbl/report.c **** static void report_util_gcode_modes_G() { printPgmString(PSTR(" G")); }
  37:grbl/report.c **** static void report_util_gcode_modes_M() { printPgmString(PSTR(" M")); }
  38:grbl/report.c **** // static void report_util_comment_line_feed() { serial_write(')'); report_util_line_feed(); }
  39:grbl/report.c **** static void report_util_axis_values(float *axis_value) {
  40:grbl/report.c ****   uint8_t idx;
  41:grbl/report.c ****   for (idx=0; idx<N_AXIS; idx++) {
  42:grbl/report.c ****     printFloat_CoordValue(axis_value[idx]);
  43:grbl/report.c ****     if (idx < (N_AXIS-1)) { serial_write(','); }
  44:grbl/report.c ****   }
  45:grbl/report.c **** }
  46:grbl/report.c **** 
  47:grbl/report.c **** /*
  48:grbl/report.c **** static void report_util_setting_string(uint8_t n) {
  49:grbl/report.c ****   serial_write(' ');
  50:grbl/report.c ****   serial_write('(');
ARM GAS  /var/folders/m1/3lv6xmzs0mlckxs4mx90nfb40000gn/T//ccxdmtnn.s 			page 3


  51:grbl/report.c ****   switch(n) {
  52:grbl/report.c ****     case 0: printPgmString(PSTR("stp pulse")); break;
  53:grbl/report.c ****     case 1: printPgmString(PSTR("idl delay")); break; 
  54:grbl/report.c ****     case 2: printPgmString(PSTR("stp inv")); break;
  55:grbl/report.c ****     case 3: printPgmString(PSTR("dir inv")); break;
  56:grbl/report.c ****     case 4: printPgmString(PSTR("stp en inv")); break;
  57:grbl/report.c ****     case 5: printPgmString(PSTR("lim inv")); break;
  58:grbl/report.c ****     case 6: printPgmString(PSTR("prb inv")); break;
  59:grbl/report.c ****     case 10: printPgmString(PSTR("rpt")); break;
  60:grbl/report.c ****     case 11: printPgmString(PSTR("jnc dev")); break;
  61:grbl/report.c ****     case 12: printPgmString(PSTR("arc tol")); break;
  62:grbl/report.c ****     case 13: printPgmString(PSTR("rpt inch")); break;
  63:grbl/report.c ****     case 20: printPgmString(PSTR("sft lim")); break;
  64:grbl/report.c ****     case 21: printPgmString(PSTR("hrd lim")); break;
  65:grbl/report.c ****     case 22: printPgmString(PSTR("hm cyc")); break;
  66:grbl/report.c ****     case 23: printPgmString(PSTR("hm dir inv")); break;
  67:grbl/report.c ****     case 24: printPgmString(PSTR("hm feed")); break;
  68:grbl/report.c ****     case 25: printPgmString(PSTR("hm seek")); break;
  69:grbl/report.c ****     case 26: printPgmString(PSTR("hm delay")); break;
  70:grbl/report.c ****     case 27: printPgmString(PSTR("hm pulloff")); break;
  71:grbl/report.c ****     case 30: printPgmString(PSTR("rpm max")); break;
  72:grbl/report.c ****     case 31: printPgmString(PSTR("rpm min")); break;
  73:grbl/report.c ****     case 32: printPgmString(PSTR("laser")); break;
  74:grbl/report.c ****     default:
  75:grbl/report.c ****       n -= AXIS_SETTINGS_START_VAL;
  76:grbl/report.c ****       uint8_t idx = 0;
  77:grbl/report.c ****       while (n >= AXIS_SETTINGS_INCREMENT) {
  78:grbl/report.c ****         n -= AXIS_SETTINGS_INCREMENT;
  79:grbl/report.c ****         idx++;
  80:grbl/report.c ****       }
  81:grbl/report.c ****       serial_write(n+'x');
  82:grbl/report.c ****       switch (idx) {
  83:grbl/report.c ****         case 0: printPgmString(PSTR(":stp/mm")); break;
  84:grbl/report.c ****         case 1: printPgmString(PSTR(":mm/min")); break;
  85:grbl/report.c ****         case 2: printPgmString(PSTR(":mm/s^2")); break;
  86:grbl/report.c ****         case 3: printPgmString(PSTR(":mm max")); break;
  87:grbl/report.c ****       }
  88:grbl/report.c ****       break;
  89:grbl/report.c ****   }
  90:grbl/report.c ****   report_util_comment_line_feed();
  91:grbl/report.c **** }
  92:grbl/report.c **** */
  93:grbl/report.c **** 
  94:grbl/report.c **** static void report_util_uint8_setting(uint8_t n, int val) { 
  95:grbl/report.c ****   report_util_setting_prefix(n); 
  96:grbl/report.c ****   print_uint8_base10(val); 
  97:grbl/report.c ****   report_util_line_feed(); // report_util_setting_string(n); 
  98:grbl/report.c **** }
  99:grbl/report.c **** static void report_util_float_setting(uint8_t n, float val, uint8_t n_decimal) { 
 100:grbl/report.c ****   report_util_setting_prefix(n); 
 101:grbl/report.c ****   printFloat(val,n_decimal);
 102:grbl/report.c ****   report_util_line_feed(); // report_util_setting_string(n);
 103:grbl/report.c **** }
 104:grbl/report.c **** 
 105:grbl/report.c **** 
 106:grbl/report.c **** // Handles the primary confirmation protocol response for streaming interfaces and human-feedback.
 107:grbl/report.c **** // For every incoming line, this method responds with an 'ok' for a successful command or an
ARM GAS  /var/folders/m1/3lv6xmzs0mlckxs4mx90nfb40000gn/T//ccxdmtnn.s 			page 4


 108:grbl/report.c **** // 'error:'  to indicate some error event with the line or some critical system error during
 109:grbl/report.c **** // operation. Errors events can originate from the g-code parser, settings module, or asynchronousl
 110:grbl/report.c **** // from a critical error, such as a triggered hard limit. Interface should always monitor for these
 111:grbl/report.c **** // responses.
 112:grbl/report.c **** void report_status_message(uint8_t status_code)
 113:grbl/report.c **** {
  68              		.loc 1 113 0
  69              		.cfi_startproc
  70              		@ args = 0, pretend = 0, frame = 0
  71              		@ frame_needed = 0, uses_anonymous_args = 0
  72              	.LVL5:
 114:grbl/report.c ****   switch(status_code) {
  73              		.loc 1 114 0
  74 0000 60B1     		cbz	r0, .L10
 113:grbl/report.c ****   switch(status_code) {
  75              		.loc 1 113 0
  76 0002 10B5     		push	{r4, lr}
  77              	.LCFI2:
  78              		.cfi_def_cfa_offset 8
  79              		.cfi_offset 4, -8
  80              		.cfi_offset 14, -4
  81 0004 0446     		mov	r4, r0
  82              	.LVL6:
  83              	.LBB193:
  84              	.LBB194:
 115:grbl/report.c ****     case STATUS_OK: // STATUS_OK
 116:grbl/report.c ****       printPgmString(PSTR("ok\r\n")); break;
 117:grbl/report.c ****     default:
 118:grbl/report.c ****       printPgmString(PSTR("error:"));
  85              		.loc 1 118 0
  86 0006 0748     		ldr	r0, .L11
  87              	.LVL7:
  88 0008 FFF7FEFF 		bl	printString
  89              	.LVL8:
 119:grbl/report.c ****       print_uint8_base10(status_code);
  90              		.loc 1 119 0
  91 000c 2046     		mov	r0, r4
  92 000e FFF7FEFF 		bl	print_uint8_base10
  93              	.LVL9:
  94              	.LBE194:
  95              	.LBE193:
 120:grbl/report.c ****       report_util_line_feed();
 121:grbl/report.c ****   }
 122:grbl/report.c **** }
  96              		.loc 1 122 0
  97 0012 BDE81040 		pop	{r4, lr}
  98              	.LCFI3:
  99              		.cfi_restore 14
 100              		.cfi_restore 4
 101              		.cfi_def_cfa_offset 0
 102              	.LVL10:
 103              	.LBB198:
 104              	.LBB197:
 105              	.LBB195:
 106              	.LBB196:
  34:grbl/report.c **** static void report_util_feedback_line_feed() { serial_write(']'); report_util_line_feed(); }
 107              		.loc 1 34 0
ARM GAS  /var/folders/m1/3lv6xmzs0mlckxs4mx90nfb40000gn/T//ccxdmtnn.s 			page 5


 108 0016 0448     		ldr	r0, .L11+4
 109 0018 FFF7FEBF 		b	printString
 110              	.LVL11:
 111              	.L10:
 112              	.LBE196:
 113              	.LBE195:
 114              	.LBE197:
 115              	.LBE198:
 116:grbl/report.c ****     default:
 116              		.loc 1 116 0
 117 001c 0348     		ldr	r0, .L11+8
 118              	.LVL12:
 119 001e FFF7FEBF 		b	printString
 120              	.LVL13:
 121              	.L12:
 122 0022 00BF     		.align	2
 123              	.L11:
 124 0024 08000000 		.word	.LC1
 125 0028 10000000 		.word	.LC2
 126 002c 00000000 		.word	.LC0
 127              		.cfi_endproc
 128              	.LFE711:
 130              		.section	.text.report_alarm_message,"ax",%progbits
 131              		.align	1
 132              		.p2align 2,,3
 133              		.global	report_alarm_message
 134              		.syntax unified
 135              		.thumb
 136              		.thumb_func
 137              		.fpu softvfp
 139              	report_alarm_message:
 140              	.LFB712:
 123:grbl/report.c **** 
 124:grbl/report.c **** // Prints alarm messages.
 125:grbl/report.c **** void report_alarm_message(uint8_t alarm_code)
 126:grbl/report.c **** {
 141              		.loc 1 126 0
 142              		.cfi_startproc
 143              		@ args = 0, pretend = 0, frame = 0
 144              		@ frame_needed = 0, uses_anonymous_args = 0
 145              	.LVL14:
 146 0000 10B5     		push	{r4, lr}
 147              	.LCFI4:
 148              		.cfi_def_cfa_offset 8
 149              		.cfi_offset 4, -8
 150              		.cfi_offset 14, -4
 151              		.loc 1 126 0
 152 0002 0446     		mov	r4, r0
 127:grbl/report.c ****   printPgmString(PSTR("ALARM:"));
 153              		.loc 1 127 0
 154 0004 0748     		ldr	r0, .L15
 155              	.LVL15:
 156 0006 FFF7FEFF 		bl	printString
 157              	.LVL16:
 128:grbl/report.c ****   print_uint8_base10(alarm_code);
 158              		.loc 1 128 0
 159 000a 2046     		mov	r0, r4
ARM GAS  /var/folders/m1/3lv6xmzs0mlckxs4mx90nfb40000gn/T//ccxdmtnn.s 			page 6


 160 000c FFF7FEFF 		bl	print_uint8_base10
 161              	.LVL17:
 162              	.LBB199:
 163              	.LBB200:
  34:grbl/report.c **** static void report_util_feedback_line_feed() { serial_write(']'); report_util_line_feed(); }
 164              		.loc 1 34 0
 165 0010 0548     		ldr	r0, .L15+4
 166 0012 FFF7FEFF 		bl	printString
 167              	.LVL18:
 168              	.LBE200:
 169              	.LBE199:
 129:grbl/report.c ****   report_util_line_feed();
 130:grbl/report.c ****   delay_ms(500); // Force delay to ensure message clears serial write buffer.
 131:grbl/report.c **** }
 170              		.loc 1 131 0
 171 0016 BDE81040 		pop	{r4, lr}
 172              	.LCFI5:
 173              		.cfi_restore 14
 174              		.cfi_restore 4
 175              		.cfi_def_cfa_offset 0
 130:grbl/report.c **** }
 176              		.loc 1 130 0
 177 001a 4FF4FA70 		mov	r0, #500
 178 001e FFF7FEBF 		b	delay_ms
 179              	.LVL19:
 180              	.L16:
 181 0022 00BF     		.align	2
 182              	.L15:
 183 0024 00000000 		.word	.LC3
 184 0028 10000000 		.word	.LC2
 185              		.cfi_endproc
 186              	.LFE712:
 188              		.section	.text.report_feedback_message,"ax",%progbits
 189              		.align	1
 190              		.p2align 2,,3
 191              		.global	report_feedback_message
 192              		.syntax unified
 193              		.thumb
 194              		.thumb_func
 195              		.fpu softvfp
 197              	report_feedback_message:
 198              	.LFB713:
 132:grbl/report.c **** 
 133:grbl/report.c **** // Prints feedback messages. This serves as a centralized method to provide additional
 134:grbl/report.c **** // user feedback for things that are not of the status/alarm message protocol. These are
 135:grbl/report.c **** // messages such as setup warnings, switch toggling, and how to exit alarms.
 136:grbl/report.c **** // NOTE: For interfaces, messages are always placed within brackets. And if silent mode
 137:grbl/report.c **** // is installed, the message number codes are less than zero.
 138:grbl/report.c **** void report_feedback_message(uint8_t message_code)
 139:grbl/report.c **** {
 199              		.loc 1 139 0
 200              		.cfi_startproc
 201              		@ args = 0, pretend = 0, frame = 0
 202              		@ frame_needed = 0, uses_anonymous_args = 0
 203              	.LVL20:
 204 0000 10B5     		push	{r4, lr}
 205              	.LCFI6:
ARM GAS  /var/folders/m1/3lv6xmzs0mlckxs4mx90nfb40000gn/T//ccxdmtnn.s 			page 7


 206              		.cfi_def_cfa_offset 8
 207              		.cfi_offset 4, -8
 208              		.cfi_offset 14, -4
 209              		.loc 1 139 0
 210 0002 0446     		mov	r4, r0
 140:grbl/report.c ****   printPgmString(PSTR("[MSG:"));
 211              		.loc 1 140 0
 212 0004 2048     		ldr	r0, .L32
 213              	.LVL21:
 214 0006 FFF7FEFF 		bl	printString
 215              	.LVL22:
 141:grbl/report.c ****   switch(message_code) {
 216              		.loc 1 141 0
 217 000a 601E     		subs	r0, r4, #1
 218 000c 0A28     		cmp	r0, #10
 219 000e 0AD8     		bhi	.L18
 220 0010 DFE800F0 		tbb	[pc, r0]
 221              	.L20:
 222 0014 11       		.byte	(.L19-.L20)/2
 223 0015 15       		.byte	(.L21-.L20)/2
 224 0016 19       		.byte	(.L22-.L20)/2
 225 0017 1D       		.byte	(.L23-.L20)/2
 226 0018 21       		.byte	(.L24-.L20)/2
 227 0019 25       		.byte	(.L25-.L20)/2
 228 001a 29       		.byte	(.L26-.L20)/2
 229 001b 2D       		.byte	(.L27-.L20)/2
 230 001c 31       		.byte	(.L28-.L20)/2
 231 001d 35       		.byte	(.L29-.L20)/2
 232 001e 06       		.byte	(.L30-.L20)/2
 233 001f 00       		.p2align 1
 234              	.L30:
 142:grbl/report.c ****     case MESSAGE_CRITICAL_EVENT:
 143:grbl/report.c ****       printPgmString(PSTR("Reset to continue")); break;
 144:grbl/report.c ****     case MESSAGE_ALARM_LOCK:
 145:grbl/report.c ****       printPgmString(PSTR("'$H'|'$X' to unlock")); break;
 146:grbl/report.c ****     case MESSAGE_ALARM_UNLOCK:
 147:grbl/report.c ****       printPgmString(PSTR("Caution: Unlocked")); break;
 148:grbl/report.c ****     case MESSAGE_ENABLED:
 149:grbl/report.c ****       printPgmString(PSTR("Enabled")); break;
 150:grbl/report.c ****     case MESSAGE_DISABLED:
 151:grbl/report.c ****       printPgmString(PSTR("Disabled")); break;
 152:grbl/report.c ****     case MESSAGE_SAFETY_DOOR_AJAR:
 153:grbl/report.c ****       printPgmString(PSTR("Check Door")); break;
 154:grbl/report.c ****     case MESSAGE_CHECK_LIMITS:
 155:grbl/report.c ****       printPgmString(PSTR("Check Limits")); break;
 156:grbl/report.c ****     case MESSAGE_PROGRAM_END:
 157:grbl/report.c ****       printPgmString(PSTR("Pgm End")); break;
 158:grbl/report.c ****     case MESSAGE_RESTORE_DEFAULTS:
 159:grbl/report.c ****       printPgmString(PSTR("Restoring defaults")); break;
 160:grbl/report.c ****     case MESSAGE_SPINDLE_RESTORE:
 161:grbl/report.c ****       printPgmString(PSTR("Restoring spindle")); break;
 162:grbl/report.c ****     case MESSAGE_SLEEP_MODE:
 163:grbl/report.c ****       printPgmString(PSTR("Sleeping")); break;
 235              		.loc 1 163 0
 236 0020 1A48     		ldr	r0, .L32+4
 237 0022 FFF7FEFF 		bl	printString
 238              	.LVL23:
ARM GAS  /var/folders/m1/3lv6xmzs0mlckxs4mx90nfb40000gn/T//ccxdmtnn.s 			page 8


 239              	.L18:
 240              	.LBB201:
 241              	.LBB202:
  35:grbl/report.c **** static void report_util_gcode_modes_G() { printPgmString(PSTR(" G")); }
 242              		.loc 1 35 0
 243 0026 5D20     		movs	r0, #93
 244 0028 FFF7FEFF 		bl	serial_write
 245              	.LVL24:
 246              	.LBE202:
 247              	.LBE201:
 164:grbl/report.c ****   }
 165:grbl/report.c ****   report_util_feedback_line_feed();
 166:grbl/report.c **** }
 248              		.loc 1 166 0
 249 002c BDE81040 		pop	{r4, lr}
 250              	.LCFI7:
 251              		.cfi_remember_state
 252              		.cfi_restore 14
 253              		.cfi_restore 4
 254              		.cfi_def_cfa_offset 0
 255              	.LBB206:
 256              	.LBB205:
 257              	.LBB203:
 258              	.LBB204:
  34:grbl/report.c **** static void report_util_feedback_line_feed() { serial_write(']'); report_util_line_feed(); }
 259              		.loc 1 34 0
 260 0030 1748     		ldr	r0, .L32+8
 261 0032 FFF7FEBF 		b	printString
 262              	.LVL25:
 263              	.L19:
 264              	.LCFI8:
 265              		.cfi_restore_state
 266              	.LBE204:
 267              	.LBE203:
 268              	.LBE205:
 269              	.LBE206:
 143:grbl/report.c ****     case MESSAGE_ALARM_LOCK:
 270              		.loc 1 143 0
 271 0036 1748     		ldr	r0, .L32+12
 272 0038 FFF7FEFF 		bl	printString
 273              	.LVL26:
 274 003c F3E7     		b	.L18
 275              	.L21:
 145:grbl/report.c ****     case MESSAGE_ALARM_UNLOCK:
 276              		.loc 1 145 0
 277 003e 1648     		ldr	r0, .L32+16
 278 0040 FFF7FEFF 		bl	printString
 279              	.LVL27:
 280 0044 EFE7     		b	.L18
 281              	.L22:
 147:grbl/report.c ****     case MESSAGE_ENABLED:
 282              		.loc 1 147 0
 283 0046 1548     		ldr	r0, .L32+20
 284 0048 FFF7FEFF 		bl	printString
 285              	.LVL28:
 286 004c EBE7     		b	.L18
 287              	.L23:
ARM GAS  /var/folders/m1/3lv6xmzs0mlckxs4mx90nfb40000gn/T//ccxdmtnn.s 			page 9


 149:grbl/report.c ****     case MESSAGE_DISABLED:
 288              		.loc 1 149 0
 289 004e 1448     		ldr	r0, .L32+24
 290 0050 FFF7FEFF 		bl	printString
 291              	.LVL29:
 292 0054 E7E7     		b	.L18
 293              	.L24:
 151:grbl/report.c ****     case MESSAGE_SAFETY_DOOR_AJAR:
 294              		.loc 1 151 0
 295 0056 1348     		ldr	r0, .L32+28
 296 0058 FFF7FEFF 		bl	printString
 297              	.LVL30:
 298 005c E3E7     		b	.L18
 299              	.L25:
 153:grbl/report.c ****     case MESSAGE_CHECK_LIMITS:
 300              		.loc 1 153 0
 301 005e 1248     		ldr	r0, .L32+32
 302 0060 FFF7FEFF 		bl	printString
 303              	.LVL31:
 304 0064 DFE7     		b	.L18
 305              	.L26:
 155:grbl/report.c ****     case MESSAGE_PROGRAM_END:
 306              		.loc 1 155 0
 307 0066 1148     		ldr	r0, .L32+36
 308 0068 FFF7FEFF 		bl	printString
 309              	.LVL32:
 310 006c DBE7     		b	.L18
 311              	.L27:
 157:grbl/report.c ****     case MESSAGE_RESTORE_DEFAULTS:
 312              		.loc 1 157 0
 313 006e 1048     		ldr	r0, .L32+40
 314 0070 FFF7FEFF 		bl	printString
 315              	.LVL33:
 316 0074 D7E7     		b	.L18
 317              	.L28:
 159:grbl/report.c ****     case MESSAGE_SPINDLE_RESTORE:
 318              		.loc 1 159 0
 319 0076 0F48     		ldr	r0, .L32+44
 320 0078 FFF7FEFF 		bl	printString
 321              	.LVL34:
 322 007c D3E7     		b	.L18
 323              	.L29:
 161:grbl/report.c ****     case MESSAGE_SLEEP_MODE:
 324              		.loc 1 161 0
 325 007e 0E48     		ldr	r0, .L32+48
 326 0080 FFF7FEFF 		bl	printString
 327              	.LVL35:
 328 0084 CFE7     		b	.L18
 329              	.L33:
 330 0086 00BF     		.align	2
 331              	.L32:
 332 0088 00000000 		.word	.LC4
 333 008c A4000000 		.word	.LC15
 334 0090 10000000 		.word	.LC2
 335 0094 08000000 		.word	.LC5
 336 0098 1C000000 		.word	.LC6
 337 009c 30000000 		.word	.LC7
ARM GAS  /var/folders/m1/3lv6xmzs0mlckxs4mx90nfb40000gn/T//ccxdmtnn.s 			page 10


 338 00a0 44000000 		.word	.LC8
 339 00a4 4C000000 		.word	.LC9
 340 00a8 58000000 		.word	.LC10
 341 00ac 64000000 		.word	.LC11
 342 00b0 74000000 		.word	.LC12
 343 00b4 7C000000 		.word	.LC13
 344 00b8 90000000 		.word	.LC14
 345              		.cfi_endproc
 346              	.LFE713:
 348              		.section	.text.report_init_message,"ax",%progbits
 349              		.align	1
 350              		.p2align 2,,3
 351              		.global	report_init_message
 352              		.syntax unified
 353              		.thumb
 354              		.thumb_func
 355              		.fpu softvfp
 357              	report_init_message:
 358              	.LFB714:
 167:grbl/report.c **** 
 168:grbl/report.c **** 
 169:grbl/report.c **** // Welcome message
 170:grbl/report.c **** void report_init_message()
 171:grbl/report.c **** {
 359              		.loc 1 171 0
 360              		.cfi_startproc
 361              		@ args = 0, pretend = 0, frame = 0
 362              		@ frame_needed = 0, uses_anonymous_args = 0
 363              		@ link register save eliminated.
 172:grbl/report.c ****   printPgmString(PSTR("\r\nGrbl " GRBL_VERSION " ['$' for help]\r\n"));
 364              		.loc 1 172 0
 365 0000 0148     		ldr	r0, .L35
 366 0002 FFF7FEBF 		b	printString
 367              	.LVL36:
 368              	.L36:
 369 0006 00BF     		.align	2
 370              	.L35:
 371 0008 00000000 		.word	.LC16
 372              		.cfi_endproc
 373              	.LFE714:
 375              		.section	.text.report_grbl_help,"ax",%progbits
 376              		.align	1
 377              		.p2align 2,,3
 378              		.global	report_grbl_help
 379              		.syntax unified
 380              		.thumb
 381              		.thumb_func
 382              		.fpu softvfp
 384              	report_grbl_help:
 385              	.LFB715:
 173:grbl/report.c **** }
 174:grbl/report.c **** 
 175:grbl/report.c **** // Grbl help message
 176:grbl/report.c **** void report_grbl_help() {
 386              		.loc 1 176 0
 387              		.cfi_startproc
 388              		@ args = 0, pretend = 0, frame = 0
ARM GAS  /var/folders/m1/3lv6xmzs0mlckxs4mx90nfb40000gn/T//ccxdmtnn.s 			page 11


 389              		@ frame_needed = 0, uses_anonymous_args = 0
 390              		@ link register save eliminated.
 177:grbl/report.c ****   printPgmString(PSTR("[HLP:$$ $# $G $I $N $x=val $Nx=line $J=line $SLP $C $X $H ~ ! ? ctrl-x]\r\n"
 391              		.loc 1 177 0
 392 0000 0148     		ldr	r0, .L38
 393 0002 FFF7FEBF 		b	printString
 394              	.LVL37:
 395              	.L39:
 396 0006 00BF     		.align	2
 397              	.L38:
 398 0008 00000000 		.word	.LC17
 399              		.cfi_endproc
 400              	.LFE715:
 402              		.global	__aeabi_fdiv
 403              		.section	.text.report_grbl_settings,"ax",%progbits
 404              		.align	1
 405              		.p2align 2,,3
 406              		.global	report_grbl_settings
 407              		.syntax unified
 408              		.thumb
 409              		.thumb_func
 410              		.fpu softvfp
 412              	report_grbl_settings:
 413              	.LFB716:
 178:grbl/report.c **** }
 179:grbl/report.c **** 
 180:grbl/report.c **** 
 181:grbl/report.c **** // Grbl global settings print out.
 182:grbl/report.c **** // NOTE: The numbering scheme here must correlate to storing in settings.c
 183:grbl/report.c **** void report_grbl_settings() {
 414              		.loc 1 183 0
 415              		.cfi_startproc
 416              		@ args = 0, pretend = 0, frame = 0
 417              		@ frame_needed = 0, uses_anonymous_args = 0
 418 0000 2DE9F84F 		push	{r3, r4, r5, r6, r7, r8, r9, r10, fp, lr}
 419              	.LCFI9:
 420              		.cfi_def_cfa_offset 40
 421              		.cfi_offset 3, -40
 422              		.cfi_offset 4, -36
 423              		.cfi_offset 5, -32
 424              		.cfi_offset 6, -28
 425              		.cfi_offset 7, -24
 426              		.cfi_offset 8, -20
 427              		.cfi_offset 9, -16
 428              		.cfi_offset 10, -12
 429              		.cfi_offset 11, -8
 430              		.cfi_offset 14, -4
 184:grbl/report.c ****   // Print Grbl settings.
 185:grbl/report.c **** //  report_util_uint8_setting(0,settings.pulse_microseconds);
 186:grbl/report.c **** 	report_util_float_setting(0,settings.fpulse_microseconds,N_DECIMAL_SETTINGVALUE);
 431              		.loc 1 186 0
 432 0004 D74C     		ldr	r4, .L52
 433              	.LBB375:
 434              	.LBB376:
 435              	.LBB377:
 436              	.LBB378:
  33:grbl/report.c **** static void report_util_line_feed() { printPgmString(PSTR("\r\n")); }
ARM GAS  /var/folders/m1/3lv6xmzs0mlckxs4mx90nfb40000gn/T//ccxdmtnn.s 			page 12


 437              		.loc 1 33 0
 438 0006 2420     		movs	r0, #36
 439              	.LBE378:
 440              	.LBE377:
 441              	.LBE376:
 442              	.LBE375:
 443              		.loc 1 186 0
 444 0008 256B     		ldr	r5, [r4, #48]	@ float
 445              	.LVL38:
 446              	.LBB384:
 447              	.LBB383:
 448              	.LBB380:
 449              	.LBB379:
  33:grbl/report.c **** static void report_util_line_feed() { printPgmString(PSTR("\r\n")); }
 450              		.loc 1 33 0
 451 000a FFF7FEFF 		bl	serial_write
 452              	.LVL39:
 453 000e 0020     		movs	r0, #0
 454 0010 FFF7FEFF 		bl	print_uint8_base10
 455              	.LVL40:
 456 0014 3D20     		movs	r0, #61
 457 0016 FFF7FEFF 		bl	serial_write
 458              	.LVL41:
 459              	.LBE379:
 460              	.LBE380:
 101:grbl/report.c ****   report_util_line_feed(); // report_util_setting_string(n);
 461              		.loc 1 101 0
 462 001a 0321     		movs	r1, #3
 463 001c 2846     		mov	r0, r5
 464 001e FFF7FEFF 		bl	printFloat
 465              	.LVL42:
 466              	.LBB381:
 467              	.LBB382:
  34:grbl/report.c **** static void report_util_feedback_line_feed() { serial_write(']'); report_util_line_feed(); }
 468              		.loc 1 34 0
 469 0022 D148     		ldr	r0, .L52+4
 470 0024 FFF7FEFF 		bl	printString
 471              	.LVL43:
 472              	.LBE382:
 473              	.LBE381:
 474              	.LBE383:
 475              	.LBE384:
 476              	.LBB385:
 477              	.LBB386:
 478              	.LBB387:
 479              	.LBB388:
  33:grbl/report.c **** static void report_util_line_feed() { printPgmString(PSTR("\r\n")); }
 480              		.loc 1 33 0
 481 0028 2420     		movs	r0, #36
 482              	.LBE388:
 483              	.LBE387:
 484              	.LBE386:
 485              	.LBE385:
 187:grbl/report.c ****   report_util_uint8_setting(1,settings.stepper_idle_lock_time);
 486              		.loc 1 187 0
 487 002a 94F83650 		ldrb	r5, [r4, #54]	@ zero_extendqisi2
 488              	.LVL44:
ARM GAS  /var/folders/m1/3lv6xmzs0mlckxs4mx90nfb40000gn/T//ccxdmtnn.s 			page 13


 489              	.LBB394:
 490              	.LBB393:
 491              	.LBB390:
 492              	.LBB389:
  33:grbl/report.c **** static void report_util_line_feed() { printPgmString(PSTR("\r\n")); }
 493              		.loc 1 33 0
 494 002e FFF7FEFF 		bl	serial_write
 495              	.LVL45:
 496 0032 0120     		movs	r0, #1
 497 0034 FFF7FEFF 		bl	print_uint8_base10
 498              	.LVL46:
 499 0038 3D20     		movs	r0, #61
 500 003a FFF7FEFF 		bl	serial_write
 501              	.LVL47:
 502              	.LBE389:
 503              	.LBE390:
  96:grbl/report.c ****   report_util_line_feed(); // report_util_setting_string(n); 
 504              		.loc 1 96 0
 505 003e 2846     		mov	r0, r5
 506 0040 FFF7FEFF 		bl	print_uint8_base10
 507              	.LVL48:
 508              	.LBB391:
 509              	.LBB392:
  34:grbl/report.c **** static void report_util_feedback_line_feed() { serial_write(']'); report_util_line_feed(); }
 510              		.loc 1 34 0
 511 0044 C848     		ldr	r0, .L52+4
 512 0046 FFF7FEFF 		bl	printString
 513              	.LVL49:
 514              	.LBE392:
 515              	.LBE391:
 516              	.LBE393:
 517              	.LBE394:
 518              	.LBB395:
 519              	.LBB396:
 520              	.LBB397:
 521              	.LBB398:
  33:grbl/report.c **** static void report_util_line_feed() { printPgmString(PSTR("\r\n")); }
 522              		.loc 1 33 0
 523 004a 2420     		movs	r0, #36
 524              	.LBE398:
 525              	.LBE397:
 526              	.LBE396:
 527              	.LBE395:
 188:grbl/report.c ****   report_util_uint8_setting(2,settings.step_invert_mask);
 528              		.loc 1 188 0
 529 004c 94F83450 		ldrb	r5, [r4, #52]	@ zero_extendqisi2
 530              	.LVL50:
 531              	.LBB404:
 532              	.LBB403:
 533              	.LBB400:
 534              	.LBB399:
  33:grbl/report.c **** static void report_util_line_feed() { printPgmString(PSTR("\r\n")); }
 535              		.loc 1 33 0
 536 0050 FFF7FEFF 		bl	serial_write
 537              	.LVL51:
 538 0054 0220     		movs	r0, #2
 539 0056 FFF7FEFF 		bl	print_uint8_base10
ARM GAS  /var/folders/m1/3lv6xmzs0mlckxs4mx90nfb40000gn/T//ccxdmtnn.s 			page 14


 540              	.LVL52:
 541 005a 3D20     		movs	r0, #61
 542 005c FFF7FEFF 		bl	serial_write
 543              	.LVL53:
 544              	.LBE399:
 545              	.LBE400:
  96:grbl/report.c ****   report_util_line_feed(); // report_util_setting_string(n); 
 546              		.loc 1 96 0
 547 0060 2846     		mov	r0, r5
 548 0062 FFF7FEFF 		bl	print_uint8_base10
 549              	.LVL54:
 550              	.LBB401:
 551              	.LBB402:
  34:grbl/report.c **** static void report_util_feedback_line_feed() { serial_write(']'); report_util_line_feed(); }
 552              		.loc 1 34 0
 553 0066 C048     		ldr	r0, .L52+4
 554 0068 FFF7FEFF 		bl	printString
 555              	.LVL55:
 556              	.LBE402:
 557              	.LBE401:
 558              	.LBE403:
 559              	.LBE404:
 560              	.LBB405:
 561              	.LBB406:
 562              	.LBB407:
 563              	.LBB408:
  33:grbl/report.c **** static void report_util_line_feed() { printPgmString(PSTR("\r\n")); }
 564              		.loc 1 33 0
 565 006c 2420     		movs	r0, #36
 566              	.LBE408:
 567              	.LBE407:
 568              	.LBE406:
 569              	.LBE405:
 189:grbl/report.c ****   report_util_uint8_setting(3,settings.dir_invert_mask);
 570              		.loc 1 189 0
 571 006e 94F83550 		ldrb	r5, [r4, #53]	@ zero_extendqisi2
 572              	.LVL56:
 573              	.LBB414:
 574              	.LBB413:
 575              	.LBB410:
 576              	.LBB409:
  33:grbl/report.c **** static void report_util_line_feed() { printPgmString(PSTR("\r\n")); }
 577              		.loc 1 33 0
 578 0072 FFF7FEFF 		bl	serial_write
 579              	.LVL57:
 580 0076 0320     		movs	r0, #3
 581 0078 FFF7FEFF 		bl	print_uint8_base10
 582              	.LVL58:
 583 007c 3D20     		movs	r0, #61
 584 007e FFF7FEFF 		bl	serial_write
 585              	.LVL59:
 586              	.LBE409:
 587              	.LBE410:
  96:grbl/report.c ****   report_util_line_feed(); // report_util_setting_string(n); 
 588              		.loc 1 96 0
 589 0082 2846     		mov	r0, r5
 590 0084 FFF7FEFF 		bl	print_uint8_base10
ARM GAS  /var/folders/m1/3lv6xmzs0mlckxs4mx90nfb40000gn/T//ccxdmtnn.s 			page 15


 591              	.LVL60:
 592              	.LBB411:
 593              	.LBB412:
  34:grbl/report.c **** static void report_util_feedback_line_feed() { serial_write(']'); report_util_line_feed(); }
 594              		.loc 1 34 0
 595 0088 B748     		ldr	r0, .L52+4
 596 008a FFF7FEFF 		bl	printString
 597              	.LVL61:
 598              	.LBE412:
 599              	.LBE411:
 600              	.LBE413:
 601              	.LBE414:
 190:grbl/report.c ****   report_util_uint8_setting(4,bit_istrue(settings.flags,BITFLAG_INVERT_ST_ENABLE));
 602              		.loc 1 190 0
 603 008e 94F84850 		ldrb	r5, [r4, #72]	@ zero_extendqisi2
 604              	.LBB415:
 605              	.LBB416:
 606              	.LBB417:
 607              	.LBB418:
  33:grbl/report.c **** static void report_util_line_feed() { printPgmString(PSTR("\r\n")); }
 608              		.loc 1 33 0
 609 0092 2420     		movs	r0, #36
 610 0094 FFF7FEFF 		bl	serial_write
 611              	.LVL62:
 612 0098 0420     		movs	r0, #4
 613 009a FFF7FEFF 		bl	print_uint8_base10
 614              	.LVL63:
 615              	.LBE418:
 616              	.LBE417:
 617              	.LBE416:
 618              	.LBE415:
 619              		.loc 1 190 0
 620 009e C5F38005 		ubfx	r5, r5, #2, #1
 621              	.LVL64:
 622              	.LBB424:
 623              	.LBB423:
 624              	.LBB420:
 625              	.LBB419:
  33:grbl/report.c **** static void report_util_line_feed() { printPgmString(PSTR("\r\n")); }
 626              		.loc 1 33 0
 627 00a2 3D20     		movs	r0, #61
 628 00a4 FFF7FEFF 		bl	serial_write
 629              	.LVL65:
 630              	.LBE419:
 631              	.LBE420:
  96:grbl/report.c ****   report_util_line_feed(); // report_util_setting_string(n); 
 632              		.loc 1 96 0
 633 00a8 2846     		mov	r0, r5
 634 00aa FFF7FEFF 		bl	print_uint8_base10
 635              	.LVL66:
 636              	.LBB421:
 637              	.LBB422:
  34:grbl/report.c **** static void report_util_feedback_line_feed() { serial_write(']'); report_util_line_feed(); }
 638              		.loc 1 34 0
 639 00ae AE48     		ldr	r0, .L52+4
 640 00b0 FFF7FEFF 		bl	printString
 641              	.LVL67:
ARM GAS  /var/folders/m1/3lv6xmzs0mlckxs4mx90nfb40000gn/T//ccxdmtnn.s 			page 16


 642              	.LBE422:
 643              	.LBE421:
 644              	.LBE423:
 645              	.LBE424:
 191:grbl/report.c ****   report_util_uint8_setting(5,bit_istrue(settings.flags,BITFLAG_INVERT_LIMIT_PINS));
 646              		.loc 1 191 0
 647 00b4 94F84850 		ldrb	r5, [r4, #72]	@ zero_extendqisi2
 648              	.LBB425:
 649              	.LBB426:
 650              	.LBB427:
 651              	.LBB428:
  33:grbl/report.c **** static void report_util_line_feed() { printPgmString(PSTR("\r\n")); }
 652              		.loc 1 33 0
 653 00b8 2420     		movs	r0, #36
 654 00ba FFF7FEFF 		bl	serial_write
 655              	.LVL68:
 656 00be 0520     		movs	r0, #5
 657 00c0 FFF7FEFF 		bl	print_uint8_base10
 658              	.LVL69:
 659              	.LBE428:
 660              	.LBE427:
 661              	.LBE426:
 662              	.LBE425:
 663              		.loc 1 191 0
 664 00c4 C5F38015 		ubfx	r5, r5, #6, #1
 665              	.LVL70:
 666              	.LBB434:
 667              	.LBB433:
 668              	.LBB430:
 669              	.LBB429:
  33:grbl/report.c **** static void report_util_line_feed() { printPgmString(PSTR("\r\n")); }
 670              		.loc 1 33 0
 671 00c8 3D20     		movs	r0, #61
 672 00ca FFF7FEFF 		bl	serial_write
 673              	.LVL71:
 674              	.LBE429:
 675              	.LBE430:
  96:grbl/report.c ****   report_util_line_feed(); // report_util_setting_string(n); 
 676              		.loc 1 96 0
 677 00ce 2846     		mov	r0, r5
 678 00d0 FFF7FEFF 		bl	print_uint8_base10
 679              	.LVL72:
 680              	.LBB431:
 681              	.LBB432:
  34:grbl/report.c **** static void report_util_feedback_line_feed() { serial_write(']'); report_util_line_feed(); }
 682              		.loc 1 34 0
 683 00d4 A448     		ldr	r0, .L52+4
 684 00d6 FFF7FEFF 		bl	printString
 685              	.LVL73:
 686              	.LBE432:
 687              	.LBE431:
 688              	.LBE433:
 689              	.LBE434:
 192:grbl/report.c ****   report_util_uint8_setting(6,bit_istrue(settings.flags,BITFLAG_INVERT_PROBE_PIN));
 690              		.loc 1 192 0
 691 00da 94F84850 		ldrb	r5, [r4, #72]	@ zero_extendqisi2
 692              	.LBB435:
ARM GAS  /var/folders/m1/3lv6xmzs0mlckxs4mx90nfb40000gn/T//ccxdmtnn.s 			page 17


 693              	.LBB436:
 694              	.LBB437:
 695              	.LBB438:
  33:grbl/report.c **** static void report_util_line_feed() { printPgmString(PSTR("\r\n")); }
 696              		.loc 1 33 0
 697 00de 2420     		movs	r0, #36
 698 00e0 FFF7FEFF 		bl	serial_write
 699              	.LVL74:
 700 00e4 0620     		movs	r0, #6
 701 00e6 FFF7FEFF 		bl	print_uint8_base10
 702              	.LVL75:
 703              	.LBE438:
 704              	.LBE437:
 705              	.LBE436:
 706              	.LBE435:
 707              		.loc 1 192 0
 708 00ea ED09     		lsrs	r5, r5, #7
 709              	.LVL76:
 710              	.LBB444:
 711              	.LBB443:
 712              	.LBB440:
 713              	.LBB439:
  33:grbl/report.c **** static void report_util_line_feed() { printPgmString(PSTR("\r\n")); }
 714              		.loc 1 33 0
 715 00ec 3D20     		movs	r0, #61
 716 00ee FFF7FEFF 		bl	serial_write
 717              	.LVL77:
 718              	.LBE439:
 719              	.LBE440:
  96:grbl/report.c ****   report_util_line_feed(); // report_util_setting_string(n); 
 720              		.loc 1 96 0
 721 00f2 2846     		mov	r0, r5
 722 00f4 FFF7FEFF 		bl	print_uint8_base10
 723              	.LVL78:
 724              	.LBB441:
 725              	.LBB442:
  34:grbl/report.c **** static void report_util_feedback_line_feed() { serial_write(']'); report_util_line_feed(); }
 726              		.loc 1 34 0
 727 00f8 9B48     		ldr	r0, .L52+4
 728 00fa FFF7FEFF 		bl	printString
 729              	.LVL79:
 730              	.LBE442:
 731              	.LBE441:
 732              	.LBE443:
 733              	.LBE444:
 734              	.LBB445:
 735              	.LBB446:
 736              	.LBB447:
 737              	.LBB448:
  33:grbl/report.c **** static void report_util_line_feed() { printPgmString(PSTR("\r\n")); }
 738              		.loc 1 33 0
 739 00fe 2420     		movs	r0, #36
 740              	.LBE448:
 741              	.LBE447:
 742              	.LBE446:
 743              	.LBE445:
 193:grbl/report.c ****   report_util_uint8_setting(10,settings.status_report_mask);
ARM GAS  /var/folders/m1/3lv6xmzs0mlckxs4mx90nfb40000gn/T//ccxdmtnn.s 			page 18


 744              		.loc 1 193 0
 745 0100 94F83750 		ldrb	r5, [r4, #55]	@ zero_extendqisi2
 746              	.LVL80:
 747              	.LBB454:
 748              	.LBB453:
 749              	.LBB450:
 750              	.LBB449:
  33:grbl/report.c **** static void report_util_line_feed() { printPgmString(PSTR("\r\n")); }
 751              		.loc 1 33 0
 752 0104 FFF7FEFF 		bl	serial_write
 753              	.LVL81:
 754 0108 0A20     		movs	r0, #10
 755 010a FFF7FEFF 		bl	print_uint8_base10
 756              	.LVL82:
 757 010e 3D20     		movs	r0, #61
 758 0110 FFF7FEFF 		bl	serial_write
 759              	.LVL83:
 760              	.LBE449:
 761              	.LBE450:
  96:grbl/report.c ****   report_util_line_feed(); // report_util_setting_string(n); 
 762              		.loc 1 96 0
 763 0114 2846     		mov	r0, r5
 764 0116 FFF7FEFF 		bl	print_uint8_base10
 765              	.LVL84:
 766              	.LBB451:
 767              	.LBB452:
  34:grbl/report.c **** static void report_util_feedback_line_feed() { serial_write(']'); report_util_line_feed(); }
 768              		.loc 1 34 0
 769 011a 9348     		ldr	r0, .L52+4
 770 011c FFF7FEFF 		bl	printString
 771              	.LVL85:
 772              	.LBE452:
 773              	.LBE451:
 774              	.LBE453:
 775              	.LBE454:
 776              	.LBB455:
 777              	.LBB456:
 778              	.LBB457:
 779              	.LBB458:
  33:grbl/report.c **** static void report_util_line_feed() { printPgmString(PSTR("\r\n")); }
 780              		.loc 1 33 0
 781 0120 2420     		movs	r0, #36
 782              	.LBE458:
 783              	.LBE457:
 784              	.LBE456:
 785              	.LBE455:
 194:grbl/report.c ****   report_util_float_setting(11,settings.junction_deviation,N_DECIMAL_SETTINGVALUE);
 786              		.loc 1 194 0
 787 0122 A56B     		ldr	r5, [r4, #56]	@ float
 788              	.LVL86:
 789              	.LBB464:
 790              	.LBB463:
 791              	.LBB460:
 792              	.LBB459:
  33:grbl/report.c **** static void report_util_line_feed() { printPgmString(PSTR("\r\n")); }
 793              		.loc 1 33 0
 794 0124 FFF7FEFF 		bl	serial_write
ARM GAS  /var/folders/m1/3lv6xmzs0mlckxs4mx90nfb40000gn/T//ccxdmtnn.s 			page 19


 795              	.LVL87:
 796 0128 0B20     		movs	r0, #11
 797 012a FFF7FEFF 		bl	print_uint8_base10
 798              	.LVL88:
 799 012e 3D20     		movs	r0, #61
 800 0130 FFF7FEFF 		bl	serial_write
 801              	.LVL89:
 802              	.LBE459:
 803              	.LBE460:
 101:grbl/report.c ****   report_util_line_feed(); // report_util_setting_string(n);
 804              		.loc 1 101 0
 805 0134 0321     		movs	r1, #3
 806 0136 2846     		mov	r0, r5
 807 0138 FFF7FEFF 		bl	printFloat
 808              	.LVL90:
 809              	.LBB461:
 810              	.LBB462:
  34:grbl/report.c **** static void report_util_feedback_line_feed() { serial_write(']'); report_util_line_feed(); }
 811              		.loc 1 34 0
 812 013c 8A48     		ldr	r0, .L52+4
 813 013e FFF7FEFF 		bl	printString
 814              	.LVL91:
 815              	.LBE462:
 816              	.LBE461:
 817              	.LBE463:
 818              	.LBE464:
 819              	.LBB465:
 820              	.LBB466:
 821              	.LBB467:
 822              	.LBB468:
  33:grbl/report.c **** static void report_util_line_feed() { printPgmString(PSTR("\r\n")); }
 823              		.loc 1 33 0
 824 0142 2420     		movs	r0, #36
 825              	.LBE468:
 826              	.LBE467:
 827              	.LBE466:
 828              	.LBE465:
 195:grbl/report.c ****   report_util_float_setting(12,settings.arc_tolerance,N_DECIMAL_SETTINGVALUE);
 829              		.loc 1 195 0
 830 0144 E56B     		ldr	r5, [r4, #60]	@ float
 831              	.LVL92:
 832              	.LBB474:
 833              	.LBB473:
 834              	.LBB470:
 835              	.LBB469:
  33:grbl/report.c **** static void report_util_line_feed() { printPgmString(PSTR("\r\n")); }
 836              		.loc 1 33 0
 837 0146 FFF7FEFF 		bl	serial_write
 838              	.LVL93:
 839 014a 0C20     		movs	r0, #12
 840 014c FFF7FEFF 		bl	print_uint8_base10
 841              	.LVL94:
 842 0150 3D20     		movs	r0, #61
 843 0152 FFF7FEFF 		bl	serial_write
 844              	.LVL95:
 845              	.LBE469:
 846              	.LBE470:
ARM GAS  /var/folders/m1/3lv6xmzs0mlckxs4mx90nfb40000gn/T//ccxdmtnn.s 			page 20


 101:grbl/report.c ****   report_util_line_feed(); // report_util_setting_string(n);
 847              		.loc 1 101 0
 848 0156 0321     		movs	r1, #3
 849 0158 2846     		mov	r0, r5
 850 015a FFF7FEFF 		bl	printFloat
 851              	.LVL96:
 852              	.LBB471:
 853              	.LBB472:
  34:grbl/report.c **** static void report_util_feedback_line_feed() { serial_write(']'); report_util_line_feed(); }
 854              		.loc 1 34 0
 855 015e 8248     		ldr	r0, .L52+4
 856 0160 FFF7FEFF 		bl	printString
 857              	.LVL97:
 858              	.LBE472:
 859              	.LBE471:
 860              	.LBE473:
 861              	.LBE474:
 862              	.LBB475:
 863              	.LBB476:
 864              	.LBB477:
 865              	.LBB478:
  33:grbl/report.c **** static void report_util_line_feed() { printPgmString(PSTR("\r\n")); }
 866              		.loc 1 33 0
 867 0164 2420     		movs	r0, #36
 868              	.LBE478:
 869              	.LBE477:
 870              	.LBE476:
 871              	.LBE475:
 196:grbl/report.c ****   report_util_uint8_setting(13,bit_istrue(settings.flags,BITFLAG_REPORT_INCHES));
 872              		.loc 1 196 0
 873 0166 94F84850 		ldrb	r5, [r4, #72]	@ zero_extendqisi2
 874              	.LVL98:
 875              	.LBB484:
 876              	.LBB483:
 877              	.LBB480:
 878              	.LBB479:
  33:grbl/report.c **** static void report_util_line_feed() { printPgmString(PSTR("\r\n")); }
 879              		.loc 1 33 0
 880 016a FFF7FEFF 		bl	serial_write
 881              	.LVL99:
 882 016e 0D20     		movs	r0, #13
 883 0170 FFF7FEFF 		bl	print_uint8_base10
 884              	.LVL100:
 885 0174 3D20     		movs	r0, #61
 886 0176 FFF7FEFF 		bl	serial_write
 887              	.LVL101:
 888              	.LBE479:
 889              	.LBE480:
  96:grbl/report.c ****   report_util_line_feed(); // report_util_setting_string(n); 
 890              		.loc 1 96 0
 891 017a 05F00100 		and	r0, r5, #1
 892 017e FFF7FEFF 		bl	print_uint8_base10
 893              	.LVL102:
 894              	.LBB481:
 895              	.LBB482:
  34:grbl/report.c **** static void report_util_feedback_line_feed() { serial_write(']'); report_util_line_feed(); }
 896              		.loc 1 34 0
ARM GAS  /var/folders/m1/3lv6xmzs0mlckxs4mx90nfb40000gn/T//ccxdmtnn.s 			page 21


 897 0182 7948     		ldr	r0, .L52+4
 898 0184 FFF7FEFF 		bl	printString
 899              	.LVL103:
 900              	.LBE482:
 901              	.LBE481:
 902              	.LBE483:
 903              	.LBE484:
 197:grbl/report.c ****   report_util_uint8_setting(20,bit_istrue(settings.flags,BITFLAG_SOFT_LIMIT_ENABLE));
 904              		.loc 1 197 0
 905 0188 94F84850 		ldrb	r5, [r4, #72]	@ zero_extendqisi2
 906              	.LBB485:
 907              	.LBB486:
 908              	.LBB487:
 909              	.LBB488:
  33:grbl/report.c **** static void report_util_line_feed() { printPgmString(PSTR("\r\n")); }
 910              		.loc 1 33 0
 911 018c 2420     		movs	r0, #36
 912 018e FFF7FEFF 		bl	serial_write
 913              	.LVL104:
 914 0192 1420     		movs	r0, #20
 915 0194 FFF7FEFF 		bl	print_uint8_base10
 916              	.LVL105:
 917              	.LBE488:
 918              	.LBE487:
 919              	.LBE486:
 920              	.LBE485:
 921              		.loc 1 197 0
 922 0198 C5F34015 		ubfx	r5, r5, #5, #1
 923              	.LVL106:
 924              	.LBB494:
 925              	.LBB493:
 926              	.LBB490:
 927              	.LBB489:
  33:grbl/report.c **** static void report_util_line_feed() { printPgmString(PSTR("\r\n")); }
 928              		.loc 1 33 0
 929 019c 3D20     		movs	r0, #61
 930 019e FFF7FEFF 		bl	serial_write
 931              	.LVL107:
 932              	.LBE489:
 933              	.LBE490:
  96:grbl/report.c ****   report_util_line_feed(); // report_util_setting_string(n); 
 934              		.loc 1 96 0
 935 01a2 2846     		mov	r0, r5
 936 01a4 FFF7FEFF 		bl	print_uint8_base10
 937              	.LVL108:
 938              	.LBB491:
 939              	.LBB492:
  34:grbl/report.c **** static void report_util_feedback_line_feed() { serial_write(']'); report_util_line_feed(); }
 940              		.loc 1 34 0
 941 01a8 6F48     		ldr	r0, .L52+4
 942 01aa FFF7FEFF 		bl	printString
 943              	.LVL109:
 944              	.LBE492:
 945              	.LBE491:
 946              	.LBE493:
 947              	.LBE494:
 198:grbl/report.c ****   report_util_uint8_setting(21,bit_istrue(settings.flags,BITFLAG_HARD_LIMIT_ENABLE));
ARM GAS  /var/folders/m1/3lv6xmzs0mlckxs4mx90nfb40000gn/T//ccxdmtnn.s 			page 22


 948              		.loc 1 198 0
 949 01ae 94F84850 		ldrb	r5, [r4, #72]	@ zero_extendqisi2
 950              	.LBB495:
 951              	.LBB496:
 952              	.LBB497:
 953              	.LBB498:
  33:grbl/report.c **** static void report_util_line_feed() { printPgmString(PSTR("\r\n")); }
 954              		.loc 1 33 0
 955 01b2 2420     		movs	r0, #36
 956 01b4 FFF7FEFF 		bl	serial_write
 957              	.LVL110:
 958 01b8 1520     		movs	r0, #21
 959 01ba FFF7FEFF 		bl	print_uint8_base10
 960              	.LVL111:
 961              	.LBE498:
 962              	.LBE497:
 963              	.LBE496:
 964              	.LBE495:
 965              		.loc 1 198 0
 966 01be C5F3C005 		ubfx	r5, r5, #3, #1
 967              	.LVL112:
 968              	.LBB504:
 969              	.LBB503:
 970              	.LBB500:
 971              	.LBB499:
  33:grbl/report.c **** static void report_util_line_feed() { printPgmString(PSTR("\r\n")); }
 972              		.loc 1 33 0
 973 01c2 3D20     		movs	r0, #61
 974 01c4 FFF7FEFF 		bl	serial_write
 975              	.LVL113:
 976              	.LBE499:
 977              	.LBE500:
  96:grbl/report.c ****   report_util_line_feed(); // report_util_setting_string(n); 
 978              		.loc 1 96 0
 979 01c8 2846     		mov	r0, r5
 980 01ca FFF7FEFF 		bl	print_uint8_base10
 981              	.LVL114:
 982              	.LBB501:
 983              	.LBB502:
  34:grbl/report.c **** static void report_util_feedback_line_feed() { serial_write(']'); report_util_line_feed(); }
 984              		.loc 1 34 0
 985 01ce 6648     		ldr	r0, .L52+4
 986 01d0 FFF7FEFF 		bl	printString
 987              	.LVL115:
 988              	.LBE502:
 989              	.LBE501:
 990              	.LBE503:
 991              	.LBE504:
 199:grbl/report.c ****   report_util_uint8_setting(22,bit_istrue(settings.flags,BITFLAG_HOMING_ENABLE));
 992              		.loc 1 199 0
 993 01d4 94F84850 		ldrb	r5, [r4, #72]	@ zero_extendqisi2
 994              	.LBB505:
 995              	.LBB506:
 996              	.LBB507:
 997              	.LBB508:
  33:grbl/report.c **** static void report_util_line_feed() { printPgmString(PSTR("\r\n")); }
 998              		.loc 1 33 0
ARM GAS  /var/folders/m1/3lv6xmzs0mlckxs4mx90nfb40000gn/T//ccxdmtnn.s 			page 23


 999 01d8 2420     		movs	r0, #36
 1000 01da FFF7FEFF 		bl	serial_write
 1001              	.LVL116:
 1002 01de 1620     		movs	r0, #22
 1003 01e0 FFF7FEFF 		bl	print_uint8_base10
 1004              	.LVL117:
 1005              	.LBE508:
 1006              	.LBE507:
 1007              	.LBE506:
 1008              	.LBE505:
 1009              		.loc 1 199 0
 1010 01e4 C5F30015 		ubfx	r5, r5, #4, #1
 1011              	.LVL118:
 1012              	.LBB514:
 1013              	.LBB513:
 1014              	.LBB510:
 1015              	.LBB509:
  33:grbl/report.c **** static void report_util_line_feed() { printPgmString(PSTR("\r\n")); }
 1016              		.loc 1 33 0
 1017 01e8 3D20     		movs	r0, #61
 1018 01ea FFF7FEFF 		bl	serial_write
 1019              	.LVL119:
 1020              	.LBE509:
 1021              	.LBE510:
  96:grbl/report.c ****   report_util_line_feed(); // report_util_setting_string(n); 
 1022              		.loc 1 96 0
 1023 01ee 2846     		mov	r0, r5
 1024 01f0 FFF7FEFF 		bl	print_uint8_base10
 1025              	.LVL120:
 1026              	.LBB511:
 1027              	.LBB512:
  34:grbl/report.c **** static void report_util_feedback_line_feed() { serial_write(']'); report_util_line_feed(); }
 1028              		.loc 1 34 0
 1029 01f4 5C48     		ldr	r0, .L52+4
 1030 01f6 FFF7FEFF 		bl	printString
 1031              	.LVL121:
 1032              	.LBE512:
 1033              	.LBE511:
 1034              	.LBE513:
 1035              	.LBE514:
 1036              	.LBB515:
 1037              	.LBB516:
 1038              	.LBB517:
 1039              	.LBB518:
  33:grbl/report.c **** static void report_util_line_feed() { printPgmString(PSTR("\r\n")); }
 1040              		.loc 1 33 0
 1041 01fa 2420     		movs	r0, #36
 1042              	.LBE518:
 1043              	.LBE517:
 1044              	.LBE516:
 1045              	.LBE515:
 200:grbl/report.c ****   report_util_uint8_setting(23,settings.homing_dir_mask);
 1046              		.loc 1 200 0
 1047 01fc 94F84950 		ldrb	r5, [r4, #73]	@ zero_extendqisi2
 1048              	.LVL122:
 1049              	.LBB524:
 1050              	.LBB523:
ARM GAS  /var/folders/m1/3lv6xmzs0mlckxs4mx90nfb40000gn/T//ccxdmtnn.s 			page 24


 1051              	.LBB520:
 1052              	.LBB519:
  33:grbl/report.c **** static void report_util_line_feed() { printPgmString(PSTR("\r\n")); }
 1053              		.loc 1 33 0
 1054 0200 FFF7FEFF 		bl	serial_write
 1055              	.LVL123:
 1056 0204 1720     		movs	r0, #23
 1057 0206 FFF7FEFF 		bl	print_uint8_base10
 1058              	.LVL124:
 1059 020a 3D20     		movs	r0, #61
 1060 020c FFF7FEFF 		bl	serial_write
 1061              	.LVL125:
 1062              	.LBE519:
 1063              	.LBE520:
  96:grbl/report.c ****   report_util_line_feed(); // report_util_setting_string(n); 
 1064              		.loc 1 96 0
 1065 0210 2846     		mov	r0, r5
 1066 0212 FFF7FEFF 		bl	print_uint8_base10
 1067              	.LVL126:
 1068              	.LBB521:
 1069              	.LBB522:
  34:grbl/report.c **** static void report_util_feedback_line_feed() { serial_write(']'); report_util_line_feed(); }
 1070              		.loc 1 34 0
 1071 0216 5448     		ldr	r0, .L52+4
 1072 0218 FFF7FEFF 		bl	printString
 1073              	.LVL127:
 1074              	.LBE522:
 1075              	.LBE521:
 1076              	.LBE523:
 1077              	.LBE524:
 1078              	.LBB525:
 1079              	.LBB526:
 1080              	.LBB527:
 1081              	.LBB528:
  33:grbl/report.c **** static void report_util_line_feed() { printPgmString(PSTR("\r\n")); }
 1082              		.loc 1 33 0
 1083 021c 2420     		movs	r0, #36
 1084              	.LBE528:
 1085              	.LBE527:
 1086              	.LBE526:
 1087              	.LBE525:
 201:grbl/report.c ****   report_util_float_setting(24,settings.homing_feed_rate,N_DECIMAL_SETTINGVALUE);
 1088              		.loc 1 201 0
 1089 021e E56C     		ldr	r5, [r4, #76]	@ float
 1090              	.LVL128:
 1091              	.LBB534:
 1092              	.LBB533:
 1093              	.LBB530:
 1094              	.LBB529:
  33:grbl/report.c **** static void report_util_line_feed() { printPgmString(PSTR("\r\n")); }
 1095              		.loc 1 33 0
 1096 0220 FFF7FEFF 		bl	serial_write
 1097              	.LVL129:
 1098 0224 1820     		movs	r0, #24
 1099 0226 FFF7FEFF 		bl	print_uint8_base10
 1100              	.LVL130:
 1101 022a 3D20     		movs	r0, #61
ARM GAS  /var/folders/m1/3lv6xmzs0mlckxs4mx90nfb40000gn/T//ccxdmtnn.s 			page 25


 1102 022c FFF7FEFF 		bl	serial_write
 1103              	.LVL131:
 1104              	.LBE529:
 1105              	.LBE530:
 101:grbl/report.c ****   report_util_line_feed(); // report_util_setting_string(n);
 1106              		.loc 1 101 0
 1107 0230 0321     		movs	r1, #3
 1108 0232 2846     		mov	r0, r5
 1109 0234 FFF7FEFF 		bl	printFloat
 1110              	.LVL132:
 1111              	.LBB531:
 1112              	.LBB532:
  34:grbl/report.c **** static void report_util_feedback_line_feed() { serial_write(']'); report_util_line_feed(); }
 1113              		.loc 1 34 0
 1114 0238 4B48     		ldr	r0, .L52+4
 1115 023a FFF7FEFF 		bl	printString
 1116              	.LVL133:
 1117              	.LBE532:
 1118              	.LBE531:
 1119              	.LBE533:
 1120              	.LBE534:
 1121              	.LBB535:
 1122              	.LBB536:
 1123              	.LBB537:
 1124              	.LBB538:
  33:grbl/report.c **** static void report_util_line_feed() { printPgmString(PSTR("\r\n")); }
 1125              		.loc 1 33 0
 1126 023e 2420     		movs	r0, #36
 1127              	.LBE538:
 1128              	.LBE537:
 1129              	.LBE536:
 1130              	.LBE535:
 202:grbl/report.c ****   report_util_float_setting(25,settings.homing_seek_rate,N_DECIMAL_SETTINGVALUE);
 1131              		.loc 1 202 0
 1132 0240 256D     		ldr	r5, [r4, #80]	@ float
 1133              	.LVL134:
 1134              	.LBB544:
 1135              	.LBB543:
 1136              	.LBB540:
 1137              	.LBB539:
  33:grbl/report.c **** static void report_util_line_feed() { printPgmString(PSTR("\r\n")); }
 1138              		.loc 1 33 0
 1139 0242 FFF7FEFF 		bl	serial_write
 1140              	.LVL135:
 1141 0246 1920     		movs	r0, #25
 1142 0248 FFF7FEFF 		bl	print_uint8_base10
 1143              	.LVL136:
 1144 024c 3D20     		movs	r0, #61
 1145 024e FFF7FEFF 		bl	serial_write
 1146              	.LVL137:
 1147              	.LBE539:
 1148              	.LBE540:
 101:grbl/report.c ****   report_util_line_feed(); // report_util_setting_string(n);
 1149              		.loc 1 101 0
 1150 0252 0321     		movs	r1, #3
 1151 0254 2846     		mov	r0, r5
 1152 0256 FFF7FEFF 		bl	printFloat
ARM GAS  /var/folders/m1/3lv6xmzs0mlckxs4mx90nfb40000gn/T//ccxdmtnn.s 			page 26


 1153              	.LVL138:
 1154              	.LBB541:
 1155              	.LBB542:
  34:grbl/report.c **** static void report_util_feedback_line_feed() { serial_write(']'); report_util_line_feed(); }
 1156              		.loc 1 34 0
 1157 025a 4348     		ldr	r0, .L52+4
 1158 025c FFF7FEFF 		bl	printString
 1159              	.LVL139:
 1160              	.LBE542:
 1161              	.LBE541:
 1162              	.LBE543:
 1163              	.LBE544:
 1164              	.LBB545:
 1165              	.LBB546:
 1166              	.LBB547:
 1167              	.LBB548:
  33:grbl/report.c **** static void report_util_line_feed() { printPgmString(PSTR("\r\n")); }
 1168              		.loc 1 33 0
 1169 0260 2420     		movs	r0, #36
 1170              	.LBE548:
 1171              	.LBE547:
 1172              	.LBE546:
 1173              	.LBE545:
 203:grbl/report.c ****   report_util_uint8_setting(26,settings.homing_debounce_delay);
 1174              		.loc 1 203 0
 1175 0262 B4F85450 		ldrh	r5, [r4, #84]
 1176              	.LVL140:
 1177              	.LBB554:
 1178              	.LBB553:
 1179              	.LBB550:
 1180              	.LBB549:
  33:grbl/report.c **** static void report_util_line_feed() { printPgmString(PSTR("\r\n")); }
 1181              		.loc 1 33 0
 1182 0266 FFF7FEFF 		bl	serial_write
 1183              	.LVL141:
 1184 026a 1A20     		movs	r0, #26
 1185 026c FFF7FEFF 		bl	print_uint8_base10
 1186              	.LVL142:
 1187 0270 3D20     		movs	r0, #61
 1188 0272 FFF7FEFF 		bl	serial_write
 1189              	.LVL143:
 1190              	.LBE549:
 1191              	.LBE550:
  96:grbl/report.c ****   report_util_line_feed(); // report_util_setting_string(n); 
 1192              		.loc 1 96 0
 1193 0276 E8B2     		uxtb	r0, r5
 1194 0278 FFF7FEFF 		bl	print_uint8_base10
 1195              	.LVL144:
 1196              	.LBB551:
 1197              	.LBB552:
  34:grbl/report.c **** static void report_util_feedback_line_feed() { serial_write(']'); report_util_line_feed(); }
 1198              		.loc 1 34 0
 1199 027c 3A48     		ldr	r0, .L52+4
 1200 027e FFF7FEFF 		bl	printString
 1201              	.LVL145:
 1202              	.LBE552:
 1203              	.LBE551:
ARM GAS  /var/folders/m1/3lv6xmzs0mlckxs4mx90nfb40000gn/T//ccxdmtnn.s 			page 27


 1204              	.LBE553:
 1205              	.LBE554:
 1206              	.LBB555:
 1207              	.LBB556:
 1208              	.LBB557:
 1209              	.LBB558:
  33:grbl/report.c **** static void report_util_line_feed() { printPgmString(PSTR("\r\n")); }
 1210              		.loc 1 33 0
 1211 0282 2420     		movs	r0, #36
 1212              	.LBE558:
 1213              	.LBE557:
 1214              	.LBE556:
 1215              	.LBE555:
 204:grbl/report.c ****   report_util_float_setting(27,settings.homing_pulloff,N_DECIMAL_SETTINGVALUE);
 1216              		.loc 1 204 0
 1217 0284 A56D     		ldr	r5, [r4, #88]	@ float
 1218              	.LVL146:
 1219              	.LBB564:
 1220              	.LBB563:
 1221              	.LBB560:
 1222              	.LBB559:
  33:grbl/report.c **** static void report_util_line_feed() { printPgmString(PSTR("\r\n")); }
 1223              		.loc 1 33 0
 1224 0286 FFF7FEFF 		bl	serial_write
 1225              	.LVL147:
 1226 028a 1B20     		movs	r0, #27
 1227 028c FFF7FEFF 		bl	print_uint8_base10
 1228              	.LVL148:
 1229 0290 3D20     		movs	r0, #61
 1230 0292 FFF7FEFF 		bl	serial_write
 1231              	.LVL149:
 1232              	.LBE559:
 1233              	.LBE560:
 101:grbl/report.c ****   report_util_line_feed(); // report_util_setting_string(n);
 1234              		.loc 1 101 0
 1235 0296 0321     		movs	r1, #3
 1236 0298 2846     		mov	r0, r5
 1237 029a FFF7FEFF 		bl	printFloat
 1238              	.LVL150:
 1239              	.LBB561:
 1240              	.LBB562:
  34:grbl/report.c **** static void report_util_feedback_line_feed() { serial_write(']'); report_util_line_feed(); }
 1241              		.loc 1 34 0
 1242 029e 3248     		ldr	r0, .L52+4
 1243 02a0 FFF7FEFF 		bl	printString
 1244              	.LVL151:
 1245              	.LBE562:
 1246              	.LBE561:
 1247              	.LBE563:
 1248              	.LBE564:
 1249              	.LBB565:
 1250              	.LBB566:
 1251              	.LBB567:
 1252              	.LBB568:
  33:grbl/report.c **** static void report_util_line_feed() { printPgmString(PSTR("\r\n")); }
 1253              		.loc 1 33 0
 1254 02a4 2420     		movs	r0, #36
ARM GAS  /var/folders/m1/3lv6xmzs0mlckxs4mx90nfb40000gn/T//ccxdmtnn.s 			page 28


 1255              	.LBE568:
 1256              	.LBE567:
 1257              	.LBE566:
 1258              	.LBE565:
 205:grbl/report.c ****   report_util_float_setting(30,settings.rpm_max,N_DECIMAL_RPMVALUE);
 1259              		.loc 1 205 0
 1260 02a6 256C     		ldr	r5, [r4, #64]	@ float
 1261              	.LVL152:
 1262              	.LBB574:
 1263              	.LBB573:
 1264              	.LBB570:
 1265              	.LBB569:
  33:grbl/report.c **** static void report_util_line_feed() { printPgmString(PSTR("\r\n")); }
 1266              		.loc 1 33 0
 1267 02a8 FFF7FEFF 		bl	serial_write
 1268              	.LVL153:
 1269 02ac 1E20     		movs	r0, #30
 1270 02ae FFF7FEFF 		bl	print_uint8_base10
 1271              	.LVL154:
 1272 02b2 3D20     		movs	r0, #61
 1273 02b4 FFF7FEFF 		bl	serial_write
 1274              	.LVL155:
 1275              	.LBE569:
 1276              	.LBE570:
 101:grbl/report.c ****   report_util_line_feed(); // report_util_setting_string(n);
 1277              		.loc 1 101 0
 1278 02b8 0021     		movs	r1, #0
 1279 02ba 2846     		mov	r0, r5
 1280 02bc FFF7FEFF 		bl	printFloat
 1281              	.LVL156:
 1282              	.LBB571:
 1283              	.LBB572:
  34:grbl/report.c **** static void report_util_feedback_line_feed() { serial_write(']'); report_util_line_feed(); }
 1284              		.loc 1 34 0
 1285 02c0 2948     		ldr	r0, .L52+4
 1286 02c2 FFF7FEFF 		bl	printString
 1287              	.LVL157:
 1288              	.LBE572:
 1289              	.LBE571:
 1290              	.LBE573:
 1291              	.LBE574:
 1292              	.LBB575:
 1293              	.LBB576:
 1294              	.LBB577:
 1295              	.LBB578:
  33:grbl/report.c **** static void report_util_line_feed() { printPgmString(PSTR("\r\n")); }
 1296              		.loc 1 33 0
 1297 02c6 2420     		movs	r0, #36
 1298              	.LBE578:
 1299              	.LBE577:
 1300              	.LBE576:
 1301              	.LBE575:
 206:grbl/report.c ****   report_util_float_setting(31,settings.rpm_min,N_DECIMAL_RPMVALUE);
 1302              		.loc 1 206 0
 1303 02c8 656C     		ldr	r5, [r4, #68]	@ float
 1304              	.LVL158:
 1305              	.LBB584:
ARM GAS  /var/folders/m1/3lv6xmzs0mlckxs4mx90nfb40000gn/T//ccxdmtnn.s 			page 29


 1306              	.LBB583:
 1307              	.LBB580:
 1308              	.LBB579:
  33:grbl/report.c **** static void report_util_line_feed() { printPgmString(PSTR("\r\n")); }
 1309              		.loc 1 33 0
 1310 02ca FFF7FEFF 		bl	serial_write
 1311              	.LVL159:
 1312 02ce 1F20     		movs	r0, #31
 1313 02d0 FFF7FEFF 		bl	print_uint8_base10
 1314              	.LVL160:
 1315 02d4 3D20     		movs	r0, #61
 1316 02d6 FFF7FEFF 		bl	serial_write
 1317              	.LVL161:
 1318              	.LBE579:
 1319              	.LBE580:
 101:grbl/report.c ****   report_util_line_feed(); // report_util_setting_string(n);
 1320              		.loc 1 101 0
 1321 02da 0021     		movs	r1, #0
 1322 02dc 2846     		mov	r0, r5
 1323 02de FFF7FEFF 		bl	printFloat
 1324              	.LVL162:
 1325              	.LBB581:
 1326              	.LBB582:
  34:grbl/report.c **** static void report_util_feedback_line_feed() { serial_write(']'); report_util_line_feed(); }
 1327              		.loc 1 34 0
 1328 02e2 2148     		ldr	r0, .L52+4
 1329 02e4 FFF7FEFF 		bl	printString
 1330              	.LVL163:
 1331              	.LBE582:
 1332              	.LBE581:
 1333              	.LBE583:
 1334              	.LBE584:
 207:grbl/report.c ****   #ifdef VARIABLE_SPINDLE
 208:grbl/report.c ****     report_util_uint8_setting(32,bit_istrue(settings.flags,BITFLAG_LASER_MODE));
 1335              		.loc 1 208 0
 1336 02e8 94F84850 		ldrb	r5, [r4, #72]	@ zero_extendqisi2
 1337              	.LBB585:
 1338              	.LBB586:
 1339              	.LBB587:
 1340              	.LBB588:
  33:grbl/report.c **** static void report_util_line_feed() { printPgmString(PSTR("\r\n")); }
 1341              		.loc 1 33 0
 1342 02ec 2420     		movs	r0, #36
 1343 02ee FFF7FEFF 		bl	serial_write
 1344              	.LVL164:
 1345 02f2 2020     		movs	r0, #32
 1346 02f4 FFF7FEFF 		bl	print_uint8_base10
 1347              	.LVL165:
 1348              	.LBE588:
 1349              	.LBE587:
 1350              	.LBE586:
 1351              	.LBE585:
 1352              		.loc 1 208 0
 1353 02f8 C5F34005 		ubfx	r5, r5, #1, #1
 1354              	.LVL166:
 1355              	.LBB594:
 1356              	.LBB593:
ARM GAS  /var/folders/m1/3lv6xmzs0mlckxs4mx90nfb40000gn/T//ccxdmtnn.s 			page 30


 1357              	.LBB590:
 1358              	.LBB589:
  33:grbl/report.c **** static void report_util_line_feed() { printPgmString(PSTR("\r\n")); }
 1359              		.loc 1 33 0
 1360 02fc 3D20     		movs	r0, #61
 1361 02fe FFF7FEFF 		bl	serial_write
 1362              	.LVL167:
 1363              	.LBE589:
 1364              	.LBE590:
  96:grbl/report.c ****   report_util_line_feed(); // report_util_setting_string(n); 
 1365              		.loc 1 96 0
 1366 0302 2846     		mov	r0, r5
 1367 0304 FFF7FEFF 		bl	print_uint8_base10
 1368              	.LVL168:
 1369              	.LBB591:
 1370              	.LBB592:
  34:grbl/report.c **** static void report_util_feedback_line_feed() { serial_write(']'); report_util_line_feed(); }
 1371              		.loc 1 34 0
 1372 0308 1748     		ldr	r0, .L52+4
 1373 030a FFF7FEFF 		bl	printString
 1374              	.LVL169:
 1375              	.LBE592:
 1376              	.LBE591:
 1377              	.LBE593:
 1378              	.LBE594:
 1379              	.LBB595:
 1380              	.LBB596:
 1381              	.LBB597:
 1382              	.LBB598:
  33:grbl/report.c **** static void report_util_line_feed() { printPgmString(PSTR("\r\n")); }
 1383              		.loc 1 33 0
 1384 030e 2420     		movs	r0, #36
 1385              	.LBE598:
 1386              	.LBE597:
 1387              	.LBE596:
 1388              	.LBE595:
 209:grbl/report.c ****   #else
 210:grbl/report.c ****     report_util_uint8_setting(32,0);
 211:grbl/report.c ****   #endif
 212:grbl/report.c **** 
 213:grbl/report.c ****   #ifdef ENABLE_ANALOG_OUTPUT
 214:grbl/report.c ****     report_util_float_setting(40,settings.analog_max,N_DECIMAL_SETTINGVALUE);
 1389              		.loc 1 214 0
 1390 0310 E56D     		ldr	r5, [r4, #92]	@ float
 1391              	.LVL170:
 1392              	.LBB604:
 1393              	.LBB603:
 1394              	.LBB600:
 1395              	.LBB599:
  33:grbl/report.c **** static void report_util_line_feed() { printPgmString(PSTR("\r\n")); }
 1396              		.loc 1 33 0
 1397 0312 FFF7FEFF 		bl	serial_write
 1398              	.LVL171:
 1399 0316 2820     		movs	r0, #40
 1400 0318 FFF7FEFF 		bl	print_uint8_base10
 1401              	.LVL172:
 1402 031c 3D20     		movs	r0, #61
ARM GAS  /var/folders/m1/3lv6xmzs0mlckxs4mx90nfb40000gn/T//ccxdmtnn.s 			page 31


 1403 031e FFF7FEFF 		bl	serial_write
 1404              	.LVL173:
 1405              	.LBE599:
 1406              	.LBE600:
 101:grbl/report.c ****   report_util_line_feed(); // report_util_setting_string(n);
 1407              		.loc 1 101 0
 1408 0322 0321     		movs	r1, #3
 1409 0324 2846     		mov	r0, r5
 1410 0326 FFF7FEFF 		bl	printFloat
 1411              	.LVL174:
 1412              	.LBB601:
 1413              	.LBB602:
  34:grbl/report.c **** static void report_util_feedback_line_feed() { serial_write(']'); report_util_line_feed(); }
 1414              		.loc 1 34 0
 1415 032a 0F48     		ldr	r0, .L52+4
 1416 032c FFF7FEFF 		bl	printString
 1417              	.LVL175:
 1418              	.LBE602:
 1419              	.LBE601:
 1420              	.LBE603:
 1421              	.LBE604:
 1422              	.LBB605:
 1423              	.LBB606:
 1424              	.LBB607:
 1425              	.LBB608:
  33:grbl/report.c **** static void report_util_line_feed() { printPgmString(PSTR("\r\n")); }
 1426              		.loc 1 33 0
 1427 0330 2420     		movs	r0, #36
 1428              	.LBE608:
 1429              	.LBE607:
 1430              	.LBE606:
 1431              	.LBE605:
 215:grbl/report.c ****   #endif
 216:grbl/report.c **** 
 217:grbl/report.c ****   #ifdef VARIABLE_SPINDLE_ENABLE_PIN
 218:grbl/report.c ****     report_util_uint8_setting(50,settings.spindle_enable_pin_mode);
 1432              		.loc 1 218 0
 1433 0332 94F86050 		ldrb	r5, [r4, #96]	@ zero_extendqisi2
 1434              	.LVL176:
 1435              	.LBB614:
 1436              	.LBB613:
 1437              	.LBB610:
 1438              	.LBB609:
  33:grbl/report.c **** static void report_util_line_feed() { printPgmString(PSTR("\r\n")); }
 1439              		.loc 1 33 0
 1440 0336 FFF7FEFF 		bl	serial_write
 1441              	.LVL177:
 1442 033a 3220     		movs	r0, #50
 1443 033c FFF7FEFF 		bl	print_uint8_base10
 1444              	.LVL178:
 1445 0340 3D20     		movs	r0, #61
 1446 0342 FFF7FEFF 		bl	serial_write
 1447              	.LVL179:
 1448              	.LBE609:
 1449              	.LBE610:
  96:grbl/report.c ****   report_util_line_feed(); // report_util_setting_string(n); 
 1450              		.loc 1 96 0
ARM GAS  /var/folders/m1/3lv6xmzs0mlckxs4mx90nfb40000gn/T//ccxdmtnn.s 			page 32


 1451 0346 2846     		mov	r0, r5
 1452 0348 FFF7FEFF 		bl	print_uint8_base10
 1453              	.LVL180:
 1454              	.LBB611:
 1455              	.LBB612:
  34:grbl/report.c **** static void report_util_feedback_line_feed() { serial_write(']'); report_util_line_feed(); }
 1456              		.loc 1 34 0
 1457 034c 0648     		ldr	r0, .L52+4
 1458 034e FFF7FEFF 		bl	printString
 1459              	.LVL181:
 1460 0352 4FF0000B 		mov	fp, #0
 1461              	.LBE612:
 1462              	.LBE611:
 1463              	.LBE613:
 1464              	.LBE614:
 219:grbl/report.c ****   #endif
 220:grbl/report.c **** 
 221:grbl/report.c **** 
 222:grbl/report.c **** 
 223:grbl/report.c **** 
 224:grbl/report.c ****   // Print axis settings
 225:grbl/report.c ****   uint8_t idx, set_idx;
 226:grbl/report.c ****   uint8_t val = AXIS_SETTINGS_START_VAL;
 1465              		.loc 1 226 0
 1466 0356 6425     		movs	r5, #100
 227:grbl/report.c ****   for (set_idx=0; set_idx<AXIS_N_SETTINGS; set_idx++) {
 228:grbl/report.c ****     for (idx=0; idx<N_AXIS; idx++) {
 229:grbl/report.c ****       switch (set_idx) {
 230:grbl/report.c ****         case 0: report_util_float_setting(val+idx,settings.steps_per_mm[idx],N_DECIMAL_SETTINGVALUE
 231:grbl/report.c ****         case 1: report_util_float_setting(val+idx,settings.max_rate[idx],N_DECIMAL_SETTINGVALUE); b
 232:grbl/report.c ****         case 2: report_util_float_setting(val+idx,settings.eeacceleration[idx]/(60*60),N_DECIMAL_SE
 1467              		.loc 1 232 0
 1468 0358 DFF81090 		ldr	r9, .L52+8
 1469              	.LBB615:
 1470              	.LBB616:
 1471              	.LBB617:
 1472              	.LBB618:
  34:grbl/report.c **** static void report_util_feedback_line_feed() { serial_write(']'); report_util_line_feed(); }
 1473              		.loc 1 34 0
 1474 035c DFF80880 		ldr	r8, .L52+4
 1475 0360 06E0     		b	.L53
 1476              	.L54:
 1477 0362 00BF     		.align	2
 1478              	.L52:
 1479 0364 00000000 		.word	settings
 1480 0368 10000000 		.word	.LC2
 1481 036c 00006145 		.word	1163984896
 1482              	.L53:
 1483              	.LVL182:
 1484              	.L46:
 1485              	.LBE618:
 1486              	.LBE617:
 1487              	.LBE616:
 1488              	.LBE615:
 229:grbl/report.c ****         case 0: report_util_float_setting(val+idx,settings.steps_per_mm[idx],N_DECIMAL_SETTINGVALUE
 1489              		.loc 1 229 0
 1490 0370 5FFA8BFA 		uxtb	r10, fp
ARM GAS  /var/folders/m1/3lv6xmzs0mlckxs4mx90nfb40000gn/T//ccxdmtnn.s 			page 33


 1491 0374 6F1C     		adds	r7, r5, #1
 1492 0376 AE1C     		adds	r6, r5, #2
 1493 0378 BAF1020F 		cmp	r10, #2
 1494 037c FFB2     		uxtb	r7, r7
 1495 037e F6B2     		uxtb	r6, r6
 1496 0380 7FD0     		beq	.L42
 1497 0382 BAF1030F 		cmp	r10, #3
 1498 0386 41D0     		beq	.L43
 1499 0388 BAF1010F 		cmp	r10, #1
 1500 038c 00F0AA80 		beq	.L51
 1501              	.LBB632:
 1502              	.LBB633:
 1503              	.LBB634:
 1504              	.LBB635:
  33:grbl/report.c **** static void report_util_line_feed() { printPgmString(PSTR("\r\n")); }
 1505              		.loc 1 33 0
 1506 0390 2420     		movs	r0, #36
 1507              	.LBE635:
 1508              	.LBE634:
 1509              	.LBE633:
 1510              	.LBE632:
 230:grbl/report.c ****         case 1: report_util_float_setting(val+idx,settings.max_rate[idx],N_DECIMAL_SETTINGVALUE); b
 1511              		.loc 1 230 0
 1512 0392 D4F800A0 		ldr	r10, [r4]	@ float
 1513              	.LVL183:
 1514              	.LBB655:
 1515              	.LBB652:
 1516              	.LBB641:
 1517              	.LBB636:
  33:grbl/report.c **** static void report_util_line_feed() { printPgmString(PSTR("\r\n")); }
 1518              		.loc 1 33 0
 1519 0396 FFF7FEFF 		bl	serial_write
 1520              	.LVL184:
 1521 039a 2846     		mov	r0, r5
 1522 039c FFF7FEFF 		bl	print_uint8_base10
 1523              	.LVL185:
 1524 03a0 3D20     		movs	r0, #61
 1525 03a2 FFF7FEFF 		bl	serial_write
 1526              	.LVL186:
 1527              	.LBE636:
 1528              	.LBE641:
 101:grbl/report.c ****   report_util_line_feed(); // report_util_setting_string(n);
 1529              		.loc 1 101 0
 1530 03a6 0321     		movs	r1, #3
 1531 03a8 5046     		mov	r0, r10
 1532 03aa FFF7FEFF 		bl	printFloat
 1533              	.LVL187:
 1534              	.LBB642:
 1535              	.LBB643:
  34:grbl/report.c **** static void report_util_feedback_line_feed() { serial_write(']'); report_util_line_feed(); }
 1536              		.loc 1 34 0
 1537 03ae 4046     		mov	r0, r8
 1538 03b0 FFF7FEFF 		bl	printString
 1539              	.LVL188:
 1540              	.LBE643:
 1541              	.LBE642:
 1542              	.LBB646:
ARM GAS  /var/folders/m1/3lv6xmzs0mlckxs4mx90nfb40000gn/T//ccxdmtnn.s 			page 34


 1543              	.LBB637:
  33:grbl/report.c **** static void report_util_line_feed() { printPgmString(PSTR("\r\n")); }
 1544              		.loc 1 33 0
 1545 03b4 2420     		movs	r0, #36
 1546              	.LBE637:
 1547              	.LBE646:
 1548              	.LBE652:
 1549              	.LBE655:
 230:grbl/report.c ****         case 1: report_util_float_setting(val+idx,settings.max_rate[idx],N_DECIMAL_SETTINGVALUE); b
 1550              		.loc 1 230 0
 1551 03b6 D4F804A0 		ldr	r10, [r4, #4]	@ float
 1552              	.LVL189:
 1553              	.LBB656:
 1554              	.LBB653:
 1555              	.LBB647:
 1556              	.LBB638:
  33:grbl/report.c **** static void report_util_line_feed() { printPgmString(PSTR("\r\n")); }
 1557              		.loc 1 33 0
 1558 03ba FFF7FEFF 		bl	serial_write
 1559              	.LVL190:
 1560 03be 3846     		mov	r0, r7
 1561 03c0 FFF7FEFF 		bl	print_uint8_base10
 1562              	.LVL191:
 1563 03c4 3D20     		movs	r0, #61
 1564 03c6 FFF7FEFF 		bl	serial_write
 1565              	.LVL192:
 1566              	.LBE638:
 1567              	.LBE647:
 101:grbl/report.c ****   report_util_line_feed(); // report_util_setting_string(n);
 1568              		.loc 1 101 0
 1569 03ca 5046     		mov	r0, r10
 1570 03cc 0321     		movs	r1, #3
 1571 03ce FFF7FEFF 		bl	printFloat
 1572              	.LVL193:
 1573              	.LBB648:
 1574              	.LBB644:
  34:grbl/report.c **** static void report_util_feedback_line_feed() { serial_write(']'); report_util_line_feed(); }
 1575              		.loc 1 34 0
 1576 03d2 4046     		mov	r0, r8
 1577 03d4 FFF7FEFF 		bl	printString
 1578              	.LVL194:
 1579              	.LBE644:
 1580              	.LBE648:
 1581              	.LBB649:
 1582              	.LBB639:
  33:grbl/report.c **** static void report_util_line_feed() { printPgmString(PSTR("\r\n")); }
 1583              		.loc 1 33 0
 1584 03d8 2420     		movs	r0, #36
 1585              	.LBE639:
 1586              	.LBE649:
 1587              	.LBE653:
 1588              	.LBE656:
 230:grbl/report.c ****         case 1: report_util_float_setting(val+idx,settings.max_rate[idx],N_DECIMAL_SETTINGVALUE); b
 1589              		.loc 1 230 0
 1590 03da A768     		ldr	r7, [r4, #8]	@ float
 1591              	.LVL195:
 1592              	.L50:
ARM GAS  /var/folders/m1/3lv6xmzs0mlckxs4mx90nfb40000gn/T//ccxdmtnn.s 			page 35


 1593              	.LBB657:
 1594              	.LBB654:
 1595              	.LBB650:
 1596              	.LBB640:
  33:grbl/report.c **** static void report_util_line_feed() { printPgmString(PSTR("\r\n")); }
 1597              		.loc 1 33 0
 1598 03dc FFF7FEFF 		bl	serial_write
 1599              	.LVL196:
 1600 03e0 3046     		mov	r0, r6
 1601 03e2 FFF7FEFF 		bl	print_uint8_base10
 1602              	.LVL197:
 1603 03e6 3D20     		movs	r0, #61
 1604 03e8 FFF7FEFF 		bl	serial_write
 1605              	.LVL198:
 1606              	.LBE640:
 1607              	.LBE650:
 101:grbl/report.c ****   report_util_line_feed(); // report_util_setting_string(n);
 1608              		.loc 1 101 0
 1609 03ec 3846     		mov	r0, r7
 1610 03ee 0321     		movs	r1, #3
 1611 03f0 FFF7FEFF 		bl	printFloat
 1612              	.LVL199:
 1613 03f4 0BF1010B 		add	fp, fp, #1
 1614              	.LBB651:
 1615              	.LBB645:
  34:grbl/report.c **** static void report_util_feedback_line_feed() { serial_write(']'); report_util_line_feed(); }
 1616              		.loc 1 34 0
 1617 03f8 4046     		mov	r0, r8
 1618 03fa FFF7FEFF 		bl	printString
 1619              	.LVL200:
 1620              	.LBE645:
 1621              	.LBE651:
 1622              	.LBE654:
 1623              	.LBE657:
 233:grbl/report.c ****         case 3: report_util_float_setting(val+idx,-settings.max_travel[idx],N_DECIMAL_SETTINGVALUE)
 234:grbl/report.c ****       }
 235:grbl/report.c ****     }
 236:grbl/report.c ****     val += AXIS_SETTINGS_INCREMENT;
 1624              		.loc 1 236 0
 1625 03fe 0A35     		adds	r5, r5, #10
 1626              	.LVL201:
 227:grbl/report.c ****     for (idx=0; idx<N_AXIS; idx++) {
 1627              		.loc 1 227 0
 1628 0400 BBF1040F 		cmp	fp, #4
 1629              		.loc 1 236 0
 1630 0404 EDB2     		uxtb	r5, r5
 227:grbl/report.c ****     for (idx=0; idx<N_AXIS; idx++) {
 1631              		.loc 1 227 0
 1632 0406 B3D1     		bne	.L46
 237:grbl/report.c ****   }
 238:grbl/report.c **** }
 1633              		.loc 1 238 0
 1634 0408 BDE8F88F 		pop	{r3, r4, r5, r6, r7, r8, r9, r10, fp, pc}
 1635              	.LVL202:
 1636              	.L43:
 233:grbl/report.c ****       }
 1637              		.loc 1 233 0
ARM GAS  /var/folders/m1/3lv6xmzs0mlckxs4mx90nfb40000gn/T//ccxdmtnn.s 			page 36


 1638 040c 636A     		ldr	r3, [r4, #36]
 1639              	.LBB658:
 1640              	.LBB659:
 1641              	.LBB660:
 1642              	.LBB661:
  33:grbl/report.c **** static void report_util_line_feed() { printPgmString(PSTR("\r\n")); }
 1643              		.loc 1 33 0
 1644 040e 2420     		movs	r0, #36
 1645              	.LBE661:
 1646              	.LBE660:
 1647              	.LBE659:
 1648              	.LBE658:
 233:grbl/report.c ****       }
 1649              		.loc 1 233 0
 1650 0410 03F10048 		add	r8, r3, #-2147483648
 1651              	.LVL203:
 1652              	.LBB684:
 1653              	.LBB678:
 1654              	.LBB667:
 1655              	.LBB662:
  33:grbl/report.c **** static void report_util_line_feed() { printPgmString(PSTR("\r\n")); }
 1656              		.loc 1 33 0
 1657 0414 FFF7FEFF 		bl	serial_write
 1658              	.LVL204:
 1659 0418 2846     		mov	r0, r5
 1660 041a FFF7FEFF 		bl	print_uint8_base10
 1661              	.LVL205:
 1662 041e 3D20     		movs	r0, #61
 1663 0420 FFF7FEFF 		bl	serial_write
 1664              	.LVL206:
 1665              	.LBE662:
 1666              	.LBE667:
 101:grbl/report.c ****   report_util_line_feed(); // report_util_setting_string(n);
 1667              		.loc 1 101 0
 1668 0424 5146     		mov	r1, r10
 1669 0426 4046     		mov	r0, r8
 1670 0428 FFF7FEFF 		bl	printFloat
 1671              	.LVL207:
 1672              	.LBB668:
 1673              	.LBB669:
  34:grbl/report.c **** static void report_util_feedback_line_feed() { serial_write(']'); report_util_line_feed(); }
 1674              		.loc 1 34 0
 1675 042c 4148     		ldr	r0, .L55
 1676 042e FFF7FEFF 		bl	printString
 1677              	.LVL208:
 1678              	.LBE669:
 1679              	.LBE668:
 1680              	.LBE678:
 1681              	.LBE684:
 233:grbl/report.c ****       }
 1682              		.loc 1 233 0
 1683 0432 A36A     		ldr	r3, [r4, #40]
 1684              	.LBB685:
 1685              	.LBB679:
 1686              	.LBB672:
 1687              	.LBB663:
  33:grbl/report.c **** static void report_util_line_feed() { printPgmString(PSTR("\r\n")); }
ARM GAS  /var/folders/m1/3lv6xmzs0mlckxs4mx90nfb40000gn/T//ccxdmtnn.s 			page 37


 1688              		.loc 1 33 0
 1689 0434 2420     		movs	r0, #36
 1690              	.LBE663:
 1691              	.LBE672:
 1692              	.LBE679:
 1693              	.LBE685:
 233:grbl/report.c ****       }
 1694              		.loc 1 233 0
 1695 0436 03F10045 		add	r5, r3, #-2147483648
 1696              	.LVL209:
 1697              	.LBB686:
 1698              	.LBB680:
 1699              	.LBB673:
 1700              	.LBB664:
  33:grbl/report.c **** static void report_util_line_feed() { printPgmString(PSTR("\r\n")); }
 1701              		.loc 1 33 0
 1702 043a FFF7FEFF 		bl	serial_write
 1703              	.LVL210:
 1704 043e 3846     		mov	r0, r7
 1705 0440 FFF7FEFF 		bl	print_uint8_base10
 1706              	.LVL211:
 1707 0444 3D20     		movs	r0, #61
 1708 0446 FFF7FEFF 		bl	serial_write
 1709              	.LVL212:
 1710              	.LBE664:
 1711              	.LBE673:
 101:grbl/report.c ****   report_util_line_feed(); // report_util_setting_string(n);
 1712              		.loc 1 101 0
 1713 044a 5146     		mov	r1, r10
 1714 044c 2846     		mov	r0, r5
 1715 044e FFF7FEFF 		bl	printFloat
 1716              	.LVL213:
 1717              	.LBB674:
 1718              	.LBB670:
  34:grbl/report.c **** static void report_util_feedback_line_feed() { serial_write(']'); report_util_line_feed(); }
 1719              		.loc 1 34 0
 1720 0452 3848     		ldr	r0, .L55
 1721 0454 FFF7FEFF 		bl	printString
 1722              	.LVL214:
 1723              	.LBE670:
 1724              	.LBE674:
 1725              	.LBE680:
 1726              	.LBE686:
 233:grbl/report.c ****       }
 1727              		.loc 1 233 0
 1728 0458 E46A     		ldr	r4, [r4, #44]
 1729              	.LBB687:
 1730              	.LBB681:
 1731              	.LBB675:
 1732              	.LBB665:
  33:grbl/report.c **** static void report_util_line_feed() { printPgmString(PSTR("\r\n")); }
 1733              		.loc 1 33 0
 1734 045a 2420     		movs	r0, #36
 1735 045c FFF7FEFF 		bl	serial_write
 1736              	.LVL215:
 1737 0460 3046     		mov	r0, r6
 1738 0462 FFF7FEFF 		bl	print_uint8_base10
ARM GAS  /var/folders/m1/3lv6xmzs0mlckxs4mx90nfb40000gn/T//ccxdmtnn.s 			page 38


 1739              	.LVL216:
 1740              	.LBE665:
 1741              	.LBE675:
 1742              	.LBE681:
 1743              	.LBE687:
 233:grbl/report.c ****       }
 1744              		.loc 1 233 0
 1745 0466 04F10044 		add	r4, r4, #-2147483648
 1746              	.LVL217:
 1747              	.LBB688:
 1748              	.LBB682:
 1749              	.LBB676:
 1750              	.LBB666:
  33:grbl/report.c **** static void report_util_line_feed() { printPgmString(PSTR("\r\n")); }
 1751              		.loc 1 33 0
 1752 046a 3D20     		movs	r0, #61
 1753 046c FFF7FEFF 		bl	serial_write
 1754              	.LVL218:
 1755              	.LBE666:
 1756              	.LBE676:
 101:grbl/report.c ****   report_util_line_feed(); // report_util_setting_string(n);
 1757              		.loc 1 101 0
 1758 0470 2046     		mov	r0, r4
 1759 0472 5146     		mov	r1, r10
 1760 0474 FFF7FEFF 		bl	printFloat
 1761              	.LVL219:
 1762              	.LBE682:
 1763              	.LBE688:
 1764              		.loc 1 238 0
 1765 0478 BDE8F84F 		pop	{r3, r4, r5, r6, r7, r8, r9, r10, fp, lr}
 1766              	.LCFI10:
 1767              		.cfi_remember_state
 1768              		.cfi_restore 14
 1769              		.cfi_restore 11
 1770              		.cfi_restore 10
 1771              		.cfi_restore 9
 1772              		.cfi_restore 8
 1773              		.cfi_restore 7
 1774              		.cfi_restore 6
 1775              		.cfi_restore 5
 1776              		.cfi_restore 4
 1777              		.cfi_restore 3
 1778              		.cfi_def_cfa_offset 0
 1779              	.LVL220:
 1780              	.LBB689:
 1781              	.LBB683:
 1782              	.LBB677:
 1783              	.LBB671:
  34:grbl/report.c **** static void report_util_feedback_line_feed() { serial_write(']'); report_util_line_feed(); }
 1784              		.loc 1 34 0
 1785 047c 2D48     		ldr	r0, .L55
 1786 047e FFF7FEBF 		b	printString
 1787              	.LVL221:
 1788              	.L42:
 1789              	.LCFI11:
 1790              		.cfi_restore_state
 1791              	.LBE671:
ARM GAS  /var/folders/m1/3lv6xmzs0mlckxs4mx90nfb40000gn/T//ccxdmtnn.s 			page 39


 1792              	.LBE677:
 1793              	.LBE683:
 1794              	.LBE689:
 232:grbl/report.c ****         case 3: report_util_float_setting(val+idx,-settings.max_travel[idx],N_DECIMAL_SETTINGVALUE)
 1795              		.loc 1 232 0
 1796 0482 4946     		mov	r1, r9
 1797 0484 A069     		ldr	r0, [r4, #24]	@ float
 1798 0486 FFF7FEFF 		bl	__aeabi_fdiv
 1799              	.LVL222:
 1800 048a 8246     		mov	r10, r0
 1801              	.LVL223:
 1802              	.LBB690:
 1803              	.LBB629:
 1804              	.LBB621:
 1805              	.LBB622:
  33:grbl/report.c **** static void report_util_line_feed() { printPgmString(PSTR("\r\n")); }
 1806              		.loc 1 33 0
 1807 048c 2420     		movs	r0, #36
 1808              	.LVL224:
 1809 048e FFF7FEFF 		bl	serial_write
 1810              	.LVL225:
 1811 0492 2846     		mov	r0, r5
 1812 0494 FFF7FEFF 		bl	print_uint8_base10
 1813              	.LVL226:
 1814 0498 3D20     		movs	r0, #61
 1815 049a FFF7FEFF 		bl	serial_write
 1816              	.LVL227:
 1817              	.LBE622:
 1818              	.LBE621:
 101:grbl/report.c ****   report_util_line_feed(); // report_util_setting_string(n);
 1819              		.loc 1 101 0
 1820 049e 5046     		mov	r0, r10
 1821 04a0 0321     		movs	r1, #3
 1822 04a2 FFF7FEFF 		bl	printFloat
 1823              	.LVL228:
 1824              	.LBB625:
 1825              	.LBB619:
  34:grbl/report.c **** static void report_util_feedback_line_feed() { serial_write(']'); report_util_line_feed(); }
 1826              		.loc 1 34 0
 1827 04a6 4046     		mov	r0, r8
 1828 04a8 FFF7FEFF 		bl	printString
 1829              	.LVL229:
 1830              	.LBE619:
 1831              	.LBE625:
 1832              	.LBE629:
 1833              	.LBE690:
 232:grbl/report.c ****         case 3: report_util_float_setting(val+idx,-settings.max_travel[idx],N_DECIMAL_SETTINGVALUE)
 1834              		.loc 1 232 0
 1835 04ac 4946     		mov	r1, r9
 1836 04ae E069     		ldr	r0, [r4, #28]	@ float
 1837 04b0 FFF7FEFF 		bl	__aeabi_fdiv
 1838              	.LVL230:
 1839 04b4 8246     		mov	r10, r0
 1840              	.LVL231:
 1841              	.LBB691:
 1842              	.LBB630:
 1843              	.LBB626:
ARM GAS  /var/folders/m1/3lv6xmzs0mlckxs4mx90nfb40000gn/T//ccxdmtnn.s 			page 40


 1844              	.LBB623:
  33:grbl/report.c **** static void report_util_line_feed() { printPgmString(PSTR("\r\n")); }
 1845              		.loc 1 33 0
 1846 04b6 2420     		movs	r0, #36
 1847              	.LVL232:
 1848 04b8 FFF7FEFF 		bl	serial_write
 1849              	.LVL233:
 1850 04bc 3846     		mov	r0, r7
 1851 04be FFF7FEFF 		bl	print_uint8_base10
 1852              	.LVL234:
 1853 04c2 3D20     		movs	r0, #61
 1854 04c4 FFF7FEFF 		bl	serial_write
 1855              	.LVL235:
 1856              	.LBE623:
 1857              	.LBE626:
 101:grbl/report.c ****   report_util_line_feed(); // report_util_setting_string(n);
 1858              		.loc 1 101 0
 1859 04c8 0321     		movs	r1, #3
 1860 04ca 5046     		mov	r0, r10
 1861 04cc FFF7FEFF 		bl	printFloat
 1862              	.LVL236:
 1863              	.LBB627:
 1864              	.LBB620:
  34:grbl/report.c **** static void report_util_feedback_line_feed() { serial_write(']'); report_util_line_feed(); }
 1865              		.loc 1 34 0
 1866 04d0 4046     		mov	r0, r8
 1867 04d2 FFF7FEFF 		bl	printString
 1868              	.LVL237:
 1869              	.LBE620:
 1870              	.LBE627:
 1871              	.LBE630:
 1872              	.LBE691:
 232:grbl/report.c ****         case 3: report_util_float_setting(val+idx,-settings.max_travel[idx],N_DECIMAL_SETTINGVALUE)
 1873              		.loc 1 232 0
 1874 04d6 4946     		mov	r1, r9
 1875 04d8 206A     		ldr	r0, [r4, #32]	@ float
 1876 04da FFF7FEFF 		bl	__aeabi_fdiv
 1877              	.LVL238:
 1878 04de 0746     		mov	r7, r0
 1879              	.LVL239:
 1880              	.LBB692:
 1881              	.LBB631:
 1882              	.LBB628:
 1883              	.LBB624:
  33:grbl/report.c **** static void report_util_line_feed() { printPgmString(PSTR("\r\n")); }
 1884              		.loc 1 33 0
 1885 04e0 2420     		movs	r0, #36
 1886              	.LVL240:
 1887 04e2 7BE7     		b	.L50
 1888              	.LVL241:
 1889              	.L51:
 1890              	.LBE624:
 1891              	.LBE628:
 1892              	.LBE631:
 1893              	.LBE692:
 1894              	.LBB693:
 1895              	.LBB694:
ARM GAS  /var/folders/m1/3lv6xmzs0mlckxs4mx90nfb40000gn/T//ccxdmtnn.s 			page 41


 1896              	.LBB695:
 1897              	.LBB696:
 1898 04e4 2420     		movs	r0, #36
 1899              	.LBE696:
 1900              	.LBE695:
 1901              	.LBE694:
 1902              	.LBE693:
 231:grbl/report.c ****         case 2: report_util_float_setting(val+idx,settings.eeacceleration[idx]/(60*60),N_DECIMAL_SE
 1903              		.loc 1 231 0
 1904 04e6 D4F80CA0 		ldr	r10, [r4, #12]	@ float
 1905              	.LVL242:
 1906              	.LBB711:
 1907              	.LBB709:
 1908              	.LBB701:
 1909              	.LBB697:
  33:grbl/report.c **** static void report_util_line_feed() { printPgmString(PSTR("\r\n")); }
 1910              		.loc 1 33 0
 1911 04ea FFF7FEFF 		bl	serial_write
 1912              	.LVL243:
 1913 04ee 2846     		mov	r0, r5
 1914 04f0 FFF7FEFF 		bl	print_uint8_base10
 1915              	.LVL244:
 1916 04f4 3D20     		movs	r0, #61
 1917 04f6 FFF7FEFF 		bl	serial_write
 1918              	.LVL245:
 1919              	.LBE697:
 1920              	.LBE701:
 101:grbl/report.c ****   report_util_line_feed(); // report_util_setting_string(n);
 1921              		.loc 1 101 0
 1922 04fa 0321     		movs	r1, #3
 1923 04fc 5046     		mov	r0, r10
 1924 04fe FFF7FEFF 		bl	printFloat
 1925              	.LVL246:
 1926              	.LBB702:
 1927              	.LBB703:
  34:grbl/report.c **** static void report_util_feedback_line_feed() { serial_write(']'); report_util_line_feed(); }
 1928              		.loc 1 34 0
 1929 0502 4046     		mov	r0, r8
 1930 0504 FFF7FEFF 		bl	printString
 1931              	.LVL247:
 1932              	.LBE703:
 1933              	.LBE702:
 1934              	.LBB705:
 1935              	.LBB698:
  33:grbl/report.c **** static void report_util_line_feed() { printPgmString(PSTR("\r\n")); }
 1936              		.loc 1 33 0
 1937 0508 2420     		movs	r0, #36
 1938              	.LBE698:
 1939              	.LBE705:
 1940              	.LBE709:
 1941              	.LBE711:
 231:grbl/report.c ****         case 2: report_util_float_setting(val+idx,settings.eeacceleration[idx]/(60*60),N_DECIMAL_SE
 1942              		.loc 1 231 0
 1943 050a D4F810A0 		ldr	r10, [r4, #16]	@ float
 1944              	.LVL248:
 1945              	.LBB712:
 1946              	.LBB710:
ARM GAS  /var/folders/m1/3lv6xmzs0mlckxs4mx90nfb40000gn/T//ccxdmtnn.s 			page 42


 1947              	.LBB706:
 1948              	.LBB699:
  33:grbl/report.c **** static void report_util_line_feed() { printPgmString(PSTR("\r\n")); }
 1949              		.loc 1 33 0
 1950 050e FFF7FEFF 		bl	serial_write
 1951              	.LVL249:
 1952 0512 3846     		mov	r0, r7
 1953 0514 FFF7FEFF 		bl	print_uint8_base10
 1954              	.LVL250:
 1955 0518 3D20     		movs	r0, #61
 1956 051a FFF7FEFF 		bl	serial_write
 1957              	.LVL251:
 1958              	.LBE699:
 1959              	.LBE706:
 101:grbl/report.c ****   report_util_line_feed(); // report_util_setting_string(n);
 1960              		.loc 1 101 0
 1961 051e 5046     		mov	r0, r10
 1962 0520 0321     		movs	r1, #3
 1963 0522 FFF7FEFF 		bl	printFloat
 1964              	.LVL252:
 1965              	.LBB707:
 1966              	.LBB704:
  34:grbl/report.c **** static void report_util_feedback_line_feed() { serial_write(']'); report_util_line_feed(); }
 1967              		.loc 1 34 0
 1968 0526 4046     		mov	r0, r8
 1969 0528 FFF7FEFF 		bl	printString
 1970              	.LVL253:
 1971              	.LBE704:
 1972              	.LBE707:
 1973              	.LBB708:
 1974              	.LBB700:
  33:grbl/report.c **** static void report_util_line_feed() { printPgmString(PSTR("\r\n")); }
 1975              		.loc 1 33 0
 1976 052c 2420     		movs	r0, #36
 1977              	.LBE700:
 1978              	.LBE708:
 1979              	.LBE710:
 1980              	.LBE712:
 231:grbl/report.c ****         case 2: report_util_float_setting(val+idx,settings.eeacceleration[idx]/(60*60),N_DECIMAL_SE
 1981              		.loc 1 231 0
 1982 052e 6769     		ldr	r7, [r4, #20]	@ float
 1983              	.LVL254:
 1984 0530 54E7     		b	.L50
 1985              	.L56:
 1986 0532 00BF     		.align	2
 1987              	.L55:
 1988 0534 10000000 		.word	.LC2
 1989              		.cfi_endproc
 1990              	.LFE716:
 1992              		.section	.text.report_probe_parameters,"ax",%progbits
 1993              		.align	1
 1994              		.p2align 2,,3
 1995              		.global	report_probe_parameters
 1996              		.syntax unified
 1997              		.thumb
 1998              		.thumb_func
 1999              		.fpu softvfp
ARM GAS  /var/folders/m1/3lv6xmzs0mlckxs4mx90nfb40000gn/T//ccxdmtnn.s 			page 43


 2001              	report_probe_parameters:
 2002              	.LFB717:
 239:grbl/report.c **** 
 240:grbl/report.c **** 
 241:grbl/report.c **** // Prints current probe parameters. Upon a probe command, these parameters are updated upon a
 242:grbl/report.c **** // successful probe or upon a failed probe with the G38.3 without errors command (if supported).
 243:grbl/report.c **** // These values are retained until Grbl is power-cycled, whereby they will be re-zeroed.
 244:grbl/report.c **** void report_probe_parameters()
 245:grbl/report.c **** {
 2003              		.loc 1 245 0
 2004              		.cfi_startproc
 2005              		@ args = 0, pretend = 0, frame = 16
 2006              		@ frame_needed = 0, uses_anonymous_args = 0
 2007 0000 00B5     		push	{lr}
 2008              	.LCFI12:
 2009              		.cfi_def_cfa_offset 4
 2010              		.cfi_offset 14, -4
 246:grbl/report.c ****   // Report in terms of machine position.
 247:grbl/report.c ****   printPgmString(PSTR("[PRB:"));
 2011              		.loc 1 247 0
 2012 0002 1348     		ldr	r0, .L59
 245:grbl/report.c ****   // Report in terms of machine position.
 2013              		.loc 1 245 0
 2014 0004 85B0     		sub	sp, sp, #20
 2015              	.LCFI13:
 2016              		.cfi_def_cfa_offset 24
 2017              		.loc 1 247 0
 2018 0006 FFF7FEFF 		bl	printString
 2019              	.LVL255:
 248:grbl/report.c ****   float print_position[N_AXIS];
 249:grbl/report.c ****   system_convert_array_steps_to_mpos(print_position,sys_probe_position);
 2020              		.loc 1 249 0
 2021 000a 1249     		ldr	r1, .L59+4
 2022 000c 01A8     		add	r0, sp, #4
 2023 000e FFF7FEFF 		bl	system_convert_array_steps_to_mpos
 2024              	.LVL256:
 2025              	.LBB723:
 2026              	.LBB724:
  42:grbl/report.c ****     if (idx < (N_AXIS-1)) { serial_write(','); }
 2027              		.loc 1 42 0
 2028 0012 0198     		ldr	r0, [sp, #4]	@ float
 2029 0014 FFF7FEFF 		bl	printFloat_CoordValue
 2030              	.LVL257:
  43:grbl/report.c ****   }
 2031              		.loc 1 43 0
 2032 0018 2C20     		movs	r0, #44
 2033 001a FFF7FEFF 		bl	serial_write
 2034              	.LVL258:
  42:grbl/report.c ****     if (idx < (N_AXIS-1)) { serial_write(','); }
 2035              		.loc 1 42 0
 2036 001e 0298     		ldr	r0, [sp, #8]	@ float
 2037 0020 FFF7FEFF 		bl	printFloat_CoordValue
 2038              	.LVL259:
  43:grbl/report.c ****   }
 2039              		.loc 1 43 0
 2040 0024 2C20     		movs	r0, #44
 2041 0026 FFF7FEFF 		bl	serial_write
ARM GAS  /var/folders/m1/3lv6xmzs0mlckxs4mx90nfb40000gn/T//ccxdmtnn.s 			page 44


 2042              	.LVL260:
  42:grbl/report.c ****     if (idx < (N_AXIS-1)) { serial_write(','); }
 2043              		.loc 1 42 0
 2044 002a 0398     		ldr	r0, [sp, #12]	@ float
 2045 002c FFF7FEFF 		bl	printFloat_CoordValue
 2046              	.LVL261:
 2047              	.LBE724:
 2048              	.LBE723:
 250:grbl/report.c ****   report_util_axis_values(print_position);
 251:grbl/report.c ****   serial_write(':');
 2049              		.loc 1 251 0
 2050 0030 3A20     		movs	r0, #58
 2051 0032 FFF7FEFF 		bl	serial_write
 2052              	.LVL262:
 252:grbl/report.c ****   print_uint8_base10(sys.probe_succeeded);
 2053              		.loc 1 252 0
 2054 0036 084B     		ldr	r3, .L59+8
 2055 0038 5879     		ldrb	r0, [r3, #5]	@ zero_extendqisi2
 2056 003a FFF7FEFF 		bl	print_uint8_base10
 2057              	.LVL263:
 2058              	.LBB725:
 2059              	.LBB726:
  35:grbl/report.c **** static void report_util_gcode_modes_G() { printPgmString(PSTR(" G")); }
 2060              		.loc 1 35 0
 2061 003e 5D20     		movs	r0, #93
 2062 0040 FFF7FEFF 		bl	serial_write
 2063              	.LVL264:
 2064              	.LBB727:
 2065              	.LBB728:
  34:grbl/report.c **** static void report_util_feedback_line_feed() { serial_write(']'); report_util_line_feed(); }
 2066              		.loc 1 34 0
 2067 0044 0548     		ldr	r0, .L59+12
 2068 0046 FFF7FEFF 		bl	printString
 2069              	.LVL265:
 2070              	.LBE728:
 2071              	.LBE727:
 2072              	.LBE726:
 2073              	.LBE725:
 253:grbl/report.c ****   report_util_feedback_line_feed();
 254:grbl/report.c **** }
 2074              		.loc 1 254 0
 2075 004a 05B0     		add	sp, sp, #20
 2076              	.LCFI14:
 2077              		.cfi_def_cfa_offset 4
 2078              		@ sp needed
 2079 004c 5DF804FB 		ldr	pc, [sp], #4
 2080              	.L60:
 2081              		.align	2
 2082              	.L59:
 2083 0050 00000000 		.word	.LC18
 2084 0054 00000000 		.word	sys_probe_position
 2085 0058 00000000 		.word	sys
 2086 005c 10000000 		.word	.LC2
 2087              		.cfi_endproc
 2088              	.LFE717:
 2090              		.section	.text.report_ngc_parameters,"ax",%progbits
 2091              		.align	1
ARM GAS  /var/folders/m1/3lv6xmzs0mlckxs4mx90nfb40000gn/T//ccxdmtnn.s 			page 45


 2092              		.p2align 2,,3
 2093              		.global	report_ngc_parameters
 2094              		.syntax unified
 2095              		.thumb
 2096              		.thumb_func
 2097              		.fpu softvfp
 2099              	report_ngc_parameters:
 2100              	.LFB718:
 255:grbl/report.c **** 
 256:grbl/report.c **** 
 257:grbl/report.c **** // Prints Grbl NGC parameters (coordinate offsets, probing)
 258:grbl/report.c **** void report_ngc_parameters()
 259:grbl/report.c **** {
 2101              		.loc 1 259 0
 2102              		.cfi_startproc
 2103              		@ args = 0, pretend = 0, frame = 24
 2104              		@ frame_needed = 0, uses_anonymous_args = 0
 2105              	.LVL266:
 2106 0000 2DE9F041 		push	{r4, r5, r6, r7, r8, lr}
 2107              	.LCFI15:
 2108              		.cfi_def_cfa_offset 24
 2109              		.cfi_offset 4, -24
 2110              		.cfi_offset 5, -20
 2111              		.cfi_offset 6, -16
 2112              		.cfi_offset 7, -12
 2113              		.cfi_offset 8, -8
 2114              		.cfi_offset 14, -4
 2115 0004 0025     		movs	r5, #0
 2116 0006 86B0     		sub	sp, sp, #24
 2117              	.LCFI16:
 2118              		.cfi_def_cfa_offset 48
 2119 0008 ECB2     		uxtb	r4, r5
 2120              	.LVL267:
 260:grbl/report.c ****   float coord_data[N_AXIS];
 261:grbl/report.c ****   uint8_t coord_select;
 262:grbl/report.c ****   for (coord_select = 0; coord_select <= SETTING_INDEX_NCOORD; coord_select++) {
 263:grbl/report.c ****     if (!(settings_read_coord_data(coord_select,coord_data))) {
 2121              		.loc 1 263 0
 2122 000a 2046     		mov	r0, r4
 2123 000c 6946     		mov	r1, sp
 264:grbl/report.c ****       report_status_message(STATUS_SETTING_READ_FAIL);
 265:grbl/report.c ****       return;
 266:grbl/report.c ****     }
 267:grbl/report.c ****     printPgmString(PSTR("[G"));
 2124              		.loc 1 267 0
 2125 000e 564E     		ldr	r6, .L75
 268:grbl/report.c ****     switch (coord_select) {
 269:grbl/report.c ****       case 6: printPgmString(PSTR("28")); break;
 2126              		.loc 1 269 0
 2127 0010 DFF87C81 		ldr	r8, .L75+40
 2128              	.LBB759:
 2129              	.LBB760:
 2130              	.LBB761:
 2131              	.LBB762:
  34:grbl/report.c **** static void report_util_feedback_line_feed() { serial_write(']'); report_util_line_feed(); }
 2132              		.loc 1 34 0
 2133 0014 554F     		ldr	r7, .L75+4
ARM GAS  /var/folders/m1/3lv6xmzs0mlckxs4mx90nfb40000gn/T//ccxdmtnn.s 			page 46


 2134              	.LBE762:
 2135              	.LBE761:
 2136              	.LBE760:
 2137              	.LBE759:
 263:grbl/report.c ****       report_status_message(STATUS_SETTING_READ_FAIL);
 2138              		.loc 1 263 0
 2139 0016 FFF7FEFF 		bl	settings_read_coord_data
 2140              	.LVL268:
 2141 001a 0028     		cmp	r0, #0
 2142 001c 00F09480 		beq	.L73
 2143              	.LVL269:
 2144              	.L63:
 267:grbl/report.c ****     switch (coord_select) {
 2145              		.loc 1 267 0
 2146 0020 3046     		mov	r0, r6
 2147 0022 FFF7FEFF 		bl	printString
 2148              	.LVL270:
 268:grbl/report.c ****       case 6: printPgmString(PSTR("28")); break;
 2149              		.loc 1 268 0
 2150 0026 062C     		cmp	r4, #6
 2151 0028 00F09A80 		beq	.L66
 2152 002c 072C     		cmp	r4, #7
 2153 002e 65D1     		bne	.L74
 270:grbl/report.c ****       case 7: printPgmString(PSTR("30")); break;
 2154              		.loc 1 270 0
 2155 0030 4F48     		ldr	r0, .L75+8
 2156 0032 FFF7FEFF 		bl	printString
 2157              	.LVL271:
 271:grbl/report.c ****       default: print_uint8_base10(coord_select+54); break; // G54-G59
 272:grbl/report.c ****     }
 273:grbl/report.c ****     serial_write(':');
 2158              		.loc 1 273 0
 2159 0036 3A20     		movs	r0, #58
 2160 0038 FFF7FEFF 		bl	serial_write
 2161              	.LVL272:
 2162              	.LBB770:
 2163              	.LBB771:
  42:grbl/report.c ****     if (idx < (N_AXIS-1)) { serial_write(','); }
 2164              		.loc 1 42 0
 2165 003c 0098     		ldr	r0, [sp]	@ float
 2166 003e FFF7FEFF 		bl	printFloat_CoordValue
 2167              	.LVL273:
  43:grbl/report.c ****   }
 2168              		.loc 1 43 0
 2169 0042 2C20     		movs	r0, #44
 2170 0044 FFF7FEFF 		bl	serial_write
 2171              	.LVL274:
  42:grbl/report.c ****     if (idx < (N_AXIS-1)) { serial_write(','); }
 2172              		.loc 1 42 0
 2173 0048 0198     		ldr	r0, [sp, #4]	@ float
 2174 004a FFF7FEFF 		bl	printFloat_CoordValue
 2175              	.LVL275:
  43:grbl/report.c ****   }
 2176              		.loc 1 43 0
 2177 004e 2C20     		movs	r0, #44
 2178 0050 FFF7FEFF 		bl	serial_write
 2179              	.LVL276:
ARM GAS  /var/folders/m1/3lv6xmzs0mlckxs4mx90nfb40000gn/T//ccxdmtnn.s 			page 47


  42:grbl/report.c ****     if (idx < (N_AXIS-1)) { serial_write(','); }
 2180              		.loc 1 42 0
 2181 0054 0298     		ldr	r0, [sp, #8]	@ float
 2182 0056 FFF7FEFF 		bl	printFloat_CoordValue
 2183              	.LVL277:
 2184              	.LBE771:
 2185              	.LBE770:
 2186              	.LBB773:
 2187              	.LBB767:
  35:grbl/report.c **** static void report_util_gcode_modes_G() { printPgmString(PSTR(" G")); }
 2188              		.loc 1 35 0
 2189 005a 5D20     		movs	r0, #93
 2190 005c FFF7FEFF 		bl	serial_write
 2191              	.LVL278:
 2192              	.LBE767:
 2193              	.LBE773:
 2194              	.LBB774:
 2195              	.LBB775:
  42:grbl/report.c ****     if (idx < (N_AXIS-1)) { serial_write(','); }
 2196              		.loc 1 42 0
 2197 0060 444C     		ldr	r4, .L75+12
 2198              	.LBE775:
 2199              	.LBE774:
 2200              	.LBB777:
 2201              	.LBB768:
 2202              	.LBB765:
 2203              	.LBB763:
  34:grbl/report.c **** static void report_util_feedback_line_feed() { serial_write(']'); report_util_line_feed(); }
 2204              		.loc 1 34 0
 2205 0062 4248     		ldr	r0, .L75+4
 2206 0064 FFF7FEFF 		bl	printString
 2207              	.LVL279:
 2208              	.LBE763:
 2209              	.LBE765:
 2210              	.LBE768:
 2211              	.LBE777:
 274:grbl/report.c ****     report_util_axis_values(coord_data);
 275:grbl/report.c ****     report_util_feedback_line_feed();
 276:grbl/report.c ****   }
 277:grbl/report.c ****   printPgmString(PSTR("[G92:")); // Print G92,G92.1 which are not persistent in memory
 2212              		.loc 1 277 0
 2213 0068 4348     		ldr	r0, .L75+16
 2214 006a FFF7FEFF 		bl	printString
 2215              	.LVL280:
 2216              	.LBB778:
 2217              	.LBB776:
  42:grbl/report.c ****     if (idx < (N_AXIS-1)) { serial_write(','); }
 2218              		.loc 1 42 0
 2219 006e A06B     		ldr	r0, [r4, #56]	@ float
 2220 0070 FFF7FEFF 		bl	printFloat_CoordValue
 2221              	.LVL281:
  43:grbl/report.c ****   }
 2222              		.loc 1 43 0
 2223 0074 2C20     		movs	r0, #44
 2224 0076 FFF7FEFF 		bl	serial_write
 2225              	.LVL282:
  42:grbl/report.c ****     if (idx < (N_AXIS-1)) { serial_write(','); }
ARM GAS  /var/folders/m1/3lv6xmzs0mlckxs4mx90nfb40000gn/T//ccxdmtnn.s 			page 48


 2226              		.loc 1 42 0
 2227 007a E06B     		ldr	r0, [r4, #60]	@ float
 2228 007c FFF7FEFF 		bl	printFloat_CoordValue
 2229              	.LVL283:
  43:grbl/report.c ****   }
 2230              		.loc 1 43 0
 2231 0080 2C20     		movs	r0, #44
 2232 0082 FFF7FEFF 		bl	serial_write
 2233              	.LVL284:
  42:grbl/report.c ****     if (idx < (N_AXIS-1)) { serial_write(','); }
 2234              		.loc 1 42 0
 2235 0086 206C     		ldr	r0, [r4, #64]	@ float
 2236 0088 FFF7FEFF 		bl	printFloat_CoordValue
 2237              	.LVL285:
 2238              	.LBE776:
 2239              	.LBE778:
 2240              	.LBB779:
 2241              	.LBB780:
  35:grbl/report.c **** static void report_util_gcode_modes_G() { printPgmString(PSTR(" G")); }
 2242              		.loc 1 35 0
 2243 008c 5D20     		movs	r0, #93
 2244 008e FFF7FEFF 		bl	serial_write
 2245              	.LVL286:
 2246              	.LBB781:
 2247              	.LBB782:
  34:grbl/report.c **** static void report_util_feedback_line_feed() { serial_write(']'); report_util_line_feed(); }
 2248              		.loc 1 34 0
 2249 0092 3648     		ldr	r0, .L75+4
 2250 0094 FFF7FEFF 		bl	printString
 2251              	.LVL287:
 2252              	.LBE782:
 2253              	.LBE781:
 2254              	.LBE780:
 2255              	.LBE779:
 278:grbl/report.c ****   report_util_axis_values(gc_state.coord_offset);
 279:grbl/report.c ****   report_util_feedback_line_feed();
 280:grbl/report.c ****   printPgmString(PSTR("[TLO:")); // Print tool length offset value
 2256              		.loc 1 280 0
 2257 0098 3848     		ldr	r0, .L75+20
 2258 009a FFF7FEFF 		bl	printString
 2259              	.LVL288:
 281:grbl/report.c ****   printFloat_CoordValue(gc_state.tool_length_offset);
 2260              		.loc 1 281 0
 2261 009e 606C     		ldr	r0, [r4, #68]	@ float
 2262 00a0 FFF7FEFF 		bl	printFloat_CoordValue
 2263              	.LVL289:
 2264              	.LBB783:
 2265              	.LBB784:
  35:grbl/report.c **** static void report_util_gcode_modes_G() { printPgmString(PSTR(" G")); }
 2266              		.loc 1 35 0
 2267 00a4 5D20     		movs	r0, #93
 2268 00a6 FFF7FEFF 		bl	serial_write
 2269              	.LVL290:
 2270              	.LBB785:
 2271              	.LBB786:
  34:grbl/report.c **** static void report_util_feedback_line_feed() { serial_write(']'); report_util_line_feed(); }
 2272              		.loc 1 34 0
ARM GAS  /var/folders/m1/3lv6xmzs0mlckxs4mx90nfb40000gn/T//ccxdmtnn.s 			page 49


 2273 00aa 3048     		ldr	r0, .L75+4
 2274 00ac FFF7FEFF 		bl	printString
 2275              	.LVL291:
 2276              	.LBE786:
 2277              	.LBE785:
 2278              	.LBE784:
 2279              	.LBE783:
 2280              	.LBB787:
 2281              	.LBB788:
 247:grbl/report.c ****   float print_position[N_AXIS];
 2282              		.loc 1 247 0
 2283 00b0 3348     		ldr	r0, .L75+24
 2284 00b2 FFF7FEFF 		bl	printString
 2285              	.LVL292:
 249:grbl/report.c ****   report_util_axis_values(print_position);
 2286              		.loc 1 249 0
 2287 00b6 3349     		ldr	r1, .L75+28
 2288 00b8 03A8     		add	r0, sp, #12
 2289 00ba FFF7FEFF 		bl	system_convert_array_steps_to_mpos
 2290              	.LVL293:
 2291              	.LBB789:
 2292              	.LBB790:
  42:grbl/report.c ****     if (idx < (N_AXIS-1)) { serial_write(','); }
 2293              		.loc 1 42 0
 2294 00be 0398     		ldr	r0, [sp, #12]	@ float
 2295 00c0 FFF7FEFF 		bl	printFloat_CoordValue
 2296              	.LVL294:
  43:grbl/report.c ****   }
 2297              		.loc 1 43 0
 2298 00c4 2C20     		movs	r0, #44
 2299 00c6 FFF7FEFF 		bl	serial_write
 2300              	.LVL295:
  42:grbl/report.c ****     if (idx < (N_AXIS-1)) { serial_write(','); }
 2301              		.loc 1 42 0
 2302 00ca 0498     		ldr	r0, [sp, #16]	@ float
 2303 00cc FFF7FEFF 		bl	printFloat_CoordValue
 2304              	.LVL296:
  43:grbl/report.c ****   }
 2305              		.loc 1 43 0
 2306 00d0 2C20     		movs	r0, #44
 2307 00d2 FFF7FEFF 		bl	serial_write
 2308              	.LVL297:
  42:grbl/report.c ****     if (idx < (N_AXIS-1)) { serial_write(','); }
 2309              		.loc 1 42 0
 2310 00d6 0598     		ldr	r0, [sp, #20]	@ float
 2311 00d8 FFF7FEFF 		bl	printFloat_CoordValue
 2312              	.LVL298:
 2313              	.LBE790:
 2314              	.LBE789:
 251:grbl/report.c ****   print_uint8_base10(sys.probe_succeeded);
 2315              		.loc 1 251 0
 2316 00dc 3A20     		movs	r0, #58
 2317 00de FFF7FEFF 		bl	serial_write
 2318              	.LVL299:
 252:grbl/report.c ****   report_util_feedback_line_feed();
 2319              		.loc 1 252 0
 2320 00e2 294B     		ldr	r3, .L75+32
ARM GAS  /var/folders/m1/3lv6xmzs0mlckxs4mx90nfb40000gn/T//ccxdmtnn.s 			page 50


 2321 00e4 5879     		ldrb	r0, [r3, #5]	@ zero_extendqisi2
 2322 00e6 FFF7FEFF 		bl	print_uint8_base10
 2323              	.LVL300:
 2324              	.LBB791:
 2325              	.LBB792:
  35:grbl/report.c **** static void report_util_gcode_modes_G() { printPgmString(PSTR(" G")); }
 2326              		.loc 1 35 0
 2327 00ea 5D20     		movs	r0, #93
 2328 00ec FFF7FEFF 		bl	serial_write
 2329              	.LVL301:
 2330              	.LBB793:
 2331              	.LBB794:
  34:grbl/report.c **** static void report_util_feedback_line_feed() { serial_write(']'); report_util_line_feed(); }
 2332              		.loc 1 34 0
 2333 00f0 1E48     		ldr	r0, .L75+4
 2334 00f2 FFF7FEFF 		bl	printString
 2335              	.LVL302:
 2336              	.LBE794:
 2337              	.LBE793:
 2338              	.LBE792:
 2339              	.LBE791:
 2340              	.LBE788:
 2341              	.LBE787:
 282:grbl/report.c ****   report_util_feedback_line_feed();
 283:grbl/report.c ****   report_probe_parameters(); // Print probe parameters. Not persistent in memory.
 284:grbl/report.c **** }
 2342              		.loc 1 284 0
 2343 00f6 06B0     		add	sp, sp, #24
 2344              	.LCFI17:
 2345              		.cfi_remember_state
 2346              		.cfi_def_cfa_offset 24
 2347              		@ sp needed
 2348 00f8 BDE8F081 		pop	{r4, r5, r6, r7, r8, pc}
 2349              	.LVL303:
 2350              	.L74:
 2351              	.LCFI18:
 2352              		.cfi_restore_state
 271:grbl/report.c ****     }
 2353              		.loc 1 271 0
 2354 00fc 04F13600 		add	r0, r4, #54
 2355 0100 C0B2     		uxtb	r0, r0
 2356 0102 FFF7FEFF 		bl	print_uint8_base10
 2357              	.LVL304:
 2358              	.L72:
 273:grbl/report.c ****     report_util_axis_values(coord_data);
 2359              		.loc 1 273 0
 2360 0106 3A20     		movs	r0, #58
 2361 0108 FFF7FEFF 		bl	serial_write
 2362              	.LVL305:
 2363              	.LBB795:
 2364              	.LBB772:
  42:grbl/report.c ****     if (idx < (N_AXIS-1)) { serial_write(','); }
 2365              		.loc 1 42 0
 2366 010c 0098     		ldr	r0, [sp]	@ float
 2367 010e FFF7FEFF 		bl	printFloat_CoordValue
 2368              	.LVL306:
  43:grbl/report.c ****   }
ARM GAS  /var/folders/m1/3lv6xmzs0mlckxs4mx90nfb40000gn/T//ccxdmtnn.s 			page 51


 2369              		.loc 1 43 0
 2370 0112 2C20     		movs	r0, #44
 2371 0114 FFF7FEFF 		bl	serial_write
 2372              	.LVL307:
  42:grbl/report.c ****     if (idx < (N_AXIS-1)) { serial_write(','); }
 2373              		.loc 1 42 0
 2374 0118 0198     		ldr	r0, [sp, #4]	@ float
 2375 011a FFF7FEFF 		bl	printFloat_CoordValue
 2376              	.LVL308:
  43:grbl/report.c ****   }
 2377              		.loc 1 43 0
 2378 011e 2C20     		movs	r0, #44
 2379 0120 FFF7FEFF 		bl	serial_write
 2380              	.LVL309:
  42:grbl/report.c ****     if (idx < (N_AXIS-1)) { serial_write(','); }
 2381              		.loc 1 42 0
 2382 0124 0298     		ldr	r0, [sp, #8]	@ float
 2383 0126 FFF7FEFF 		bl	printFloat_CoordValue
 2384              	.LVL310:
 2385 012a 0135     		adds	r5, r5, #1
 2386              	.LBE772:
 2387              	.LBE795:
 2388              	.LBB796:
 2389              	.LBB769:
  35:grbl/report.c **** static void report_util_gcode_modes_G() { printPgmString(PSTR(" G")); }
 2390              		.loc 1 35 0
 2391 012c 5D20     		movs	r0, #93
 2392 012e FFF7FEFF 		bl	serial_write
 2393              	.LVL311:
 2394 0132 ECB2     		uxtb	r4, r5
 2395              	.LBB766:
 2396              	.LBB764:
  34:grbl/report.c **** static void report_util_feedback_line_feed() { serial_write(']'); report_util_line_feed(); }
 2397              		.loc 1 34 0
 2398 0134 3846     		mov	r0, r7
 2399 0136 FFF7FEFF 		bl	printString
 2400              	.LVL312:
 2401              	.LBE764:
 2402              	.LBE766:
 2403              	.LBE769:
 2404              	.LBE796:
 263:grbl/report.c ****       report_status_message(STATUS_SETTING_READ_FAIL);
 2405              		.loc 1 263 0
 2406 013a 2046     		mov	r0, r4
 2407 013c 6946     		mov	r1, sp
 2408 013e FFF7FEFF 		bl	settings_read_coord_data
 2409              	.LVL313:
 2410 0142 0028     		cmp	r0, #0
 2411 0144 7FF46CAF 		bne	.L63
 2412              	.LVL314:
 2413              	.L73:
 2414              	.LBB797:
 2415              	.LBB798:
 2416              	.LBB799:
 118:grbl/report.c ****       print_uint8_base10(status_code);
 2417              		.loc 1 118 0
 2418 0148 1048     		ldr	r0, .L75+36
ARM GAS  /var/folders/m1/3lv6xmzs0mlckxs4mx90nfb40000gn/T//ccxdmtnn.s 			page 52


 2419 014a FFF7FEFF 		bl	printString
 2420              	.LVL315:
 119:grbl/report.c ****       report_util_line_feed();
 2421              		.loc 1 119 0
 2422 014e 0720     		movs	r0, #7
 2423 0150 FFF7FEFF 		bl	print_uint8_base10
 2424              	.LVL316:
 2425              	.LBB800:
 2426              	.LBB801:
  34:grbl/report.c **** static void report_util_feedback_line_feed() { serial_write(']'); report_util_line_feed(); }
 2427              		.loc 1 34 0
 2428 0154 0548     		ldr	r0, .L75+4
 2429 0156 FFF7FEFF 		bl	printString
 2430              	.LVL317:
 2431              	.LBE801:
 2432              	.LBE800:
 2433              	.LBE799:
 2434              	.LBE798:
 2435              	.LBE797:
 2436              		.loc 1 284 0
 2437 015a 06B0     		add	sp, sp, #24
 2438              	.LCFI19:
 2439              		.cfi_remember_state
 2440              		.cfi_def_cfa_offset 24
 2441              		@ sp needed
 2442 015c BDE8F081 		pop	{r4, r5, r6, r7, r8, pc}
 2443              	.L66:
 2444              	.LCFI20:
 2445              		.cfi_restore_state
 269:grbl/report.c ****       case 7: printPgmString(PSTR("30")); break;
 2446              		.loc 1 269 0
 2447 0160 4046     		mov	r0, r8
 2448 0162 FFF7FEFF 		bl	printString
 2449              	.LVL318:
 2450 0166 CEE7     		b	.L72
 2451              	.L76:
 2452              		.align	2
 2453              	.L75:
 2454 0168 00000000 		.word	.LC19
 2455 016c 10000000 		.word	.LC2
 2456 0170 08000000 		.word	.LC21
 2457 0174 00000000 		.word	gc_state
 2458 0178 0C000000 		.word	.LC22
 2459 017c 14000000 		.word	.LC23
 2460 0180 00000000 		.word	.LC18
 2461 0184 00000000 		.word	sys_probe_position
 2462 0188 00000000 		.word	sys
 2463 018c 08000000 		.word	.LC1
 2464 0190 04000000 		.word	.LC20
 2465              		.cfi_endproc
 2466              	.LFE718:
 2468              		.section	.text.report_gcode_modes,"ax",%progbits
 2469              		.align	1
 2470              		.p2align 2,,3
 2471              		.global	report_gcode_modes
 2472              		.syntax unified
 2473              		.thumb
ARM GAS  /var/folders/m1/3lv6xmzs0mlckxs4mx90nfb40000gn/T//ccxdmtnn.s 			page 53


 2474              		.thumb_func
 2475              		.fpu softvfp
 2477              	report_gcode_modes:
 2478              	.LFB719:
 285:grbl/report.c **** 
 286:grbl/report.c **** 
 287:grbl/report.c **** // Print current gcode parser mode state
 288:grbl/report.c **** void report_gcode_modes()
 289:grbl/report.c **** {
 2479              		.loc 1 289 0
 2480              		.cfi_startproc
 2481              		@ args = 0, pretend = 0, frame = 0
 2482              		@ frame_needed = 0, uses_anonymous_args = 0
 2483 0000 10B5     		push	{r4, lr}
 2484              	.LCFI21:
 2485              		.cfi_def_cfa_offset 8
 2486              		.cfi_offset 4, -8
 2487              		.cfi_offset 14, -4
 290:grbl/report.c ****   printPgmString(PSTR("[GC:G"));
 291:grbl/report.c ****   if (gc_state.modal.motion >= MOTION_MODE_PROBE_TOWARD) {
 2488              		.loc 1 291 0
 2489 0002 514C     		ldr	r4, .L109
 290:grbl/report.c ****   printPgmString(PSTR("[GC:G"));
 2490              		.loc 1 290 0
 2491 0004 5148     		ldr	r0, .L109+4
 2492 0006 FFF7FEFF 		bl	printString
 2493              	.LVL319:
 2494              		.loc 1 291 0
 2495 000a 2078     		ldrb	r0, [r4]	@ zero_extendqisi2
 2496 000c 8B28     		cmp	r0, #139
 2497 000e 5ED9     		bls	.L78
 292:grbl/report.c ****     printPgmString(PSTR("38."));
 2498              		.loc 1 292 0
 2499 0010 4F48     		ldr	r0, .L109+8
 2500 0012 FFF7FEFF 		bl	printString
 2501              	.LVL320:
 293:grbl/report.c ****     print_uint8_base10(gc_state.modal.motion - (MOTION_MODE_PROBE_TOWARD-2));
 2502              		.loc 1 293 0
 2503 0016 2078     		ldrb	r0, [r4]	@ zero_extendqisi2
 2504 0018 7630     		adds	r0, r0, #118
 2505 001a C0B2     		uxtb	r0, r0
 2506 001c FFF7FEFF 		bl	print_uint8_base10
 2507              	.LVL321:
 2508              	.L79:
 2509              	.LBB802:
 2510              	.LBB803:
  36:grbl/report.c **** static void report_util_gcode_modes_M() { printPgmString(PSTR(" M")); }
 2511              		.loc 1 36 0
 2512 0020 4C48     		ldr	r0, .L109+12
 2513 0022 FFF7FEFF 		bl	printString
 2514              	.LVL322:
 2515              	.LBE803:
 2516              	.LBE802:
 294:grbl/report.c ****   } else {
 295:grbl/report.c ****     print_uint8_base10(gc_state.modal.motion);
 296:grbl/report.c ****   }
 297:grbl/report.c **** 
ARM GAS  /var/folders/m1/3lv6xmzs0mlckxs4mx90nfb40000gn/T//ccxdmtnn.s 			page 54


 298:grbl/report.c ****   report_util_gcode_modes_G();
 299:grbl/report.c ****   print_uint8_base10(gc_state.modal.coord_select+54);
 2517              		.loc 1 299 0
 2518 0026 A079     		ldrb	r0, [r4, #6]	@ zero_extendqisi2
 2519 0028 3630     		adds	r0, r0, #54
 2520 002a C0B2     		uxtb	r0, r0
 2521 002c FFF7FEFF 		bl	print_uint8_base10
 2522              	.LVL323:
 2523              	.LBB804:
 2524              	.LBB805:
  36:grbl/report.c **** static void report_util_gcode_modes_M() { printPgmString(PSTR(" M")); }
 2525              		.loc 1 36 0
 2526 0030 4848     		ldr	r0, .L109+12
 2527 0032 FFF7FEFF 		bl	printString
 2528              	.LVL324:
 2529              	.LBE805:
 2530              	.LBE804:
 300:grbl/report.c **** 
 301:grbl/report.c ****   report_util_gcode_modes_G();
 302:grbl/report.c ****   print_uint8_base10(gc_state.modal.plane_select+17);
 2531              		.loc 1 302 0
 2532 0036 2079     		ldrb	r0, [r4, #4]	@ zero_extendqisi2
 2533 0038 1130     		adds	r0, r0, #17
 2534 003a C0B2     		uxtb	r0, r0
 2535 003c FFF7FEFF 		bl	print_uint8_base10
 2536              	.LVL325:
 2537              	.LBB806:
 2538              	.LBB807:
  36:grbl/report.c **** static void report_util_gcode_modes_M() { printPgmString(PSTR(" M")); }
 2539              		.loc 1 36 0
 2540 0040 4448     		ldr	r0, .L109+12
 2541 0042 FFF7FEFF 		bl	printString
 2542              	.LVL326:
 2543              	.LBE807:
 2544              	.LBE806:
 303:grbl/report.c **** 
 304:grbl/report.c ****   report_util_gcode_modes_G();
 305:grbl/report.c ****   print_uint8_base10(21-gc_state.modal.units);
 2545              		.loc 1 305 0
 2546 0046 A078     		ldrb	r0, [r4, #2]	@ zero_extendqisi2
 2547 0048 C0F11500 		rsb	r0, r0, #21
 2548 004c C0B2     		uxtb	r0, r0
 2549 004e FFF7FEFF 		bl	print_uint8_base10
 2550              	.LVL327:
 2551              	.LBB808:
 2552              	.LBB809:
  36:grbl/report.c **** static void report_util_gcode_modes_M() { printPgmString(PSTR(" M")); }
 2553              		.loc 1 36 0
 2554 0052 4048     		ldr	r0, .L109+12
 2555 0054 FFF7FEFF 		bl	printString
 2556              	.LVL328:
 2557              	.LBE809:
 2558              	.LBE808:
 306:grbl/report.c **** 
 307:grbl/report.c ****   report_util_gcode_modes_G();
 308:grbl/report.c ****   print_uint8_base10(gc_state.modal.distance+90);
 2559              		.loc 1 308 0
ARM GAS  /var/folders/m1/3lv6xmzs0mlckxs4mx90nfb40000gn/T//ccxdmtnn.s 			page 55


 2560 0058 E078     		ldrb	r0, [r4, #3]	@ zero_extendqisi2
 2561 005a 5A30     		adds	r0, r0, #90
 2562 005c C0B2     		uxtb	r0, r0
 2563 005e FFF7FEFF 		bl	print_uint8_base10
 2564              	.LVL329:
 2565              	.LBB810:
 2566              	.LBB811:
  36:grbl/report.c **** static void report_util_gcode_modes_M() { printPgmString(PSTR(" M")); }
 2567              		.loc 1 36 0
 2568 0062 3C48     		ldr	r0, .L109+12
 2569 0064 FFF7FEFF 		bl	printString
 2570              	.LVL330:
 2571              	.LBE811:
 2572              	.LBE810:
 309:grbl/report.c **** 
 310:grbl/report.c ****   report_util_gcode_modes_G();
 311:grbl/report.c ****   print_uint8_base10(94-gc_state.modal.feed_rate);
 2573              		.loc 1 311 0
 2574 0068 6078     		ldrb	r0, [r4, #1]	@ zero_extendqisi2
 2575 006a C0F15E00 		rsb	r0, r0, #94
 2576 006e C0B2     		uxtb	r0, r0
 2577 0070 FFF7FEFF 		bl	print_uint8_base10
 2578              	.LVL331:
 312:grbl/report.c **** 
 313:grbl/report.c ****   if (gc_state.modal.program_flow) {
 2579              		.loc 1 313 0
 2580 0074 E379     		ldrb	r3, [r4, #7]	@ zero_extendqisi2
 2581 0076 002B     		cmp	r3, #0
 2582 0078 40D1     		bne	.L103
 2583              	.L80:
 2584              	.LBB812:
 2585              	.LBB813:
  37:grbl/report.c **** // static void report_util_comment_line_feed() { serial_write(')'); report_util_line_feed(); }
 2586              		.loc 1 37 0
 2587 007a 3748     		ldr	r0, .L109+16
 2588 007c FFF7FEFF 		bl	printString
 2589              	.LVL332:
 2590              	.LBE813:
 2591              	.LBE812:
 314:grbl/report.c ****     report_util_gcode_modes_M();
 315:grbl/report.c ****     switch (gc_state.modal.program_flow) {
 316:grbl/report.c ****       case PROGRAM_FLOW_PAUSED : serial_write('0'); break;
 317:grbl/report.c ****       // case PROGRAM_FLOW_OPTIONAL_STOP : serial_write('1'); break; // M1 is ignored and not suppo
 318:grbl/report.c ****       case PROGRAM_FLOW_COMPLETED_M2 : 
 319:grbl/report.c ****       case PROGRAM_FLOW_COMPLETED_M30 : 
 320:grbl/report.c ****         print_uint8_base10(gc_state.modal.program_flow);
 321:grbl/report.c ****         break;
 322:grbl/report.c ****     }
 323:grbl/report.c ****   }
 324:grbl/report.c **** 
 325:grbl/report.c ****   report_util_gcode_modes_M();
 326:grbl/report.c ****   switch (gc_state.modal.spindle) {
 2592              		.loc 1 326 0
 2593 0080 637A     		ldrb	r3, [r4, #9]	@ zero_extendqisi2
 2594 0082 102B     		cmp	r3, #16
 2595 0084 4CD0     		beq	.L84
 2596              	.L108:
ARM GAS  /var/folders/m1/3lv6xmzs0mlckxs4mx90nfb40000gn/T//ccxdmtnn.s 			page 56


 2597 0086 202B     		cmp	r3, #32
 2598 0088 4ED0     		beq	.L85
 2599 008a 53B3     		cbz	r3, .L104
 2600              	.L83:
 327:grbl/report.c ****     case SPINDLE_ENABLE_CW : serial_write('3'); break;
 328:grbl/report.c ****     case SPINDLE_ENABLE_CCW : serial_write('4'); break;
 329:grbl/report.c ****     case SPINDLE_DISABLE : serial_write('5'); break;
 330:grbl/report.c ****   }
 331:grbl/report.c **** 
 332:grbl/report.c ****   #ifdef ENABLE_M7
 333:grbl/report.c ****     if (gc_state.modal.coolant) { // Note: Multiple coolant states may be active at the same time.
 2601              		.loc 1 333 0
 2602 008c 237A     		ldrb	r3, [r4, #8]	@ zero_extendqisi2
 2603 008e 73B3     		cbz	r3, .L87
 2604              	.L107:
 334:grbl/report.c ****       if (gc_state.modal.coolant & PL_COND_FLAG_COOLANT_MIST) { report_util_gcode_modes_M(); serial
 2605              		.loc 1 334 0
 2606 0090 1A06     		lsls	r2, r3, #24
 2607 0092 4DD4     		bmi	.L105
 2608              	.L88:
 335:grbl/report.c ****       if (gc_state.modal.coolant & PL_COND_FLAG_COOLANT_FLOOD) { report_util_gcode_modes_M(); seria
 2609              		.loc 1 335 0
 2610 0094 5B06     		lsls	r3, r3, #25
 2611 0096 1DD4     		bmi	.L106
 2612              	.L89:
 336:grbl/report.c ****     } else { report_util_gcode_modes_M(); serial_write('9'); }
 337:grbl/report.c ****   #else
 338:grbl/report.c ****     report_util_gcode_modes_M();
 339:grbl/report.c ****     if (gc_state.modal.coolant) { serial_write('8'); }
 340:grbl/report.c ****     else { serial_write('9'); }
 341:grbl/report.c ****   #endif
 342:grbl/report.c **** 
 343:grbl/report.c ****   #ifdef ENABLE_PARKING_OVERRIDE_CONTROL
 344:grbl/report.c ****     if (sys.override_ctrl == OVERRIDE_PARKING_MOTION) { 
 345:grbl/report.c ****       report_util_gcode_modes_M();
 346:grbl/report.c ****       print_uint8_base10(56);
 347:grbl/report.c ****     }
 348:grbl/report.c ****   #endif
 349:grbl/report.c ****   
 350:grbl/report.c ****   printPgmString(PSTR(" T"));
 2613              		.loc 1 350 0
 2614 0098 3048     		ldr	r0, .L109+20
 2615 009a FFF7FEFF 		bl	printString
 2616              	.LVL333:
 351:grbl/report.c ****   print_uint8_base10(gc_state.tool);
 2617              		.loc 1 351 0
 2618 009e 207E     		ldrb	r0, [r4, #24]	@ zero_extendqisi2
 2619 00a0 FFF7FEFF 		bl	print_uint8_base10
 2620              	.LVL334:
 352:grbl/report.c **** 
 353:grbl/report.c ****   printPgmString(PSTR(" F"));
 2621              		.loc 1 353 0
 2622 00a4 2E48     		ldr	r0, .L109+24
 2623 00a6 FFF7FEFF 		bl	printString
 2624              	.LVL335:
 354:grbl/report.c ****   printFloat_RateValue(gc_state.feed_rate);
 2625              		.loc 1 354 0
ARM GAS  /var/folders/m1/3lv6xmzs0mlckxs4mx90nfb40000gn/T//ccxdmtnn.s 			page 57


 2626 00aa 6069     		ldr	r0, [r4, #20]	@ float
 2627 00ac FFF7FEFF 		bl	printFloat_RateValue
 2628              	.LVL336:
 355:grbl/report.c **** 
 356:grbl/report.c ****   #ifdef VARIABLE_SPINDLE
 357:grbl/report.c ****     printPgmString(PSTR(" S"));
 2629              		.loc 1 357 0
 2630 00b0 2C48     		ldr	r0, .L109+28
 2631 00b2 FFF7FEFF 		bl	printString
 2632              	.LVL337:
 358:grbl/report.c ****     printFloat(gc_state.spindle_speed,N_DECIMAL_RPMVALUE);
 2633              		.loc 1 358 0
 2634 00b6 2069     		ldr	r0, [r4, #16]	@ float
 2635 00b8 0021     		movs	r1, #0
 2636 00ba FFF7FEFF 		bl	printFloat
 2637              	.LVL338:
 2638              	.LBB815:
 2639              	.LBB816:
  35:grbl/report.c **** static void report_util_gcode_modes_G() { printPgmString(PSTR(" G")); }
 2640              		.loc 1 35 0
 2641 00be 5D20     		movs	r0, #93
 2642 00c0 FFF7FEFF 		bl	serial_write
 2643              	.LVL339:
 2644              	.LBE816:
 2645              	.LBE815:
 359:grbl/report.c ****   #endif
 360:grbl/report.c **** 
 361:grbl/report.c ****   report_util_feedback_line_feed();
 362:grbl/report.c **** }
 2646              		.loc 1 362 0
 2647 00c4 BDE81040 		pop	{r4, lr}
 2648              	.LCFI22:
 2649              		.cfi_remember_state
 2650              		.cfi_restore 14
 2651              		.cfi_restore 4
 2652              		.cfi_def_cfa_offset 0
 2653              	.LBB820:
 2654              	.LBB819:
 2655              	.LBB817:
 2656              	.LBB818:
  34:grbl/report.c **** static void report_util_feedback_line_feed() { serial_write(']'); report_util_line_feed(); }
 2657              		.loc 1 34 0
 2658 00c8 2748     		ldr	r0, .L109+32
 2659 00ca FFF7FEBF 		b	printString
 2660              	.LVL340:
 2661              	.L78:
 2662              	.LCFI23:
 2663              		.cfi_restore_state
 2664              	.LBE818:
 2665              	.LBE817:
 2666              	.LBE819:
 2667              	.LBE820:
 295:grbl/report.c ****   }
 2668              		.loc 1 295 0
 2669 00ce FFF7FEFF 		bl	print_uint8_base10
 2670              	.LVL341:
 2671 00d2 A5E7     		b	.L79
ARM GAS  /var/folders/m1/3lv6xmzs0mlckxs4mx90nfb40000gn/T//ccxdmtnn.s 			page 58


 2672              	.L106:
 2673              	.LBB821:
 2674              	.LBB822:
  37:grbl/report.c **** // static void report_util_comment_line_feed() { serial_write(')'); report_util_line_feed(); }
 2675              		.loc 1 37 0
 2676 00d4 2048     		ldr	r0, .L109+16
 2677 00d6 FFF7FEFF 		bl	printString
 2678              	.LVL342:
 2679              	.LBE822:
 2680              	.LBE821:
 335:grbl/report.c ****     } else { report_util_gcode_modes_M(); serial_write('9'); }
 2681              		.loc 1 335 0
 2682 00da 3820     		movs	r0, #56
 2683 00dc FFF7FEFF 		bl	serial_write
 2684              	.LVL343:
 2685 00e0 DAE7     		b	.L89
 2686              	.L104:
 329:grbl/report.c ****   }
 2687              		.loc 1 329 0
 2688 00e2 3520     		movs	r0, #53
 2689 00e4 FFF7FEFF 		bl	serial_write
 2690              	.LVL344:
 333:grbl/report.c ****       if (gc_state.modal.coolant & PL_COND_FLAG_COOLANT_MIST) { report_util_gcode_modes_M(); serial
 2691              		.loc 1 333 0
 2692 00e8 237A     		ldrb	r3, [r4, #8]	@ zero_extendqisi2
 2693 00ea 002B     		cmp	r3, #0
 2694 00ec D0D1     		bne	.L107
 2695              	.L87:
 2696              	.LBB823:
 2697              	.LBB824:
  37:grbl/report.c **** // static void report_util_comment_line_feed() { serial_write(')'); report_util_line_feed(); }
 2698              		.loc 1 37 0
 2699 00ee 1A48     		ldr	r0, .L109+16
 2700 00f0 FFF7FEFF 		bl	printString
 2701              	.LVL345:
 2702              	.LBE824:
 2703              	.LBE823:
 336:grbl/report.c ****   #else
 2704              		.loc 1 336 0
 2705 00f4 3920     		movs	r0, #57
 2706 00f6 FFF7FEFF 		bl	serial_write
 2707              	.LVL346:
 2708 00fa CDE7     		b	.L89
 2709              	.L103:
 2710              	.LBB825:
 2711              	.LBB826:
  37:grbl/report.c **** // static void report_util_comment_line_feed() { serial_write(')'); report_util_line_feed(); }
 2712              		.loc 1 37 0
 2713 00fc 1648     		ldr	r0, .L109+16
 2714 00fe FFF7FEFF 		bl	printString
 2715              	.LVL347:
 2716              	.LBE826:
 2717              	.LBE825:
 315:grbl/report.c ****       case PROGRAM_FLOW_PAUSED : serial_write('0'); break;
 2718              		.loc 1 315 0
 2719 0102 E079     		ldrb	r0, [r4, #7]	@ zero_extendqisi2
 2720 0104 0328     		cmp	r0, #3
ARM GAS  /var/folders/m1/3lv6xmzs0mlckxs4mx90nfb40000gn/T//ccxdmtnn.s 			page 59


 2721 0106 1BD0     		beq	.L81
 2722 0108 1E28     		cmp	r0, #30
 2723 010a 01D0     		beq	.L82
 2724 010c 0228     		cmp	r0, #2
 2725 010e B4D1     		bne	.L80
 2726              	.L82:
 320:grbl/report.c ****         break;
 2727              		.loc 1 320 0
 2728 0110 FFF7FEFF 		bl	print_uint8_base10
 2729              	.LVL348:
 2730              	.LBB827:
 2731              	.LBB814:
  37:grbl/report.c **** // static void report_util_comment_line_feed() { serial_write(')'); report_util_line_feed(); }
 2732              		.loc 1 37 0
 2733 0114 1048     		ldr	r0, .L109+16
 2734 0116 FFF7FEFF 		bl	printString
 2735              	.LVL349:
 2736              	.LBE814:
 2737              	.LBE827:
 326:grbl/report.c ****     case SPINDLE_ENABLE_CW : serial_write('3'); break;
 2738              		.loc 1 326 0
 2739 011a 637A     		ldrb	r3, [r4, #9]	@ zero_extendqisi2
 2740 011c 102B     		cmp	r3, #16
 2741 011e B2D1     		bne	.L108
 2742              	.L84:
 327:grbl/report.c ****     case SPINDLE_ENABLE_CCW : serial_write('4'); break;
 2743              		.loc 1 327 0
 2744 0120 3320     		movs	r0, #51
 2745 0122 FFF7FEFF 		bl	serial_write
 2746              	.LVL350:
 2747 0126 B1E7     		b	.L83
 2748              	.L85:
 328:grbl/report.c ****     case SPINDLE_DISABLE : serial_write('5'); break;
 2749              		.loc 1 328 0
 2750 0128 3420     		movs	r0, #52
 2751 012a FFF7FEFF 		bl	serial_write
 2752              	.LVL351:
 2753 012e ADE7     		b	.L83
 2754              	.L105:
 2755              	.LBB828:
 2756              	.LBB829:
  37:grbl/report.c **** // static void report_util_comment_line_feed() { serial_write(')'); report_util_line_feed(); }
 2757              		.loc 1 37 0
 2758 0130 0948     		ldr	r0, .L109+16
 2759 0132 FFF7FEFF 		bl	printString
 2760              	.LVL352:
 2761              	.LBE829:
 2762              	.LBE828:
 334:grbl/report.c ****       if (gc_state.modal.coolant & PL_COND_FLAG_COOLANT_FLOOD) { report_util_gcode_modes_M(); seria
 2763              		.loc 1 334 0
 2764 0136 3720     		movs	r0, #55
 2765 0138 FFF7FEFF 		bl	serial_write
 2766              	.LVL353:
 2767 013c 237A     		ldrb	r3, [r4, #8]	@ zero_extendqisi2
 2768 013e A9E7     		b	.L88
 2769              	.L81:
 316:grbl/report.c ****       // case PROGRAM_FLOW_OPTIONAL_STOP : serial_write('1'); break; // M1 is ignored and not suppo
ARM GAS  /var/folders/m1/3lv6xmzs0mlckxs4mx90nfb40000gn/T//ccxdmtnn.s 			page 60


 2770              		.loc 1 316 0
 2771 0140 3020     		movs	r0, #48
 2772 0142 FFF7FEFF 		bl	serial_write
 2773              	.LVL354:
 2774 0146 98E7     		b	.L80
 2775              	.L110:
 2776              		.align	2
 2777              	.L109:
 2778 0148 00000000 		.word	gc_state
 2779 014c 00000000 		.word	.LC24
 2780 0150 08000000 		.word	.LC25
 2781 0154 0C000000 		.word	.LC26
 2782 0158 10000000 		.word	.LC27
 2783 015c 14000000 		.word	.LC28
 2784 0160 18000000 		.word	.LC29
 2785 0164 1C000000 		.word	.LC30
 2786 0168 10000000 		.word	.LC2
 2787              		.cfi_endproc
 2788              	.LFE719:
 2790              		.section	.text.report_startup_line,"ax",%progbits
 2791              		.align	1
 2792              		.p2align 2,,3
 2793              		.global	report_startup_line
 2794              		.syntax unified
 2795              		.thumb
 2796              		.thumb_func
 2797              		.fpu softvfp
 2799              	report_startup_line:
 2800              	.LFB720:
 363:grbl/report.c **** 
 364:grbl/report.c **** // Prints specified startup line
 365:grbl/report.c **** void report_startup_line(uint8_t n, char *line)
 366:grbl/report.c **** {
 2801              		.loc 1 366 0
 2802              		.cfi_startproc
 2803              		@ args = 0, pretend = 0, frame = 0
 2804              		@ frame_needed = 0, uses_anonymous_args = 0
 2805              	.LVL355:
 2806 0000 38B5     		push	{r3, r4, r5, lr}
 2807              	.LCFI24:
 2808              		.cfi_def_cfa_offset 16
 2809              		.cfi_offset 3, -16
 2810              		.cfi_offset 4, -12
 2811              		.cfi_offset 5, -8
 2812              		.cfi_offset 14, -4
 2813              		.loc 1 366 0
 2814 0002 0546     		mov	r5, r0
 2815 0004 0C46     		mov	r4, r1
 367:grbl/report.c ****   printPgmString(PSTR("$N"));
 2816              		.loc 1 367 0
 2817 0006 0848     		ldr	r0, .L113
 2818              	.LVL356:
 2819 0008 FFF7FEFF 		bl	printString
 2820              	.LVL357:
 368:grbl/report.c ****   print_uint8_base10(n);
 2821              		.loc 1 368 0
 2822 000c 2846     		mov	r0, r5
ARM GAS  /var/folders/m1/3lv6xmzs0mlckxs4mx90nfb40000gn/T//ccxdmtnn.s 			page 61


 2823 000e FFF7FEFF 		bl	print_uint8_base10
 2824              	.LVL358:
 369:grbl/report.c ****   serial_write('=');
 2825              		.loc 1 369 0
 2826 0012 3D20     		movs	r0, #61
 2827 0014 FFF7FEFF 		bl	serial_write
 2828              	.LVL359:
 370:grbl/report.c ****   printString(line);
 2829              		.loc 1 370 0
 2830 0018 2046     		mov	r0, r4
 2831 001a FFF7FEFF 		bl	printString
 2832              	.LVL360:
 371:grbl/report.c ****   report_util_line_feed();
 372:grbl/report.c **** }
 2833              		.loc 1 372 0
 2834 001e BDE83840 		pop	{r3, r4, r5, lr}
 2835              	.LCFI25:
 2836              		.cfi_restore 14
 2837              		.cfi_restore 5
 2838              		.cfi_restore 4
 2839              		.cfi_restore 3
 2840              		.cfi_def_cfa_offset 0
 2841              	.LVL361:
 2842              	.LBB830:
 2843              	.LBB831:
  34:grbl/report.c **** static void report_util_feedback_line_feed() { serial_write(']'); report_util_line_feed(); }
 2844              		.loc 1 34 0
 2845 0022 0248     		ldr	r0, .L113+4
 2846 0024 FFF7FEBF 		b	printString
 2847              	.LVL362:
 2848              	.L114:
 2849              		.align	2
 2850              	.L113:
 2851 0028 00000000 		.word	.LC31
 2852 002c 10000000 		.word	.LC2
 2853              	.LBE831:
 2854              	.LBE830:
 2855              		.cfi_endproc
 2856              	.LFE720:
 2858              		.section	.text.report_execute_startup_message,"ax",%progbits
 2859              		.align	1
 2860              		.p2align 2,,3
 2861              		.global	report_execute_startup_message
 2862              		.syntax unified
 2863              		.thumb
 2864              		.thumb_func
 2865              		.fpu softvfp
 2867              	report_execute_startup_message:
 2868              	.LFB721:
 373:grbl/report.c **** 
 374:grbl/report.c **** void report_execute_startup_message(char *line, uint8_t status_code)
 375:grbl/report.c **** {
 2869              		.loc 1 375 0
 2870              		.cfi_startproc
 2871              		@ args = 0, pretend = 0, frame = 0
 2872              		@ frame_needed = 0, uses_anonymous_args = 0
 2873              	.LVL363:
ARM GAS  /var/folders/m1/3lv6xmzs0mlckxs4mx90nfb40000gn/T//ccxdmtnn.s 			page 62


 2874 0000 38B5     		push	{r3, r4, r5, lr}
 2875              	.LCFI26:
 2876              		.cfi_def_cfa_offset 16
 2877              		.cfi_offset 3, -16
 2878              		.cfi_offset 4, -12
 2879              		.cfi_offset 5, -8
 2880              		.cfi_offset 14, -4
 2881              		.loc 1 375 0
 2882 0002 0546     		mov	r5, r0
 2883 0004 0C46     		mov	r4, r1
 376:grbl/report.c ****   serial_write('>');
 2884              		.loc 1 376 0
 2885 0006 3E20     		movs	r0, #62
 2886              	.LVL364:
 2887 0008 FFF7FEFF 		bl	serial_write
 2888              	.LVL365:
 377:grbl/report.c ****   printString(line);
 2889              		.loc 1 377 0
 2890 000c 2846     		mov	r0, r5
 2891 000e FFF7FEFF 		bl	printString
 2892              	.LVL366:
 378:grbl/report.c ****   serial_write(':');
 2893              		.loc 1 378 0
 2894 0012 3A20     		movs	r0, #58
 2895 0014 FFF7FEFF 		bl	serial_write
 2896              	.LVL367:
 2897              	.LBB838:
 2898              	.LBB839:
 114:grbl/report.c ****     case STATUS_OK: // STATUS_OK
 2899              		.loc 1 114 0
 2900 0018 54B1     		cbz	r4, .L120
 2901              	.LVL368:
 2902              	.LBB840:
 2903              	.LBB841:
 118:grbl/report.c ****       print_uint8_base10(status_code);
 2904              		.loc 1 118 0
 2905 001a 0848     		ldr	r0, .L121
 2906 001c FFF7FEFF 		bl	printString
 2907              	.LVL369:
 119:grbl/report.c ****       report_util_line_feed();
 2908              		.loc 1 119 0
 2909 0020 2046     		mov	r0, r4
 2910 0022 FFF7FEFF 		bl	print_uint8_base10
 2911              	.LVL370:
 2912              	.LBE841:
 2913              	.LBE840:
 2914              	.LBE839:
 2915              	.LBE838:
 379:grbl/report.c ****   report_status_message(status_code);
 380:grbl/report.c **** }
 2916              		.loc 1 380 0
 2917 0026 BDE83840 		pop	{r3, r4, r5, lr}
 2918              	.LCFI27:
 2919              		.cfi_remember_state
 2920              		.cfi_restore 14
 2921              		.cfi_restore 5
 2922              		.cfi_restore 4
ARM GAS  /var/folders/m1/3lv6xmzs0mlckxs4mx90nfb40000gn/T//ccxdmtnn.s 			page 63


 2923              		.cfi_restore 3
 2924              		.cfi_def_cfa_offset 0
 2925              	.LVL371:
 2926              	.LBB848:
 2927              	.LBB846:
 2928              	.LBB845:
 2929              	.LBB844:
 2930              	.LBB842:
 2931              	.LBB843:
  34:grbl/report.c **** static void report_util_feedback_line_feed() { serial_write(']'); report_util_line_feed(); }
 2932              		.loc 1 34 0
 2933 002a 0548     		ldr	r0, .L121+4
 2934 002c FFF7FEBF 		b	printString
 2935              	.LVL372:
 2936              	.L120:
 2937              	.LCFI28:
 2938              		.cfi_restore_state
 2939              	.LBE843:
 2940              	.LBE842:
 2941              	.LBE844:
 2942              	.LBE845:
 116:grbl/report.c ****     default:
 2943              		.loc 1 116 0
 2944 0030 0448     		ldr	r0, .L121+8
 2945              	.LBE846:
 2946              	.LBE848:
 2947              		.loc 1 380 0
 2948 0032 BDE83840 		pop	{r3, r4, r5, lr}
 2949              	.LCFI29:
 2950              		.cfi_restore 14
 2951              		.cfi_restore 5
 2952              		.cfi_restore 4
 2953              		.cfi_restore 3
 2954              		.cfi_def_cfa_offset 0
 2955              	.LVL373:
 2956              	.LBB849:
 2957              	.LBB847:
 116:grbl/report.c ****     default:
 2958              		.loc 1 116 0
 2959 0036 FFF7FEBF 		b	printString
 2960              	.LVL374:
 2961              	.L122:
 2962 003a 00BF     		.align	2
 2963              	.L121:
 2964 003c 08000000 		.word	.LC1
 2965 0040 10000000 		.word	.LC2
 2966 0044 00000000 		.word	.LC0
 2967              	.LBE847:
 2968              	.LBE849:
 2969              		.cfi_endproc
 2970              	.LFE721:
 2972              		.section	.text.report_build_info,"ax",%progbits
 2973              		.align	1
 2974              		.p2align 2,,3
 2975              		.global	report_build_info
 2976              		.syntax unified
 2977              		.thumb
ARM GAS  /var/folders/m1/3lv6xmzs0mlckxs4mx90nfb40000gn/T//ccxdmtnn.s 			page 64


 2978              		.thumb_func
 2979              		.fpu softvfp
 2981              	report_build_info:
 2982              	.LFB722:
 381:grbl/report.c **** 
 382:grbl/report.c **** // Prints build info line
 383:grbl/report.c **** void report_build_info(char *line)
 384:grbl/report.c **** {
 2983              		.loc 1 384 0
 2984              		.cfi_startproc
 2985              		@ args = 0, pretend = 0, frame = 0
 2986              		@ frame_needed = 0, uses_anonymous_args = 0
 2987              	.LVL375:
 2988 0000 10B5     		push	{r4, lr}
 2989              	.LCFI30:
 2990              		.cfi_def_cfa_offset 8
 2991              		.cfi_offset 4, -8
 2992              		.cfi_offset 14, -4
 2993              		.loc 1 384 0
 2994 0002 0446     		mov	r4, r0
 385:grbl/report.c ****   printPgmString(PSTR("[VER:" GRBL_VERSION "." GRBL_VERSION_BUILD ":"));
 2995              		.loc 1 385 0
 2996 0004 1648     		ldr	r0, .L125
 2997              	.LVL376:
 2998 0006 FFF7FEFF 		bl	printString
 2999              	.LVL377:
 386:grbl/report.c ****   printString(line);
 3000              		.loc 1 386 0
 3001 000a 2046     		mov	r0, r4
 3002              	.LBB850:
 3003              	.LBB851:
 3004              	.LBB852:
 3005              	.LBB853:
  34:grbl/report.c **** static void report_util_feedback_line_feed() { serial_write(']'); report_util_line_feed(); }
 3006              		.loc 1 34 0
 3007 000c 154C     		ldr	r4, .L125+4
 3008              	.LVL378:
 3009              	.LBE853:
 3010              	.LBE852:
 3011              	.LBE851:
 3012              	.LBE850:
 3013              		.loc 1 386 0
 3014 000e FFF7FEFF 		bl	printString
 3015              	.LVL379:
 3016              	.LBB857:
 3017              	.LBB856:
  35:grbl/report.c **** static void report_util_gcode_modes_G() { printPgmString(PSTR(" G")); }
 3018              		.loc 1 35 0
 3019 0012 5D20     		movs	r0, #93
 3020 0014 FFF7FEFF 		bl	serial_write
 3021              	.LVL380:
 3022              	.LBB855:
 3023              	.LBB854:
  34:grbl/report.c **** static void report_util_feedback_line_feed() { serial_write(']'); report_util_line_feed(); }
 3024              		.loc 1 34 0
 3025 0018 2046     		mov	r0, r4
 3026 001a FFF7FEFF 		bl	printString
ARM GAS  /var/folders/m1/3lv6xmzs0mlckxs4mx90nfb40000gn/T//ccxdmtnn.s 			page 65


 3027              	.LVL381:
 3028              	.LBE854:
 3029              	.LBE855:
 3030              	.LBE856:
 3031              	.LBE857:
 387:grbl/report.c ****   report_util_feedback_line_feed();
 388:grbl/report.c ****   printPgmString(PSTR("[OPT:")); // Generate compile-time build option list
 3032              		.loc 1 388 0
 3033 001e 1248     		ldr	r0, .L125+8
 3034 0020 FFF7FEFF 		bl	printString
 3035              	.LVL382:
 389:grbl/report.c ****   #ifdef VARIABLE_SPINDLE
 390:grbl/report.c ****     serial_write('V');
 3036              		.loc 1 390 0
 3037 0024 5620     		movs	r0, #86
 3038 0026 FFF7FEFF 		bl	serial_write
 3039              	.LVL383:
 391:grbl/report.c ****   #endif
 392:grbl/report.c ****   #ifdef USE_LINE_NUMBERS
 393:grbl/report.c ****     serial_write('N');
 394:grbl/report.c ****   #endif
 395:grbl/report.c ****   #ifdef ENABLE_M7
 396:grbl/report.c ****     serial_write('M');
 3040              		.loc 1 396 0
 3041 002a 4D20     		movs	r0, #77
 3042 002c FFF7FEFF 		bl	serial_write
 3043              	.LVL384:
 397:grbl/report.c ****   #endif
 398:grbl/report.c ****   #ifdef COREXY
 399:grbl/report.c ****     serial_write('C');
 400:grbl/report.c ****   #endif
 401:grbl/report.c ****   #ifdef PARKING_ENABLE
 402:grbl/report.c ****     serial_write('P');
 403:grbl/report.c ****   #endif
 404:grbl/report.c ****   #ifdef HOMING_FORCE_SET_ORIGIN
 405:grbl/report.c ****     serial_write('Z');
 406:grbl/report.c ****   #endif
 407:grbl/report.c ****   #ifdef HOMING_SINGLE_AXIS_COMMANDS
 408:grbl/report.c ****     serial_write('H');
 3044              		.loc 1 408 0
 3045 0030 4820     		movs	r0, #72
 3046 0032 FFF7FEFF 		bl	serial_write
 3047              	.LVL385:
 409:grbl/report.c ****   #endif
 410:grbl/report.c ****   #ifdef LIMITS_TWO_SWITCHES_ON_AXES
 411:grbl/report.c ****     serial_write('T');
 412:grbl/report.c ****   #endif
 413:grbl/report.c ****   #ifdef ALLOW_FEED_OVERRIDE_DURING_PROBE_CYCLES
 414:grbl/report.c ****     serial_write('A');
 415:grbl/report.c ****   #endif
 416:grbl/report.c ****   #ifdef USE_SPINDLE_DIR_AS_ENABLE_PIN
 417:grbl/report.c ****     serial_write('D');
 418:grbl/report.c ****   #endif
 419:grbl/report.c ****   #ifdef SPINDLE_ENABLE_OFF_WITH_ZERO_SPEED
 420:grbl/report.c ****     serial_write('0');
 421:grbl/report.c ****   #endif
 422:grbl/report.c ****   #ifdef ENABLE_SOFTWARE_DEBOUNCE
ARM GAS  /var/folders/m1/3lv6xmzs0mlckxs4mx90nfb40000gn/T//ccxdmtnn.s 			page 66


 423:grbl/report.c ****     serial_write('S');
 424:grbl/report.c ****   #endif
 425:grbl/report.c ****   #ifdef ENABLE_PARKING_OVERRIDE_CONTROL
 426:grbl/report.c ****     serial_write('R');
 427:grbl/report.c ****   #endif
 428:grbl/report.c ****   #ifndef ENABLE_RESTORE_EEPROM_WIPE_ALL // NOTE: Shown when disabled.
 429:grbl/report.c ****     serial_write('*');
 430:grbl/report.c ****   #endif
 431:grbl/report.c ****   #ifndef ENABLE_RESTORE_EEPROM_DEFAULT_SETTINGS // NOTE: Shown when disabled.
 432:grbl/report.c ****     serial_write('$');
 433:grbl/report.c ****   #endif
 434:grbl/report.c ****   #ifndef ENABLE_RESTORE_EEPROM_CLEAR_PARAMETERS // NOTE: Shown when disabled.
 435:grbl/report.c ****     serial_write('#');
 436:grbl/report.c ****   #endif
 437:grbl/report.c ****   #ifndef ENABLE_BUILD_INFO_WRITE_COMMAND // NOTE: Shown when disabled.
 438:grbl/report.c ****     serial_write('I');
 439:grbl/report.c ****   #endif
 440:grbl/report.c ****   #ifndef FORCE_BUFFER_SYNC_DURING_EEPROM_WRITE // NOTE: Shown when disabled.
 441:grbl/report.c ****     serial_write('E');
 442:grbl/report.c ****   #endif
 443:grbl/report.c ****   #ifndef FORCE_BUFFER_SYNC_DURING_WCO_CHANGE // NOTE: Shown when disabled.
 444:grbl/report.c ****     serial_write('W');
 445:grbl/report.c ****   #endif
 446:grbl/report.c ****   #ifndef HOMING_INIT_LOCK
 447:grbl/report.c ****     serial_write('L');
 448:grbl/report.c ****   #endif
 449:grbl/report.c **** 
 450:grbl/report.c ****   // NOTE: Compiled values, like override increments/max/min values, may be added at some point lat
 451:grbl/report.c ****   serial_write(',');
 3048              		.loc 1 451 0
 3049 0036 2C20     		movs	r0, #44
 3050 0038 FFF7FEFF 		bl	serial_write
 3051              	.LVL386:
 452:grbl/report.c ****   print_uint8_base10(BLOCK_BUFFER_SIZE-1);
 3052              		.loc 1 452 0
 3053 003c C720     		movs	r0, #199
 3054 003e FFF7FEFF 		bl	print_uint8_base10
 3055              	.LVL387:
 453:grbl/report.c ****   serial_write(',');
 3056              		.loc 1 453 0
 3057 0042 2C20     		movs	r0, #44
 3058 0044 FFF7FEFF 		bl	serial_write
 3059              	.LVL388:
 454:grbl/report.c ****   print_uint8_base10(RX_BUFFER_SIZE);
 3060              		.loc 1 454 0
 3061 0048 FE20     		movs	r0, #254
 3062 004a FFF7FEFF 		bl	print_uint8_base10
 3063              	.LVL389:
 3064              	.LBB858:
 3065              	.LBB859:
  35:grbl/report.c **** static void report_util_gcode_modes_G() { printPgmString(PSTR(" G")); }
 3066              		.loc 1 35 0
 3067 004e 5D20     		movs	r0, #93
 3068 0050 FFF7FEFF 		bl	serial_write
 3069              	.LVL390:
 3070              	.LBB860:
 3071              	.LBB861:
ARM GAS  /var/folders/m1/3lv6xmzs0mlckxs4mx90nfb40000gn/T//ccxdmtnn.s 			page 67


  34:grbl/report.c **** static void report_util_feedback_line_feed() { serial_write(']'); report_util_line_feed(); }
 3072              		.loc 1 34 0
 3073 0054 2046     		mov	r0, r4
 3074              	.LBE861:
 3075              	.LBE860:
 3076              	.LBE859:
 3077              	.LBE858:
 455:grbl/report.c **** 
 456:grbl/report.c ****   report_util_feedback_line_feed();
 457:grbl/report.c **** }
 3078              		.loc 1 457 0
 3079 0056 BDE81040 		pop	{r4, lr}
 3080              	.LCFI31:
 3081              		.cfi_restore 14
 3082              		.cfi_restore 4
 3083              		.cfi_def_cfa_offset 0
 3084              	.LBB865:
 3085              	.LBB864:
 3086              	.LBB863:
 3087              	.LBB862:
  34:grbl/report.c **** static void report_util_feedback_line_feed() { serial_write(']'); report_util_line_feed(); }
 3088              		.loc 1 34 0
 3089 005a FFF7FEBF 		b	printString
 3090              	.LVL391:
 3091              	.L126:
 3092 005e 00BF     		.align	2
 3093              	.L125:
 3094 0060 00000000 		.word	.LC32
 3095 0064 10000000 		.word	.LC2
 3096 0068 1C000000 		.word	.LC33
 3097              	.LBE862:
 3098              	.LBE863:
 3099              	.LBE864:
 3100              	.LBE865:
 3101              		.cfi_endproc
 3102              	.LFE722:
 3104              		.section	.text.report_echo_line_received,"ax",%progbits
 3105              		.align	1
 3106              		.p2align 2,,3
 3107              		.global	report_echo_line_received
 3108              		.syntax unified
 3109              		.thumb
 3110              		.thumb_func
 3111              		.fpu softvfp
 3113              	report_echo_line_received:
 3114              	.LFB723:
 458:grbl/report.c **** 
 459:grbl/report.c **** 
 460:grbl/report.c **** // Prints the character string line Grbl has received from the user, which has been pre-parsed,
 461:grbl/report.c **** // and has been sent into protocol_execute_line() routine to be executed by Grbl.
 462:grbl/report.c **** void report_echo_line_received(char *line)
 463:grbl/report.c **** {
 3115              		.loc 1 463 0
 3116              		.cfi_startproc
 3117              		@ args = 0, pretend = 0, frame = 0
 3118              		@ frame_needed = 0, uses_anonymous_args = 0
 3119              	.LVL392:
ARM GAS  /var/folders/m1/3lv6xmzs0mlckxs4mx90nfb40000gn/T//ccxdmtnn.s 			page 68


 3120 0000 10B5     		push	{r4, lr}
 3121              	.LCFI32:
 3122              		.cfi_def_cfa_offset 8
 3123              		.cfi_offset 4, -8
 3124              		.cfi_offset 14, -4
 3125              		.loc 1 463 0
 3126 0002 0446     		mov	r4, r0
 464:grbl/report.c ****   printPgmString(PSTR("[echo: ")); printString(line);
 3127              		.loc 1 464 0
 3128 0004 0648     		ldr	r0, .L129
 3129              	.LVL393:
 3130 0006 FFF7FEFF 		bl	printString
 3131              	.LVL394:
 3132 000a 2046     		mov	r0, r4
 3133 000c FFF7FEFF 		bl	printString
 3134              	.LVL395:
 3135              	.LBB866:
 3136              	.LBB867:
  35:grbl/report.c **** static void report_util_gcode_modes_G() { printPgmString(PSTR(" G")); }
 3137              		.loc 1 35 0
 3138 0010 5D20     		movs	r0, #93
 3139 0012 FFF7FEFF 		bl	serial_write
 3140              	.LVL396:
 3141              	.LBE867:
 3142              	.LBE866:
 465:grbl/report.c ****   report_util_feedback_line_feed();
 466:grbl/report.c **** }
 3143              		.loc 1 466 0
 3144 0016 BDE81040 		pop	{r4, lr}
 3145              	.LCFI33:
 3146              		.cfi_restore 14
 3147              		.cfi_restore 4
 3148              		.cfi_def_cfa_offset 0
 3149              	.LVL397:
 3150              	.LBB871:
 3151              	.LBB870:
 3152              	.LBB868:
 3153              	.LBB869:
  34:grbl/report.c **** static void report_util_feedback_line_feed() { serial_write(']'); report_util_line_feed(); }
 3154              		.loc 1 34 0
 3155 001a 0248     		ldr	r0, .L129+4
 3156 001c FFF7FEBF 		b	printString
 3157              	.LVL398:
 3158              	.L130:
 3159              		.align	2
 3160              	.L129:
 3161 0020 00000000 		.word	.LC34
 3162 0024 10000000 		.word	.LC2
 3163              	.LBE869:
 3164              	.LBE868:
 3165              	.LBE870:
 3166              	.LBE871:
 3167              		.cfi_endproc
 3168              	.LFE723:
 3170              		.global	__aeabi_fadd
 3171              		.global	__aeabi_fsub
 3172              		.section	.text.report_realtime_status,"ax",%progbits
ARM GAS  /var/folders/m1/3lv6xmzs0mlckxs4mx90nfb40000gn/T//ccxdmtnn.s 			page 69


 3173              		.align	1
 3174              		.p2align 2,,3
 3175              		.global	report_realtime_status
 3176              		.syntax unified
 3177              		.thumb
 3178              		.thumb_func
 3179              		.fpu softvfp
 3181              	report_realtime_status:
 3182              	.LFB724:
 467:grbl/report.c **** 
 468:grbl/report.c **** 
 469:grbl/report.c ****  // Prints real-time data. This function grabs a real-time snapshot of the stepper subprogram
 470:grbl/report.c ****  // and the actual location of the CNC machine. Users may change the following function to their
 471:grbl/report.c ****  // specific needs, but the desired real-time data report must be as short as possible. This is
 472:grbl/report.c ****  // requires as it minimizes the computational overhead and allows grbl to keep running smoothly,
 473:grbl/report.c ****  // especially during g-code programs with fast, short line segments and high frequency reports (5-
 474:grbl/report.c **** void report_realtime_status()
 475:grbl/report.c **** {
 3183              		.loc 1 475 0
 3184              		.cfi_startproc
 3185              		@ args = 0, pretend = 0, frame = 40
 3186              		@ frame_needed = 0, uses_anonymous_args = 0
 3187 0000 F0B5     		push	{r4, r5, r6, r7, lr}
 3188              	.LCFI34:
 3189              		.cfi_def_cfa_offset 20
 3190              		.cfi_offset 4, -20
 3191              		.cfi_offset 5, -16
 3192              		.cfi_offset 6, -12
 3193              		.cfi_offset 7, -8
 3194              		.cfi_offset 14, -4
 476:grbl/report.c ****   uint8_t idx;
 477:grbl/report.c ****   int32_t current_position[N_AXIS]; // Copy current state of the system position variable
 478:grbl/report.c ****   memcpy(current_position,sys_position,sizeof(sys_position));
 3195              		.loc 1 478 0
 3196 0002 B34A     		ldr	r2, .L239
 475:grbl/report.c ****   uint8_t idx;
 3197              		.loc 1 475 0
 3198 0004 8BB0     		sub	sp, sp, #44
 3199              	.LCFI35:
 3200              		.cfi_def_cfa_offset 64
 3201              		.loc 1 478 0
 3202 0006 01AB     		add	r3, sp, #4
 3203 0008 07CA     		ldm	r2, {r0, r1, r2}
 479:grbl/report.c ****   float print_position[N_AXIS];
 480:grbl/report.c ****   system_convert_array_steps_to_mpos(print_position,current_position);
 481:grbl/report.c **** 
 482:grbl/report.c ****   // Report current machine state and sub-states
 483:grbl/report.c ****   serial_write('<');
 484:grbl/report.c ****   switch (sys.state) {
 3204              		.loc 1 484 0
 3205 000a B24C     		ldr	r4, .L239+4
 478:grbl/report.c ****   float print_position[N_AXIS];
 3206              		.loc 1 478 0
 3207 000c 83E80700 		stm	r3, {r0, r1, r2}
 480:grbl/report.c **** 
 3208              		.loc 1 480 0
 3209 0010 1946     		mov	r1, r3
ARM GAS  /var/folders/m1/3lv6xmzs0mlckxs4mx90nfb40000gn/T//ccxdmtnn.s 			page 70


 3210 0012 04A8     		add	r0, sp, #16
 3211 0014 FFF7FEFF 		bl	system_convert_array_steps_to_mpos
 3212              	.LVL399:
 483:grbl/report.c ****   switch (sys.state) {
 3213              		.loc 1 483 0
 3214 0018 3C20     		movs	r0, #60
 3215 001a FFF7FEFF 		bl	serial_write
 3216              	.LVL400:
 3217              		.loc 1 484 0
 3218 001e 2378     		ldrb	r3, [r4]	@ zero_extendqisi2
 3219 0020 082B     		cmp	r3, #8
 3220 0022 00F09681 		beq	.L133
 3221 0026 3BD9     		bls	.L223
 3222 0028 202B     		cmp	r3, #32
 3223 002a 00F08681 		beq	.L139
 3224 002e 40F27181 		bls	.L224
 3225 0032 402B     		cmp	r3, #64
 3226 0034 00F0CE80 		beq	.L142
 3227 0038 802B     		cmp	r3, #128
 3228 003a 3ED1     		bne	.L132
 485:grbl/report.c ****     case STATE_IDLE: printPgmString(PSTR("Idle")); break;
 486:grbl/report.c ****     case STATE_CYCLE: printPgmString(PSTR("Run")); break;
 487:grbl/report.c ****     case STATE_HOLD:
 488:grbl/report.c ****       if (!(sys.suspend & SUSPEND_JOG_CANCEL))
 489:grbl/report.c ****       {
 490:grbl/report.c ****         printPgmString(PSTR("Hold:"));
 491:grbl/report.c ****         if (sys.suspend & SUSPEND_HOLD_COMPLETE) { serial_write('0'); } // Ready to resume
 492:grbl/report.c ****         else { serial_write('1'); } // Actively holding
 493:grbl/report.c ****       } // Continues to print jog state during jog cancel.
 494:grbl/report.c ****       break;
 495:grbl/report.c ****     case STATE_JOG: printPgmString(PSTR("Jog")); break;
 496:grbl/report.c ****     case STATE_HOMING: printPgmString(PSTR("Home")); break;
 497:grbl/report.c ****     case STATE_ALARM: printPgmString(PSTR("Alarm")); break;
 498:grbl/report.c ****     case STATE_CHECK_MODE: printPgmString(PSTR("Check")); break;
 499:grbl/report.c ****     case STATE_SAFETY_DOOR:
 500:grbl/report.c ****       printPgmString(PSTR("Door:"));
 501:grbl/report.c ****       if (sys.suspend & SUSPEND_INITIATE_RESTORE) {
 502:grbl/report.c ****         serial_write('3'); // Restoring
 503:grbl/report.c ****       } else {
 504:grbl/report.c ****         if (sys.suspend & SUSPEND_RETRACT_COMPLETE) {
 505:grbl/report.c ****           if (sys.suspend & SUSPEND_SAFETY_DOOR_AJAR) {
 506:grbl/report.c ****             serial_write('1'); // Door ajar
 507:grbl/report.c ****           } else {
 508:grbl/report.c ****             serial_write('0');
 509:grbl/report.c ****           } // Door closed and ready to resume
 510:grbl/report.c ****         } else {
 511:grbl/report.c ****           serial_write('2'); // Retracting
 512:grbl/report.c ****         }
 513:grbl/report.c ****       }
 514:grbl/report.c ****       break;
 515:grbl/report.c ****     case STATE_SLEEP: printPgmString(PSTR("Sleep")); break;
 516:grbl/report.c ****   }
 517:grbl/report.c **** 
 518:grbl/report.c ****   float wco[N_AXIS];
 519:grbl/report.c ****   if (bit_isfalse(settings.status_report_mask,BITFLAG_RT_STATUS_POSITION_TYPE) ||
 3229              		.loc 1 519 0
 3230 003c A64E     		ldr	r6, .L239+8
ARM GAS  /var/folders/m1/3lv6xmzs0mlckxs4mx90nfb40000gn/T//ccxdmtnn.s 			page 71


 515:grbl/report.c ****   }
 3231              		.loc 1 515 0
 3232 003e A748     		ldr	r0, .L239+12
 3233 0040 FFF7FEFF 		bl	printString
 3234              	.LVL401:
 3235              		.loc 1 519 0
 3236 0044 96F83730 		ldrb	r3, [r6, #55]	@ zero_extendqisi2
 3237 0048 DD07     		lsls	r5, r3, #31
 3238 004a 3BD4     		bmi	.L225
 3239              	.L148:
 3240              	.LVL402:
 520:grbl/report.c ****       (sys.report_wco_counter == 0) ) {
 521:grbl/report.c ****     for (idx=0; idx< N_AXIS; idx++) {
 522:grbl/report.c ****       // Apply work coordinate offsets and tool length offset to current position.
 523:grbl/report.c ****       wco[idx] = gc_state.coord_system[idx]+gc_state.coord_offset[idx];
 3241              		.loc 1 523 0
 3242 004c A44D     		ldr	r5, .L239+16
 3243 004e E96A     		ldr	r1, [r5, #44]	@ float
 3244 0050 A86B     		ldr	r0, [r5, #56]	@ float
 3245 0052 FFF7FEFF 		bl	__aeabi_fadd
 3246              	.LVL403:
 3247 0056 0346     		mov	r3, r0
 524:grbl/report.c ****       if (idx == TOOL_LENGTH_OFFSET_AXIS) { wco[idx] += gc_state.tool_length_offset; }
 525:grbl/report.c ****       if (bit_isfalse(settings.status_report_mask,BITFLAG_RT_STATUS_POSITION_TYPE)) {
 526:grbl/report.c ****         print_position[idx] -= wco[idx];
 3248              		.loc 1 526 0
 3249 0058 0498     		ldr	r0, [sp, #16]	@ float
 3250 005a 1946     		mov	r1, r3
 523:grbl/report.c ****       if (idx == TOOL_LENGTH_OFFSET_AXIS) { wco[idx] += gc_state.tool_length_offset; }
 3251              		.loc 1 523 0
 3252 005c 0793     		str	r3, [sp, #28]	@ float
 3253              		.loc 1 526 0
 3254 005e FFF7FEFF 		bl	__aeabi_fsub
 3255              	.LVL404:
 523:grbl/report.c ****       if (idx == TOOL_LENGTH_OFFSET_AXIS) { wco[idx] += gc_state.tool_length_offset; }
 3256              		.loc 1 523 0
 3257 0062 296B     		ldr	r1, [r5, #48]	@ float
 3258              		.loc 1 526 0
 3259 0064 0490     		str	r0, [sp, #16]	@ float
 523:grbl/report.c ****       if (idx == TOOL_LENGTH_OFFSET_AXIS) { wco[idx] += gc_state.tool_length_offset; }
 3260              		.loc 1 523 0
 3261 0066 E86B     		ldr	r0, [r5, #60]	@ float
 3262 0068 FFF7FEFF 		bl	__aeabi_fadd
 3263              	.LVL405:
 3264 006c 0346     		mov	r3, r0
 3265              		.loc 1 526 0
 3266 006e 0598     		ldr	r0, [sp, #20]	@ float
 3267 0070 1946     		mov	r1, r3
 523:grbl/report.c ****       if (idx == TOOL_LENGTH_OFFSET_AXIS) { wco[idx] += gc_state.tool_length_offset; }
 3268              		.loc 1 523 0
 3269 0072 0893     		str	r3, [sp, #32]	@ float
 3270              		.loc 1 526 0
 3271 0074 FFF7FEFF 		bl	__aeabi_fsub
 3272              	.LVL406:
 524:grbl/report.c ****       if (idx == TOOL_LENGTH_OFFSET_AXIS) { wco[idx] += gc_state.tool_length_offset; }
 3273              		.loc 1 524 0
 3274 0078 6F6C     		ldr	r7, [r5, #68]	@ float
ARM GAS  /var/folders/m1/3lv6xmzs0mlckxs4mx90nfb40000gn/T//ccxdmtnn.s 			page 72


 3275              	.LVL407:
 3276              		.loc 1 526 0
 3277 007a 0590     		str	r0, [sp, #20]	@ float
 3278              	.LVL408:
 523:grbl/report.c ****       if (idx == TOOL_LENGTH_OFFSET_AXIS) { wco[idx] += gc_state.tool_length_offset; }
 3279              		.loc 1 523 0
 3280 007c 296C     		ldr	r1, [r5, #64]	@ float
 3281 007e 686B     		ldr	r0, [r5, #52]	@ float
 3282 0080 FFF7FEFF 		bl	__aeabi_fadd
 3283              	.LVL409:
 524:grbl/report.c ****       if (idx == TOOL_LENGTH_OFFSET_AXIS) { wco[idx] += gc_state.tool_length_offset; }
 3284              		.loc 1 524 0
 3285 0084 3946     		mov	r1, r7
 3286 0086 FFF7FEFF 		bl	__aeabi_fadd
 3287              	.LVL410:
 3288 008a 0346     		mov	r3, r0
 3289              		.loc 1 526 0
 3290 008c 0698     		ldr	r0, [sp, #24]	@ float
 3291 008e 1946     		mov	r1, r3
 524:grbl/report.c ****       if (idx == TOOL_LENGTH_OFFSET_AXIS) { wco[idx] += gc_state.tool_length_offset; }
 3292              		.loc 1 524 0
 3293 0090 0993     		str	r3, [sp, #36]	@ float
 3294              		.loc 1 526 0
 3295 0092 FFF7FEFF 		bl	__aeabi_fsub
 3296              	.LVL411:
 3297 0096 0690     		str	r0, [sp, #24]	@ float
 3298              	.LVL412:
 527:grbl/report.c ****       }
 528:grbl/report.c ****     }
 529:grbl/report.c ****   }
 530:grbl/report.c **** 
 531:grbl/report.c ****   // Report machine position
 532:grbl/report.c ****   if (bit_istrue(settings.status_report_mask,BITFLAG_RT_STATUS_POSITION_TYPE)) {
 533:grbl/report.c ****     printPgmString(PSTR("|MPos:"));
 534:grbl/report.c ****   } else {
 535:grbl/report.c ****     printPgmString(PSTR("|WPos:"));
 3299              		.loc 1 535 0
 3300 0098 9248     		ldr	r0, .L239+20
 3301 009a FFF7FEFF 		bl	printString
 3302              	.LVL413:
 3303 009e 2AE0     		b	.L177
 3304              	.LVL414:
 3305              	.L223:
 484:grbl/report.c ****     case STATE_IDLE: printPgmString(PSTR("Idle")); break;
 3306              		.loc 1 484 0
 3307 00a0 012B     		cmp	r3, #1
 3308 00a2 00F05281 		beq	.L135
 3309 00a6 C0F04C81 		bcc	.L136
 3310 00aa 022B     		cmp	r3, #2
 3311 00ac 00F0A380 		beq	.L137
 3312 00b0 042B     		cmp	r3, #4
 3313 00b2 02D1     		bne	.L132
 496:grbl/report.c ****     case STATE_ALARM: printPgmString(PSTR("Alarm")); break;
 3314              		.loc 1 496 0
 3315 00b4 8C48     		ldr	r0, .L239+24
 3316 00b6 FFF7FEFF 		bl	printString
 3317              	.LVL415:
ARM GAS  /var/folders/m1/3lv6xmzs0mlckxs4mx90nfb40000gn/T//ccxdmtnn.s 			page 73


 3318              	.L132:
 519:grbl/report.c ****       (sys.report_wco_counter == 0) ) {
 3319              		.loc 1 519 0
 3320 00ba 874E     		ldr	r6, .L239+8
 3321 00bc 96F83730 		ldrb	r3, [r6, #55]	@ zero_extendqisi2
 3322 00c0 DD07     		lsls	r5, r3, #31
 3323 00c2 C3D5     		bpl	.L148
 3324              	.L225:
 519:grbl/report.c ****       (sys.report_wco_counter == 0) ) {
 3325              		.loc 1 519 0 is_stmt 0 discriminator 1
 3326 00c4 637B     		ldrb	r3, [r4, #13]	@ zero_extendqisi2
 3327 00c6 9BB9     		cbnz	r3, .L178
 3328              	.LVL416:
 523:grbl/report.c ****       if (idx == TOOL_LENGTH_OFFSET_AXIS) { wco[idx] += gc_state.tool_length_offset; }
 3329              		.loc 1 523 0 is_stmt 1
 3330 00c8 854D     		ldr	r5, .L239+16
 3331 00ca A96B     		ldr	r1, [r5, #56]	@ float
 3332 00cc E86A     		ldr	r0, [r5, #44]	@ float
 3333 00ce FFF7FEFF 		bl	__aeabi_fadd
 3334              	.LVL417:
 3335 00d2 296B     		ldr	r1, [r5, #48]	@ float
 3336 00d4 0790     		str	r0, [sp, #28]	@ float
 3337 00d6 E86B     		ldr	r0, [r5, #60]	@ float
 3338 00d8 FFF7FEFF 		bl	__aeabi_fadd
 3339              	.LVL418:
 524:grbl/report.c ****       if (bit_isfalse(settings.status_report_mask,BITFLAG_RT_STATUS_POSITION_TYPE)) {
 3340              		.loc 1 524 0
 3341 00dc 6F6C     		ldr	r7, [r5, #68]	@ float
 3342              	.LVL419:
 523:grbl/report.c ****       if (idx == TOOL_LENGTH_OFFSET_AXIS) { wco[idx] += gc_state.tool_length_offset; }
 3343              		.loc 1 523 0
 3344 00de 0890     		str	r0, [sp, #32]	@ float
 3345              	.LVL420:
 3346 00e0 696B     		ldr	r1, [r5, #52]	@ float
 3347 00e2 286C     		ldr	r0, [r5, #64]	@ float
 3348 00e4 FFF7FEFF 		bl	__aeabi_fadd
 3349              	.LVL421:
 524:grbl/report.c ****       if (bit_isfalse(settings.status_report_mask,BITFLAG_RT_STATUS_POSITION_TYPE)) {
 3350              		.loc 1 524 0
 3351 00e8 3946     		mov	r1, r7
 3352 00ea FFF7FEFF 		bl	__aeabi_fadd
 3353              	.LVL422:
 3354 00ee 0990     		str	r0, [sp, #36]	@ float
 3355              	.LVL423:
 3356              	.L178:
 533:grbl/report.c ****   } else {
 3357              		.loc 1 533 0
 3358 00f0 7E48     		ldr	r0, .L239+28
 3359 00f2 FFF7FEFF 		bl	printString
 3360              	.LVL424:
 3361              	.L177:
 3362              	.LBB879:
 3363              	.LBB880:
  42:grbl/report.c ****     if (idx < (N_AXIS-1)) { serial_write(','); }
 3364              		.loc 1 42 0
 3365 00f6 0498     		ldr	r0, [sp, #16]	@ float
 3366 00f8 FFF7FEFF 		bl	printFloat_CoordValue
ARM GAS  /var/folders/m1/3lv6xmzs0mlckxs4mx90nfb40000gn/T//ccxdmtnn.s 			page 74


 3367              	.LVL425:
  43:grbl/report.c ****   }
 3368              		.loc 1 43 0
 3369 00fc 2C20     		movs	r0, #44
 3370 00fe FFF7FEFF 		bl	serial_write
 3371              	.LVL426:
  42:grbl/report.c ****     if (idx < (N_AXIS-1)) { serial_write(','); }
 3372              		.loc 1 42 0
 3373 0102 0598     		ldr	r0, [sp, #20]	@ float
 3374 0104 FFF7FEFF 		bl	printFloat_CoordValue
 3375              	.LVL427:
  43:grbl/report.c ****   }
 3376              		.loc 1 43 0
 3377 0108 2C20     		movs	r0, #44
 3378 010a FFF7FEFF 		bl	serial_write
 3379              	.LVL428:
  42:grbl/report.c ****     if (idx < (N_AXIS-1)) { serial_write(','); }
 3380              		.loc 1 42 0
 3381 010e 0698     		ldr	r0, [sp, #24]	@ float
 3382 0110 FFF7FEFF 		bl	printFloat_CoordValue
 3383              	.LVL429:
 3384              	.LBE880:
 3385              	.LBE879:
 536:grbl/report.c ****   }
 537:grbl/report.c ****   report_util_axis_values(print_position);
 538:grbl/report.c **** 
 539:grbl/report.c ****   // Returns planner and serial read buffer states.
 540:grbl/report.c ****   #ifdef REPORT_FIELD_BUFFER_STATE
 541:grbl/report.c ****     if (bit_istrue(settings.status_report_mask,BITFLAG_RT_STATUS_BUFFER_STATE)) {
 3386              		.loc 1 541 0
 3387 0114 96F83730 		ldrb	r3, [r6, #55]	@ zero_extendqisi2
 3388 0118 9807     		lsls	r0, r3, #30
 3389 011a 00F1BA80 		bmi	.L226
 3390              	.L150:
 542:grbl/report.c ****       printPgmString(PSTR("|Bf:"));
 543:grbl/report.c ****       print_uint8_base10(plan_get_block_buffer_available());
 544:grbl/report.c ****       serial_write(',');
 545:grbl/report.c ****       print_uint8_base10(serial_get_rx_buffer_available());
 546:grbl/report.c ****     }
 547:grbl/report.c ****   #endif
 548:grbl/report.c **** 
 549:grbl/report.c ****   #ifdef USE_LINE_NUMBERS
 550:grbl/report.c ****     #ifdef REPORT_FIELD_LINE_NUMBERS
 551:grbl/report.c ****       // Report current line number
 552:grbl/report.c ****       plan_block_t * cur_block = plan_get_current_block();
 553:grbl/report.c ****       if (cur_block != NULL) {
 554:grbl/report.c ****         uint32_t ln = cur_block->line_number;
 555:grbl/report.c ****         if (ln > 0) {
 556:grbl/report.c ****           printPgmString(PSTR("|Ln:"));
 557:grbl/report.c ****           printInteger(ln);
 558:grbl/report.c ****         }
 559:grbl/report.c ****       }
 560:grbl/report.c ****     #endif
 561:grbl/report.c ****   #endif
 562:grbl/report.c **** 
 563:grbl/report.c ****   // Report realtime feed speed
 564:grbl/report.c ****   #ifdef REPORT_FIELD_CURRENT_FEED_SPEED
ARM GAS  /var/folders/m1/3lv6xmzs0mlckxs4mx90nfb40000gn/T//ccxdmtnn.s 			page 75


 565:grbl/report.c ****     #ifdef VARIABLE_SPINDLE
 566:grbl/report.c ****       printPgmString(PSTR("|FS:"));
 3391              		.loc 1 566 0
 3392 011e 7448     		ldr	r0, .L239+32
 3393 0120 FFF7FEFF 		bl	printString
 3394              	.LVL430:
 567:grbl/report.c ****       printFloat_RateValue(st_get_realtime_rate());
 3395              		.loc 1 567 0
 3396 0124 FFF7FEFF 		bl	st_get_realtime_rate
 3397              	.LVL431:
 3398 0128 FFF7FEFF 		bl	printFloat_RateValue
 3399              	.LVL432:
 568:grbl/report.c ****       serial_write(',');
 3400              		.loc 1 568 0
 3401 012c 2C20     		movs	r0, #44
 3402 012e FFF7FEFF 		bl	serial_write
 3403              	.LVL433:
 569:grbl/report.c ****       printFloat(sys.spindle_speed,N_DECIMAL_RPMVALUE);
 3404              		.loc 1 569 0
 3405 0132 0021     		movs	r1, #0
 3406 0134 2069     		ldr	r0, [r4, #16]	@ float
 3407 0136 FFF7FEFF 		bl	printFloat
 3408              	.LVL434:
 570:grbl/report.c ****     #else
 571:grbl/report.c ****       printPgmString(PSTR("|F:"));
 572:grbl/report.c ****       printFloat_RateValue(st_get_realtime_rate());
 573:grbl/report.c ****     #endif      
 574:grbl/report.c ****   #endif
 575:grbl/report.c **** 
 576:grbl/report.c ****   #ifdef REPORT_FIELD_PIN_STATE
 577:grbl/report.c ****     uint8_t lim_pin_state = limits_get_state();
 3409              		.loc 1 577 0
 3410 013a FFF7FEFF 		bl	limits_get_state
 3411              	.LVL435:
 3412 013e 0646     		mov	r6, r0
 3413              	.LVL436:
 578:grbl/report.c ****     uint8_t ctrl_pin_state = system_control_get_state();
 3414              		.loc 1 578 0
 3415 0140 FFF7FEFF 		bl	system_control_get_state
 3416              	.LVL437:
 3417 0144 0546     		mov	r5, r0
 3418              	.LVL438:
 579:grbl/report.c ****     uint8_t prb_pin_state = probe_get_state();
 3419              		.loc 1 579 0
 3420 0146 FFF7FEFF 		bl	probe_get_state
 3421              	.LVL439:
 580:grbl/report.c ****     if (lim_pin_state | ctrl_pin_state | prb_pin_state) {
 3422              		.loc 1 580 0
 3423 014a 46EA0503 		orr	r3, r6, r5
 3424 014e 0343     		orrs	r3, r3, r0
 3425 0150 13F0FF0F 		tst	r3, #255
 579:grbl/report.c ****     uint8_t prb_pin_state = probe_get_state();
 3426              		.loc 1 579 0
 3427 0154 0746     		mov	r7, r0
 3428              	.LVL440:
 3429              		.loc 1 580 0
 3430 0156 75D1     		bne	.L227
ARM GAS  /var/folders/m1/3lv6xmzs0mlckxs4mx90nfb40000gn/T//ccxdmtnn.s 			page 76


 3431              	.LVL441:
 3432              	.L152:
 581:grbl/report.c ****       printPgmString(PSTR("|Pn:"));
 582:grbl/report.c ****       if (prb_pin_state) { serial_write('P'); }
 583:grbl/report.c ****       if (lim_pin_state) {
 584:grbl/report.c ****         if (bit_istrue(lim_pin_state,bit(X_AXIS))) { serial_write('X'); }
 585:grbl/report.c ****         if (bit_istrue(lim_pin_state,bit(Y_AXIS))) { serial_write('Y'); }
 586:grbl/report.c ****         if (bit_istrue(lim_pin_state,bit(Z_AXIS))) { serial_write('Z'); }
 587:grbl/report.c ****         #if ( defined(STM32F1_4) || defined(STM32F4_4) )
 588:grbl/report.c ****           if (bit_istrue(lim_pin_state, bit(A_AXIS))) { serial_write('A'); }
 589:grbl/report.c ****         #endif
 590:grbl/report.c ****         #if ( defined(STM32F1_5) || defined(STM32F4_5) )
 591:grbl/report.c ****           if (bit_istrue(lim_pin_state, bit(A_AXIS))) { serial_write('A'); }
 592:grbl/report.c ****           if (bit_istrue(lim_pin_state, bit(B_AXIS))) { serial_write('B'); }
 593:grbl/report.c ****         #endif
 594:grbl/report.c ****         #if ( defined(STM32F1_6) || defined(STM32F4_6) )
 595:grbl/report.c ****           if (bit_istrue(lim_pin_state, bit(A_AXIS))) { serial_write('A'); }
 596:grbl/report.c ****           if (bit_istrue(lim_pin_state, bit(B_AXIS))) { serial_write('B'); }
 597:grbl/report.c ****           if (bit_istrue(lim_pin_state, bit(C_AXIS))) { serial_write('C'); }
 598:grbl/report.c ****         #endif
 599:grbl/report.c ****       }
 600:grbl/report.c ****       if (ctrl_pin_state) {
 601:grbl/report.c ****         #ifdef ENABLE_SAFETY_DOOR_INPUT_PIN
 602:grbl/report.c ****           if (bit_istrue(ctrl_pin_state,CONTROL_PIN_INDEX_SAFETY_DOOR)) { serial_write('D'); }
 603:grbl/report.c ****         #endif
 604:grbl/report.c ****         if (bit_istrue(ctrl_pin_state,CONTROL_PIN_INDEX_RESET)) { serial_write('R'); }
 605:grbl/report.c ****         if (bit_istrue(ctrl_pin_state,CONTROL_PIN_INDEX_FEED_HOLD)) { serial_write('H'); }
 606:grbl/report.c ****         if (bit_istrue(ctrl_pin_state,CONTROL_PIN_INDEX_CYCLE_START)) { serial_write('S'); }
 607:grbl/report.c ****       }
 608:grbl/report.c ****     }
 609:grbl/report.c ****   #endif
 610:grbl/report.c **** 
 611:grbl/report.c ****   #ifdef REPORT_FIELD_WORK_COORD_OFFSET
 612:grbl/report.c ****     if (sys.report_wco_counter > 0) { sys.report_wco_counter--; }
 3433              		.loc 1 612 0
 3434 0158 637B     		ldrb	r3, [r4, #13]	@ zero_extendqisi2
 3435 015a 002B     		cmp	r3, #0
 3436 015c 4FD0     		beq	.L163
 3437              		.loc 1 612 0 is_stmt 0 discriminator 1
 3438 015e 013B     		subs	r3, r3, #1
 3439 0160 6373     		strb	r3, [r4, #13]
 613:grbl/report.c ****     else {
 614:grbl/report.c ****       if (sys.state & (STATE_HOMING | STATE_CYCLE | STATE_HOLD | STATE_JOG | STATE_SAFETY_DOOR)) {
 615:grbl/report.c ****         sys.report_wco_counter = (REPORT_WCO_REFRESH_BUSY_COUNT-1); // Reset counter for slow refre
 616:grbl/report.c ****       } else { sys.report_wco_counter = (REPORT_WCO_REFRESH_IDLE_COUNT-1); }
 617:grbl/report.c ****       if (sys.report_ovr_counter == 0) { sys.report_ovr_counter = 1; } // Set override on next repo
 618:grbl/report.c ****       printPgmString(PSTR("|WCO:"));
 619:grbl/report.c ****       report_util_axis_values(wco);
 620:grbl/report.c ****     }
 621:grbl/report.c ****   #endif
 622:grbl/report.c **** 
 623:grbl/report.c ****   #ifdef REPORT_FIELD_OVERRIDES
 624:grbl/report.c ****     if (sys.report_ovr_counter > 0) { sys.report_ovr_counter--; }
 3440              		.loc 1 624 0 is_stmt 1 discriminator 1
 3441 0162 237B     		ldrb	r3, [r4, #12]	@ zero_extendqisi2
 3442 0164 002B     		cmp	r3, #0
 3443 0166 6AD1     		bne	.L228
ARM GAS  /var/folders/m1/3lv6xmzs0mlckxs4mx90nfb40000gn/T//ccxdmtnn.s 			page 77


 3444              	.L167:
 3445              	.LBB881:
 625:grbl/report.c ****     else {
 626:grbl/report.c ****       if (sys.state & (STATE_HOMING | STATE_CYCLE | STATE_HOLD | STATE_JOG | STATE_SAFETY_DOOR)) {
 3446              		.loc 1 626 0
 3447 0168 2378     		ldrb	r3, [r4]	@ zero_extendqisi2
 627:grbl/report.c ****         sys.report_ovr_counter = (REPORT_OVR_REFRESH_BUSY_COUNT-1); // Reset counter for slow refre
 628:grbl/report.c ****       } else { sys.report_ovr_counter = (REPORT_OVR_REFRESH_IDLE_COUNT-1); }
 629:grbl/report.c ****       printPgmString(PSTR("|Ov:"));
 3448              		.loc 1 629 0
 3449 016a 6248     		ldr	r0, .L239+36
 628:grbl/report.c ****       printPgmString(PSTR("|Ov:"));
 3450              		.loc 1 628 0
 3451 016c 13F07C0F 		tst	r3, #124
 3452 0170 14BF     		ite	ne
 3453 0172 1323     		movne	r3, #19
 3454 0174 0923     		moveq	r3, #9
 3455 0176 2373     		strb	r3, [r4, #12]
 3456              		.loc 1 629 0
 3457 0178 FFF7FEFF 		bl	printString
 3458              	.LVL442:
 630:grbl/report.c ****       print_uint8_base10(sys.f_override);
 3459              		.loc 1 630 0
 3460 017c 207A     		ldrb	r0, [r4, #8]	@ zero_extendqisi2
 3461 017e FFF7FEFF 		bl	print_uint8_base10
 3462              	.LVL443:
 631:grbl/report.c ****       serial_write(',');
 3463              		.loc 1 631 0
 3464 0182 2C20     		movs	r0, #44
 3465 0184 FFF7FEFF 		bl	serial_write
 3466              	.LVL444:
 632:grbl/report.c ****       print_uint8_base10(sys.r_override);
 3467              		.loc 1 632 0
 3468 0188 607A     		ldrb	r0, [r4, #9]	@ zero_extendqisi2
 3469 018a FFF7FEFF 		bl	print_uint8_base10
 3470              	.LVL445:
 633:grbl/report.c ****       serial_write(',');
 3471              		.loc 1 633 0
 3472 018e 2C20     		movs	r0, #44
 3473 0190 FFF7FEFF 		bl	serial_write
 3474              	.LVL446:
 634:grbl/report.c ****       print_uint8_base10(sys.spindle_speed_ovr);
 3475              		.loc 1 634 0
 3476 0194 A07A     		ldrb	r0, [r4, #10]	@ zero_extendqisi2
 3477 0196 FFF7FEFF 		bl	print_uint8_base10
 3478              	.LVL447:
 635:grbl/report.c **** 
 636:grbl/report.c ****       uint8_t sp_state = spindle_get_state();
 3479              		.loc 1 636 0
 3480 019a FFF7FEFF 		bl	spindle_get_state
 3481              	.LVL448:
 3482 019e 0546     		mov	r5, r0
 3483              	.LVL449:
 637:grbl/report.c ****       uint8_t cl_state = coolant_get_state();
 3484              		.loc 1 637 0
 3485 01a0 FFF7FEFF 		bl	coolant_get_state
 3486              	.LVL450:
ARM GAS  /var/folders/m1/3lv6xmzs0mlckxs4mx90nfb40000gn/T//ccxdmtnn.s 			page 78


 3487 01a4 0446     		mov	r4, r0
 3488              	.LVL451:
 638:grbl/report.c ****       if (sp_state || cl_state) {
 3489              		.loc 1 638 0
 3490 01a6 002D     		cmp	r5, #0
 3491 01a8 40F08280 		bne	.L170
 3492              		.loc 1 638 0 is_stmt 0 discriminator 1
 3493 01ac 50B1     		cbz	r0, .L168
 639:grbl/report.c ****         printPgmString(PSTR("|A:"));
 3494              		.loc 1 639 0 is_stmt 1
 3495 01ae 5248     		ldr	r0, .L239+40
 3496              	.LVL452:
 3497 01b0 FFF7FEFF 		bl	printString
 3498              	.LVL453:
 3499              	.L172:
 640:grbl/report.c ****         if (sp_state) { // != SPINDLE_STATE_DISABLE
 641:grbl/report.c ****           #ifdef VARIABLE_SPINDLE 
 642:grbl/report.c ****             #ifdef USE_SPINDLE_DIR_AS_ENABLE_PIN
 643:grbl/report.c ****               serial_write('S'); // CW
 644:grbl/report.c ****             #else
 645:grbl/report.c ****               if (sp_state == SPINDLE_STATE_CW) { serial_write('S'); } // CW
 646:grbl/report.c ****               else { serial_write('C'); } // CCW
 647:grbl/report.c ****             #endif
 648:grbl/report.c ****           #else
 649:grbl/report.c ****             if (sp_state & SPINDLE_STATE_CW) { serial_write('S'); } // CW
 650:grbl/report.c ****             else { serial_write('C'); } // CCW
 651:grbl/report.c ****           #endif
 652:grbl/report.c ****         }
 653:grbl/report.c ****         if (cl_state & COOLANT_STATE_FLOOD) { serial_write('F'); }
 3500              		.loc 1 653 0
 3501 01b4 E207     		lsls	r2, r4, #31
 3502 01b6 00F18680 		bmi	.L229
 3503              	.L173:
 654:grbl/report.c ****         #ifdef ENABLE_M7
 655:grbl/report.c ****           if (cl_state & COOLANT_STATE_MIST) { serial_write('M'); }
 3504              		.loc 1 655 0
 3505 01ba A307     		lsls	r3, r4, #30
 3506 01bc 02D5     		bpl	.L168
 3507              		.loc 1 655 0 is_stmt 0 discriminator 1
 3508 01be 4D20     		movs	r0, #77
 3509 01c0 FFF7FEFF 		bl	serial_write
 3510              	.LVL454:
 3511              	.L168:
 3512              	.LBE881:
 656:grbl/report.c ****         #endif
 657:grbl/report.c ****       }  
 658:grbl/report.c ****     }
 659:grbl/report.c ****   #endif
 660:grbl/report.c **** 
 661:grbl/report.c ****   serial_write('>');
 3513              		.loc 1 661 0 is_stmt 1
 3514 01c4 3E20     		movs	r0, #62
 3515 01c6 FFF7FEFF 		bl	serial_write
 3516              	.LVL455:
 3517              	.LBB882:
 3518              	.LBB883:
  34:grbl/report.c **** static void report_util_feedback_line_feed() { serial_write(']'); report_util_line_feed(); }
ARM GAS  /var/folders/m1/3lv6xmzs0mlckxs4mx90nfb40000gn/T//ccxdmtnn.s 			page 79


 3519              		.loc 1 34 0
 3520 01ca 4C48     		ldr	r0, .L239+44
 3521 01cc FFF7FEFF 		bl	printString
 3522              	.LVL456:
 3523              	.LBE883:
 3524              	.LBE882:
 662:grbl/report.c ****   report_util_line_feed();
 663:grbl/report.c **** }
 3525              		.loc 1 663 0
 3526 01d0 0BB0     		add	sp, sp, #44
 3527              	.LCFI36:
 3528              		.cfi_remember_state
 3529              		.cfi_def_cfa_offset 20
 3530              		@ sp needed
 3531 01d2 F0BD     		pop	{r4, r5, r6, r7, pc}
 3532              	.L142:
 3533              	.LCFI37:
 3534              		.cfi_restore_state
 500:grbl/report.c ****       if (sys.suspend & SUSPEND_INITIATE_RESTORE) {
 3535              		.loc 1 500 0
 3536 01d4 4A48     		ldr	r0, .L239+48
 3537 01d6 FFF7FEFF 		bl	printString
 3538              	.LVL457:
 501:grbl/report.c ****         serial_write('3'); // Restoring
 3539              		.loc 1 501 0
 3540 01da A378     		ldrb	r3, [r4, #2]	@ zero_extendqisi2
 3541 01dc 1A07     		lsls	r2, r3, #28
 3542 01de 00F1D880 		bmi	.L230
 504:grbl/report.c ****           if (sys.suspend & SUSPEND_SAFETY_DOOR_AJAR) {
 3543              		.loc 1 504 0
 3544 01e2 5F07     		lsls	r7, r3, #29
 3545 01e4 40F1D180 		bpl	.L146
 505:grbl/report.c ****             serial_write('1'); // Door ajar
 3546              		.loc 1 505 0
 3547 01e8 9E06     		lsls	r6, r3, #26
 3548 01ea 40F1A280 		bpl	.L147
 3549              	.L144:
 492:grbl/report.c ****       } // Continues to print jog state during jog cancel.
 3550              		.loc 1 492 0
 3551 01ee 3120     		movs	r0, #49
 3552 01f0 FFF7FEFF 		bl	serial_write
 3553              	.LVL458:
 3554 01f4 61E7     		b	.L132
 3555              	.L137:
 498:grbl/report.c ****     case STATE_SAFETY_DOOR:
 3556              		.loc 1 498 0
 3557 01f6 4348     		ldr	r0, .L239+52
 3558 01f8 FFF7FEFF 		bl	printString
 3559              	.LVL459:
 3560 01fc 5DE7     		b	.L132
 3561              	.LVL460:
 3562              	.L163:
 614:grbl/report.c ****         sys.report_wco_counter = (REPORT_WCO_REFRESH_BUSY_COUNT-1); // Reset counter for slow refre
 3563              		.loc 1 614 0
 3564 01fe 2278     		ldrb	r2, [r4]	@ zero_extendqisi2
 617:grbl/report.c ****       printPgmString(PSTR("|WCO:"));
 3565              		.loc 1 617 0
ARM GAS  /var/folders/m1/3lv6xmzs0mlckxs4mx90nfb40000gn/T//ccxdmtnn.s 			page 80


 3566 0200 237B     		ldrb	r3, [r4, #12]	@ zero_extendqisi2
 616:grbl/report.c ****       if (sys.report_ovr_counter == 0) { sys.report_ovr_counter = 1; } // Set override on next repo
 3567              		.loc 1 616 0
 3568 0202 12F07C0F 		tst	r2, #124
 3569 0206 14BF     		ite	ne
 3570 0208 1D22     		movne	r2, #29
 3571 020a 0922     		moveq	r2, #9
 3572 020c 6273     		strb	r2, [r4, #13]
 617:grbl/report.c ****       printPgmString(PSTR("|WCO:"));
 3573              		.loc 1 617 0
 3574 020e 0BB9     		cbnz	r3, .L166
 617:grbl/report.c ****       printPgmString(PSTR("|WCO:"));
 3575              		.loc 1 617 0 is_stmt 0 discriminator 1
 3576 0210 0123     		movs	r3, #1
 3577 0212 2373     		strb	r3, [r4, #12]
 3578              	.L166:
 618:grbl/report.c ****       report_util_axis_values(wco);
 3579              		.loc 1 618 0 is_stmt 1
 3580 0214 3C48     		ldr	r0, .L239+56
 3581 0216 FFF7FEFF 		bl	printString
 3582              	.LVL461:
 3583              	.LBB884:
 3584              	.LBB885:
  42:grbl/report.c ****     if (idx < (N_AXIS-1)) { serial_write(','); }
 3585              		.loc 1 42 0
 3586 021a 0798     		ldr	r0, [sp, #28]	@ float
 3587 021c FFF7FEFF 		bl	printFloat_CoordValue
 3588              	.LVL462:
  43:grbl/report.c ****   }
 3589              		.loc 1 43 0
 3590 0220 2C20     		movs	r0, #44
 3591 0222 FFF7FEFF 		bl	serial_write
 3592              	.LVL463:
  42:grbl/report.c ****     if (idx < (N_AXIS-1)) { serial_write(','); }
 3593              		.loc 1 42 0
 3594 0226 0898     		ldr	r0, [sp, #32]	@ float
 3595 0228 FFF7FEFF 		bl	printFloat_CoordValue
 3596              	.LVL464:
  43:grbl/report.c ****   }
 3597              		.loc 1 43 0
 3598 022c 2C20     		movs	r0, #44
 3599 022e FFF7FEFF 		bl	serial_write
 3600              	.LVL465:
  42:grbl/report.c ****     if (idx < (N_AXIS-1)) { serial_write(','); }
 3601              		.loc 1 42 0
 3602 0232 0998     		ldr	r0, [sp, #36]	@ float
 3603 0234 FFF7FEFF 		bl	printFloat_CoordValue
 3604              	.LVL466:
 3605              	.LBE885:
 3606              	.LBE884:
 624:grbl/report.c ****     else {
 3607              		.loc 1 624 0
 3608 0238 237B     		ldrb	r3, [r4, #12]	@ zero_extendqisi2
 3609 023a 002B     		cmp	r3, #0
 3610 023c 94D0     		beq	.L167
 3611              	.LVL467:
 3612              	.L228:
ARM GAS  /var/folders/m1/3lv6xmzs0mlckxs4mx90nfb40000gn/T//ccxdmtnn.s 			page 81


 624:grbl/report.c ****     else {
 3613              		.loc 1 624 0 is_stmt 0 discriminator 1
 3614 023e 013B     		subs	r3, r3, #1
 3615 0240 2373     		strb	r3, [r4, #12]
 3616 0242 BFE7     		b	.L168
 3617              	.LVL468:
 3618              	.L227:
 581:grbl/report.c ****       if (prb_pin_state) { serial_write('P'); }
 3619              		.loc 1 581 0 is_stmt 1
 3620 0244 3148     		ldr	r0, .L239+60
 3621              	.LVL469:
 3622 0246 FFF7FEFF 		bl	printString
 3623              	.LVL470:
 582:grbl/report.c ****       if (lim_pin_state) {
 3624              		.loc 1 582 0
 3625 024a D7B9     		cbnz	r7, .L231
 3626              	.L153:
 583:grbl/report.c ****         if (bit_istrue(lim_pin_state,bit(X_AXIS))) { serial_write('X'); }
 3627              		.loc 1 583 0
 3628 024c 3EB1     		cbz	r6, .L155
 584:grbl/report.c ****         if (bit_istrue(lim_pin_state,bit(Y_AXIS))) { serial_write('Y'); }
 3629              		.loc 1 584 0
 3630 024e F107     		lsls	r1, r6, #31
 3631 0250 00F18F80 		bmi	.L232
 3632              	.L156:
 585:grbl/report.c ****         if (bit_istrue(lim_pin_state,bit(Z_AXIS))) { serial_write('Z'); }
 3633              		.loc 1 585 0
 3634 0254 B207     		lsls	r2, r6, #30
 3635 0256 00F18880 		bmi	.L233
 3636              	.L157:
 586:grbl/report.c ****         #if ( defined(STM32F1_4) || defined(STM32F4_4) )
 3637              		.loc 1 586 0
 3638 025a 7307     		lsls	r3, r6, #29
 3639 025c 15D4     		bmi	.L234
 3640              	.L155:
 600:grbl/report.c ****         #ifdef ENABLE_SAFETY_DOOR_INPUT_PIN
 3641              		.loc 1 600 0
 3642 025e 002D     		cmp	r5, #0
 3643 0260 3FF47AAF 		beq	.L152
 602:grbl/report.c ****         #endif
 3644              		.loc 1 602 0
 3645 0264 EF07     		lsls	r7, r5, #31
 3646 0266 00F18C80 		bmi	.L235
 3647              	.L160:
 604:grbl/report.c ****         if (bit_istrue(ctrl_pin_state,CONTROL_PIN_INDEX_FEED_HOLD)) { serial_write('H'); }
 3648              		.loc 1 604 0
 3649 026a AE07     		lsls	r6, r5, #30
 3650              	.LVL471:
 3651 026c 00F18580 		bmi	.L236
 3652              	.L161:
 605:grbl/report.c ****         if (bit_istrue(ctrl_pin_state,CONTROL_PIN_INDEX_CYCLE_START)) { serial_write('S'); }
 3653              		.loc 1 605 0
 3654 0270 6807     		lsls	r0, r5, #29
 3655 0272 76D4     		bmi	.L237
 3656              	.L162:
 606:grbl/report.c ****       }
 3657              		.loc 1 606 0
ARM GAS  /var/folders/m1/3lv6xmzs0mlckxs4mx90nfb40000gn/T//ccxdmtnn.s 			page 82


 3658 0274 2907     		lsls	r1, r5, #28
 3659 0276 7FF56FAF 		bpl	.L152
 606:grbl/report.c ****       }
 3660              		.loc 1 606 0 is_stmt 0 discriminator 1
 3661 027a 5320     		movs	r0, #83
 3662 027c FFF7FEFF 		bl	serial_write
 3663              	.LVL472:
 3664 0280 6AE7     		b	.L152
 3665              	.LVL473:
 3666              	.L231:
 582:grbl/report.c ****       if (lim_pin_state) {
 3667              		.loc 1 582 0 is_stmt 1 discriminator 1
 3668 0282 5020     		movs	r0, #80
 3669 0284 FFF7FEFF 		bl	serial_write
 3670              	.LVL474:
 3671 0288 E0E7     		b	.L153
 3672              	.L234:
 586:grbl/report.c ****         #if ( defined(STM32F1_4) || defined(STM32F4_4) )
 3673              		.loc 1 586 0 discriminator 1
 3674 028a 5A20     		movs	r0, #90
 3675 028c FFF7FEFF 		bl	serial_write
 3676              	.LVL475:
 3677 0290 E5E7     		b	.L155
 3678              	.LVL476:
 3679              	.L226:
 542:grbl/report.c ****       print_uint8_base10(plan_get_block_buffer_available());
 3680              		.loc 1 542 0
 3681 0292 1F48     		ldr	r0, .L239+64
 3682 0294 FFF7FEFF 		bl	printString
 3683              	.LVL477:
 543:grbl/report.c ****       serial_write(',');
 3684              		.loc 1 543 0
 3685 0298 FFF7FEFF 		bl	plan_get_block_buffer_available
 3686              	.LVL478:
 3687 029c FFF7FEFF 		bl	print_uint8_base10
 3688              	.LVL479:
 544:grbl/report.c ****       print_uint8_base10(serial_get_rx_buffer_available());
 3689              		.loc 1 544 0
 3690 02a0 2C20     		movs	r0, #44
 3691 02a2 FFF7FEFF 		bl	serial_write
 3692              	.LVL480:
 545:grbl/report.c ****     }
 3693              		.loc 1 545 0
 3694 02a6 FFF7FEFF 		bl	serial_get_rx_buffer_available
 3695              	.LVL481:
 3696 02aa FFF7FEFF 		bl	print_uint8_base10
 3697              	.LVL482:
 3698 02ae 36E7     		b	.L150
 3699              	.LVL483:
 3700              	.L170:
 3701              	.LBB886:
 639:grbl/report.c ****         if (sp_state) { // != SPINDLE_STATE_DISABLE
 3702              		.loc 1 639 0
 3703 02b0 1148     		ldr	r0, .L239+40
 3704              	.LVL484:
 3705 02b2 FFF7FEFF 		bl	printString
 3706              	.LVL485:
ARM GAS  /var/folders/m1/3lv6xmzs0mlckxs4mx90nfb40000gn/T//ccxdmtnn.s 			page 83


 645:grbl/report.c ****               else { serial_write('C'); } // CCW
 3707              		.loc 1 645 0
 3708 02b6 012D     		cmp	r5, #1
 3709 02b8 4FD0     		beq	.L238
 646:grbl/report.c ****             #endif
 3710              		.loc 1 646 0
 3711 02ba 4320     		movs	r0, #67
 3712 02bc FFF7FEFF 		bl	serial_write
 3713              	.LVL486:
 653:grbl/report.c ****         #ifdef ENABLE_M7
 3714              		.loc 1 653 0
 3715 02c0 E207     		lsls	r2, r4, #31
 3716 02c2 7FF57AAF 		bpl	.L173
 3717              	.L229:
 653:grbl/report.c ****         #ifdef ENABLE_M7
 3718              		.loc 1 653 0 is_stmt 0 discriminator 1
 3719 02c6 4620     		movs	r0, #70
 3720 02c8 FFF7FEFF 		bl	serial_write
 3721              	.LVL487:
 3722 02cc 75E7     		b	.L173
 3723              	.L240:
 3724 02ce 00BF     		.align	2
 3725              	.L239:
 3726 02d0 00000000 		.word	sys_position
 3727 02d4 00000000 		.word	sys
 3728 02d8 00000000 		.word	settings
 3729 02dc 38000000 		.word	.LC43
 3730 02e0 00000000 		.word	gc_state
 3731 02e4 74000000 		.word	.LC51
 3732 02e8 18000000 		.word	.LC39
 3733 02ec 40000000 		.word	.LC44
 3734 02f0 50000000 		.word	.LC46
 3735 02f4 68000000 		.word	.LC49
 3736 02f8 70000000 		.word	.LC50
 3737 02fc 10000000 		.word	.LC2
 3738 0300 30000000 		.word	.LC42
 3739 0304 28000000 		.word	.LC41
 3740 0308 60000000 		.word	.LC48
 3741 030c 58000000 		.word	.LC47
 3742 0310 48000000 		.word	.LC45
 3743              	.LVL488:
 3744              	.L224:
 3745              	.LBE886:
 484:grbl/report.c ****     case STATE_IDLE: printPgmString(PSTR("Idle")); break;
 3746              		.loc 1 484 0 is_stmt 1
 3747 0314 102B     		cmp	r3, #16
 3748 0316 7FF4D0AE 		bne	.L132
 488:grbl/report.c ****       {
 3749              		.loc 1 488 0
 3750 031a 94F90230 		ldrsb	r3, [r4, #2]
 3751 031e 002B     		cmp	r3, #0
 3752 0320 FFF6CBAE 		blt	.L132
 490:grbl/report.c ****         if (sys.suspend & SUSPEND_HOLD_COMPLETE) { serial_write('0'); } // Ready to resume
 3753              		.loc 1 490 0
 3754 0324 1D48     		ldr	r0, .L241
 3755 0326 FFF7FEFF 		bl	printString
 3756              	.LVL489:
ARM GAS  /var/folders/m1/3lv6xmzs0mlckxs4mx90nfb40000gn/T//ccxdmtnn.s 			page 84


 491:grbl/report.c ****         else { serial_write('1'); } // Actively holding
 3757              		.loc 1 491 0
 3758 032a A378     		ldrb	r3, [r4, #2]	@ zero_extendqisi2
 3759 032c D907     		lsls	r1, r3, #31
 3760 032e 7FF55EAF 		bpl	.L144
 3761              	.L147:
 491:grbl/report.c ****         else { serial_write('1'); } // Actively holding
 3762              		.loc 1 491 0 is_stmt 0 discriminator 1
 3763 0332 3020     		movs	r0, #48
 3764 0334 FFF7FEFF 		bl	serial_write
 3765              	.LVL490:
 3766 0338 BFE6     		b	.L132
 3767              	.L139:
 495:grbl/report.c ****     case STATE_HOMING: printPgmString(PSTR("Home")); break;
 3768              		.loc 1 495 0 is_stmt 1
 3769 033a 1948     		ldr	r0, .L241+4
 3770 033c FFF7FEFF 		bl	printString
 3771              	.LVL491:
 3772 0340 BBE6     		b	.L132
 3773              	.L136:
 485:grbl/report.c ****     case STATE_CYCLE: printPgmString(PSTR("Run")); break;
 3774              		.loc 1 485 0
 3775 0342 1848     		ldr	r0, .L241+8
 3776 0344 FFF7FEFF 		bl	printString
 3777              	.LVL492:
 3778 0348 B7E6     		b	.L132
 3779              	.L135:
 497:grbl/report.c ****     case STATE_CHECK_MODE: printPgmString(PSTR("Check")); break;
 3780              		.loc 1 497 0
 3781 034a 1748     		ldr	r0, .L241+12
 3782 034c FFF7FEFF 		bl	printString
 3783              	.LVL493:
 3784 0350 B3E6     		b	.L132
 3785              	.L133:
 486:grbl/report.c ****     case STATE_HOLD:
 3786              		.loc 1 486 0
 3787 0352 1648     		ldr	r0, .L241+16
 3788 0354 FFF7FEFF 		bl	printString
 3789              	.LVL494:
 3790 0358 AFE6     		b	.L132
 3791              	.LVL495:
 3792              	.L238:
 3793              	.LBB887:
 645:grbl/report.c ****               else { serial_write('C'); } // CCW
 3794              		.loc 1 645 0 discriminator 1
 3795 035a 5320     		movs	r0, #83
 3796 035c FFF7FEFF 		bl	serial_write
 3797              	.LVL496:
 3798 0360 28E7     		b	.L172
 3799              	.LVL497:
 3800              	.L237:
 3801              	.LBE887:
 605:grbl/report.c ****         if (bit_istrue(ctrl_pin_state,CONTROL_PIN_INDEX_CYCLE_START)) { serial_write('S'); }
 3802              		.loc 1 605 0 discriminator 1
 3803 0362 4820     		movs	r0, #72
 3804 0364 FFF7FEFF 		bl	serial_write
 3805              	.LVL498:
ARM GAS  /var/folders/m1/3lv6xmzs0mlckxs4mx90nfb40000gn/T//ccxdmtnn.s 			page 85


 3806 0368 84E7     		b	.L162
 3807              	.LVL499:
 3808              	.L233:
 585:grbl/report.c ****         if (bit_istrue(lim_pin_state,bit(Z_AXIS))) { serial_write('Z'); }
 3809              		.loc 1 585 0 discriminator 1
 3810 036a 5920     		movs	r0, #89
 3811 036c FFF7FEFF 		bl	serial_write
 3812              	.LVL500:
 3813 0370 73E7     		b	.L157
 3814              	.L232:
 584:grbl/report.c ****         if (bit_istrue(lim_pin_state,bit(Y_AXIS))) { serial_write('Y'); }
 3815              		.loc 1 584 0 discriminator 1
 3816 0372 5820     		movs	r0, #88
 3817 0374 FFF7FEFF 		bl	serial_write
 3818              	.LVL501:
 3819 0378 6CE7     		b	.L156
 3820              	.LVL502:
 3821              	.L236:
 604:grbl/report.c ****         if (bit_istrue(ctrl_pin_state,CONTROL_PIN_INDEX_FEED_HOLD)) { serial_write('H'); }
 3822              		.loc 1 604 0 discriminator 1
 3823 037a 5220     		movs	r0, #82
 3824 037c FFF7FEFF 		bl	serial_write
 3825              	.LVL503:
 3826 0380 76E7     		b	.L161
 3827              	.LVL504:
 3828              	.L235:
 602:grbl/report.c ****         #endif
 3829              		.loc 1 602 0 discriminator 1
 3830 0382 4420     		movs	r0, #68
 3831 0384 FFF7FEFF 		bl	serial_write
 3832              	.LVL505:
 3833 0388 6FE7     		b	.L160
 3834              	.LVL506:
 3835              	.L146:
 511:grbl/report.c ****         }
 3836              		.loc 1 511 0
 3837 038a 3220     		movs	r0, #50
 3838 038c FFF7FEFF 		bl	serial_write
 3839              	.LVL507:
 3840 0390 93E6     		b	.L132
 3841              	.L230:
 502:grbl/report.c ****       } else {
 3842              		.loc 1 502 0
 3843 0392 3320     		movs	r0, #51
 3844 0394 FFF7FEFF 		bl	serial_write
 3845              	.LVL508:
 3846 0398 8FE6     		b	.L132
 3847              	.L242:
 3848 039a 00BF     		.align	2
 3849              	.L241:
 3850 039c 0C000000 		.word	.LC37
 3851 03a0 14000000 		.word	.LC38
 3852 03a4 00000000 		.word	.LC35
 3853 03a8 20000000 		.word	.LC40
 3854 03ac 08000000 		.word	.LC36
 3855              		.cfi_endproc
 3856              	.LFE724:
ARM GAS  /var/folders/m1/3lv6xmzs0mlckxs4mx90nfb40000gn/T//ccxdmtnn.s 			page 86


 3858              		.section	.rodata.report_alarm_message.str1.4,"aMS",%progbits,1
 3859              		.align	2
 3860              	.LC3:
 3861 0000 414C4152 		.ascii	"ALARM:\000"
 3861      4D3A00
 3862              		.section	.rodata.report_build_info.str1.4,"aMS",%progbits,1
 3863              		.align	2
 3864              	.LC32:
 3865 0000 5B564552 		.ascii	"[VER:1.1f:0.03.20190903:\000"
 3865      3A312E31 
 3865      663A302E 
 3865      30332E32 
 3865      30313930 
 3866 0019 000000   		.space	3
 3867              	.LC33:
 3868 001c 5B4F5054 		.ascii	"[OPT:\000"
 3868      3A00
 3869              		.section	.rodata.report_echo_line_received.str1.4,"aMS",%progbits,1
 3870              		.align	2
 3871              	.LC34:
 3872 0000 5B656368 		.ascii	"[echo: \000"
 3872      6F3A2000 
 3873              		.section	.rodata.report_feedback_message.str1.4,"aMS",%progbits,1
 3874              		.align	2
 3875              	.LC4:
 3876 0000 5B4D5347 		.ascii	"[MSG:\000"
 3876      3A00
 3877 0006 0000     		.space	2
 3878              	.LC5:
 3879 0008 52657365 		.ascii	"Reset to continue\000"
 3879      7420746F 
 3879      20636F6E 
 3879      74696E75 
 3879      6500
 3880 001a 0000     		.space	2
 3881              	.LC6:
 3882 001c 27244827 		.ascii	"'$H'|'$X' to unlock\000"
 3882      7C272458 
 3882      2720746F 
 3882      20756E6C 
 3882      6F636B00 
 3883              	.LC7:
 3884 0030 43617574 		.ascii	"Caution: Unlocked\000"
 3884      696F6E3A 
 3884      20556E6C 
 3884      6F636B65 
 3884      6400
 3885 0042 0000     		.space	2
 3886              	.LC8:
 3887 0044 456E6162 		.ascii	"Enabled\000"
 3887      6C656400 
 3888              	.LC9:
 3889 004c 44697361 		.ascii	"Disabled\000"
 3889      626C6564 
 3889      00
 3890 0055 000000   		.space	3
 3891              	.LC10:
ARM GAS  /var/folders/m1/3lv6xmzs0mlckxs4mx90nfb40000gn/T//ccxdmtnn.s 			page 87


 3892 0058 43686563 		.ascii	"Check Door\000"
 3892      6B20446F 
 3892      6F7200
 3893 0063 00       		.space	1
 3894              	.LC11:
 3895 0064 43686563 		.ascii	"Check Limits\000"
 3895      6B204C69 
 3895      6D697473 
 3895      00
 3896 0071 000000   		.space	3
 3897              	.LC12:
 3898 0074 50676D20 		.ascii	"Pgm End\000"
 3898      456E6400 
 3899              	.LC13:
 3900 007c 52657374 		.ascii	"Restoring defaults\000"
 3900      6F72696E 
 3900      67206465 
 3900      6661756C 
 3900      747300
 3901 008f 00       		.space	1
 3902              	.LC14:
 3903 0090 52657374 		.ascii	"Restoring spindle\000"
 3903      6F72696E 
 3903      67207370 
 3903      696E646C 
 3903      6500
 3904 00a2 0000     		.space	2
 3905              	.LC15:
 3906 00a4 536C6565 		.ascii	"Sleeping\000"
 3906      70696E67 
 3906      00
 3907              		.section	.rodata.report_gcode_modes.str1.4,"aMS",%progbits,1
 3908              		.align	2
 3909              	.LC24:
 3910 0000 5B47433A 		.ascii	"[GC:G\000"
 3910      4700
 3911 0006 0000     		.space	2
 3912              	.LC25:
 3913 0008 33382E00 		.ascii	"38.\000"
 3914              	.LC26:
 3915 000c 204700   		.ascii	" G\000"
 3916 000f 00       		.space	1
 3917              	.LC27:
 3918 0010 204D00   		.ascii	" M\000"
 3919 0013 00       		.space	1
 3920              	.LC28:
 3921 0014 205400   		.ascii	" T\000"
 3922 0017 00       		.space	1
 3923              	.LC29:
 3924 0018 204600   		.ascii	" F\000"
 3925 001b 00       		.space	1
 3926              	.LC30:
 3927 001c 205300   		.ascii	" S\000"
 3928              		.section	.rodata.report_grbl_help.str1.4,"aMS",%progbits,1
 3929              		.align	2
 3930              	.LC17:
 3931 0000 5B484C50 		.ascii	"[HLP:$$ $# $G $I $N $x=val $Nx=line $J=line $SLP $C"
ARM GAS  /var/folders/m1/3lv6xmzs0mlckxs4mx90nfb40000gn/T//ccxdmtnn.s 			page 88


 3931      3A242420 
 3931      24232024 
 3931      47202449 
 3931      20244E20 
 3932 0033 20245820 		.ascii	" $X $H ~ ! ? ctrl-x]\015\012\000"
 3932      2448207E 
 3932      2021203F 
 3932      20637472 
 3932      6C2D785D 
 3933              		.section	.rodata.report_init_message.str1.4,"aMS",%progbits,1
 3934              		.align	2
 3935              	.LC16:
 3936 0000 0D0A4772 		.ascii	"\015\012Grbl 1.1f:0.03 ['$' for help]\015\012\000"
 3936      626C2031 
 3936      2E31663A 
 3936      302E3033 
 3936      205B2724 
 3937              		.section	.rodata.report_ngc_parameters.str1.4,"aMS",%progbits,1
 3938              		.align	2
 3939              	.LC19:
 3940 0000 5B4700   		.ascii	"[G\000"
 3941 0003 00       		.space	1
 3942              	.LC20:
 3943 0004 323800   		.ascii	"28\000"
 3944 0007 00       		.space	1
 3945              	.LC21:
 3946 0008 333000   		.ascii	"30\000"
 3947 000b 00       		.space	1
 3948              	.LC22:
 3949 000c 5B473932 		.ascii	"[G92:\000"
 3949      3A00
 3950 0012 0000     		.space	2
 3951              	.LC23:
 3952 0014 5B544C4F 		.ascii	"[TLO:\000"
 3952      3A00
 3953              		.section	.rodata.report_probe_parameters.str1.4,"aMS",%progbits,1
 3954              		.align	2
 3955              	.LC18:
 3956 0000 5B505242 		.ascii	"[PRB:\000"
 3956      3A00
 3957              		.section	.rodata.report_realtime_status.str1.4,"aMS",%progbits,1
 3958              		.align	2
 3959              	.LC35:
 3960 0000 49646C65 		.ascii	"Idle\000"
 3960      00
 3961 0005 000000   		.space	3
 3962              	.LC36:
 3963 0008 52756E00 		.ascii	"Run\000"
 3964              	.LC37:
 3965 000c 486F6C64 		.ascii	"Hold:\000"
 3965      3A00
 3966 0012 0000     		.space	2
 3967              	.LC38:
 3968 0014 4A6F6700 		.ascii	"Jog\000"
 3969              	.LC39:
 3970 0018 486F6D65 		.ascii	"Home\000"
 3970      00
ARM GAS  /var/folders/m1/3lv6xmzs0mlckxs4mx90nfb40000gn/T//ccxdmtnn.s 			page 89


 3971 001d 000000   		.space	3
 3972              	.LC40:
 3973 0020 416C6172 		.ascii	"Alarm\000"
 3973      6D00
 3974 0026 0000     		.space	2
 3975              	.LC41:
 3976 0028 43686563 		.ascii	"Check\000"
 3976      6B00
 3977 002e 0000     		.space	2
 3978              	.LC42:
 3979 0030 446F6F72 		.ascii	"Door:\000"
 3979      3A00
 3980 0036 0000     		.space	2
 3981              	.LC43:
 3982 0038 536C6565 		.ascii	"Sleep\000"
 3982      7000
 3983 003e 0000     		.space	2
 3984              	.LC44:
 3985 0040 7C4D506F 		.ascii	"|MPos:\000"
 3985      733A00
 3986 0047 00       		.space	1
 3987              	.LC45:
 3988 0048 7C42663A 		.ascii	"|Bf:\000"
 3988      00
 3989 004d 000000   		.space	3
 3990              	.LC46:
 3991 0050 7C46533A 		.ascii	"|FS:\000"
 3991      00
 3992 0055 000000   		.space	3
 3993              	.LC47:
 3994 0058 7C506E3A 		.ascii	"|Pn:\000"
 3994      00
 3995 005d 000000   		.space	3
 3996              	.LC48:
 3997 0060 7C57434F 		.ascii	"|WCO:\000"
 3997      3A00
 3998 0066 0000     		.space	2
 3999              	.LC49:
 4000 0068 7C4F763A 		.ascii	"|Ov:\000"
 4000      00
 4001 006d 000000   		.space	3
 4002              	.LC50:
 4003 0070 7C413A00 		.ascii	"|A:\000"
 4004              	.LC51:
 4005 0074 7C57506F 		.ascii	"|WPos:\000"
 4005      733A00
 4006              		.section	.rodata.report_startup_line.str1.4,"aMS",%progbits,1
 4007              		.align	2
 4008              	.LC31:
 4009 0000 244E00   		.ascii	"$N\000"
 4010              		.section	.rodata.report_status_message.str1.4,"aMS",%progbits,1
 4011              		.align	2
 4012              	.LC0:
 4013 0000 6F6B0D0A 		.ascii	"ok\015\012\000"
 4013      00
 4014 0005 000000   		.space	3
 4015              	.LC1:
ARM GAS  /var/folders/m1/3lv6xmzs0mlckxs4mx90nfb40000gn/T//ccxdmtnn.s 			page 90


 4016 0008 6572726F 		.ascii	"error:\000"
 4016      723A00
 4017 000f 00       		.space	1
 4018              	.LC2:
 4019 0010 0D0A00   		.ascii	"\015\012\000"
 4020              		.text
 4021              	.Letext0:
 4022              		.file 2 "/usr/local/Cellar/gcc-arm-none-eabi/20180627/arm-none-eabi/include/machine/_default_types
 4023              		.file 3 "/usr/local/Cellar/gcc-arm-none-eabi/20180627/arm-none-eabi/include/sys/lock.h"
 4024              		.file 4 "/usr/local/Cellar/gcc-arm-none-eabi/20180627/arm-none-eabi/include/sys/_types.h"
 4025              		.file 5 "/usr/local/Cellar/gcc-arm-none-eabi/20180627/lib/gcc/arm-none-eabi/7.3.1/include/stddef.h
 4026              		.file 6 "/usr/local/Cellar/gcc-arm-none-eabi/20180627/arm-none-eabi/include/sys/reent.h"
 4027              		.file 7 "/usr/local/Cellar/gcc-arm-none-eabi/20180627/arm-none-eabi/include/math.h"
 4028              		.file 8 "/usr/local/Cellar/gcc-arm-none-eabi/20180627/arm-none-eabi/include/sys/_stdint.h"
 4029              		.file 9 "Drivers/CMSIS/Include/core_cm3.h"
 4030              		.file 10 "Drivers/CMSIS/Device/ST/STM32F1xx/Include/system_stm32f1xx.h"
 4031              		.file 11 "Drivers/STM32F1xx_HAL_Driver/Inc/stm32f1xx_hal.h"
 4032              		.file 12 "Drivers/STM32F1xx_HAL_Driver/Inc/stm32f1xx_ll_tim.h"
 4033              		.file 13 "Drivers/STM32F1xx_HAL_Driver/Inc/stm32f1xx_ll_dma.h"
 4034              		.file 14 "stm32/stm32utilities.h"
 4035              		.file 15 "/usr/local/Cellar/gcc-arm-none-eabi/20180627/arm-none-eabi/include/stdlib.h"
 4036              		.file 16 "grbl/settings.h"
 4037              		.file 17 "grbl/system.h"
 4038              		.file 18 "grbl/gcode.h"
 4039              		.file 19 "grbl/print.h"
 4040              		.file 20 "grbl/serial.h"
 4041              		.file 21 "grbl/spindle_control.h"
 4042              		.file 22 "grbl/coolant_control.h"
 4043              		.file 23 "grbl/stepper.h"
 4044              		.file 24 "grbl/limits.h"
 4045              		.file 25 "grbl/probe.h"
 4046              		.file 26 "grbl/planner.h"
 4047              		.file 27 "grbl/nuts_bolts.h"
ARM GAS  /var/folders/m1/3lv6xmzs0mlckxs4mx90nfb40000gn/T//ccxdmtnn.s 			page 91

