ARM GAS  /var/folders/m1/3lv6xmzs0mlckxs4mx90nfb40000gn/T//cczUMWYd.s 			page 1


   1              		.cpu cortex-m3
   2              		.eabi_attribute 20, 1
   3              		.eabi_attribute 21, 1
   4              		.eabi_attribute 23, 3
   5              		.eabi_attribute 24, 1
   6              		.eabi_attribute 25, 1
   7              		.eabi_attribute 26, 1
   8              		.eabi_attribute 30, 2
   9              		.eabi_attribute 34, 1
  10              		.eabi_attribute 18, 4
  11              		.file	"stm32f1xx_it.c"
  12              		.text
  13              	.Ltext0:
  14              		.cfi_sections	.debug_frame
  15              		.section	.text.NMI_Handler,"ax",%progbits
  16              		.align	1
  17              		.p2align 2,,3
  18              		.global	NMI_Handler
  19              		.syntax unified
  20              		.thumb
  21              		.thumb_func
  22              		.fpu softvfp
  24              	NMI_Handler:
  25              	.LFB703:
  26              		.file 1 "Src/stm32f1xx_it.c"
   1:Src/stm32f1xx_it.c **** /* USER CODE BEGIN Header */
   2:Src/stm32f1xx_it.c **** /**
   3:Src/stm32f1xx_it.c ****   ******************************************************************************
   4:Src/stm32f1xx_it.c ****   * @file    stm32f1xx_it.c
   5:Src/stm32f1xx_it.c ****   * @brief   Interrupt Service Routines.
   6:Src/stm32f1xx_it.c ****   ******************************************************************************
   7:Src/stm32f1xx_it.c ****   * @attention
   8:Src/stm32f1xx_it.c ****   *
   9:Src/stm32f1xx_it.c ****   * <h2><center>&copy; Copyright (c) 2020 STMicroelectronics.
  10:Src/stm32f1xx_it.c ****   * All rights reserved.</center></h2>
  11:Src/stm32f1xx_it.c ****   *
  12:Src/stm32f1xx_it.c ****   * This software component is licensed by ST under BSD 3-Clause license,
  13:Src/stm32f1xx_it.c ****   * the "License"; You may not use this file except in compliance with the
  14:Src/stm32f1xx_it.c ****   * License. You may obtain a copy of the License at:
  15:Src/stm32f1xx_it.c ****   *                        opensource.org/licenses/BSD-3-Clause
  16:Src/stm32f1xx_it.c ****   *
  17:Src/stm32f1xx_it.c ****   ******************************************************************************
  18:Src/stm32f1xx_it.c ****   */
  19:Src/stm32f1xx_it.c **** /* USER CODE END Header */
  20:Src/stm32f1xx_it.c **** 
  21:Src/stm32f1xx_it.c **** /* Includes ------------------------------------------------------------------*/
  22:Src/stm32f1xx_it.c **** #include "main.h"
  23:Src/stm32f1xx_it.c **** #include "stm32f1xx_it.h"
  24:Src/stm32f1xx_it.c **** /* Private includes ----------------------------------------------------------*/
  25:Src/stm32f1xx_it.c **** /* USER CODE BEGIN Includes */
  26:Src/stm32f1xx_it.c **** #include "system.h"		//-- HandleControlIT
  27:Src/stm32f1xx_it.c **** #include "limits.h"		//-- HandleLimitIT
  28:Src/stm32f1xx_it.c **** #include "stepper.h"	//-- HandleStepSetIT and HandleStepResetIT
  29:Src/stm32f1xx_it.c **** #include "serial.h"		//-- HandleUartIT
  30:Src/stm32f1xx_it.c **** /* USER CODE END Includes */
  31:Src/stm32f1xx_it.c **** 
  32:Src/stm32f1xx_it.c **** /* Private typedef -----------------------------------------------------------*/
ARM GAS  /var/folders/m1/3lv6xmzs0mlckxs4mx90nfb40000gn/T//cczUMWYd.s 			page 2


  33:Src/stm32f1xx_it.c **** /* USER CODE BEGIN TD */
  34:Src/stm32f1xx_it.c **** 
  35:Src/stm32f1xx_it.c **** /* USER CODE END TD */
  36:Src/stm32f1xx_it.c **** 
  37:Src/stm32f1xx_it.c **** /* Private define ------------------------------------------------------------*/
  38:Src/stm32f1xx_it.c **** /* USER CODE BEGIN PD */
  39:Src/stm32f1xx_it.c ****  
  40:Src/stm32f1xx_it.c **** /* USER CODE END PD */
  41:Src/stm32f1xx_it.c **** 
  42:Src/stm32f1xx_it.c **** /* Private macro -------------------------------------------------------------*/
  43:Src/stm32f1xx_it.c **** /* USER CODE BEGIN PM */
  44:Src/stm32f1xx_it.c **** 
  45:Src/stm32f1xx_it.c **** /* USER CODE END PM */
  46:Src/stm32f1xx_it.c **** 
  47:Src/stm32f1xx_it.c **** /* Private variables ---------------------------------------------------------*/
  48:Src/stm32f1xx_it.c **** /* USER CODE BEGIN PV */
  49:Src/stm32f1xx_it.c **** 
  50:Src/stm32f1xx_it.c **** /* USER CODE END PV */
  51:Src/stm32f1xx_it.c **** 
  52:Src/stm32f1xx_it.c **** /* Private function prototypes -----------------------------------------------*/
  53:Src/stm32f1xx_it.c **** /* USER CODE BEGIN PFP */
  54:Src/stm32f1xx_it.c **** 
  55:Src/stm32f1xx_it.c **** /* USER CODE END PFP */
  56:Src/stm32f1xx_it.c **** 
  57:Src/stm32f1xx_it.c **** /* Private user code ---------------------------------------------------------*/
  58:Src/stm32f1xx_it.c **** /* USER CODE BEGIN 0 */
  59:Src/stm32f1xx_it.c **** uint16_t pinmask;			//-- debug
  60:Src/stm32f1xx_it.c **** /* USER CODE END 0 */
  61:Src/stm32f1xx_it.c **** 
  62:Src/stm32f1xx_it.c **** /* External variables --------------------------------------------------------*/
  63:Src/stm32f1xx_it.c **** 
  64:Src/stm32f1xx_it.c **** /* USER CODE BEGIN EV */
  65:Src/stm32f1xx_it.c **** 
  66:Src/stm32f1xx_it.c **** /* USER CODE END EV */
  67:Src/stm32f1xx_it.c **** 
  68:Src/stm32f1xx_it.c **** /******************************************************************************/
  69:Src/stm32f1xx_it.c **** /*           Cortex-M3 Processor Interruption and Exception Handlers          */ 
  70:Src/stm32f1xx_it.c **** /******************************************************************************/
  71:Src/stm32f1xx_it.c **** /**
  72:Src/stm32f1xx_it.c ****   * @brief This function handles Non maskable interrupt.
  73:Src/stm32f1xx_it.c ****   */
  74:Src/stm32f1xx_it.c **** void NMI_Handler(void)
  75:Src/stm32f1xx_it.c **** {
  27              		.loc 1 75 0
  28              		.cfi_startproc
  29              		@ args = 0, pretend = 0, frame = 0
  30              		@ frame_needed = 0, uses_anonymous_args = 0
  31              		@ link register save eliminated.
  76:Src/stm32f1xx_it.c ****   /* USER CODE BEGIN NonMaskableInt_IRQn 0 */
  77:Src/stm32f1xx_it.c **** 
  78:Src/stm32f1xx_it.c ****   /* USER CODE END NonMaskableInt_IRQn 0 */
  79:Src/stm32f1xx_it.c ****   /* USER CODE BEGIN NonMaskableInt_IRQn 1 */
  80:Src/stm32f1xx_it.c **** 
  81:Src/stm32f1xx_it.c ****   /* USER CODE END NonMaskableInt_IRQn 1 */
  82:Src/stm32f1xx_it.c **** }
  32              		.loc 1 82 0
  33 0000 7047     		bx	lr
ARM GAS  /var/folders/m1/3lv6xmzs0mlckxs4mx90nfb40000gn/T//cczUMWYd.s 			page 3


  34              		.cfi_endproc
  35              	.LFE703:
  37 0002 00BF     		.section	.text.HardFault_Handler,"ax",%progbits
  38              		.align	1
  39              		.p2align 2,,3
  40              		.global	HardFault_Handler
  41              		.syntax unified
  42              		.thumb
  43              		.thumb_func
  44              		.fpu softvfp
  46              	HardFault_Handler:
  47              	.LFB704:
  83:Src/stm32f1xx_it.c **** 
  84:Src/stm32f1xx_it.c **** /**
  85:Src/stm32f1xx_it.c ****   * @brief This function handles Hard fault interrupt.
  86:Src/stm32f1xx_it.c ****   */
  87:Src/stm32f1xx_it.c **** void HardFault_Handler(void)
  88:Src/stm32f1xx_it.c **** {
  48              		.loc 1 88 0
  49              		.cfi_startproc
  50              		@ Volatile: function does not return.
  51              		@ args = 0, pretend = 0, frame = 0
  52              		@ frame_needed = 0, uses_anonymous_args = 0
  53              		@ link register save eliminated.
  54              	.L4:
  55 0000 FEE7     		b	.L4
  56              		.cfi_endproc
  57              	.LFE704:
  59 0002 00BF     		.section	.text.MemManage_Handler,"ax",%progbits
  60              		.align	1
  61              		.p2align 2,,3
  62              		.global	MemManage_Handler
  63              		.syntax unified
  64              		.thumb
  65              		.thumb_func
  66              		.fpu softvfp
  68              	MemManage_Handler:
  69              	.LFB705:
  89:Src/stm32f1xx_it.c ****   /* USER CODE BEGIN HardFault_IRQn 0 */
  90:Src/stm32f1xx_it.c **** 
  91:Src/stm32f1xx_it.c ****   /* USER CODE END HardFault_IRQn 0 */
  92:Src/stm32f1xx_it.c ****   while (1)
  93:Src/stm32f1xx_it.c ****   {
  94:Src/stm32f1xx_it.c ****     /* USER CODE BEGIN W1_HardFault_IRQn 0 */
  95:Src/stm32f1xx_it.c ****     /* USER CODE END W1_HardFault_IRQn 0 */
  96:Src/stm32f1xx_it.c ****   }
  97:Src/stm32f1xx_it.c **** }
  98:Src/stm32f1xx_it.c **** 
  99:Src/stm32f1xx_it.c **** /**
 100:Src/stm32f1xx_it.c ****   * @brief This function handles Memory management fault.
 101:Src/stm32f1xx_it.c ****   */
 102:Src/stm32f1xx_it.c **** void MemManage_Handler(void)
 103:Src/stm32f1xx_it.c **** {
  70              		.loc 1 103 0
  71              		.cfi_startproc
  72              		@ Volatile: function does not return.
  73              		@ args = 0, pretend = 0, frame = 0
ARM GAS  /var/folders/m1/3lv6xmzs0mlckxs4mx90nfb40000gn/T//cczUMWYd.s 			page 4


  74              		@ frame_needed = 0, uses_anonymous_args = 0
  75              		@ link register save eliminated.
  76              	.L6:
  77 0000 FEE7     		b	.L6
  78              		.cfi_endproc
  79              	.LFE705:
  81 0002 00BF     		.section	.text.BusFault_Handler,"ax",%progbits
  82              		.align	1
  83              		.p2align 2,,3
  84              		.global	BusFault_Handler
  85              		.syntax unified
  86              		.thumb
  87              		.thumb_func
  88              		.fpu softvfp
  90              	BusFault_Handler:
  91              	.LFB706:
 104:Src/stm32f1xx_it.c ****   /* USER CODE BEGIN MemoryManagement_IRQn 0 */
 105:Src/stm32f1xx_it.c **** 
 106:Src/stm32f1xx_it.c ****   /* USER CODE END MemoryManagement_IRQn 0 */
 107:Src/stm32f1xx_it.c ****   while (1)
 108:Src/stm32f1xx_it.c ****   {
 109:Src/stm32f1xx_it.c ****     /* USER CODE BEGIN W1_MemoryManagement_IRQn 0 */
 110:Src/stm32f1xx_it.c ****     /* USER CODE END W1_MemoryManagement_IRQn 0 */
 111:Src/stm32f1xx_it.c ****   }
 112:Src/stm32f1xx_it.c **** }
 113:Src/stm32f1xx_it.c **** 
 114:Src/stm32f1xx_it.c **** /**
 115:Src/stm32f1xx_it.c ****   * @brief This function handles Prefetch fault, memory access fault.
 116:Src/stm32f1xx_it.c ****   */
 117:Src/stm32f1xx_it.c **** void BusFault_Handler(void)
 118:Src/stm32f1xx_it.c **** {
  92              		.loc 1 118 0
  93              		.cfi_startproc
  94              		@ Volatile: function does not return.
  95              		@ args = 0, pretend = 0, frame = 0
  96              		@ frame_needed = 0, uses_anonymous_args = 0
  97              		@ link register save eliminated.
  98              	.L8:
  99 0000 FEE7     		b	.L8
 100              		.cfi_endproc
 101              	.LFE706:
 103 0002 00BF     		.section	.text.UsageFault_Handler,"ax",%progbits
 104              		.align	1
 105              		.p2align 2,,3
 106              		.global	UsageFault_Handler
 107              		.syntax unified
 108              		.thumb
 109              		.thumb_func
 110              		.fpu softvfp
 112              	UsageFault_Handler:
 113              	.LFB707:
 119:Src/stm32f1xx_it.c ****   /* USER CODE BEGIN BusFault_IRQn 0 */
 120:Src/stm32f1xx_it.c **** 
 121:Src/stm32f1xx_it.c ****   /* USER CODE END BusFault_IRQn 0 */
 122:Src/stm32f1xx_it.c ****   while (1)
 123:Src/stm32f1xx_it.c ****   {
 124:Src/stm32f1xx_it.c ****     /* USER CODE BEGIN W1_BusFault_IRQn 0 */
ARM GAS  /var/folders/m1/3lv6xmzs0mlckxs4mx90nfb40000gn/T//cczUMWYd.s 			page 5


 125:Src/stm32f1xx_it.c ****     /* USER CODE END W1_BusFault_IRQn 0 */
 126:Src/stm32f1xx_it.c ****   }
 127:Src/stm32f1xx_it.c **** }
 128:Src/stm32f1xx_it.c **** 
 129:Src/stm32f1xx_it.c **** /**
 130:Src/stm32f1xx_it.c ****   * @brief This function handles Undefined instruction or illegal state.
 131:Src/stm32f1xx_it.c ****   */
 132:Src/stm32f1xx_it.c **** void UsageFault_Handler(void)
 133:Src/stm32f1xx_it.c **** {
 114              		.loc 1 133 0
 115              		.cfi_startproc
 116              		@ Volatile: function does not return.
 117              		@ args = 0, pretend = 0, frame = 0
 118              		@ frame_needed = 0, uses_anonymous_args = 0
 119              		@ link register save eliminated.
 120              	.L10:
 121 0000 FEE7     		b	.L10
 122              		.cfi_endproc
 123              	.LFE707:
 125 0002 00BF     		.section	.text.SVC_Handler,"ax",%progbits
 126              		.align	1
 127              		.p2align 2,,3
 128              		.global	SVC_Handler
 129              		.syntax unified
 130              		.thumb
 131              		.thumb_func
 132              		.fpu softvfp
 134              	SVC_Handler:
 135              	.LFB722:
 136              		.cfi_startproc
 137              		@ args = 0, pretend = 0, frame = 0
 138              		@ frame_needed = 0, uses_anonymous_args = 0
 139              		@ link register save eliminated.
 140 0000 7047     		bx	lr
 141              		.cfi_endproc
 142              	.LFE722:
 144 0002 00BF     		.section	.text.DebugMon_Handler,"ax",%progbits
 145              		.align	1
 146              		.p2align 2,,3
 147              		.global	DebugMon_Handler
 148              		.syntax unified
 149              		.thumb
 150              		.thumb_func
 151              		.fpu softvfp
 153              	DebugMon_Handler:
 154              	.LFB724:
 155              		.cfi_startproc
 156              		@ args = 0, pretend = 0, frame = 0
 157              		@ frame_needed = 0, uses_anonymous_args = 0
 158              		@ link register save eliminated.
 159 0000 7047     		bx	lr
 160              		.cfi_endproc
 161              	.LFE724:
 163 0002 00BF     		.section	.text.PendSV_Handler,"ax",%progbits
 164              		.align	1
 165              		.p2align 2,,3
 166              		.global	PendSV_Handler
ARM GAS  /var/folders/m1/3lv6xmzs0mlckxs4mx90nfb40000gn/T//cczUMWYd.s 			page 6


 167              		.syntax unified
 168              		.thumb
 169              		.thumb_func
 170              		.fpu softvfp
 172              	PendSV_Handler:
 173              	.LFB726:
 174              		.cfi_startproc
 175              		@ args = 0, pretend = 0, frame = 0
 176              		@ frame_needed = 0, uses_anonymous_args = 0
 177              		@ link register save eliminated.
 178 0000 7047     		bx	lr
 179              		.cfi_endproc
 180              	.LFE726:
 182 0002 00BF     		.section	.text.SysTick_Handler,"ax",%progbits
 183              		.align	1
 184              		.p2align 2,,3
 185              		.global	SysTick_Handler
 186              		.syntax unified
 187              		.thumb
 188              		.thumb_func
 189              		.fpu softvfp
 191              	SysTick_Handler:
 192              	.LFB711:
 134:Src/stm32f1xx_it.c ****   /* USER CODE BEGIN UsageFault_IRQn 0 */
 135:Src/stm32f1xx_it.c **** 
 136:Src/stm32f1xx_it.c ****   /* USER CODE END UsageFault_IRQn 0 */
 137:Src/stm32f1xx_it.c ****   while (1)
 138:Src/stm32f1xx_it.c ****   {
 139:Src/stm32f1xx_it.c ****     /* USER CODE BEGIN W1_UsageFault_IRQn 0 */
 140:Src/stm32f1xx_it.c ****     /* USER CODE END W1_UsageFault_IRQn 0 */
 141:Src/stm32f1xx_it.c ****   }
 142:Src/stm32f1xx_it.c **** }
 143:Src/stm32f1xx_it.c **** 
 144:Src/stm32f1xx_it.c **** /**
 145:Src/stm32f1xx_it.c ****   * @brief This function handles System service call via SWI instruction.
 146:Src/stm32f1xx_it.c ****   */
 147:Src/stm32f1xx_it.c **** void SVC_Handler(void)
 148:Src/stm32f1xx_it.c **** {
 149:Src/stm32f1xx_it.c ****   /* USER CODE BEGIN SVCall_IRQn 0 */
 150:Src/stm32f1xx_it.c **** 
 151:Src/stm32f1xx_it.c ****   /* USER CODE END SVCall_IRQn 0 */
 152:Src/stm32f1xx_it.c ****   /* USER CODE BEGIN SVCall_IRQn 1 */
 153:Src/stm32f1xx_it.c **** 
 154:Src/stm32f1xx_it.c ****   /* USER CODE END SVCall_IRQn 1 */
 155:Src/stm32f1xx_it.c **** }
 156:Src/stm32f1xx_it.c **** 
 157:Src/stm32f1xx_it.c **** /**
 158:Src/stm32f1xx_it.c ****   * @brief This function handles Debug monitor.
 159:Src/stm32f1xx_it.c ****   */
 160:Src/stm32f1xx_it.c **** void DebugMon_Handler(void)
 161:Src/stm32f1xx_it.c **** {
 162:Src/stm32f1xx_it.c ****   /* USER CODE BEGIN DebugMonitor_IRQn 0 */
 163:Src/stm32f1xx_it.c **** 
 164:Src/stm32f1xx_it.c ****   /* USER CODE END DebugMonitor_IRQn 0 */
 165:Src/stm32f1xx_it.c ****   /* USER CODE BEGIN DebugMonitor_IRQn 1 */
 166:Src/stm32f1xx_it.c **** 
 167:Src/stm32f1xx_it.c ****   /* USER CODE END DebugMonitor_IRQn 1 */
ARM GAS  /var/folders/m1/3lv6xmzs0mlckxs4mx90nfb40000gn/T//cczUMWYd.s 			page 7


 168:Src/stm32f1xx_it.c **** }
 169:Src/stm32f1xx_it.c **** 
 170:Src/stm32f1xx_it.c **** /**
 171:Src/stm32f1xx_it.c ****   * @brief This function handles Pendable request for system service.
 172:Src/stm32f1xx_it.c ****   */
 173:Src/stm32f1xx_it.c **** void PendSV_Handler(void)
 174:Src/stm32f1xx_it.c **** {
 175:Src/stm32f1xx_it.c ****   /* USER CODE BEGIN PendSV_IRQn 0 */
 176:Src/stm32f1xx_it.c **** 
 177:Src/stm32f1xx_it.c ****   /* USER CODE END PendSV_IRQn 0 */
 178:Src/stm32f1xx_it.c ****   /* USER CODE BEGIN PendSV_IRQn 1 */
 179:Src/stm32f1xx_it.c **** 
 180:Src/stm32f1xx_it.c ****   /* USER CODE END PendSV_IRQn 1 */
 181:Src/stm32f1xx_it.c **** }
 182:Src/stm32f1xx_it.c **** 
 183:Src/stm32f1xx_it.c **** /**
 184:Src/stm32f1xx_it.c ****   * @brief This function handles System tick timer.
 185:Src/stm32f1xx_it.c ****   */
 186:Src/stm32f1xx_it.c **** void SysTick_Handler(void)
 187:Src/stm32f1xx_it.c **** {
 193              		.loc 1 187 0
 194              		.cfi_startproc
 195              		@ args = 0, pretend = 0, frame = 0
 196              		@ frame_needed = 0, uses_anonymous_args = 0
 197              		@ link register save eliminated.
 188:Src/stm32f1xx_it.c ****   /* USER CODE BEGIN SysTick_IRQn 0 */
 189:Src/stm32f1xx_it.c **** 
 190:Src/stm32f1xx_it.c ****   /* USER CODE END SysTick_IRQn 0 */
 191:Src/stm32f1xx_it.c ****   HAL_IncTick();
 198              		.loc 1 191 0
 199 0000 FFF7FEBF 		b	HAL_IncTick
 200              	.LVL0:
 201              		.cfi_endproc
 202              	.LFE711:
 204              		.section	.text.EXTI0_IRQHandler,"ax",%progbits
 205              		.align	1
 206              		.p2align 2,,3
 207              		.global	EXTI0_IRQHandler
 208              		.syntax unified
 209              		.thumb
 210              		.thumb_func
 211              		.fpu softvfp
 213              	EXTI0_IRQHandler:
 214              	.LFB712:
 192:Src/stm32f1xx_it.c ****   /* USER CODE BEGIN SysTick_IRQn 1 */
 193:Src/stm32f1xx_it.c **** 
 194:Src/stm32f1xx_it.c ****   /* USER CODE END SysTick_IRQn 1 */
 195:Src/stm32f1xx_it.c **** }
 196:Src/stm32f1xx_it.c **** 
 197:Src/stm32f1xx_it.c **** /******************************************************************************/
 198:Src/stm32f1xx_it.c **** /* STM32F1xx Peripheral Interrupt Handlers                                    */
 199:Src/stm32f1xx_it.c **** /* Add here the Interrupt Handlers for the used peripherals.                  */
 200:Src/stm32f1xx_it.c **** /* For the available peripheral interrupt handler names,                      */
 201:Src/stm32f1xx_it.c **** /* please refer to the startup file (startup_stm32f1xx.s).                    */
 202:Src/stm32f1xx_it.c **** /******************************************************************************/
 203:Src/stm32f1xx_it.c **** 
 204:Src/stm32f1xx_it.c **** /**
ARM GAS  /var/folders/m1/3lv6xmzs0mlckxs4mx90nfb40000gn/T//cczUMWYd.s 			page 8


 205:Src/stm32f1xx_it.c ****   * @brief This function handles EXTI line0 interrupt.
 206:Src/stm32f1xx_it.c ****   */
 207:Src/stm32f1xx_it.c **** void EXTI0_IRQHandler(void)
 208:Src/stm32f1xx_it.c **** {
 215              		.loc 1 208 0
 216              		.cfi_startproc
 217              		@ args = 0, pretend = 0, frame = 0
 218              		@ frame_needed = 0, uses_anonymous_args = 0
 219 0000 08B5     		push	{r3, lr}
 220              	.LCFI0:
 221              		.cfi_def_cfa_offset 8
 222              		.cfi_offset 3, -8
 223              		.cfi_offset 14, -4
 209:Src/stm32f1xx_it.c ****   /* USER CODE BEGIN EXTI0_IRQn 0 */
 210:Src/stm32f1xx_it.c **** 
 211:Src/stm32f1xx_it.c ****   /* USER CODE END EXTI0_IRQn 0 */
 212:Src/stm32f1xx_it.c ****   HAL_GPIO_EXTI_IRQHandler(GPIO_PIN_0);
 224              		.loc 1 212 0
 225 0002 0120     		movs	r0, #1
 226 0004 FFF7FEFF 		bl	HAL_GPIO_EXTI_IRQHandler
 227              	.LVL1:
 213:Src/stm32f1xx_it.c ****   /* USER CODE BEGIN EXTI0_IRQn 1 */
 214:Src/stm32f1xx_it.c ****   HandleControlIT(GPIO_PIN_0);
 228              		.loc 1 214 0
 229 0008 0120     		movs	r0, #1
 230 000a FFF7FEFF 		bl	HandleControlIT
 231              	.LVL2:
 232              	.LBB44:
 233              	.LBB45:
 234              	.LBB46:
 235              		.file 2 "Drivers/CMSIS/Include/core_cm3.h"
   1:Drivers/CMSIS/Include/core_cm3.h **** /**************************************************************************//**
   2:Drivers/CMSIS/Include/core_cm3.h ****  * @file     core_cm3.h
   3:Drivers/CMSIS/Include/core_cm3.h ****  * @brief    CMSIS Cortex-M3 Core Peripheral Access Layer Header File
   4:Drivers/CMSIS/Include/core_cm3.h ****  * @version  V5.0.8
   5:Drivers/CMSIS/Include/core_cm3.h ****  * @date     04. June 2018
   6:Drivers/CMSIS/Include/core_cm3.h ****  ******************************************************************************/
   7:Drivers/CMSIS/Include/core_cm3.h **** /*
   8:Drivers/CMSIS/Include/core_cm3.h ****  * Copyright (c) 2009-2018 Arm Limited. All rights reserved.
   9:Drivers/CMSIS/Include/core_cm3.h ****  *
  10:Drivers/CMSIS/Include/core_cm3.h ****  * SPDX-License-Identifier: Apache-2.0
  11:Drivers/CMSIS/Include/core_cm3.h ****  *
  12:Drivers/CMSIS/Include/core_cm3.h ****  * Licensed under the Apache License, Version 2.0 (the License); you may
  13:Drivers/CMSIS/Include/core_cm3.h ****  * not use this file except in compliance with the License.
  14:Drivers/CMSIS/Include/core_cm3.h ****  * You may obtain a copy of the License at
  15:Drivers/CMSIS/Include/core_cm3.h ****  *
  16:Drivers/CMSIS/Include/core_cm3.h ****  * www.apache.org/licenses/LICENSE-2.0
  17:Drivers/CMSIS/Include/core_cm3.h ****  *
  18:Drivers/CMSIS/Include/core_cm3.h ****  * Unless required by applicable law or agreed to in writing, software
  19:Drivers/CMSIS/Include/core_cm3.h ****  * distributed under the License is distributed on an AS IS BASIS, WITHOUT
  20:Drivers/CMSIS/Include/core_cm3.h ****  * WARRANTIES OR CONDITIONS OF ANY KIND, either express or implied.
  21:Drivers/CMSIS/Include/core_cm3.h ****  * See the License for the specific language governing permissions and
  22:Drivers/CMSIS/Include/core_cm3.h ****  * limitations under the License.
  23:Drivers/CMSIS/Include/core_cm3.h ****  */
  24:Drivers/CMSIS/Include/core_cm3.h **** 
  25:Drivers/CMSIS/Include/core_cm3.h **** #if   defined ( __ICCARM__ )
  26:Drivers/CMSIS/Include/core_cm3.h ****   #pragma system_include         /* treat file as system include file for MISRA check */
ARM GAS  /var/folders/m1/3lv6xmzs0mlckxs4mx90nfb40000gn/T//cczUMWYd.s 			page 9


  27:Drivers/CMSIS/Include/core_cm3.h **** #elif defined (__clang__)
  28:Drivers/CMSIS/Include/core_cm3.h ****   #pragma clang system_header   /* treat file as system include file */
  29:Drivers/CMSIS/Include/core_cm3.h **** #endif
  30:Drivers/CMSIS/Include/core_cm3.h **** 
  31:Drivers/CMSIS/Include/core_cm3.h **** #ifndef __CORE_CM3_H_GENERIC
  32:Drivers/CMSIS/Include/core_cm3.h **** #define __CORE_CM3_H_GENERIC
  33:Drivers/CMSIS/Include/core_cm3.h **** 
  34:Drivers/CMSIS/Include/core_cm3.h **** #include <stdint.h>
  35:Drivers/CMSIS/Include/core_cm3.h **** 
  36:Drivers/CMSIS/Include/core_cm3.h **** #ifdef __cplusplus
  37:Drivers/CMSIS/Include/core_cm3.h ****  extern "C" {
  38:Drivers/CMSIS/Include/core_cm3.h **** #endif
  39:Drivers/CMSIS/Include/core_cm3.h **** 
  40:Drivers/CMSIS/Include/core_cm3.h **** /**
  41:Drivers/CMSIS/Include/core_cm3.h ****   \page CMSIS_MISRA_Exceptions  MISRA-C:2004 Compliance Exceptions
  42:Drivers/CMSIS/Include/core_cm3.h ****   CMSIS violates the following MISRA-C:2004 rules:
  43:Drivers/CMSIS/Include/core_cm3.h **** 
  44:Drivers/CMSIS/Include/core_cm3.h ****    \li Required Rule 8.5, object/function definition in header file.<br>
  45:Drivers/CMSIS/Include/core_cm3.h ****      Function definitions in header files are used to allow 'inlining'.
  46:Drivers/CMSIS/Include/core_cm3.h **** 
  47:Drivers/CMSIS/Include/core_cm3.h ****    \li Required Rule 18.4, declaration of union type or object of union type: '{...}'.<br>
  48:Drivers/CMSIS/Include/core_cm3.h ****      Unions are used for effective representation of core registers.
  49:Drivers/CMSIS/Include/core_cm3.h **** 
  50:Drivers/CMSIS/Include/core_cm3.h ****    \li Advisory Rule 19.7, Function-like macro defined.<br>
  51:Drivers/CMSIS/Include/core_cm3.h ****      Function-like macros are used to allow more efficient code.
  52:Drivers/CMSIS/Include/core_cm3.h ****  */
  53:Drivers/CMSIS/Include/core_cm3.h **** 
  54:Drivers/CMSIS/Include/core_cm3.h **** 
  55:Drivers/CMSIS/Include/core_cm3.h **** /*******************************************************************************
  56:Drivers/CMSIS/Include/core_cm3.h ****  *                 CMSIS definitions
  57:Drivers/CMSIS/Include/core_cm3.h ****  ******************************************************************************/
  58:Drivers/CMSIS/Include/core_cm3.h **** /**
  59:Drivers/CMSIS/Include/core_cm3.h ****   \ingroup Cortex_M3
  60:Drivers/CMSIS/Include/core_cm3.h ****   @{
  61:Drivers/CMSIS/Include/core_cm3.h ****  */
  62:Drivers/CMSIS/Include/core_cm3.h **** 
  63:Drivers/CMSIS/Include/core_cm3.h **** #include "cmsis_version.h"
  64:Drivers/CMSIS/Include/core_cm3.h **** 
  65:Drivers/CMSIS/Include/core_cm3.h **** /*  CMSIS CM3 definitions */
  66:Drivers/CMSIS/Include/core_cm3.h **** #define __CM3_CMSIS_VERSION_MAIN  (__CM_CMSIS_VERSION_MAIN)              /*!< \deprecated [31:16] C
  67:Drivers/CMSIS/Include/core_cm3.h **** #define __CM3_CMSIS_VERSION_SUB   (__CM_CMSIS_VERSION_SUB)               /*!< \deprecated [15:0]  C
  68:Drivers/CMSIS/Include/core_cm3.h **** #define __CM3_CMSIS_VERSION       ((__CM3_CMSIS_VERSION_MAIN << 16U) | \
  69:Drivers/CMSIS/Include/core_cm3.h ****                                     __CM3_CMSIS_VERSION_SUB           )  /*!< \deprecated CMSIS HAL
  70:Drivers/CMSIS/Include/core_cm3.h **** 
  71:Drivers/CMSIS/Include/core_cm3.h **** #define __CORTEX_M                (3U)                                   /*!< Cortex-M Core */
  72:Drivers/CMSIS/Include/core_cm3.h **** 
  73:Drivers/CMSIS/Include/core_cm3.h **** /** __FPU_USED indicates whether an FPU is used or not.
  74:Drivers/CMSIS/Include/core_cm3.h ****     This core does not support an FPU at all
  75:Drivers/CMSIS/Include/core_cm3.h **** */
  76:Drivers/CMSIS/Include/core_cm3.h **** #define __FPU_USED       0U
  77:Drivers/CMSIS/Include/core_cm3.h **** 
  78:Drivers/CMSIS/Include/core_cm3.h **** #if defined ( __CC_ARM )
  79:Drivers/CMSIS/Include/core_cm3.h ****   #if defined __TARGET_FPU_VFP
  80:Drivers/CMSIS/Include/core_cm3.h ****     #error "Compiler generates FPU instructions for a device without an FPU (check __FPU_PRESENT)"
  81:Drivers/CMSIS/Include/core_cm3.h ****   #endif
  82:Drivers/CMSIS/Include/core_cm3.h **** 
  83:Drivers/CMSIS/Include/core_cm3.h **** #elif defined (__ARMCC_VERSION) && (__ARMCC_VERSION >= 6010050)
ARM GAS  /var/folders/m1/3lv6xmzs0mlckxs4mx90nfb40000gn/T//cczUMWYd.s 			page 10


  84:Drivers/CMSIS/Include/core_cm3.h ****   #if defined __ARM_PCS_VFP
  85:Drivers/CMSIS/Include/core_cm3.h ****     #error "Compiler generates FPU instructions for a device without an FPU (check __FPU_PRESENT)"
  86:Drivers/CMSIS/Include/core_cm3.h ****   #endif
  87:Drivers/CMSIS/Include/core_cm3.h **** 
  88:Drivers/CMSIS/Include/core_cm3.h **** #elif defined ( __GNUC__ )
  89:Drivers/CMSIS/Include/core_cm3.h ****   #if defined (__VFP_FP__) && !defined(__SOFTFP__)
  90:Drivers/CMSIS/Include/core_cm3.h ****     #error "Compiler generates FPU instructions for a device without an FPU (check __FPU_PRESENT)"
  91:Drivers/CMSIS/Include/core_cm3.h ****   #endif
  92:Drivers/CMSIS/Include/core_cm3.h **** 
  93:Drivers/CMSIS/Include/core_cm3.h **** #elif defined ( __ICCARM__ )
  94:Drivers/CMSIS/Include/core_cm3.h ****   #if defined __ARMVFP__
  95:Drivers/CMSIS/Include/core_cm3.h ****     #error "Compiler generates FPU instructions for a device without an FPU (check __FPU_PRESENT)"
  96:Drivers/CMSIS/Include/core_cm3.h ****   #endif
  97:Drivers/CMSIS/Include/core_cm3.h **** 
  98:Drivers/CMSIS/Include/core_cm3.h **** #elif defined ( __TI_ARM__ )
  99:Drivers/CMSIS/Include/core_cm3.h ****   #if defined __TI_VFP_SUPPORT__
 100:Drivers/CMSIS/Include/core_cm3.h ****     #error "Compiler generates FPU instructions for a device without an FPU (check __FPU_PRESENT)"
 101:Drivers/CMSIS/Include/core_cm3.h ****   #endif
 102:Drivers/CMSIS/Include/core_cm3.h **** 
 103:Drivers/CMSIS/Include/core_cm3.h **** #elif defined ( __TASKING__ )
 104:Drivers/CMSIS/Include/core_cm3.h ****   #if defined __FPU_VFP__
 105:Drivers/CMSIS/Include/core_cm3.h ****     #error "Compiler generates FPU instructions for a device without an FPU (check __FPU_PRESENT)"
 106:Drivers/CMSIS/Include/core_cm3.h ****   #endif
 107:Drivers/CMSIS/Include/core_cm3.h **** 
 108:Drivers/CMSIS/Include/core_cm3.h **** #elif defined ( __CSMC__ )
 109:Drivers/CMSIS/Include/core_cm3.h ****   #if ( __CSMC__ & 0x400U)
 110:Drivers/CMSIS/Include/core_cm3.h ****     #error "Compiler generates FPU instructions for a device without an FPU (check __FPU_PRESENT)"
 111:Drivers/CMSIS/Include/core_cm3.h ****   #endif
 112:Drivers/CMSIS/Include/core_cm3.h **** 
 113:Drivers/CMSIS/Include/core_cm3.h **** #endif
 114:Drivers/CMSIS/Include/core_cm3.h **** 
 115:Drivers/CMSIS/Include/core_cm3.h **** #include "cmsis_compiler.h"               /* CMSIS compiler specific defines */
 116:Drivers/CMSIS/Include/core_cm3.h **** 
 117:Drivers/CMSIS/Include/core_cm3.h **** 
 118:Drivers/CMSIS/Include/core_cm3.h **** #ifdef __cplusplus
 119:Drivers/CMSIS/Include/core_cm3.h **** }
 120:Drivers/CMSIS/Include/core_cm3.h **** #endif
 121:Drivers/CMSIS/Include/core_cm3.h **** 
 122:Drivers/CMSIS/Include/core_cm3.h **** #endif /* __CORE_CM3_H_GENERIC */
 123:Drivers/CMSIS/Include/core_cm3.h **** 
 124:Drivers/CMSIS/Include/core_cm3.h **** #ifndef __CMSIS_GENERIC
 125:Drivers/CMSIS/Include/core_cm3.h **** 
 126:Drivers/CMSIS/Include/core_cm3.h **** #ifndef __CORE_CM3_H_DEPENDANT
 127:Drivers/CMSIS/Include/core_cm3.h **** #define __CORE_CM3_H_DEPENDANT
 128:Drivers/CMSIS/Include/core_cm3.h **** 
 129:Drivers/CMSIS/Include/core_cm3.h **** #ifdef __cplusplus
 130:Drivers/CMSIS/Include/core_cm3.h ****  extern "C" {
 131:Drivers/CMSIS/Include/core_cm3.h **** #endif
 132:Drivers/CMSIS/Include/core_cm3.h **** 
 133:Drivers/CMSIS/Include/core_cm3.h **** /* check device defines and use defaults */
 134:Drivers/CMSIS/Include/core_cm3.h **** #if defined __CHECK_DEVICE_DEFINES
 135:Drivers/CMSIS/Include/core_cm3.h ****   #ifndef __CM3_REV
 136:Drivers/CMSIS/Include/core_cm3.h ****     #define __CM3_REV               0x0200U
 137:Drivers/CMSIS/Include/core_cm3.h ****     #warning "__CM3_REV not defined in device header file; using default!"
 138:Drivers/CMSIS/Include/core_cm3.h ****   #endif
 139:Drivers/CMSIS/Include/core_cm3.h **** 
 140:Drivers/CMSIS/Include/core_cm3.h ****   #ifndef __MPU_PRESENT
ARM GAS  /var/folders/m1/3lv6xmzs0mlckxs4mx90nfb40000gn/T//cczUMWYd.s 			page 11


 141:Drivers/CMSIS/Include/core_cm3.h ****     #define __MPU_PRESENT             0U
 142:Drivers/CMSIS/Include/core_cm3.h ****     #warning "__MPU_PRESENT not defined in device header file; using default!"
 143:Drivers/CMSIS/Include/core_cm3.h ****   #endif
 144:Drivers/CMSIS/Include/core_cm3.h **** 
 145:Drivers/CMSIS/Include/core_cm3.h ****   #ifndef __NVIC_PRIO_BITS
 146:Drivers/CMSIS/Include/core_cm3.h ****     #define __NVIC_PRIO_BITS          3U
 147:Drivers/CMSIS/Include/core_cm3.h ****     #warning "__NVIC_PRIO_BITS not defined in device header file; using default!"
 148:Drivers/CMSIS/Include/core_cm3.h ****   #endif
 149:Drivers/CMSIS/Include/core_cm3.h **** 
 150:Drivers/CMSIS/Include/core_cm3.h ****   #ifndef __Vendor_SysTickConfig
 151:Drivers/CMSIS/Include/core_cm3.h ****     #define __Vendor_SysTickConfig    0U
 152:Drivers/CMSIS/Include/core_cm3.h ****     #warning "__Vendor_SysTickConfig not defined in device header file; using default!"
 153:Drivers/CMSIS/Include/core_cm3.h ****   #endif
 154:Drivers/CMSIS/Include/core_cm3.h **** #endif
 155:Drivers/CMSIS/Include/core_cm3.h **** 
 156:Drivers/CMSIS/Include/core_cm3.h **** /* IO definitions (access restrictions to peripheral registers) */
 157:Drivers/CMSIS/Include/core_cm3.h **** /**
 158:Drivers/CMSIS/Include/core_cm3.h ****     \defgroup CMSIS_glob_defs CMSIS Global Defines
 159:Drivers/CMSIS/Include/core_cm3.h **** 
 160:Drivers/CMSIS/Include/core_cm3.h ****     <strong>IO Type Qualifiers</strong> are used
 161:Drivers/CMSIS/Include/core_cm3.h ****     \li to specify the access to peripheral variables.
 162:Drivers/CMSIS/Include/core_cm3.h ****     \li for automatic generation of peripheral register debug information.
 163:Drivers/CMSIS/Include/core_cm3.h **** */
 164:Drivers/CMSIS/Include/core_cm3.h **** #ifdef __cplusplus
 165:Drivers/CMSIS/Include/core_cm3.h ****   #define   __I     volatile             /*!< Defines 'read only' permissions */
 166:Drivers/CMSIS/Include/core_cm3.h **** #else
 167:Drivers/CMSIS/Include/core_cm3.h ****   #define   __I     volatile const       /*!< Defines 'read only' permissions */
 168:Drivers/CMSIS/Include/core_cm3.h **** #endif
 169:Drivers/CMSIS/Include/core_cm3.h **** #define     __O     volatile             /*!< Defines 'write only' permissions */
 170:Drivers/CMSIS/Include/core_cm3.h **** #define     __IO    volatile             /*!< Defines 'read / write' permissions */
 171:Drivers/CMSIS/Include/core_cm3.h **** 
 172:Drivers/CMSIS/Include/core_cm3.h **** /* following defines should be used for structure members */
 173:Drivers/CMSIS/Include/core_cm3.h **** #define     __IM     volatile const      /*! Defines 'read only' structure member permissions */
 174:Drivers/CMSIS/Include/core_cm3.h **** #define     __OM     volatile            /*! Defines 'write only' structure member permissions */
 175:Drivers/CMSIS/Include/core_cm3.h **** #define     __IOM    volatile            /*! Defines 'read / write' structure member permissions */
 176:Drivers/CMSIS/Include/core_cm3.h **** 
 177:Drivers/CMSIS/Include/core_cm3.h **** /*@} end of group Cortex_M3 */
 178:Drivers/CMSIS/Include/core_cm3.h **** 
 179:Drivers/CMSIS/Include/core_cm3.h **** 
 180:Drivers/CMSIS/Include/core_cm3.h **** 
 181:Drivers/CMSIS/Include/core_cm3.h **** /*******************************************************************************
 182:Drivers/CMSIS/Include/core_cm3.h ****  *                 Register Abstraction
 183:Drivers/CMSIS/Include/core_cm3.h ****   Core Register contain:
 184:Drivers/CMSIS/Include/core_cm3.h ****   - Core Register
 185:Drivers/CMSIS/Include/core_cm3.h ****   - Core NVIC Register
 186:Drivers/CMSIS/Include/core_cm3.h ****   - Core SCB Register
 187:Drivers/CMSIS/Include/core_cm3.h ****   - Core SysTick Register
 188:Drivers/CMSIS/Include/core_cm3.h ****   - Core Debug Register
 189:Drivers/CMSIS/Include/core_cm3.h ****   - Core MPU Register
 190:Drivers/CMSIS/Include/core_cm3.h ****  ******************************************************************************/
 191:Drivers/CMSIS/Include/core_cm3.h **** /**
 192:Drivers/CMSIS/Include/core_cm3.h ****   \defgroup CMSIS_core_register Defines and Type Definitions
 193:Drivers/CMSIS/Include/core_cm3.h ****   \brief Type definitions and defines for Cortex-M processor based devices.
 194:Drivers/CMSIS/Include/core_cm3.h **** */
 195:Drivers/CMSIS/Include/core_cm3.h **** 
 196:Drivers/CMSIS/Include/core_cm3.h **** /**
 197:Drivers/CMSIS/Include/core_cm3.h ****   \ingroup    CMSIS_core_register
ARM GAS  /var/folders/m1/3lv6xmzs0mlckxs4mx90nfb40000gn/T//cczUMWYd.s 			page 12


 198:Drivers/CMSIS/Include/core_cm3.h ****   \defgroup   CMSIS_CORE  Status and Control Registers
 199:Drivers/CMSIS/Include/core_cm3.h ****   \brief      Core Register type definitions.
 200:Drivers/CMSIS/Include/core_cm3.h ****   @{
 201:Drivers/CMSIS/Include/core_cm3.h ****  */
 202:Drivers/CMSIS/Include/core_cm3.h **** 
 203:Drivers/CMSIS/Include/core_cm3.h **** /**
 204:Drivers/CMSIS/Include/core_cm3.h ****   \brief  Union type to access the Application Program Status Register (APSR).
 205:Drivers/CMSIS/Include/core_cm3.h ****  */
 206:Drivers/CMSIS/Include/core_cm3.h **** typedef union
 207:Drivers/CMSIS/Include/core_cm3.h **** {
 208:Drivers/CMSIS/Include/core_cm3.h ****   struct
 209:Drivers/CMSIS/Include/core_cm3.h ****   {
 210:Drivers/CMSIS/Include/core_cm3.h ****     uint32_t _reserved0:27;              /*!< bit:  0..26  Reserved */
 211:Drivers/CMSIS/Include/core_cm3.h ****     uint32_t Q:1;                        /*!< bit:     27  Saturation condition flag */
 212:Drivers/CMSIS/Include/core_cm3.h ****     uint32_t V:1;                        /*!< bit:     28  Overflow condition code flag */
 213:Drivers/CMSIS/Include/core_cm3.h ****     uint32_t C:1;                        /*!< bit:     29  Carry condition code flag */
 214:Drivers/CMSIS/Include/core_cm3.h ****     uint32_t Z:1;                        /*!< bit:     30  Zero condition code flag */
 215:Drivers/CMSIS/Include/core_cm3.h ****     uint32_t N:1;                        /*!< bit:     31  Negative condition code flag */
 216:Drivers/CMSIS/Include/core_cm3.h ****   } b;                                   /*!< Structure used for bit  access */
 217:Drivers/CMSIS/Include/core_cm3.h ****   uint32_t w;                            /*!< Type      used for word access */
 218:Drivers/CMSIS/Include/core_cm3.h **** } APSR_Type;
 219:Drivers/CMSIS/Include/core_cm3.h **** 
 220:Drivers/CMSIS/Include/core_cm3.h **** /* APSR Register Definitions */
 221:Drivers/CMSIS/Include/core_cm3.h **** #define APSR_N_Pos                         31U                                            /*!< APSR
 222:Drivers/CMSIS/Include/core_cm3.h **** #define APSR_N_Msk                         (1UL << APSR_N_Pos)                            /*!< APSR
 223:Drivers/CMSIS/Include/core_cm3.h **** 
 224:Drivers/CMSIS/Include/core_cm3.h **** #define APSR_Z_Pos                         30U                                            /*!< APSR
 225:Drivers/CMSIS/Include/core_cm3.h **** #define APSR_Z_Msk                         (1UL << APSR_Z_Pos)                            /*!< APSR
 226:Drivers/CMSIS/Include/core_cm3.h **** 
 227:Drivers/CMSIS/Include/core_cm3.h **** #define APSR_C_Pos                         29U                                            /*!< APSR
 228:Drivers/CMSIS/Include/core_cm3.h **** #define APSR_C_Msk                         (1UL << APSR_C_Pos)                            /*!< APSR
 229:Drivers/CMSIS/Include/core_cm3.h **** 
 230:Drivers/CMSIS/Include/core_cm3.h **** #define APSR_V_Pos                         28U                                            /*!< APSR
 231:Drivers/CMSIS/Include/core_cm3.h **** #define APSR_V_Msk                         (1UL << APSR_V_Pos)                            /*!< APSR
 232:Drivers/CMSIS/Include/core_cm3.h **** 
 233:Drivers/CMSIS/Include/core_cm3.h **** #define APSR_Q_Pos                         27U                                            /*!< APSR
 234:Drivers/CMSIS/Include/core_cm3.h **** #define APSR_Q_Msk                         (1UL << APSR_Q_Pos)                            /*!< APSR
 235:Drivers/CMSIS/Include/core_cm3.h **** 
 236:Drivers/CMSIS/Include/core_cm3.h **** 
 237:Drivers/CMSIS/Include/core_cm3.h **** /**
 238:Drivers/CMSIS/Include/core_cm3.h ****   \brief  Union type to access the Interrupt Program Status Register (IPSR).
 239:Drivers/CMSIS/Include/core_cm3.h ****  */
 240:Drivers/CMSIS/Include/core_cm3.h **** typedef union
 241:Drivers/CMSIS/Include/core_cm3.h **** {
 242:Drivers/CMSIS/Include/core_cm3.h ****   struct
 243:Drivers/CMSIS/Include/core_cm3.h ****   {
 244:Drivers/CMSIS/Include/core_cm3.h ****     uint32_t ISR:9;                      /*!< bit:  0.. 8  Exception number */
 245:Drivers/CMSIS/Include/core_cm3.h ****     uint32_t _reserved0:23;              /*!< bit:  9..31  Reserved */
 246:Drivers/CMSIS/Include/core_cm3.h ****   } b;                                   /*!< Structure used for bit  access */
 247:Drivers/CMSIS/Include/core_cm3.h ****   uint32_t w;                            /*!< Type      used for word access */
 248:Drivers/CMSIS/Include/core_cm3.h **** } IPSR_Type;
 249:Drivers/CMSIS/Include/core_cm3.h **** 
 250:Drivers/CMSIS/Include/core_cm3.h **** /* IPSR Register Definitions */
 251:Drivers/CMSIS/Include/core_cm3.h **** #define IPSR_ISR_Pos                        0U                                            /*!< IPSR
 252:Drivers/CMSIS/Include/core_cm3.h **** #define IPSR_ISR_Msk                       (0x1FFUL /*<< IPSR_ISR_Pos*/)                  /*!< IPSR
 253:Drivers/CMSIS/Include/core_cm3.h **** 
 254:Drivers/CMSIS/Include/core_cm3.h **** 
ARM GAS  /var/folders/m1/3lv6xmzs0mlckxs4mx90nfb40000gn/T//cczUMWYd.s 			page 13


 255:Drivers/CMSIS/Include/core_cm3.h **** /**
 256:Drivers/CMSIS/Include/core_cm3.h ****   \brief  Union type to access the Special-Purpose Program Status Registers (xPSR).
 257:Drivers/CMSIS/Include/core_cm3.h ****  */
 258:Drivers/CMSIS/Include/core_cm3.h **** typedef union
 259:Drivers/CMSIS/Include/core_cm3.h **** {
 260:Drivers/CMSIS/Include/core_cm3.h ****   struct
 261:Drivers/CMSIS/Include/core_cm3.h ****   {
 262:Drivers/CMSIS/Include/core_cm3.h ****     uint32_t ISR:9;                      /*!< bit:  0.. 8  Exception number */
 263:Drivers/CMSIS/Include/core_cm3.h ****     uint32_t _reserved0:1;               /*!< bit:      9  Reserved */
 264:Drivers/CMSIS/Include/core_cm3.h ****     uint32_t ICI_IT_1:6;                 /*!< bit: 10..15  ICI/IT part 1 */
 265:Drivers/CMSIS/Include/core_cm3.h ****     uint32_t _reserved1:8;               /*!< bit: 16..23  Reserved */
 266:Drivers/CMSIS/Include/core_cm3.h ****     uint32_t T:1;                        /*!< bit:     24  Thumb bit */
 267:Drivers/CMSIS/Include/core_cm3.h ****     uint32_t ICI_IT_2:2;                 /*!< bit: 25..26  ICI/IT part 2 */
 268:Drivers/CMSIS/Include/core_cm3.h ****     uint32_t Q:1;                        /*!< bit:     27  Saturation condition flag */
 269:Drivers/CMSIS/Include/core_cm3.h ****     uint32_t V:1;                        /*!< bit:     28  Overflow condition code flag */
 270:Drivers/CMSIS/Include/core_cm3.h ****     uint32_t C:1;                        /*!< bit:     29  Carry condition code flag */
 271:Drivers/CMSIS/Include/core_cm3.h ****     uint32_t Z:1;                        /*!< bit:     30  Zero condition code flag */
 272:Drivers/CMSIS/Include/core_cm3.h ****     uint32_t N:1;                        /*!< bit:     31  Negative condition code flag */
 273:Drivers/CMSIS/Include/core_cm3.h ****   } b;                                   /*!< Structure used for bit  access */
 274:Drivers/CMSIS/Include/core_cm3.h ****   uint32_t w;                            /*!< Type      used for word access */
 275:Drivers/CMSIS/Include/core_cm3.h **** } xPSR_Type;
 276:Drivers/CMSIS/Include/core_cm3.h **** 
 277:Drivers/CMSIS/Include/core_cm3.h **** /* xPSR Register Definitions */
 278:Drivers/CMSIS/Include/core_cm3.h **** #define xPSR_N_Pos                         31U                                            /*!< xPSR
 279:Drivers/CMSIS/Include/core_cm3.h **** #define xPSR_N_Msk                         (1UL << xPSR_N_Pos)                            /*!< xPSR
 280:Drivers/CMSIS/Include/core_cm3.h **** 
 281:Drivers/CMSIS/Include/core_cm3.h **** #define xPSR_Z_Pos                         30U                                            /*!< xPSR
 282:Drivers/CMSIS/Include/core_cm3.h **** #define xPSR_Z_Msk                         (1UL << xPSR_Z_Pos)                            /*!< xPSR
 283:Drivers/CMSIS/Include/core_cm3.h **** 
 284:Drivers/CMSIS/Include/core_cm3.h **** #define xPSR_C_Pos                         29U                                            /*!< xPSR
 285:Drivers/CMSIS/Include/core_cm3.h **** #define xPSR_C_Msk                         (1UL << xPSR_C_Pos)                            /*!< xPSR
 286:Drivers/CMSIS/Include/core_cm3.h **** 
 287:Drivers/CMSIS/Include/core_cm3.h **** #define xPSR_V_Pos                         28U                                            /*!< xPSR
 288:Drivers/CMSIS/Include/core_cm3.h **** #define xPSR_V_Msk                         (1UL << xPSR_V_Pos)                            /*!< xPSR
 289:Drivers/CMSIS/Include/core_cm3.h **** 
 290:Drivers/CMSIS/Include/core_cm3.h **** #define xPSR_Q_Pos                         27U                                            /*!< xPSR
 291:Drivers/CMSIS/Include/core_cm3.h **** #define xPSR_Q_Msk                         (1UL << xPSR_Q_Pos)                            /*!< xPSR
 292:Drivers/CMSIS/Include/core_cm3.h **** 
 293:Drivers/CMSIS/Include/core_cm3.h **** #define xPSR_ICI_IT_2_Pos                  25U                                            /*!< xPSR
 294:Drivers/CMSIS/Include/core_cm3.h **** #define xPSR_ICI_IT_2_Msk                  (3UL << xPSR_ICI_IT_2_Pos)                     /*!< xPSR
 295:Drivers/CMSIS/Include/core_cm3.h **** 
 296:Drivers/CMSIS/Include/core_cm3.h **** #define xPSR_T_Pos                         24U                                            /*!< xPSR
 297:Drivers/CMSIS/Include/core_cm3.h **** #define xPSR_T_Msk                         (1UL << xPSR_T_Pos)                            /*!< xPSR
 298:Drivers/CMSIS/Include/core_cm3.h **** 
 299:Drivers/CMSIS/Include/core_cm3.h **** #define xPSR_ICI_IT_1_Pos                  10U                                            /*!< xPSR
 300:Drivers/CMSIS/Include/core_cm3.h **** #define xPSR_ICI_IT_1_Msk                  (0x3FUL << xPSR_ICI_IT_1_Pos)                  /*!< xPSR
 301:Drivers/CMSIS/Include/core_cm3.h **** 
 302:Drivers/CMSIS/Include/core_cm3.h **** #define xPSR_ISR_Pos                        0U                                            /*!< xPSR
 303:Drivers/CMSIS/Include/core_cm3.h **** #define xPSR_ISR_Msk                       (0x1FFUL /*<< xPSR_ISR_Pos*/)                  /*!< xPSR
 304:Drivers/CMSIS/Include/core_cm3.h **** 
 305:Drivers/CMSIS/Include/core_cm3.h **** 
 306:Drivers/CMSIS/Include/core_cm3.h **** /**
 307:Drivers/CMSIS/Include/core_cm3.h ****   \brief  Union type to access the Control Registers (CONTROL).
 308:Drivers/CMSIS/Include/core_cm3.h ****  */
 309:Drivers/CMSIS/Include/core_cm3.h **** typedef union
 310:Drivers/CMSIS/Include/core_cm3.h **** {
 311:Drivers/CMSIS/Include/core_cm3.h ****   struct
ARM GAS  /var/folders/m1/3lv6xmzs0mlckxs4mx90nfb40000gn/T//cczUMWYd.s 			page 14


 312:Drivers/CMSIS/Include/core_cm3.h ****   {
 313:Drivers/CMSIS/Include/core_cm3.h ****     uint32_t nPRIV:1;                    /*!< bit:      0  Execution privilege in Thread mode */
 314:Drivers/CMSIS/Include/core_cm3.h ****     uint32_t SPSEL:1;                    /*!< bit:      1  Stack to be used */
 315:Drivers/CMSIS/Include/core_cm3.h ****     uint32_t _reserved1:30;              /*!< bit:  2..31  Reserved */
 316:Drivers/CMSIS/Include/core_cm3.h ****   } b;                                   /*!< Structure used for bit  access */
 317:Drivers/CMSIS/Include/core_cm3.h ****   uint32_t w;                            /*!< Type      used for word access */
 318:Drivers/CMSIS/Include/core_cm3.h **** } CONTROL_Type;
 319:Drivers/CMSIS/Include/core_cm3.h **** 
 320:Drivers/CMSIS/Include/core_cm3.h **** /* CONTROL Register Definitions */
 321:Drivers/CMSIS/Include/core_cm3.h **** #define CONTROL_SPSEL_Pos                   1U                                            /*!< CONT
 322:Drivers/CMSIS/Include/core_cm3.h **** #define CONTROL_SPSEL_Msk                  (1UL << CONTROL_SPSEL_Pos)                     /*!< CONT
 323:Drivers/CMSIS/Include/core_cm3.h **** 
 324:Drivers/CMSIS/Include/core_cm3.h **** #define CONTROL_nPRIV_Pos                   0U                                            /*!< CONT
 325:Drivers/CMSIS/Include/core_cm3.h **** #define CONTROL_nPRIV_Msk                  (1UL /*<< CONTROL_nPRIV_Pos*/)                 /*!< CONT
 326:Drivers/CMSIS/Include/core_cm3.h **** 
 327:Drivers/CMSIS/Include/core_cm3.h **** /*@} end of group CMSIS_CORE */
 328:Drivers/CMSIS/Include/core_cm3.h **** 
 329:Drivers/CMSIS/Include/core_cm3.h **** 
 330:Drivers/CMSIS/Include/core_cm3.h **** /**
 331:Drivers/CMSIS/Include/core_cm3.h ****   \ingroup    CMSIS_core_register
 332:Drivers/CMSIS/Include/core_cm3.h ****   \defgroup   CMSIS_NVIC  Nested Vectored Interrupt Controller (NVIC)
 333:Drivers/CMSIS/Include/core_cm3.h ****   \brief      Type definitions for the NVIC Registers
 334:Drivers/CMSIS/Include/core_cm3.h ****   @{
 335:Drivers/CMSIS/Include/core_cm3.h ****  */
 336:Drivers/CMSIS/Include/core_cm3.h **** 
 337:Drivers/CMSIS/Include/core_cm3.h **** /**
 338:Drivers/CMSIS/Include/core_cm3.h ****   \brief  Structure type to access the Nested Vectored Interrupt Controller (NVIC).
 339:Drivers/CMSIS/Include/core_cm3.h ****  */
 340:Drivers/CMSIS/Include/core_cm3.h **** typedef struct
 341:Drivers/CMSIS/Include/core_cm3.h **** {
 342:Drivers/CMSIS/Include/core_cm3.h ****   __IOM uint32_t ISER[8U];               /*!< Offset: 0x000 (R/W)  Interrupt Set Enable Register */
 343:Drivers/CMSIS/Include/core_cm3.h ****         uint32_t RESERVED0[24U];
 344:Drivers/CMSIS/Include/core_cm3.h ****   __IOM uint32_t ICER[8U];               /*!< Offset: 0x080 (R/W)  Interrupt Clear Enable Register 
 345:Drivers/CMSIS/Include/core_cm3.h ****         uint32_t RSERVED1[24U];
 346:Drivers/CMSIS/Include/core_cm3.h ****   __IOM uint32_t ISPR[8U];               /*!< Offset: 0x100 (R/W)  Interrupt Set Pending Register *
 347:Drivers/CMSIS/Include/core_cm3.h ****         uint32_t RESERVED2[24U];
 348:Drivers/CMSIS/Include/core_cm3.h ****   __IOM uint32_t ICPR[8U];               /*!< Offset: 0x180 (R/W)  Interrupt Clear Pending Register
 349:Drivers/CMSIS/Include/core_cm3.h ****         uint32_t RESERVED3[24U];
 350:Drivers/CMSIS/Include/core_cm3.h ****   __IOM uint32_t IABR[8U];               /*!< Offset: 0x200 (R/W)  Interrupt Active bit Register */
 351:Drivers/CMSIS/Include/core_cm3.h ****         uint32_t RESERVED4[56U];
 352:Drivers/CMSIS/Include/core_cm3.h ****   __IOM uint8_t  IP[240U];               /*!< Offset: 0x300 (R/W)  Interrupt Priority Register (8Bi
 353:Drivers/CMSIS/Include/core_cm3.h ****         uint32_t RESERVED5[644U];
 354:Drivers/CMSIS/Include/core_cm3.h ****   __OM  uint32_t STIR;                   /*!< Offset: 0xE00 ( /W)  Software Trigger Interrupt Regis
 355:Drivers/CMSIS/Include/core_cm3.h **** }  NVIC_Type;
 356:Drivers/CMSIS/Include/core_cm3.h **** 
 357:Drivers/CMSIS/Include/core_cm3.h **** /* Software Triggered Interrupt Register Definitions */
 358:Drivers/CMSIS/Include/core_cm3.h **** #define NVIC_STIR_INTID_Pos                 0U                                         /*!< STIR: I
 359:Drivers/CMSIS/Include/core_cm3.h **** #define NVIC_STIR_INTID_Msk                (0x1FFUL /*<< NVIC_STIR_INTID_Pos*/)        /*!< STIR: I
 360:Drivers/CMSIS/Include/core_cm3.h **** 
 361:Drivers/CMSIS/Include/core_cm3.h **** /*@} end of group CMSIS_NVIC */
 362:Drivers/CMSIS/Include/core_cm3.h **** 
 363:Drivers/CMSIS/Include/core_cm3.h **** 
 364:Drivers/CMSIS/Include/core_cm3.h **** /**
 365:Drivers/CMSIS/Include/core_cm3.h ****   \ingroup  CMSIS_core_register
 366:Drivers/CMSIS/Include/core_cm3.h ****   \defgroup CMSIS_SCB     System Control Block (SCB)
 367:Drivers/CMSIS/Include/core_cm3.h ****   \brief    Type definitions for the System Control Block Registers
 368:Drivers/CMSIS/Include/core_cm3.h ****   @{
ARM GAS  /var/folders/m1/3lv6xmzs0mlckxs4mx90nfb40000gn/T//cczUMWYd.s 			page 15


 369:Drivers/CMSIS/Include/core_cm3.h ****  */
 370:Drivers/CMSIS/Include/core_cm3.h **** 
 371:Drivers/CMSIS/Include/core_cm3.h **** /**
 372:Drivers/CMSIS/Include/core_cm3.h ****   \brief  Structure type to access the System Control Block (SCB).
 373:Drivers/CMSIS/Include/core_cm3.h ****  */
 374:Drivers/CMSIS/Include/core_cm3.h **** typedef struct
 375:Drivers/CMSIS/Include/core_cm3.h **** {
 376:Drivers/CMSIS/Include/core_cm3.h ****   __IM  uint32_t CPUID;                  /*!< Offset: 0x000 (R/ )  CPUID Base Register */
 377:Drivers/CMSIS/Include/core_cm3.h ****   __IOM uint32_t ICSR;                   /*!< Offset: 0x004 (R/W)  Interrupt Control and State Regi
 378:Drivers/CMSIS/Include/core_cm3.h ****   __IOM uint32_t VTOR;                   /*!< Offset: 0x008 (R/W)  Vector Table Offset Register */
 379:Drivers/CMSIS/Include/core_cm3.h ****   __IOM uint32_t AIRCR;                  /*!< Offset: 0x00C (R/W)  Application Interrupt and Reset 
 380:Drivers/CMSIS/Include/core_cm3.h ****   __IOM uint32_t SCR;                    /*!< Offset: 0x010 (R/W)  System Control Register */
 381:Drivers/CMSIS/Include/core_cm3.h ****   __IOM uint32_t CCR;                    /*!< Offset: 0x014 (R/W)  Configuration Control Register *
 382:Drivers/CMSIS/Include/core_cm3.h ****   __IOM uint8_t  SHP[12U];               /*!< Offset: 0x018 (R/W)  System Handlers Priority Registe
 383:Drivers/CMSIS/Include/core_cm3.h ****   __IOM uint32_t SHCSR;                  /*!< Offset: 0x024 (R/W)  System Handler Control and State
 384:Drivers/CMSIS/Include/core_cm3.h ****   __IOM uint32_t CFSR;                   /*!< Offset: 0x028 (R/W)  Configurable Fault Status Regist
 385:Drivers/CMSIS/Include/core_cm3.h ****   __IOM uint32_t HFSR;                   /*!< Offset: 0x02C (R/W)  HardFault Status Register */
 386:Drivers/CMSIS/Include/core_cm3.h ****   __IOM uint32_t DFSR;                   /*!< Offset: 0x030 (R/W)  Debug Fault Status Register */
 387:Drivers/CMSIS/Include/core_cm3.h ****   __IOM uint32_t MMFAR;                  /*!< Offset: 0x034 (R/W)  MemManage Fault Address Register
 388:Drivers/CMSIS/Include/core_cm3.h ****   __IOM uint32_t BFAR;                   /*!< Offset: 0x038 (R/W)  BusFault Address Register */
 389:Drivers/CMSIS/Include/core_cm3.h ****   __IOM uint32_t AFSR;                   /*!< Offset: 0x03C (R/W)  Auxiliary Fault Status Register 
 390:Drivers/CMSIS/Include/core_cm3.h ****   __IM  uint32_t PFR[2U];                /*!< Offset: 0x040 (R/ )  Processor Feature Register */
 391:Drivers/CMSIS/Include/core_cm3.h ****   __IM  uint32_t DFR;                    /*!< Offset: 0x048 (R/ )  Debug Feature Register */
 392:Drivers/CMSIS/Include/core_cm3.h ****   __IM  uint32_t ADR;                    /*!< Offset: 0x04C (R/ )  Auxiliary Feature Register */
 393:Drivers/CMSIS/Include/core_cm3.h ****   __IM  uint32_t MMFR[4U];               /*!< Offset: 0x050 (R/ )  Memory Model Feature Register */
 394:Drivers/CMSIS/Include/core_cm3.h ****   __IM  uint32_t ISAR[5U];               /*!< Offset: 0x060 (R/ )  Instruction Set Attributes Regis
 395:Drivers/CMSIS/Include/core_cm3.h ****         uint32_t RESERVED0[5U];
 396:Drivers/CMSIS/Include/core_cm3.h ****   __IOM uint32_t CPACR;                  /*!< Offset: 0x088 (R/W)  Coprocessor Access Control Regis
 397:Drivers/CMSIS/Include/core_cm3.h **** } SCB_Type;
 398:Drivers/CMSIS/Include/core_cm3.h **** 
 399:Drivers/CMSIS/Include/core_cm3.h **** /* SCB CPUID Register Definitions */
 400:Drivers/CMSIS/Include/core_cm3.h **** #define SCB_CPUID_IMPLEMENTER_Pos          24U                                            /*!< SCB 
 401:Drivers/CMSIS/Include/core_cm3.h **** #define SCB_CPUID_IMPLEMENTER_Msk          (0xFFUL << SCB_CPUID_IMPLEMENTER_Pos)          /*!< SCB 
 402:Drivers/CMSIS/Include/core_cm3.h **** 
 403:Drivers/CMSIS/Include/core_cm3.h **** #define SCB_CPUID_VARIANT_Pos              20U                                            /*!< SCB 
 404:Drivers/CMSIS/Include/core_cm3.h **** #define SCB_CPUID_VARIANT_Msk              (0xFUL << SCB_CPUID_VARIANT_Pos)               /*!< SCB 
 405:Drivers/CMSIS/Include/core_cm3.h **** 
 406:Drivers/CMSIS/Include/core_cm3.h **** #define SCB_CPUID_ARCHITECTURE_Pos         16U                                            /*!< SCB 
 407:Drivers/CMSIS/Include/core_cm3.h **** #define SCB_CPUID_ARCHITECTURE_Msk         (0xFUL << SCB_CPUID_ARCHITECTURE_Pos)          /*!< SCB 
 408:Drivers/CMSIS/Include/core_cm3.h **** 
 409:Drivers/CMSIS/Include/core_cm3.h **** #define SCB_CPUID_PARTNO_Pos                4U                                            /*!< SCB 
 410:Drivers/CMSIS/Include/core_cm3.h **** #define SCB_CPUID_PARTNO_Msk               (0xFFFUL << SCB_CPUID_PARTNO_Pos)              /*!< SCB 
 411:Drivers/CMSIS/Include/core_cm3.h **** 
 412:Drivers/CMSIS/Include/core_cm3.h **** #define SCB_CPUID_REVISION_Pos              0U                                            /*!< SCB 
 413:Drivers/CMSIS/Include/core_cm3.h **** #define SCB_CPUID_REVISION_Msk             (0xFUL /*<< SCB_CPUID_REVISION_Pos*/)          /*!< SCB 
 414:Drivers/CMSIS/Include/core_cm3.h **** 
 415:Drivers/CMSIS/Include/core_cm3.h **** /* SCB Interrupt Control State Register Definitions */
 416:Drivers/CMSIS/Include/core_cm3.h **** #define SCB_ICSR_NMIPENDSET_Pos            31U                                            /*!< SCB 
 417:Drivers/CMSIS/Include/core_cm3.h **** #define SCB_ICSR_NMIPENDSET_Msk            (1UL << SCB_ICSR_NMIPENDSET_Pos)               /*!< SCB 
 418:Drivers/CMSIS/Include/core_cm3.h **** 
 419:Drivers/CMSIS/Include/core_cm3.h **** #define SCB_ICSR_PENDSVSET_Pos             28U                                            /*!< SCB 
 420:Drivers/CMSIS/Include/core_cm3.h **** #define SCB_ICSR_PENDSVSET_Msk             (1UL << SCB_ICSR_PENDSVSET_Pos)                /*!< SCB 
 421:Drivers/CMSIS/Include/core_cm3.h **** 
 422:Drivers/CMSIS/Include/core_cm3.h **** #define SCB_ICSR_PENDSVCLR_Pos             27U                                            /*!< SCB 
 423:Drivers/CMSIS/Include/core_cm3.h **** #define SCB_ICSR_PENDSVCLR_Msk             (1UL << SCB_ICSR_PENDSVCLR_Pos)                /*!< SCB 
 424:Drivers/CMSIS/Include/core_cm3.h **** 
 425:Drivers/CMSIS/Include/core_cm3.h **** #define SCB_ICSR_PENDSTSET_Pos             26U                                            /*!< SCB 
ARM GAS  /var/folders/m1/3lv6xmzs0mlckxs4mx90nfb40000gn/T//cczUMWYd.s 			page 16


 426:Drivers/CMSIS/Include/core_cm3.h **** #define SCB_ICSR_PENDSTSET_Msk             (1UL << SCB_ICSR_PENDSTSET_Pos)                /*!< SCB 
 427:Drivers/CMSIS/Include/core_cm3.h **** 
 428:Drivers/CMSIS/Include/core_cm3.h **** #define SCB_ICSR_PENDSTCLR_Pos             25U                                            /*!< SCB 
 429:Drivers/CMSIS/Include/core_cm3.h **** #define SCB_ICSR_PENDSTCLR_Msk             (1UL << SCB_ICSR_PENDSTCLR_Pos)                /*!< SCB 
 430:Drivers/CMSIS/Include/core_cm3.h **** 
 431:Drivers/CMSIS/Include/core_cm3.h **** #define SCB_ICSR_ISRPREEMPT_Pos            23U                                            /*!< SCB 
 432:Drivers/CMSIS/Include/core_cm3.h **** #define SCB_ICSR_ISRPREEMPT_Msk            (1UL << SCB_ICSR_ISRPREEMPT_Pos)               /*!< SCB 
 433:Drivers/CMSIS/Include/core_cm3.h **** 
 434:Drivers/CMSIS/Include/core_cm3.h **** #define SCB_ICSR_ISRPENDING_Pos            22U                                            /*!< SCB 
 435:Drivers/CMSIS/Include/core_cm3.h **** #define SCB_ICSR_ISRPENDING_Msk            (1UL << SCB_ICSR_ISRPENDING_Pos)               /*!< SCB 
 436:Drivers/CMSIS/Include/core_cm3.h **** 
 437:Drivers/CMSIS/Include/core_cm3.h **** #define SCB_ICSR_VECTPENDING_Pos           12U                                            /*!< SCB 
 438:Drivers/CMSIS/Include/core_cm3.h **** #define SCB_ICSR_VECTPENDING_Msk           (0x1FFUL << SCB_ICSR_VECTPENDING_Pos)          /*!< SCB 
 439:Drivers/CMSIS/Include/core_cm3.h **** 
 440:Drivers/CMSIS/Include/core_cm3.h **** #define SCB_ICSR_RETTOBASE_Pos             11U                                            /*!< SCB 
 441:Drivers/CMSIS/Include/core_cm3.h **** #define SCB_ICSR_RETTOBASE_Msk             (1UL << SCB_ICSR_RETTOBASE_Pos)                /*!< SCB 
 442:Drivers/CMSIS/Include/core_cm3.h **** 
 443:Drivers/CMSIS/Include/core_cm3.h **** #define SCB_ICSR_VECTACTIVE_Pos             0U                                            /*!< SCB 
 444:Drivers/CMSIS/Include/core_cm3.h **** #define SCB_ICSR_VECTACTIVE_Msk            (0x1FFUL /*<< SCB_ICSR_VECTACTIVE_Pos*/)       /*!< SCB 
 445:Drivers/CMSIS/Include/core_cm3.h **** 
 446:Drivers/CMSIS/Include/core_cm3.h **** /* SCB Vector Table Offset Register Definitions */
 447:Drivers/CMSIS/Include/core_cm3.h **** #if defined (__CM3_REV) && (__CM3_REV < 0x0201U)                   /* core r2p1 */
 448:Drivers/CMSIS/Include/core_cm3.h **** #define SCB_VTOR_TBLBASE_Pos               29U                                            /*!< SCB 
 449:Drivers/CMSIS/Include/core_cm3.h **** #define SCB_VTOR_TBLBASE_Msk               (1UL << SCB_VTOR_TBLBASE_Pos)                  /*!< SCB 
 450:Drivers/CMSIS/Include/core_cm3.h **** 
 451:Drivers/CMSIS/Include/core_cm3.h **** #define SCB_VTOR_TBLOFF_Pos                 7U                                            /*!< SCB 
 452:Drivers/CMSIS/Include/core_cm3.h **** #define SCB_VTOR_TBLOFF_Msk                (0x3FFFFFUL << SCB_VTOR_TBLOFF_Pos)            /*!< SCB 
 453:Drivers/CMSIS/Include/core_cm3.h **** #else
 454:Drivers/CMSIS/Include/core_cm3.h **** #define SCB_VTOR_TBLOFF_Pos                 7U                                            /*!< SCB 
 455:Drivers/CMSIS/Include/core_cm3.h **** #define SCB_VTOR_TBLOFF_Msk                (0x1FFFFFFUL << SCB_VTOR_TBLOFF_Pos)           /*!< SCB 
 456:Drivers/CMSIS/Include/core_cm3.h **** #endif
 457:Drivers/CMSIS/Include/core_cm3.h **** 
 458:Drivers/CMSIS/Include/core_cm3.h **** /* SCB Application Interrupt and Reset Control Register Definitions */
 459:Drivers/CMSIS/Include/core_cm3.h **** #define SCB_AIRCR_VECTKEY_Pos              16U                                            /*!< SCB 
 460:Drivers/CMSIS/Include/core_cm3.h **** #define SCB_AIRCR_VECTKEY_Msk              (0xFFFFUL << SCB_AIRCR_VECTKEY_Pos)            /*!< SCB 
 461:Drivers/CMSIS/Include/core_cm3.h **** 
 462:Drivers/CMSIS/Include/core_cm3.h **** #define SCB_AIRCR_VECTKEYSTAT_Pos          16U                                            /*!< SCB 
 463:Drivers/CMSIS/Include/core_cm3.h **** #define SCB_AIRCR_VECTKEYSTAT_Msk          (0xFFFFUL << SCB_AIRCR_VECTKEYSTAT_Pos)        /*!< SCB 
 464:Drivers/CMSIS/Include/core_cm3.h **** 
 465:Drivers/CMSIS/Include/core_cm3.h **** #define SCB_AIRCR_ENDIANESS_Pos            15U                                            /*!< SCB 
 466:Drivers/CMSIS/Include/core_cm3.h **** #define SCB_AIRCR_ENDIANESS_Msk            (1UL << SCB_AIRCR_ENDIANESS_Pos)               /*!< SCB 
 467:Drivers/CMSIS/Include/core_cm3.h **** 
 468:Drivers/CMSIS/Include/core_cm3.h **** #define SCB_AIRCR_PRIGROUP_Pos              8U                                            /*!< SCB 
 469:Drivers/CMSIS/Include/core_cm3.h **** #define SCB_AIRCR_PRIGROUP_Msk             (7UL << SCB_AIRCR_PRIGROUP_Pos)                /*!< SCB 
 470:Drivers/CMSIS/Include/core_cm3.h **** 
 471:Drivers/CMSIS/Include/core_cm3.h **** #define SCB_AIRCR_SYSRESETREQ_Pos           2U                                            /*!< SCB 
 472:Drivers/CMSIS/Include/core_cm3.h **** #define SCB_AIRCR_SYSRESETREQ_Msk          (1UL << SCB_AIRCR_SYSRESETREQ_Pos)             /*!< SCB 
 473:Drivers/CMSIS/Include/core_cm3.h **** 
 474:Drivers/CMSIS/Include/core_cm3.h **** #define SCB_AIRCR_VECTCLRACTIVE_Pos         1U                                            /*!< SCB 
 475:Drivers/CMSIS/Include/core_cm3.h **** #define SCB_AIRCR_VECTCLRACTIVE_Msk        (1UL << SCB_AIRCR_VECTCLRACTIVE_Pos)           /*!< SCB 
 476:Drivers/CMSIS/Include/core_cm3.h **** 
 477:Drivers/CMSIS/Include/core_cm3.h **** #define SCB_AIRCR_VECTRESET_Pos             0U                                            /*!< SCB 
 478:Drivers/CMSIS/Include/core_cm3.h **** #define SCB_AIRCR_VECTRESET_Msk            (1UL /*<< SCB_AIRCR_VECTRESET_Pos*/)           /*!< SCB 
 479:Drivers/CMSIS/Include/core_cm3.h **** 
 480:Drivers/CMSIS/Include/core_cm3.h **** /* SCB System Control Register Definitions */
 481:Drivers/CMSIS/Include/core_cm3.h **** #define SCB_SCR_SEVONPEND_Pos               4U                                            /*!< SCB 
 482:Drivers/CMSIS/Include/core_cm3.h **** #define SCB_SCR_SEVONPEND_Msk              (1UL << SCB_SCR_SEVONPEND_Pos)                 /*!< SCB 
ARM GAS  /var/folders/m1/3lv6xmzs0mlckxs4mx90nfb40000gn/T//cczUMWYd.s 			page 17


 483:Drivers/CMSIS/Include/core_cm3.h **** 
 484:Drivers/CMSIS/Include/core_cm3.h **** #define SCB_SCR_SLEEPDEEP_Pos               2U                                            /*!< SCB 
 485:Drivers/CMSIS/Include/core_cm3.h **** #define SCB_SCR_SLEEPDEEP_Msk              (1UL << SCB_SCR_SLEEPDEEP_Pos)                 /*!< SCB 
 486:Drivers/CMSIS/Include/core_cm3.h **** 
 487:Drivers/CMSIS/Include/core_cm3.h **** #define SCB_SCR_SLEEPONEXIT_Pos             1U                                            /*!< SCB 
 488:Drivers/CMSIS/Include/core_cm3.h **** #define SCB_SCR_SLEEPONEXIT_Msk            (1UL << SCB_SCR_SLEEPONEXIT_Pos)               /*!< SCB 
 489:Drivers/CMSIS/Include/core_cm3.h **** 
 490:Drivers/CMSIS/Include/core_cm3.h **** /* SCB Configuration Control Register Definitions */
 491:Drivers/CMSIS/Include/core_cm3.h **** #define SCB_CCR_STKALIGN_Pos                9U                                            /*!< SCB 
 492:Drivers/CMSIS/Include/core_cm3.h **** #define SCB_CCR_STKALIGN_Msk               (1UL << SCB_CCR_STKALIGN_Pos)                  /*!< SCB 
 493:Drivers/CMSIS/Include/core_cm3.h **** 
 494:Drivers/CMSIS/Include/core_cm3.h **** #define SCB_CCR_BFHFNMIGN_Pos               8U                                            /*!< SCB 
 495:Drivers/CMSIS/Include/core_cm3.h **** #define SCB_CCR_BFHFNMIGN_Msk              (1UL << SCB_CCR_BFHFNMIGN_Pos)                 /*!< SCB 
 496:Drivers/CMSIS/Include/core_cm3.h **** 
 497:Drivers/CMSIS/Include/core_cm3.h **** #define SCB_CCR_DIV_0_TRP_Pos               4U                                            /*!< SCB 
 498:Drivers/CMSIS/Include/core_cm3.h **** #define SCB_CCR_DIV_0_TRP_Msk              (1UL << SCB_CCR_DIV_0_TRP_Pos)                 /*!< SCB 
 499:Drivers/CMSIS/Include/core_cm3.h **** 
 500:Drivers/CMSIS/Include/core_cm3.h **** #define SCB_CCR_UNALIGN_TRP_Pos             3U                                            /*!< SCB 
 501:Drivers/CMSIS/Include/core_cm3.h **** #define SCB_CCR_UNALIGN_TRP_Msk            (1UL << SCB_CCR_UNALIGN_TRP_Pos)               /*!< SCB 
 502:Drivers/CMSIS/Include/core_cm3.h **** 
 503:Drivers/CMSIS/Include/core_cm3.h **** #define SCB_CCR_USERSETMPEND_Pos            1U                                            /*!< SCB 
 504:Drivers/CMSIS/Include/core_cm3.h **** #define SCB_CCR_USERSETMPEND_Msk           (1UL << SCB_CCR_USERSETMPEND_Pos)              /*!< SCB 
 505:Drivers/CMSIS/Include/core_cm3.h **** 
 506:Drivers/CMSIS/Include/core_cm3.h **** #define SCB_CCR_NONBASETHRDENA_Pos          0U                                            /*!< SCB 
 507:Drivers/CMSIS/Include/core_cm3.h **** #define SCB_CCR_NONBASETHRDENA_Msk         (1UL /*<< SCB_CCR_NONBASETHRDENA_Pos*/)        /*!< SCB 
 508:Drivers/CMSIS/Include/core_cm3.h **** 
 509:Drivers/CMSIS/Include/core_cm3.h **** /* SCB System Handler Control and State Register Definitions */
 510:Drivers/CMSIS/Include/core_cm3.h **** #define SCB_SHCSR_USGFAULTENA_Pos          18U                                            /*!< SCB 
 511:Drivers/CMSIS/Include/core_cm3.h **** #define SCB_SHCSR_USGFAULTENA_Msk          (1UL << SCB_SHCSR_USGFAULTENA_Pos)             /*!< SCB 
 512:Drivers/CMSIS/Include/core_cm3.h **** 
 513:Drivers/CMSIS/Include/core_cm3.h **** #define SCB_SHCSR_BUSFAULTENA_Pos          17U                                            /*!< SCB 
 514:Drivers/CMSIS/Include/core_cm3.h **** #define SCB_SHCSR_BUSFAULTENA_Msk          (1UL << SCB_SHCSR_BUSFAULTENA_Pos)             /*!< SCB 
 515:Drivers/CMSIS/Include/core_cm3.h **** 
 516:Drivers/CMSIS/Include/core_cm3.h **** #define SCB_SHCSR_MEMFAULTENA_Pos          16U                                            /*!< SCB 
 517:Drivers/CMSIS/Include/core_cm3.h **** #define SCB_SHCSR_MEMFAULTENA_Msk          (1UL << SCB_SHCSR_MEMFAULTENA_Pos)             /*!< SCB 
 518:Drivers/CMSIS/Include/core_cm3.h **** 
 519:Drivers/CMSIS/Include/core_cm3.h **** #define SCB_SHCSR_SVCALLPENDED_Pos         15U                                            /*!< SCB 
 520:Drivers/CMSIS/Include/core_cm3.h **** #define SCB_SHCSR_SVCALLPENDED_Msk         (1UL << SCB_SHCSR_SVCALLPENDED_Pos)            /*!< SCB 
 521:Drivers/CMSIS/Include/core_cm3.h **** 
 522:Drivers/CMSIS/Include/core_cm3.h **** #define SCB_SHCSR_BUSFAULTPENDED_Pos       14U                                            /*!< SCB 
 523:Drivers/CMSIS/Include/core_cm3.h **** #define SCB_SHCSR_BUSFAULTPENDED_Msk       (1UL << SCB_SHCSR_BUSFAULTPENDED_Pos)          /*!< SCB 
 524:Drivers/CMSIS/Include/core_cm3.h **** 
 525:Drivers/CMSIS/Include/core_cm3.h **** #define SCB_SHCSR_MEMFAULTPENDED_Pos       13U                                            /*!< SCB 
 526:Drivers/CMSIS/Include/core_cm3.h **** #define SCB_SHCSR_MEMFAULTPENDED_Msk       (1UL << SCB_SHCSR_MEMFAULTPENDED_Pos)          /*!< SCB 
 527:Drivers/CMSIS/Include/core_cm3.h **** 
 528:Drivers/CMSIS/Include/core_cm3.h **** #define SCB_SHCSR_USGFAULTPENDED_Pos       12U                                            /*!< SCB 
 529:Drivers/CMSIS/Include/core_cm3.h **** #define SCB_SHCSR_USGFAULTPENDED_Msk       (1UL << SCB_SHCSR_USGFAULTPENDED_Pos)          /*!< SCB 
 530:Drivers/CMSIS/Include/core_cm3.h **** 
 531:Drivers/CMSIS/Include/core_cm3.h **** #define SCB_SHCSR_SYSTICKACT_Pos           11U                                            /*!< SCB 
 532:Drivers/CMSIS/Include/core_cm3.h **** #define SCB_SHCSR_SYSTICKACT_Msk           (1UL << SCB_SHCSR_SYSTICKACT_Pos)              /*!< SCB 
 533:Drivers/CMSIS/Include/core_cm3.h **** 
 534:Drivers/CMSIS/Include/core_cm3.h **** #define SCB_SHCSR_PENDSVACT_Pos            10U                                            /*!< SCB 
 535:Drivers/CMSIS/Include/core_cm3.h **** #define SCB_SHCSR_PENDSVACT_Msk            (1UL << SCB_SHCSR_PENDSVACT_Pos)               /*!< SCB 
 536:Drivers/CMSIS/Include/core_cm3.h **** 
 537:Drivers/CMSIS/Include/core_cm3.h **** #define SCB_SHCSR_MONITORACT_Pos            8U                                            /*!< SCB 
 538:Drivers/CMSIS/Include/core_cm3.h **** #define SCB_SHCSR_MONITORACT_Msk           (1UL << SCB_SHCSR_MONITORACT_Pos)              /*!< SCB 
 539:Drivers/CMSIS/Include/core_cm3.h **** 
ARM GAS  /var/folders/m1/3lv6xmzs0mlckxs4mx90nfb40000gn/T//cczUMWYd.s 			page 18


 540:Drivers/CMSIS/Include/core_cm3.h **** #define SCB_SHCSR_SVCALLACT_Pos             7U                                            /*!< SCB 
 541:Drivers/CMSIS/Include/core_cm3.h **** #define SCB_SHCSR_SVCALLACT_Msk            (1UL << SCB_SHCSR_SVCALLACT_Pos)               /*!< SCB 
 542:Drivers/CMSIS/Include/core_cm3.h **** 
 543:Drivers/CMSIS/Include/core_cm3.h **** #define SCB_SHCSR_USGFAULTACT_Pos           3U                                            /*!< SCB 
 544:Drivers/CMSIS/Include/core_cm3.h **** #define SCB_SHCSR_USGFAULTACT_Msk          (1UL << SCB_SHCSR_USGFAULTACT_Pos)             /*!< SCB 
 545:Drivers/CMSIS/Include/core_cm3.h **** 
 546:Drivers/CMSIS/Include/core_cm3.h **** #define SCB_SHCSR_BUSFAULTACT_Pos           1U                                            /*!< SCB 
 547:Drivers/CMSIS/Include/core_cm3.h **** #define SCB_SHCSR_BUSFAULTACT_Msk          (1UL << SCB_SHCSR_BUSFAULTACT_Pos)             /*!< SCB 
 548:Drivers/CMSIS/Include/core_cm3.h **** 
 549:Drivers/CMSIS/Include/core_cm3.h **** #define SCB_SHCSR_MEMFAULTACT_Pos           0U                                            /*!< SCB 
 550:Drivers/CMSIS/Include/core_cm3.h **** #define SCB_SHCSR_MEMFAULTACT_Msk          (1UL /*<< SCB_SHCSR_MEMFAULTACT_Pos*/)         /*!< SCB 
 551:Drivers/CMSIS/Include/core_cm3.h **** 
 552:Drivers/CMSIS/Include/core_cm3.h **** /* SCB Configurable Fault Status Register Definitions */
 553:Drivers/CMSIS/Include/core_cm3.h **** #define SCB_CFSR_USGFAULTSR_Pos            16U                                            /*!< SCB 
 554:Drivers/CMSIS/Include/core_cm3.h **** #define SCB_CFSR_USGFAULTSR_Msk            (0xFFFFUL << SCB_CFSR_USGFAULTSR_Pos)          /*!< SCB 
 555:Drivers/CMSIS/Include/core_cm3.h **** 
 556:Drivers/CMSIS/Include/core_cm3.h **** #define SCB_CFSR_BUSFAULTSR_Pos             8U                                            /*!< SCB 
 557:Drivers/CMSIS/Include/core_cm3.h **** #define SCB_CFSR_BUSFAULTSR_Msk            (0xFFUL << SCB_CFSR_BUSFAULTSR_Pos)            /*!< SCB 
 558:Drivers/CMSIS/Include/core_cm3.h **** 
 559:Drivers/CMSIS/Include/core_cm3.h **** #define SCB_CFSR_MEMFAULTSR_Pos             0U                                            /*!< SCB 
 560:Drivers/CMSIS/Include/core_cm3.h **** #define SCB_CFSR_MEMFAULTSR_Msk            (0xFFUL /*<< SCB_CFSR_MEMFAULTSR_Pos*/)        /*!< SCB 
 561:Drivers/CMSIS/Include/core_cm3.h **** 
 562:Drivers/CMSIS/Include/core_cm3.h **** /* MemManage Fault Status Register (part of SCB Configurable Fault Status Register) */
 563:Drivers/CMSIS/Include/core_cm3.h **** #define SCB_CFSR_MMARVALID_Pos             (SCB_SHCSR_MEMFAULTACT_Pos + 7U)               /*!< SCB 
 564:Drivers/CMSIS/Include/core_cm3.h **** #define SCB_CFSR_MMARVALID_Msk             (1UL << SCB_CFSR_MMARVALID_Pos)                /*!< SCB 
 565:Drivers/CMSIS/Include/core_cm3.h **** 
 566:Drivers/CMSIS/Include/core_cm3.h **** #define SCB_CFSR_MSTKERR_Pos               (SCB_SHCSR_MEMFAULTACT_Pos + 4U)               /*!< SCB 
 567:Drivers/CMSIS/Include/core_cm3.h **** #define SCB_CFSR_MSTKERR_Msk               (1UL << SCB_CFSR_MSTKERR_Pos)                  /*!< SCB 
 568:Drivers/CMSIS/Include/core_cm3.h **** 
 569:Drivers/CMSIS/Include/core_cm3.h **** #define SCB_CFSR_MUNSTKERR_Pos             (SCB_SHCSR_MEMFAULTACT_Pos + 3U)               /*!< SCB 
 570:Drivers/CMSIS/Include/core_cm3.h **** #define SCB_CFSR_MUNSTKERR_Msk             (1UL << SCB_CFSR_MUNSTKERR_Pos)                /*!< SCB 
 571:Drivers/CMSIS/Include/core_cm3.h **** 
 572:Drivers/CMSIS/Include/core_cm3.h **** #define SCB_CFSR_DACCVIOL_Pos              (SCB_SHCSR_MEMFAULTACT_Pos + 1U)               /*!< SCB 
 573:Drivers/CMSIS/Include/core_cm3.h **** #define SCB_CFSR_DACCVIOL_Msk              (1UL << SCB_CFSR_DACCVIOL_Pos)                 /*!< SCB 
 574:Drivers/CMSIS/Include/core_cm3.h **** 
 575:Drivers/CMSIS/Include/core_cm3.h **** #define SCB_CFSR_IACCVIOL_Pos              (SCB_SHCSR_MEMFAULTACT_Pos + 0U)               /*!< SCB 
 576:Drivers/CMSIS/Include/core_cm3.h **** #define SCB_CFSR_IACCVIOL_Msk              (1UL /*<< SCB_CFSR_IACCVIOL_Pos*/)             /*!< SCB 
 577:Drivers/CMSIS/Include/core_cm3.h **** 
 578:Drivers/CMSIS/Include/core_cm3.h **** /* BusFault Status Register (part of SCB Configurable Fault Status Register) */
 579:Drivers/CMSIS/Include/core_cm3.h **** #define SCB_CFSR_BFARVALID_Pos            (SCB_CFSR_BUSFAULTSR_Pos + 7U)                  /*!< SCB 
 580:Drivers/CMSIS/Include/core_cm3.h **** #define SCB_CFSR_BFARVALID_Msk            (1UL << SCB_CFSR_BFARVALID_Pos)                 /*!< SCB 
 581:Drivers/CMSIS/Include/core_cm3.h **** 
 582:Drivers/CMSIS/Include/core_cm3.h **** #define SCB_CFSR_STKERR_Pos               (SCB_CFSR_BUSFAULTSR_Pos + 4U)                  /*!< SCB 
 583:Drivers/CMSIS/Include/core_cm3.h **** #define SCB_CFSR_STKERR_Msk               (1UL << SCB_CFSR_STKERR_Pos)                    /*!< SCB 
 584:Drivers/CMSIS/Include/core_cm3.h **** 
 585:Drivers/CMSIS/Include/core_cm3.h **** #define SCB_CFSR_UNSTKERR_Pos             (SCB_CFSR_BUSFAULTSR_Pos + 3U)                  /*!< SCB 
 586:Drivers/CMSIS/Include/core_cm3.h **** #define SCB_CFSR_UNSTKERR_Msk             (1UL << SCB_CFSR_UNSTKERR_Pos)                  /*!< SCB 
 587:Drivers/CMSIS/Include/core_cm3.h **** 
 588:Drivers/CMSIS/Include/core_cm3.h **** #define SCB_CFSR_IMPRECISERR_Pos          (SCB_CFSR_BUSFAULTSR_Pos + 2U)                  /*!< SCB 
 589:Drivers/CMSIS/Include/core_cm3.h **** #define SCB_CFSR_IMPRECISERR_Msk          (1UL << SCB_CFSR_IMPRECISERR_Pos)               /*!< SCB 
 590:Drivers/CMSIS/Include/core_cm3.h **** 
 591:Drivers/CMSIS/Include/core_cm3.h **** #define SCB_CFSR_PRECISERR_Pos            (SCB_CFSR_BUSFAULTSR_Pos + 1U)                  /*!< SCB 
 592:Drivers/CMSIS/Include/core_cm3.h **** #define SCB_CFSR_PRECISERR_Msk            (1UL << SCB_CFSR_PRECISERR_Pos)                 /*!< SCB 
 593:Drivers/CMSIS/Include/core_cm3.h **** 
 594:Drivers/CMSIS/Include/core_cm3.h **** #define SCB_CFSR_IBUSERR_Pos              (SCB_CFSR_BUSFAULTSR_Pos + 0U)                  /*!< SCB 
 595:Drivers/CMSIS/Include/core_cm3.h **** #define SCB_CFSR_IBUSERR_Msk              (1UL << SCB_CFSR_IBUSERR_Pos)                   /*!< SCB 
 596:Drivers/CMSIS/Include/core_cm3.h **** 
ARM GAS  /var/folders/m1/3lv6xmzs0mlckxs4mx90nfb40000gn/T//cczUMWYd.s 			page 19


 597:Drivers/CMSIS/Include/core_cm3.h **** /* UsageFault Status Register (part of SCB Configurable Fault Status Register) */
 598:Drivers/CMSIS/Include/core_cm3.h **** #define SCB_CFSR_DIVBYZERO_Pos            (SCB_CFSR_USGFAULTSR_Pos + 9U)                  /*!< SCB 
 599:Drivers/CMSIS/Include/core_cm3.h **** #define SCB_CFSR_DIVBYZERO_Msk            (1UL << SCB_CFSR_DIVBYZERO_Pos)                 /*!< SCB 
 600:Drivers/CMSIS/Include/core_cm3.h **** 
 601:Drivers/CMSIS/Include/core_cm3.h **** #define SCB_CFSR_UNALIGNED_Pos            (SCB_CFSR_USGFAULTSR_Pos + 8U)                  /*!< SCB 
 602:Drivers/CMSIS/Include/core_cm3.h **** #define SCB_CFSR_UNALIGNED_Msk            (1UL << SCB_CFSR_UNALIGNED_Pos)                 /*!< SCB 
 603:Drivers/CMSIS/Include/core_cm3.h **** 
 604:Drivers/CMSIS/Include/core_cm3.h **** #define SCB_CFSR_NOCP_Pos                 (SCB_CFSR_USGFAULTSR_Pos + 3U)                  /*!< SCB 
 605:Drivers/CMSIS/Include/core_cm3.h **** #define SCB_CFSR_NOCP_Msk                 (1UL << SCB_CFSR_NOCP_Pos)                      /*!< SCB 
 606:Drivers/CMSIS/Include/core_cm3.h **** 
 607:Drivers/CMSIS/Include/core_cm3.h **** #define SCB_CFSR_INVPC_Pos                (SCB_CFSR_USGFAULTSR_Pos + 2U)                  /*!< SCB 
 608:Drivers/CMSIS/Include/core_cm3.h **** #define SCB_CFSR_INVPC_Msk                (1UL << SCB_CFSR_INVPC_Pos)                     /*!< SCB 
 609:Drivers/CMSIS/Include/core_cm3.h **** 
 610:Drivers/CMSIS/Include/core_cm3.h **** #define SCB_CFSR_INVSTATE_Pos             (SCB_CFSR_USGFAULTSR_Pos + 1U)                  /*!< SCB 
 611:Drivers/CMSIS/Include/core_cm3.h **** #define SCB_CFSR_INVSTATE_Msk             (1UL << SCB_CFSR_INVSTATE_Pos)                  /*!< SCB 
 612:Drivers/CMSIS/Include/core_cm3.h **** 
 613:Drivers/CMSIS/Include/core_cm3.h **** #define SCB_CFSR_UNDEFINSTR_Pos           (SCB_CFSR_USGFAULTSR_Pos + 0U)                  /*!< SCB 
 614:Drivers/CMSIS/Include/core_cm3.h **** #define SCB_CFSR_UNDEFINSTR_Msk           (1UL << SCB_CFSR_UNDEFINSTR_Pos)                /*!< SCB 
 615:Drivers/CMSIS/Include/core_cm3.h **** 
 616:Drivers/CMSIS/Include/core_cm3.h **** /* SCB Hard Fault Status Register Definitions */
 617:Drivers/CMSIS/Include/core_cm3.h **** #define SCB_HFSR_DEBUGEVT_Pos              31U                                            /*!< SCB 
 618:Drivers/CMSIS/Include/core_cm3.h **** #define SCB_HFSR_DEBUGEVT_Msk              (1UL << SCB_HFSR_DEBUGEVT_Pos)                 /*!< SCB 
 619:Drivers/CMSIS/Include/core_cm3.h **** 
 620:Drivers/CMSIS/Include/core_cm3.h **** #define SCB_HFSR_FORCED_Pos                30U                                            /*!< SCB 
 621:Drivers/CMSIS/Include/core_cm3.h **** #define SCB_HFSR_FORCED_Msk                (1UL << SCB_HFSR_FORCED_Pos)                   /*!< SCB 
 622:Drivers/CMSIS/Include/core_cm3.h **** 
 623:Drivers/CMSIS/Include/core_cm3.h **** #define SCB_HFSR_VECTTBL_Pos                1U                                            /*!< SCB 
 624:Drivers/CMSIS/Include/core_cm3.h **** #define SCB_HFSR_VECTTBL_Msk               (1UL << SCB_HFSR_VECTTBL_Pos)                  /*!< SCB 
 625:Drivers/CMSIS/Include/core_cm3.h **** 
 626:Drivers/CMSIS/Include/core_cm3.h **** /* SCB Debug Fault Status Register Definitions */
 627:Drivers/CMSIS/Include/core_cm3.h **** #define SCB_DFSR_EXTERNAL_Pos               4U                                            /*!< SCB 
 628:Drivers/CMSIS/Include/core_cm3.h **** #define SCB_DFSR_EXTERNAL_Msk              (1UL << SCB_DFSR_EXTERNAL_Pos)                 /*!< SCB 
 629:Drivers/CMSIS/Include/core_cm3.h **** 
 630:Drivers/CMSIS/Include/core_cm3.h **** #define SCB_DFSR_VCATCH_Pos                 3U                                            /*!< SCB 
 631:Drivers/CMSIS/Include/core_cm3.h **** #define SCB_DFSR_VCATCH_Msk                (1UL << SCB_DFSR_VCATCH_Pos)                   /*!< SCB 
 632:Drivers/CMSIS/Include/core_cm3.h **** 
 633:Drivers/CMSIS/Include/core_cm3.h **** #define SCB_DFSR_DWTTRAP_Pos                2U                                            /*!< SCB 
 634:Drivers/CMSIS/Include/core_cm3.h **** #define SCB_DFSR_DWTTRAP_Msk               (1UL << SCB_DFSR_DWTTRAP_Pos)                  /*!< SCB 
 635:Drivers/CMSIS/Include/core_cm3.h **** 
 636:Drivers/CMSIS/Include/core_cm3.h **** #define SCB_DFSR_BKPT_Pos                   1U                                            /*!< SCB 
 637:Drivers/CMSIS/Include/core_cm3.h **** #define SCB_DFSR_BKPT_Msk                  (1UL << SCB_DFSR_BKPT_Pos)                     /*!< SCB 
 638:Drivers/CMSIS/Include/core_cm3.h **** 
 639:Drivers/CMSIS/Include/core_cm3.h **** #define SCB_DFSR_HALTED_Pos                 0U                                            /*!< SCB 
 640:Drivers/CMSIS/Include/core_cm3.h **** #define SCB_DFSR_HALTED_Msk                (1UL /*<< SCB_DFSR_HALTED_Pos*/)               /*!< SCB 
 641:Drivers/CMSIS/Include/core_cm3.h **** 
 642:Drivers/CMSIS/Include/core_cm3.h **** /*@} end of group CMSIS_SCB */
 643:Drivers/CMSIS/Include/core_cm3.h **** 
 644:Drivers/CMSIS/Include/core_cm3.h **** 
 645:Drivers/CMSIS/Include/core_cm3.h **** /**
 646:Drivers/CMSIS/Include/core_cm3.h ****   \ingroup  CMSIS_core_register
 647:Drivers/CMSIS/Include/core_cm3.h ****   \defgroup CMSIS_SCnSCB System Controls not in SCB (SCnSCB)
 648:Drivers/CMSIS/Include/core_cm3.h ****   \brief    Type definitions for the System Control and ID Register not in the SCB
 649:Drivers/CMSIS/Include/core_cm3.h ****   @{
 650:Drivers/CMSIS/Include/core_cm3.h ****  */
 651:Drivers/CMSIS/Include/core_cm3.h **** 
 652:Drivers/CMSIS/Include/core_cm3.h **** /**
 653:Drivers/CMSIS/Include/core_cm3.h ****   \brief  Structure type to access the System Control and ID Register not in the SCB.
ARM GAS  /var/folders/m1/3lv6xmzs0mlckxs4mx90nfb40000gn/T//cczUMWYd.s 			page 20


 654:Drivers/CMSIS/Include/core_cm3.h ****  */
 655:Drivers/CMSIS/Include/core_cm3.h **** typedef struct
 656:Drivers/CMSIS/Include/core_cm3.h **** {
 657:Drivers/CMSIS/Include/core_cm3.h ****         uint32_t RESERVED0[1U];
 658:Drivers/CMSIS/Include/core_cm3.h ****   __IM  uint32_t ICTR;                   /*!< Offset: 0x004 (R/ )  Interrupt Controller Type Regist
 659:Drivers/CMSIS/Include/core_cm3.h **** #if defined (__CM3_REV) && (__CM3_REV >= 0x200U)
 660:Drivers/CMSIS/Include/core_cm3.h ****   __IOM uint32_t ACTLR;                  /*!< Offset: 0x008 (R/W)  Auxiliary Control Register */
 661:Drivers/CMSIS/Include/core_cm3.h **** #else
 662:Drivers/CMSIS/Include/core_cm3.h ****         uint32_t RESERVED1[1U];
 663:Drivers/CMSIS/Include/core_cm3.h **** #endif
 664:Drivers/CMSIS/Include/core_cm3.h **** } SCnSCB_Type;
 665:Drivers/CMSIS/Include/core_cm3.h **** 
 666:Drivers/CMSIS/Include/core_cm3.h **** /* Interrupt Controller Type Register Definitions */
 667:Drivers/CMSIS/Include/core_cm3.h **** #define SCnSCB_ICTR_INTLINESNUM_Pos         0U                                         /*!< ICTR: I
 668:Drivers/CMSIS/Include/core_cm3.h **** #define SCnSCB_ICTR_INTLINESNUM_Msk        (0xFUL /*<< SCnSCB_ICTR_INTLINESNUM_Pos*/)  /*!< ICTR: I
 669:Drivers/CMSIS/Include/core_cm3.h **** 
 670:Drivers/CMSIS/Include/core_cm3.h **** /* Auxiliary Control Register Definitions */
 671:Drivers/CMSIS/Include/core_cm3.h **** 
 672:Drivers/CMSIS/Include/core_cm3.h **** #define SCnSCB_ACTLR_DISFOLD_Pos            2U                                         /*!< ACTLR: 
 673:Drivers/CMSIS/Include/core_cm3.h **** #define SCnSCB_ACTLR_DISFOLD_Msk           (1UL << SCnSCB_ACTLR_DISFOLD_Pos)           /*!< ACTLR: 
 674:Drivers/CMSIS/Include/core_cm3.h **** 
 675:Drivers/CMSIS/Include/core_cm3.h **** #define SCnSCB_ACTLR_DISDEFWBUF_Pos         1U                                         /*!< ACTLR: 
 676:Drivers/CMSIS/Include/core_cm3.h **** #define SCnSCB_ACTLR_DISDEFWBUF_Msk        (1UL << SCnSCB_ACTLR_DISDEFWBUF_Pos)        /*!< ACTLR: 
 677:Drivers/CMSIS/Include/core_cm3.h **** 
 678:Drivers/CMSIS/Include/core_cm3.h **** #define SCnSCB_ACTLR_DISMCYCINT_Pos         0U                                         /*!< ACTLR: 
 679:Drivers/CMSIS/Include/core_cm3.h **** #define SCnSCB_ACTLR_DISMCYCINT_Msk        (1UL /*<< SCnSCB_ACTLR_DISMCYCINT_Pos*/)    /*!< ACTLR: 
 680:Drivers/CMSIS/Include/core_cm3.h **** 
 681:Drivers/CMSIS/Include/core_cm3.h **** /*@} end of group CMSIS_SCnotSCB */
 682:Drivers/CMSIS/Include/core_cm3.h **** 
 683:Drivers/CMSIS/Include/core_cm3.h **** 
 684:Drivers/CMSIS/Include/core_cm3.h **** /**
 685:Drivers/CMSIS/Include/core_cm3.h ****   \ingroup  CMSIS_core_register
 686:Drivers/CMSIS/Include/core_cm3.h ****   \defgroup CMSIS_SysTick     System Tick Timer (SysTick)
 687:Drivers/CMSIS/Include/core_cm3.h ****   \brief    Type definitions for the System Timer Registers.
 688:Drivers/CMSIS/Include/core_cm3.h ****   @{
 689:Drivers/CMSIS/Include/core_cm3.h ****  */
 690:Drivers/CMSIS/Include/core_cm3.h **** 
 691:Drivers/CMSIS/Include/core_cm3.h **** /**
 692:Drivers/CMSIS/Include/core_cm3.h ****   \brief  Structure type to access the System Timer (SysTick).
 693:Drivers/CMSIS/Include/core_cm3.h ****  */
 694:Drivers/CMSIS/Include/core_cm3.h **** typedef struct
 695:Drivers/CMSIS/Include/core_cm3.h **** {
 696:Drivers/CMSIS/Include/core_cm3.h ****   __IOM uint32_t CTRL;                   /*!< Offset: 0x000 (R/W)  SysTick Control and Status Regis
 697:Drivers/CMSIS/Include/core_cm3.h ****   __IOM uint32_t LOAD;                   /*!< Offset: 0x004 (R/W)  SysTick Reload Value Register */
 698:Drivers/CMSIS/Include/core_cm3.h ****   __IOM uint32_t VAL;                    /*!< Offset: 0x008 (R/W)  SysTick Current Value Register *
 699:Drivers/CMSIS/Include/core_cm3.h ****   __IM  uint32_t CALIB;                  /*!< Offset: 0x00C (R/ )  SysTick Calibration Register */
 700:Drivers/CMSIS/Include/core_cm3.h **** } SysTick_Type;
 701:Drivers/CMSIS/Include/core_cm3.h **** 
 702:Drivers/CMSIS/Include/core_cm3.h **** /* SysTick Control / Status Register Definitions */
 703:Drivers/CMSIS/Include/core_cm3.h **** #define SysTick_CTRL_COUNTFLAG_Pos         16U                                            /*!< SysT
 704:Drivers/CMSIS/Include/core_cm3.h **** #define SysTick_CTRL_COUNTFLAG_Msk         (1UL << SysTick_CTRL_COUNTFLAG_Pos)            /*!< SysT
 705:Drivers/CMSIS/Include/core_cm3.h **** 
 706:Drivers/CMSIS/Include/core_cm3.h **** #define SysTick_CTRL_CLKSOURCE_Pos          2U                                            /*!< SysT
 707:Drivers/CMSIS/Include/core_cm3.h **** #define SysTick_CTRL_CLKSOURCE_Msk         (1UL << SysTick_CTRL_CLKSOURCE_Pos)            /*!< SysT
 708:Drivers/CMSIS/Include/core_cm3.h **** 
 709:Drivers/CMSIS/Include/core_cm3.h **** #define SysTick_CTRL_TICKINT_Pos            1U                                            /*!< SysT
 710:Drivers/CMSIS/Include/core_cm3.h **** #define SysTick_CTRL_TICKINT_Msk           (1UL << SysTick_CTRL_TICKINT_Pos)              /*!< SysT
ARM GAS  /var/folders/m1/3lv6xmzs0mlckxs4mx90nfb40000gn/T//cczUMWYd.s 			page 21


 711:Drivers/CMSIS/Include/core_cm3.h **** 
 712:Drivers/CMSIS/Include/core_cm3.h **** #define SysTick_CTRL_ENABLE_Pos             0U                                            /*!< SysT
 713:Drivers/CMSIS/Include/core_cm3.h **** #define SysTick_CTRL_ENABLE_Msk            (1UL /*<< SysTick_CTRL_ENABLE_Pos*/)           /*!< SysT
 714:Drivers/CMSIS/Include/core_cm3.h **** 
 715:Drivers/CMSIS/Include/core_cm3.h **** /* SysTick Reload Register Definitions */
 716:Drivers/CMSIS/Include/core_cm3.h **** #define SysTick_LOAD_RELOAD_Pos             0U                                            /*!< SysT
 717:Drivers/CMSIS/Include/core_cm3.h **** #define SysTick_LOAD_RELOAD_Msk            (0xFFFFFFUL /*<< SysTick_LOAD_RELOAD_Pos*/)    /*!< SysT
 718:Drivers/CMSIS/Include/core_cm3.h **** 
 719:Drivers/CMSIS/Include/core_cm3.h **** /* SysTick Current Register Definitions */
 720:Drivers/CMSIS/Include/core_cm3.h **** #define SysTick_VAL_CURRENT_Pos             0U                                            /*!< SysT
 721:Drivers/CMSIS/Include/core_cm3.h **** #define SysTick_VAL_CURRENT_Msk            (0xFFFFFFUL /*<< SysTick_VAL_CURRENT_Pos*/)    /*!< SysT
 722:Drivers/CMSIS/Include/core_cm3.h **** 
 723:Drivers/CMSIS/Include/core_cm3.h **** /* SysTick Calibration Register Definitions */
 724:Drivers/CMSIS/Include/core_cm3.h **** #define SysTick_CALIB_NOREF_Pos            31U                                            /*!< SysT
 725:Drivers/CMSIS/Include/core_cm3.h **** #define SysTick_CALIB_NOREF_Msk            (1UL << SysTick_CALIB_NOREF_Pos)               /*!< SysT
 726:Drivers/CMSIS/Include/core_cm3.h **** 
 727:Drivers/CMSIS/Include/core_cm3.h **** #define SysTick_CALIB_SKEW_Pos             30U                                            /*!< SysT
 728:Drivers/CMSIS/Include/core_cm3.h **** #define SysTick_CALIB_SKEW_Msk             (1UL << SysTick_CALIB_SKEW_Pos)                /*!< SysT
 729:Drivers/CMSIS/Include/core_cm3.h **** 
 730:Drivers/CMSIS/Include/core_cm3.h **** #define SysTick_CALIB_TENMS_Pos             0U                                            /*!< SysT
 731:Drivers/CMSIS/Include/core_cm3.h **** #define SysTick_CALIB_TENMS_Msk            (0xFFFFFFUL /*<< SysTick_CALIB_TENMS_Pos*/)    /*!< SysT
 732:Drivers/CMSIS/Include/core_cm3.h **** 
 733:Drivers/CMSIS/Include/core_cm3.h **** /*@} end of group CMSIS_SysTick */
 734:Drivers/CMSIS/Include/core_cm3.h **** 
 735:Drivers/CMSIS/Include/core_cm3.h **** 
 736:Drivers/CMSIS/Include/core_cm3.h **** /**
 737:Drivers/CMSIS/Include/core_cm3.h ****   \ingroup  CMSIS_core_register
 738:Drivers/CMSIS/Include/core_cm3.h ****   \defgroup CMSIS_ITM     Instrumentation Trace Macrocell (ITM)
 739:Drivers/CMSIS/Include/core_cm3.h ****   \brief    Type definitions for the Instrumentation Trace Macrocell (ITM)
 740:Drivers/CMSIS/Include/core_cm3.h ****   @{
 741:Drivers/CMSIS/Include/core_cm3.h ****  */
 742:Drivers/CMSIS/Include/core_cm3.h **** 
 743:Drivers/CMSIS/Include/core_cm3.h **** /**
 744:Drivers/CMSIS/Include/core_cm3.h ****   \brief  Structure type to access the Instrumentation Trace Macrocell Register (ITM).
 745:Drivers/CMSIS/Include/core_cm3.h ****  */
 746:Drivers/CMSIS/Include/core_cm3.h **** typedef struct
 747:Drivers/CMSIS/Include/core_cm3.h **** {
 748:Drivers/CMSIS/Include/core_cm3.h ****   __OM  union
 749:Drivers/CMSIS/Include/core_cm3.h ****   {
 750:Drivers/CMSIS/Include/core_cm3.h ****     __OM  uint8_t    u8;                 /*!< Offset: 0x000 ( /W)  ITM Stimulus Port 8-bit */
 751:Drivers/CMSIS/Include/core_cm3.h ****     __OM  uint16_t   u16;                /*!< Offset: 0x000 ( /W)  ITM Stimulus Port 16-bit */
 752:Drivers/CMSIS/Include/core_cm3.h ****     __OM  uint32_t   u32;                /*!< Offset: 0x000 ( /W)  ITM Stimulus Port 32-bit */
 753:Drivers/CMSIS/Include/core_cm3.h ****   }  PORT [32U];                         /*!< Offset: 0x000 ( /W)  ITM Stimulus Port Registers */
 754:Drivers/CMSIS/Include/core_cm3.h ****         uint32_t RESERVED0[864U];
 755:Drivers/CMSIS/Include/core_cm3.h ****   __IOM uint32_t TER;                    /*!< Offset: 0xE00 (R/W)  ITM Trace Enable Register */
 756:Drivers/CMSIS/Include/core_cm3.h ****         uint32_t RESERVED1[15U];
 757:Drivers/CMSIS/Include/core_cm3.h ****   __IOM uint32_t TPR;                    /*!< Offset: 0xE40 (R/W)  ITM Trace Privilege Register */
 758:Drivers/CMSIS/Include/core_cm3.h ****         uint32_t RESERVED2[15U];
 759:Drivers/CMSIS/Include/core_cm3.h ****   __IOM uint32_t TCR;                    /*!< Offset: 0xE80 (R/W)  ITM Trace Control Register */
 760:Drivers/CMSIS/Include/core_cm3.h ****         uint32_t RESERVED3[29U];
 761:Drivers/CMSIS/Include/core_cm3.h ****   __OM  uint32_t IWR;                    /*!< Offset: 0xEF8 ( /W)  ITM Integration Write Register *
 762:Drivers/CMSIS/Include/core_cm3.h ****   __IM  uint32_t IRR;                    /*!< Offset: 0xEFC (R/ )  ITM Integration Read Register */
 763:Drivers/CMSIS/Include/core_cm3.h ****   __IOM uint32_t IMCR;                   /*!< Offset: 0xF00 (R/W)  ITM Integration Mode Control Reg
 764:Drivers/CMSIS/Include/core_cm3.h ****         uint32_t RESERVED4[43U];
 765:Drivers/CMSIS/Include/core_cm3.h ****   __OM  uint32_t LAR;                    /*!< Offset: 0xFB0 ( /W)  ITM Lock Access Register */
 766:Drivers/CMSIS/Include/core_cm3.h ****   __IM  uint32_t LSR;                    /*!< Offset: 0xFB4 (R/ )  ITM Lock Status Register */
 767:Drivers/CMSIS/Include/core_cm3.h ****         uint32_t RESERVED5[6U];
ARM GAS  /var/folders/m1/3lv6xmzs0mlckxs4mx90nfb40000gn/T//cczUMWYd.s 			page 22


 768:Drivers/CMSIS/Include/core_cm3.h ****   __IM  uint32_t PID4;                   /*!< Offset: 0xFD0 (R/ )  ITM Peripheral Identification Re
 769:Drivers/CMSIS/Include/core_cm3.h ****   __IM  uint32_t PID5;                   /*!< Offset: 0xFD4 (R/ )  ITM Peripheral Identification Re
 770:Drivers/CMSIS/Include/core_cm3.h ****   __IM  uint32_t PID6;                   /*!< Offset: 0xFD8 (R/ )  ITM Peripheral Identification Re
 771:Drivers/CMSIS/Include/core_cm3.h ****   __IM  uint32_t PID7;                   /*!< Offset: 0xFDC (R/ )  ITM Peripheral Identification Re
 772:Drivers/CMSIS/Include/core_cm3.h ****   __IM  uint32_t PID0;                   /*!< Offset: 0xFE0 (R/ )  ITM Peripheral Identification Re
 773:Drivers/CMSIS/Include/core_cm3.h ****   __IM  uint32_t PID1;                   /*!< Offset: 0xFE4 (R/ )  ITM Peripheral Identification Re
 774:Drivers/CMSIS/Include/core_cm3.h ****   __IM  uint32_t PID2;                   /*!< Offset: 0xFE8 (R/ )  ITM Peripheral Identification Re
 775:Drivers/CMSIS/Include/core_cm3.h ****   __IM  uint32_t PID3;                   /*!< Offset: 0xFEC (R/ )  ITM Peripheral Identification Re
 776:Drivers/CMSIS/Include/core_cm3.h ****   __IM  uint32_t CID0;                   /*!< Offset: 0xFF0 (R/ )  ITM Component  Identification Re
 777:Drivers/CMSIS/Include/core_cm3.h ****   __IM  uint32_t CID1;                   /*!< Offset: 0xFF4 (R/ )  ITM Component  Identification Re
 778:Drivers/CMSIS/Include/core_cm3.h ****   __IM  uint32_t CID2;                   /*!< Offset: 0xFF8 (R/ )  ITM Component  Identification Re
 779:Drivers/CMSIS/Include/core_cm3.h ****   __IM  uint32_t CID3;                   /*!< Offset: 0xFFC (R/ )  ITM Component  Identification Re
 780:Drivers/CMSIS/Include/core_cm3.h **** } ITM_Type;
 781:Drivers/CMSIS/Include/core_cm3.h **** 
 782:Drivers/CMSIS/Include/core_cm3.h **** /* ITM Trace Privilege Register Definitions */
 783:Drivers/CMSIS/Include/core_cm3.h **** #define ITM_TPR_PRIVMASK_Pos                0U                                            /*!< ITM 
 784:Drivers/CMSIS/Include/core_cm3.h **** #define ITM_TPR_PRIVMASK_Msk               (0xFFFFFFFFUL /*<< ITM_TPR_PRIVMASK_Pos*/)     /*!< ITM 
 785:Drivers/CMSIS/Include/core_cm3.h **** 
 786:Drivers/CMSIS/Include/core_cm3.h **** /* ITM Trace Control Register Definitions */
 787:Drivers/CMSIS/Include/core_cm3.h **** #define ITM_TCR_BUSY_Pos                   23U                                            /*!< ITM 
 788:Drivers/CMSIS/Include/core_cm3.h **** #define ITM_TCR_BUSY_Msk                   (1UL << ITM_TCR_BUSY_Pos)                      /*!< ITM 
 789:Drivers/CMSIS/Include/core_cm3.h **** 
 790:Drivers/CMSIS/Include/core_cm3.h **** #define ITM_TCR_TraceBusID_Pos             16U                                            /*!< ITM 
 791:Drivers/CMSIS/Include/core_cm3.h **** #define ITM_TCR_TraceBusID_Msk             (0x7FUL << ITM_TCR_TraceBusID_Pos)             /*!< ITM 
 792:Drivers/CMSIS/Include/core_cm3.h **** 
 793:Drivers/CMSIS/Include/core_cm3.h **** #define ITM_TCR_GTSFREQ_Pos                10U                                            /*!< ITM 
 794:Drivers/CMSIS/Include/core_cm3.h **** #define ITM_TCR_GTSFREQ_Msk                (3UL << ITM_TCR_GTSFREQ_Pos)                   /*!< ITM 
 795:Drivers/CMSIS/Include/core_cm3.h **** 
 796:Drivers/CMSIS/Include/core_cm3.h **** #define ITM_TCR_TSPrescale_Pos              8U                                            /*!< ITM 
 797:Drivers/CMSIS/Include/core_cm3.h **** #define ITM_TCR_TSPrescale_Msk             (3UL << ITM_TCR_TSPrescale_Pos)                /*!< ITM 
 798:Drivers/CMSIS/Include/core_cm3.h **** 
 799:Drivers/CMSIS/Include/core_cm3.h **** #define ITM_TCR_SWOENA_Pos                  4U                                            /*!< ITM 
 800:Drivers/CMSIS/Include/core_cm3.h **** #define ITM_TCR_SWOENA_Msk                 (1UL << ITM_TCR_SWOENA_Pos)                    /*!< ITM 
 801:Drivers/CMSIS/Include/core_cm3.h **** 
 802:Drivers/CMSIS/Include/core_cm3.h **** #define ITM_TCR_DWTENA_Pos                  3U                                            /*!< ITM 
 803:Drivers/CMSIS/Include/core_cm3.h **** #define ITM_TCR_DWTENA_Msk                 (1UL << ITM_TCR_DWTENA_Pos)                    /*!< ITM 
 804:Drivers/CMSIS/Include/core_cm3.h **** 
 805:Drivers/CMSIS/Include/core_cm3.h **** #define ITM_TCR_SYNCENA_Pos                 2U                                            /*!< ITM 
 806:Drivers/CMSIS/Include/core_cm3.h **** #define ITM_TCR_SYNCENA_Msk                (1UL << ITM_TCR_SYNCENA_Pos)                   /*!< ITM 
 807:Drivers/CMSIS/Include/core_cm3.h **** 
 808:Drivers/CMSIS/Include/core_cm3.h **** #define ITM_TCR_TSENA_Pos                   1U                                            /*!< ITM 
 809:Drivers/CMSIS/Include/core_cm3.h **** #define ITM_TCR_TSENA_Msk                  (1UL << ITM_TCR_TSENA_Pos)                     /*!< ITM 
 810:Drivers/CMSIS/Include/core_cm3.h **** 
 811:Drivers/CMSIS/Include/core_cm3.h **** #define ITM_TCR_ITMENA_Pos                  0U                                            /*!< ITM 
 812:Drivers/CMSIS/Include/core_cm3.h **** #define ITM_TCR_ITMENA_Msk                 (1UL /*<< ITM_TCR_ITMENA_Pos*/)                /*!< ITM 
 813:Drivers/CMSIS/Include/core_cm3.h **** 
 814:Drivers/CMSIS/Include/core_cm3.h **** /* ITM Integration Write Register Definitions */
 815:Drivers/CMSIS/Include/core_cm3.h **** #define ITM_IWR_ATVALIDM_Pos                0U                                            /*!< ITM 
 816:Drivers/CMSIS/Include/core_cm3.h **** #define ITM_IWR_ATVALIDM_Msk               (1UL /*<< ITM_IWR_ATVALIDM_Pos*/)              /*!< ITM 
 817:Drivers/CMSIS/Include/core_cm3.h **** 
 818:Drivers/CMSIS/Include/core_cm3.h **** /* ITM Integration Read Register Definitions */
 819:Drivers/CMSIS/Include/core_cm3.h **** #define ITM_IRR_ATREADYM_Pos                0U                                            /*!< ITM 
 820:Drivers/CMSIS/Include/core_cm3.h **** #define ITM_IRR_ATREADYM_Msk               (1UL /*<< ITM_IRR_ATREADYM_Pos*/)              /*!< ITM 
 821:Drivers/CMSIS/Include/core_cm3.h **** 
 822:Drivers/CMSIS/Include/core_cm3.h **** /* ITM Integration Mode Control Register Definitions */
 823:Drivers/CMSIS/Include/core_cm3.h **** #define ITM_IMCR_INTEGRATION_Pos            0U                                            /*!< ITM 
 824:Drivers/CMSIS/Include/core_cm3.h **** #define ITM_IMCR_INTEGRATION_Msk           (1UL /*<< ITM_IMCR_INTEGRATION_Pos*/)          /*!< ITM 
ARM GAS  /var/folders/m1/3lv6xmzs0mlckxs4mx90nfb40000gn/T//cczUMWYd.s 			page 23


 825:Drivers/CMSIS/Include/core_cm3.h **** 
 826:Drivers/CMSIS/Include/core_cm3.h **** /* ITM Lock Status Register Definitions */
 827:Drivers/CMSIS/Include/core_cm3.h **** #define ITM_LSR_ByteAcc_Pos                 2U                                            /*!< ITM 
 828:Drivers/CMSIS/Include/core_cm3.h **** #define ITM_LSR_ByteAcc_Msk                (1UL << ITM_LSR_ByteAcc_Pos)                   /*!< ITM 
 829:Drivers/CMSIS/Include/core_cm3.h **** 
 830:Drivers/CMSIS/Include/core_cm3.h **** #define ITM_LSR_Access_Pos                  1U                                            /*!< ITM 
 831:Drivers/CMSIS/Include/core_cm3.h **** #define ITM_LSR_Access_Msk                 (1UL << ITM_LSR_Access_Pos)                    /*!< ITM 
 832:Drivers/CMSIS/Include/core_cm3.h **** 
 833:Drivers/CMSIS/Include/core_cm3.h **** #define ITM_LSR_Present_Pos                 0U                                            /*!< ITM 
 834:Drivers/CMSIS/Include/core_cm3.h **** #define ITM_LSR_Present_Msk                (1UL /*<< ITM_LSR_Present_Pos*/)               /*!< ITM 
 835:Drivers/CMSIS/Include/core_cm3.h **** 
 836:Drivers/CMSIS/Include/core_cm3.h **** /*@}*/ /* end of group CMSIS_ITM */
 837:Drivers/CMSIS/Include/core_cm3.h **** 
 838:Drivers/CMSIS/Include/core_cm3.h **** 
 839:Drivers/CMSIS/Include/core_cm3.h **** /**
 840:Drivers/CMSIS/Include/core_cm3.h ****   \ingroup  CMSIS_core_register
 841:Drivers/CMSIS/Include/core_cm3.h ****   \defgroup CMSIS_DWT     Data Watchpoint and Trace (DWT)
 842:Drivers/CMSIS/Include/core_cm3.h ****   \brief    Type definitions for the Data Watchpoint and Trace (DWT)
 843:Drivers/CMSIS/Include/core_cm3.h ****   @{
 844:Drivers/CMSIS/Include/core_cm3.h ****  */
 845:Drivers/CMSIS/Include/core_cm3.h **** 
 846:Drivers/CMSIS/Include/core_cm3.h **** /**
 847:Drivers/CMSIS/Include/core_cm3.h ****   \brief  Structure type to access the Data Watchpoint and Trace Register (DWT).
 848:Drivers/CMSIS/Include/core_cm3.h ****  */
 849:Drivers/CMSIS/Include/core_cm3.h **** typedef struct
 850:Drivers/CMSIS/Include/core_cm3.h **** {
 851:Drivers/CMSIS/Include/core_cm3.h ****   __IOM uint32_t CTRL;                   /*!< Offset: 0x000 (R/W)  Control Register */
 852:Drivers/CMSIS/Include/core_cm3.h ****   __IOM uint32_t CYCCNT;                 /*!< Offset: 0x004 (R/W)  Cycle Count Register */
 853:Drivers/CMSIS/Include/core_cm3.h ****   __IOM uint32_t CPICNT;                 /*!< Offset: 0x008 (R/W)  CPI Count Register */
 854:Drivers/CMSIS/Include/core_cm3.h ****   __IOM uint32_t EXCCNT;                 /*!< Offset: 0x00C (R/W)  Exception Overhead Count Registe
 855:Drivers/CMSIS/Include/core_cm3.h ****   __IOM uint32_t SLEEPCNT;               /*!< Offset: 0x010 (R/W)  Sleep Count Register */
 856:Drivers/CMSIS/Include/core_cm3.h ****   __IOM uint32_t LSUCNT;                 /*!< Offset: 0x014 (R/W)  LSU Count Register */
 857:Drivers/CMSIS/Include/core_cm3.h ****   __IOM uint32_t FOLDCNT;                /*!< Offset: 0x018 (R/W)  Folded-instruction Count Registe
 858:Drivers/CMSIS/Include/core_cm3.h ****   __IM  uint32_t PCSR;                   /*!< Offset: 0x01C (R/ )  Program Counter Sample Register 
 859:Drivers/CMSIS/Include/core_cm3.h ****   __IOM uint32_t COMP0;                  /*!< Offset: 0x020 (R/W)  Comparator Register 0 */
 860:Drivers/CMSIS/Include/core_cm3.h ****   __IOM uint32_t MASK0;                  /*!< Offset: 0x024 (R/W)  Mask Register 0 */
 861:Drivers/CMSIS/Include/core_cm3.h ****   __IOM uint32_t FUNCTION0;              /*!< Offset: 0x028 (R/W)  Function Register 0 */
 862:Drivers/CMSIS/Include/core_cm3.h ****         uint32_t RESERVED0[1U];
 863:Drivers/CMSIS/Include/core_cm3.h ****   __IOM uint32_t COMP1;                  /*!< Offset: 0x030 (R/W)  Comparator Register 1 */
 864:Drivers/CMSIS/Include/core_cm3.h ****   __IOM uint32_t MASK1;                  /*!< Offset: 0x034 (R/W)  Mask Register 1 */
 865:Drivers/CMSIS/Include/core_cm3.h ****   __IOM uint32_t FUNCTION1;              /*!< Offset: 0x038 (R/W)  Function Register 1 */
 866:Drivers/CMSIS/Include/core_cm3.h ****         uint32_t RESERVED1[1U];
 867:Drivers/CMSIS/Include/core_cm3.h ****   __IOM uint32_t COMP2;                  /*!< Offset: 0x040 (R/W)  Comparator Register 2 */
 868:Drivers/CMSIS/Include/core_cm3.h ****   __IOM uint32_t MASK2;                  /*!< Offset: 0x044 (R/W)  Mask Register 2 */
 869:Drivers/CMSIS/Include/core_cm3.h ****   __IOM uint32_t FUNCTION2;              /*!< Offset: 0x048 (R/W)  Function Register 2 */
 870:Drivers/CMSIS/Include/core_cm3.h ****         uint32_t RESERVED2[1U];
 871:Drivers/CMSIS/Include/core_cm3.h ****   __IOM uint32_t COMP3;                  /*!< Offset: 0x050 (R/W)  Comparator Register 3 */
 872:Drivers/CMSIS/Include/core_cm3.h ****   __IOM uint32_t MASK3;                  /*!< Offset: 0x054 (R/W)  Mask Register 3 */
 873:Drivers/CMSIS/Include/core_cm3.h ****   __IOM uint32_t FUNCTION3;              /*!< Offset: 0x058 (R/W)  Function Register 3 */
 874:Drivers/CMSIS/Include/core_cm3.h **** } DWT_Type;
 875:Drivers/CMSIS/Include/core_cm3.h **** 
 876:Drivers/CMSIS/Include/core_cm3.h **** /* DWT Control Register Definitions */
 877:Drivers/CMSIS/Include/core_cm3.h **** #define DWT_CTRL_NUMCOMP_Pos               28U                                         /*!< DWT CTR
 878:Drivers/CMSIS/Include/core_cm3.h **** #define DWT_CTRL_NUMCOMP_Msk               (0xFUL << DWT_CTRL_NUMCOMP_Pos)             /*!< DWT CTR
 879:Drivers/CMSIS/Include/core_cm3.h **** 
 880:Drivers/CMSIS/Include/core_cm3.h **** #define DWT_CTRL_NOTRCPKT_Pos              27U                                         /*!< DWT CTR
 881:Drivers/CMSIS/Include/core_cm3.h **** #define DWT_CTRL_NOTRCPKT_Msk              (0x1UL << DWT_CTRL_NOTRCPKT_Pos)            /*!< DWT CTR
ARM GAS  /var/folders/m1/3lv6xmzs0mlckxs4mx90nfb40000gn/T//cczUMWYd.s 			page 24


 882:Drivers/CMSIS/Include/core_cm3.h **** 
 883:Drivers/CMSIS/Include/core_cm3.h **** #define DWT_CTRL_NOEXTTRIG_Pos             26U                                         /*!< DWT CTR
 884:Drivers/CMSIS/Include/core_cm3.h **** #define DWT_CTRL_NOEXTTRIG_Msk             (0x1UL << DWT_CTRL_NOEXTTRIG_Pos)           /*!< DWT CTR
 885:Drivers/CMSIS/Include/core_cm3.h **** 
 886:Drivers/CMSIS/Include/core_cm3.h **** #define DWT_CTRL_NOCYCCNT_Pos              25U                                         /*!< DWT CTR
 887:Drivers/CMSIS/Include/core_cm3.h **** #define DWT_CTRL_NOCYCCNT_Msk              (0x1UL << DWT_CTRL_NOCYCCNT_Pos)            /*!< DWT CTR
 888:Drivers/CMSIS/Include/core_cm3.h **** 
 889:Drivers/CMSIS/Include/core_cm3.h **** #define DWT_CTRL_NOPRFCNT_Pos              24U                                         /*!< DWT CTR
 890:Drivers/CMSIS/Include/core_cm3.h **** #define DWT_CTRL_NOPRFCNT_Msk              (0x1UL << DWT_CTRL_NOPRFCNT_Pos)            /*!< DWT CTR
 891:Drivers/CMSIS/Include/core_cm3.h **** 
 892:Drivers/CMSIS/Include/core_cm3.h **** #define DWT_CTRL_CYCEVTENA_Pos             22U                                         /*!< DWT CTR
 893:Drivers/CMSIS/Include/core_cm3.h **** #define DWT_CTRL_CYCEVTENA_Msk             (0x1UL << DWT_CTRL_CYCEVTENA_Pos)           /*!< DWT CTR
 894:Drivers/CMSIS/Include/core_cm3.h **** 
 895:Drivers/CMSIS/Include/core_cm3.h **** #define DWT_CTRL_FOLDEVTENA_Pos            21U                                         /*!< DWT CTR
 896:Drivers/CMSIS/Include/core_cm3.h **** #define DWT_CTRL_FOLDEVTENA_Msk            (0x1UL << DWT_CTRL_FOLDEVTENA_Pos)          /*!< DWT CTR
 897:Drivers/CMSIS/Include/core_cm3.h **** 
 898:Drivers/CMSIS/Include/core_cm3.h **** #define DWT_CTRL_LSUEVTENA_Pos             20U                                         /*!< DWT CTR
 899:Drivers/CMSIS/Include/core_cm3.h **** #define DWT_CTRL_LSUEVTENA_Msk             (0x1UL << DWT_CTRL_LSUEVTENA_Pos)           /*!< DWT CTR
 900:Drivers/CMSIS/Include/core_cm3.h **** 
 901:Drivers/CMSIS/Include/core_cm3.h **** #define DWT_CTRL_SLEEPEVTENA_Pos           19U                                         /*!< DWT CTR
 902:Drivers/CMSIS/Include/core_cm3.h **** #define DWT_CTRL_SLEEPEVTENA_Msk           (0x1UL << DWT_CTRL_SLEEPEVTENA_Pos)         /*!< DWT CTR
 903:Drivers/CMSIS/Include/core_cm3.h **** 
 904:Drivers/CMSIS/Include/core_cm3.h **** #define DWT_CTRL_EXCEVTENA_Pos             18U                                         /*!< DWT CTR
 905:Drivers/CMSIS/Include/core_cm3.h **** #define DWT_CTRL_EXCEVTENA_Msk             (0x1UL << DWT_CTRL_EXCEVTENA_Pos)           /*!< DWT CTR
 906:Drivers/CMSIS/Include/core_cm3.h **** 
 907:Drivers/CMSIS/Include/core_cm3.h **** #define DWT_CTRL_CPIEVTENA_Pos             17U                                         /*!< DWT CTR
 908:Drivers/CMSIS/Include/core_cm3.h **** #define DWT_CTRL_CPIEVTENA_Msk             (0x1UL << DWT_CTRL_CPIEVTENA_Pos)           /*!< DWT CTR
 909:Drivers/CMSIS/Include/core_cm3.h **** 
 910:Drivers/CMSIS/Include/core_cm3.h **** #define DWT_CTRL_EXCTRCENA_Pos             16U                                         /*!< DWT CTR
 911:Drivers/CMSIS/Include/core_cm3.h **** #define DWT_CTRL_EXCTRCENA_Msk             (0x1UL << DWT_CTRL_EXCTRCENA_Pos)           /*!< DWT CTR
 912:Drivers/CMSIS/Include/core_cm3.h **** 
 913:Drivers/CMSIS/Include/core_cm3.h **** #define DWT_CTRL_PCSAMPLENA_Pos            12U                                         /*!< DWT CTR
 914:Drivers/CMSIS/Include/core_cm3.h **** #define DWT_CTRL_PCSAMPLENA_Msk            (0x1UL << DWT_CTRL_PCSAMPLENA_Pos)          /*!< DWT CTR
 915:Drivers/CMSIS/Include/core_cm3.h **** 
 916:Drivers/CMSIS/Include/core_cm3.h **** #define DWT_CTRL_SYNCTAP_Pos               10U                                         /*!< DWT CTR
 917:Drivers/CMSIS/Include/core_cm3.h **** #define DWT_CTRL_SYNCTAP_Msk               (0x3UL << DWT_CTRL_SYNCTAP_Pos)             /*!< DWT CTR
 918:Drivers/CMSIS/Include/core_cm3.h **** 
 919:Drivers/CMSIS/Include/core_cm3.h **** #define DWT_CTRL_CYCTAP_Pos                 9U                                         /*!< DWT CTR
 920:Drivers/CMSIS/Include/core_cm3.h **** #define DWT_CTRL_CYCTAP_Msk                (0x1UL << DWT_CTRL_CYCTAP_Pos)              /*!< DWT CTR
 921:Drivers/CMSIS/Include/core_cm3.h **** 
 922:Drivers/CMSIS/Include/core_cm3.h **** #define DWT_CTRL_POSTINIT_Pos               5U                                         /*!< DWT CTR
 923:Drivers/CMSIS/Include/core_cm3.h **** #define DWT_CTRL_POSTINIT_Msk              (0xFUL << DWT_CTRL_POSTINIT_Pos)            /*!< DWT CTR
 924:Drivers/CMSIS/Include/core_cm3.h **** 
 925:Drivers/CMSIS/Include/core_cm3.h **** #define DWT_CTRL_POSTPRESET_Pos             1U                                         /*!< DWT CTR
 926:Drivers/CMSIS/Include/core_cm3.h **** #define DWT_CTRL_POSTPRESET_Msk            (0xFUL << DWT_CTRL_POSTPRESET_Pos)          /*!< DWT CTR
 927:Drivers/CMSIS/Include/core_cm3.h **** 
 928:Drivers/CMSIS/Include/core_cm3.h **** #define DWT_CTRL_CYCCNTENA_Pos              0U                                         /*!< DWT CTR
 929:Drivers/CMSIS/Include/core_cm3.h **** #define DWT_CTRL_CYCCNTENA_Msk             (0x1UL /*<< DWT_CTRL_CYCCNTENA_Pos*/)       /*!< DWT CTR
 930:Drivers/CMSIS/Include/core_cm3.h **** 
 931:Drivers/CMSIS/Include/core_cm3.h **** /* DWT CPI Count Register Definitions */
 932:Drivers/CMSIS/Include/core_cm3.h **** #define DWT_CPICNT_CPICNT_Pos               0U                                         /*!< DWT CPI
 933:Drivers/CMSIS/Include/core_cm3.h **** #define DWT_CPICNT_CPICNT_Msk              (0xFFUL /*<< DWT_CPICNT_CPICNT_Pos*/)       /*!< DWT CPI
 934:Drivers/CMSIS/Include/core_cm3.h **** 
 935:Drivers/CMSIS/Include/core_cm3.h **** /* DWT Exception Overhead Count Register Definitions */
 936:Drivers/CMSIS/Include/core_cm3.h **** #define DWT_EXCCNT_EXCCNT_Pos               0U                                         /*!< DWT EXC
 937:Drivers/CMSIS/Include/core_cm3.h **** #define DWT_EXCCNT_EXCCNT_Msk              (0xFFUL /*<< DWT_EXCCNT_EXCCNT_Pos*/)       /*!< DWT EXC
 938:Drivers/CMSIS/Include/core_cm3.h **** 
ARM GAS  /var/folders/m1/3lv6xmzs0mlckxs4mx90nfb40000gn/T//cczUMWYd.s 			page 25


 939:Drivers/CMSIS/Include/core_cm3.h **** /* DWT Sleep Count Register Definitions */
 940:Drivers/CMSIS/Include/core_cm3.h **** #define DWT_SLEEPCNT_SLEEPCNT_Pos           0U                                         /*!< DWT SLE
 941:Drivers/CMSIS/Include/core_cm3.h **** #define DWT_SLEEPCNT_SLEEPCNT_Msk          (0xFFUL /*<< DWT_SLEEPCNT_SLEEPCNT_Pos*/)   /*!< DWT SLE
 942:Drivers/CMSIS/Include/core_cm3.h **** 
 943:Drivers/CMSIS/Include/core_cm3.h **** /* DWT LSU Count Register Definitions */
 944:Drivers/CMSIS/Include/core_cm3.h **** #define DWT_LSUCNT_LSUCNT_Pos               0U                                         /*!< DWT LSU
 945:Drivers/CMSIS/Include/core_cm3.h **** #define DWT_LSUCNT_LSUCNT_Msk              (0xFFUL /*<< DWT_LSUCNT_LSUCNT_Pos*/)       /*!< DWT LSU
 946:Drivers/CMSIS/Include/core_cm3.h **** 
 947:Drivers/CMSIS/Include/core_cm3.h **** /* DWT Folded-instruction Count Register Definitions */
 948:Drivers/CMSIS/Include/core_cm3.h **** #define DWT_FOLDCNT_FOLDCNT_Pos             0U                                         /*!< DWT FOL
 949:Drivers/CMSIS/Include/core_cm3.h **** #define DWT_FOLDCNT_FOLDCNT_Msk            (0xFFUL /*<< DWT_FOLDCNT_FOLDCNT_Pos*/)     /*!< DWT FOL
 950:Drivers/CMSIS/Include/core_cm3.h **** 
 951:Drivers/CMSIS/Include/core_cm3.h **** /* DWT Comparator Mask Register Definitions */
 952:Drivers/CMSIS/Include/core_cm3.h **** #define DWT_MASK_MASK_Pos                   0U                                         /*!< DWT MAS
 953:Drivers/CMSIS/Include/core_cm3.h **** #define DWT_MASK_MASK_Msk                  (0x1FUL /*<< DWT_MASK_MASK_Pos*/)           /*!< DWT MAS
 954:Drivers/CMSIS/Include/core_cm3.h **** 
 955:Drivers/CMSIS/Include/core_cm3.h **** /* DWT Comparator Function Register Definitions */
 956:Drivers/CMSIS/Include/core_cm3.h **** #define DWT_FUNCTION_MATCHED_Pos           24U                                         /*!< DWT FUN
 957:Drivers/CMSIS/Include/core_cm3.h **** #define DWT_FUNCTION_MATCHED_Msk           (0x1UL << DWT_FUNCTION_MATCHED_Pos)         /*!< DWT FUN
 958:Drivers/CMSIS/Include/core_cm3.h **** 
 959:Drivers/CMSIS/Include/core_cm3.h **** #define DWT_FUNCTION_DATAVADDR1_Pos        16U                                         /*!< DWT FUN
 960:Drivers/CMSIS/Include/core_cm3.h **** #define DWT_FUNCTION_DATAVADDR1_Msk        (0xFUL << DWT_FUNCTION_DATAVADDR1_Pos)      /*!< DWT FUN
 961:Drivers/CMSIS/Include/core_cm3.h **** 
 962:Drivers/CMSIS/Include/core_cm3.h **** #define DWT_FUNCTION_DATAVADDR0_Pos        12U                                         /*!< DWT FUN
 963:Drivers/CMSIS/Include/core_cm3.h **** #define DWT_FUNCTION_DATAVADDR0_Msk        (0xFUL << DWT_FUNCTION_DATAVADDR0_Pos)      /*!< DWT FUN
 964:Drivers/CMSIS/Include/core_cm3.h **** 
 965:Drivers/CMSIS/Include/core_cm3.h **** #define DWT_FUNCTION_DATAVSIZE_Pos         10U                                         /*!< DWT FUN
 966:Drivers/CMSIS/Include/core_cm3.h **** #define DWT_FUNCTION_DATAVSIZE_Msk         (0x3UL << DWT_FUNCTION_DATAVSIZE_Pos)       /*!< DWT FUN
 967:Drivers/CMSIS/Include/core_cm3.h **** 
 968:Drivers/CMSIS/Include/core_cm3.h **** #define DWT_FUNCTION_LNK1ENA_Pos            9U                                         /*!< DWT FUN
 969:Drivers/CMSIS/Include/core_cm3.h **** #define DWT_FUNCTION_LNK1ENA_Msk           (0x1UL << DWT_FUNCTION_LNK1ENA_Pos)         /*!< DWT FUN
 970:Drivers/CMSIS/Include/core_cm3.h **** 
 971:Drivers/CMSIS/Include/core_cm3.h **** #define DWT_FUNCTION_DATAVMATCH_Pos         8U                                         /*!< DWT FUN
 972:Drivers/CMSIS/Include/core_cm3.h **** #define DWT_FUNCTION_DATAVMATCH_Msk        (0x1UL << DWT_FUNCTION_DATAVMATCH_Pos)      /*!< DWT FUN
 973:Drivers/CMSIS/Include/core_cm3.h **** 
 974:Drivers/CMSIS/Include/core_cm3.h **** #define DWT_FUNCTION_CYCMATCH_Pos           7U                                         /*!< DWT FUN
 975:Drivers/CMSIS/Include/core_cm3.h **** #define DWT_FUNCTION_CYCMATCH_Msk          (0x1UL << DWT_FUNCTION_CYCMATCH_Pos)        /*!< DWT FUN
 976:Drivers/CMSIS/Include/core_cm3.h **** 
 977:Drivers/CMSIS/Include/core_cm3.h **** #define DWT_FUNCTION_EMITRANGE_Pos          5U                                         /*!< DWT FUN
 978:Drivers/CMSIS/Include/core_cm3.h **** #define DWT_FUNCTION_EMITRANGE_Msk         (0x1UL << DWT_FUNCTION_EMITRANGE_Pos)       /*!< DWT FUN
 979:Drivers/CMSIS/Include/core_cm3.h **** 
 980:Drivers/CMSIS/Include/core_cm3.h **** #define DWT_FUNCTION_FUNCTION_Pos           0U                                         /*!< DWT FUN
 981:Drivers/CMSIS/Include/core_cm3.h **** #define DWT_FUNCTION_FUNCTION_Msk          (0xFUL /*<< DWT_FUNCTION_FUNCTION_Pos*/)    /*!< DWT FUN
 982:Drivers/CMSIS/Include/core_cm3.h **** 
 983:Drivers/CMSIS/Include/core_cm3.h **** /*@}*/ /* end of group CMSIS_DWT */
 984:Drivers/CMSIS/Include/core_cm3.h **** 
 985:Drivers/CMSIS/Include/core_cm3.h **** 
 986:Drivers/CMSIS/Include/core_cm3.h **** /**
 987:Drivers/CMSIS/Include/core_cm3.h ****   \ingroup  CMSIS_core_register
 988:Drivers/CMSIS/Include/core_cm3.h ****   \defgroup CMSIS_TPI     Trace Port Interface (TPI)
 989:Drivers/CMSIS/Include/core_cm3.h ****   \brief    Type definitions for the Trace Port Interface (TPI)
 990:Drivers/CMSIS/Include/core_cm3.h ****   @{
 991:Drivers/CMSIS/Include/core_cm3.h ****  */
 992:Drivers/CMSIS/Include/core_cm3.h **** 
 993:Drivers/CMSIS/Include/core_cm3.h **** /**
 994:Drivers/CMSIS/Include/core_cm3.h ****   \brief  Structure type to access the Trace Port Interface Register (TPI).
 995:Drivers/CMSIS/Include/core_cm3.h ****  */
ARM GAS  /var/folders/m1/3lv6xmzs0mlckxs4mx90nfb40000gn/T//cczUMWYd.s 			page 26


 996:Drivers/CMSIS/Include/core_cm3.h **** typedef struct
 997:Drivers/CMSIS/Include/core_cm3.h **** {
 998:Drivers/CMSIS/Include/core_cm3.h ****   __IM  uint32_t SSPSR;                  /*!< Offset: 0x000 (R/ )  Supported Parallel Port Size Reg
 999:Drivers/CMSIS/Include/core_cm3.h ****   __IOM uint32_t CSPSR;                  /*!< Offset: 0x004 (R/W)  Current Parallel Port Size Regis
1000:Drivers/CMSIS/Include/core_cm3.h ****         uint32_t RESERVED0[2U];
1001:Drivers/CMSIS/Include/core_cm3.h ****   __IOM uint32_t ACPR;                   /*!< Offset: 0x010 (R/W)  Asynchronous Clock Prescaler Reg
1002:Drivers/CMSIS/Include/core_cm3.h ****         uint32_t RESERVED1[55U];
1003:Drivers/CMSIS/Include/core_cm3.h ****   __IOM uint32_t SPPR;                   /*!< Offset: 0x0F0 (R/W)  Selected Pin Protocol Register *
1004:Drivers/CMSIS/Include/core_cm3.h ****         uint32_t RESERVED2[131U];
1005:Drivers/CMSIS/Include/core_cm3.h ****   __IM  uint32_t FFSR;                   /*!< Offset: 0x300 (R/ )  Formatter and Flush Status Regis
1006:Drivers/CMSIS/Include/core_cm3.h ****   __IOM uint32_t FFCR;                   /*!< Offset: 0x304 (R/W)  Formatter and Flush Control Regi
1007:Drivers/CMSIS/Include/core_cm3.h ****   __IM  uint32_t FSCR;                   /*!< Offset: 0x308 (R/ )  Formatter Synchronization Counte
1008:Drivers/CMSIS/Include/core_cm3.h ****         uint32_t RESERVED3[759U];
1009:Drivers/CMSIS/Include/core_cm3.h ****   __IM  uint32_t TRIGGER;                /*!< Offset: 0xEE8 (R/ )  TRIGGER Register */
1010:Drivers/CMSIS/Include/core_cm3.h ****   __IM  uint32_t FIFO0;                  /*!< Offset: 0xEEC (R/ )  Integration ETM Data */
1011:Drivers/CMSIS/Include/core_cm3.h ****   __IM  uint32_t ITATBCTR2;              /*!< Offset: 0xEF0 (R/ )  ITATBCTR2 */
1012:Drivers/CMSIS/Include/core_cm3.h ****         uint32_t RESERVED4[1U];
1013:Drivers/CMSIS/Include/core_cm3.h ****   __IM  uint32_t ITATBCTR0;              /*!< Offset: 0xEF8 (R/ )  ITATBCTR0 */
1014:Drivers/CMSIS/Include/core_cm3.h ****   __IM  uint32_t FIFO1;                  /*!< Offset: 0xEFC (R/ )  Integration ITM Data */
1015:Drivers/CMSIS/Include/core_cm3.h ****   __IOM uint32_t ITCTRL;                 /*!< Offset: 0xF00 (R/W)  Integration Mode Control */
1016:Drivers/CMSIS/Include/core_cm3.h ****         uint32_t RESERVED5[39U];
1017:Drivers/CMSIS/Include/core_cm3.h ****   __IOM uint32_t CLAIMSET;               /*!< Offset: 0xFA0 (R/W)  Claim tag set */
1018:Drivers/CMSIS/Include/core_cm3.h ****   __IOM uint32_t CLAIMCLR;               /*!< Offset: 0xFA4 (R/W)  Claim tag clear */
1019:Drivers/CMSIS/Include/core_cm3.h ****         uint32_t RESERVED7[8U];
1020:Drivers/CMSIS/Include/core_cm3.h ****   __IM  uint32_t DEVID;                  /*!< Offset: 0xFC8 (R/ )  TPIU_DEVID */
1021:Drivers/CMSIS/Include/core_cm3.h ****   __IM  uint32_t DEVTYPE;                /*!< Offset: 0xFCC (R/ )  TPIU_DEVTYPE */
1022:Drivers/CMSIS/Include/core_cm3.h **** } TPI_Type;
1023:Drivers/CMSIS/Include/core_cm3.h **** 
1024:Drivers/CMSIS/Include/core_cm3.h **** /* TPI Asynchronous Clock Prescaler Register Definitions */
1025:Drivers/CMSIS/Include/core_cm3.h **** #define TPI_ACPR_PRESCALER_Pos              0U                                         /*!< TPI ACP
1026:Drivers/CMSIS/Include/core_cm3.h **** #define TPI_ACPR_PRESCALER_Msk             (0x1FFFUL /*<< TPI_ACPR_PRESCALER_Pos*/)    /*!< TPI ACP
1027:Drivers/CMSIS/Include/core_cm3.h **** 
1028:Drivers/CMSIS/Include/core_cm3.h **** /* TPI Selected Pin Protocol Register Definitions */
1029:Drivers/CMSIS/Include/core_cm3.h **** #define TPI_SPPR_TXMODE_Pos                 0U                                         /*!< TPI SPP
1030:Drivers/CMSIS/Include/core_cm3.h **** #define TPI_SPPR_TXMODE_Msk                (0x3UL /*<< TPI_SPPR_TXMODE_Pos*/)          /*!< TPI SPP
1031:Drivers/CMSIS/Include/core_cm3.h **** 
1032:Drivers/CMSIS/Include/core_cm3.h **** /* TPI Formatter and Flush Status Register Definitions */
1033:Drivers/CMSIS/Include/core_cm3.h **** #define TPI_FFSR_FtNonStop_Pos              3U                                         /*!< TPI FFS
1034:Drivers/CMSIS/Include/core_cm3.h **** #define TPI_FFSR_FtNonStop_Msk             (0x1UL << TPI_FFSR_FtNonStop_Pos)           /*!< TPI FFS
1035:Drivers/CMSIS/Include/core_cm3.h **** 
1036:Drivers/CMSIS/Include/core_cm3.h **** #define TPI_FFSR_TCPresent_Pos              2U                                         /*!< TPI FFS
1037:Drivers/CMSIS/Include/core_cm3.h **** #define TPI_FFSR_TCPresent_Msk             (0x1UL << TPI_FFSR_TCPresent_Pos)           /*!< TPI FFS
1038:Drivers/CMSIS/Include/core_cm3.h **** 
1039:Drivers/CMSIS/Include/core_cm3.h **** #define TPI_FFSR_FtStopped_Pos              1U                                         /*!< TPI FFS
1040:Drivers/CMSIS/Include/core_cm3.h **** #define TPI_FFSR_FtStopped_Msk             (0x1UL << TPI_FFSR_FtStopped_Pos)           /*!< TPI FFS
1041:Drivers/CMSIS/Include/core_cm3.h **** 
1042:Drivers/CMSIS/Include/core_cm3.h **** #define TPI_FFSR_FlInProg_Pos               0U                                         /*!< TPI FFS
1043:Drivers/CMSIS/Include/core_cm3.h **** #define TPI_FFSR_FlInProg_Msk              (0x1UL /*<< TPI_FFSR_FlInProg_Pos*/)        /*!< TPI FFS
1044:Drivers/CMSIS/Include/core_cm3.h **** 
1045:Drivers/CMSIS/Include/core_cm3.h **** /* TPI Formatter and Flush Control Register Definitions */
1046:Drivers/CMSIS/Include/core_cm3.h **** #define TPI_FFCR_TrigIn_Pos                 8U                                         /*!< TPI FFC
1047:Drivers/CMSIS/Include/core_cm3.h **** #define TPI_FFCR_TrigIn_Msk                (0x1UL << TPI_FFCR_TrigIn_Pos)              /*!< TPI FFC
1048:Drivers/CMSIS/Include/core_cm3.h **** 
1049:Drivers/CMSIS/Include/core_cm3.h **** #define TPI_FFCR_EnFCont_Pos                1U                                         /*!< TPI FFC
1050:Drivers/CMSIS/Include/core_cm3.h **** #define TPI_FFCR_EnFCont_Msk               (0x1UL << TPI_FFCR_EnFCont_Pos)             /*!< TPI FFC
1051:Drivers/CMSIS/Include/core_cm3.h **** 
1052:Drivers/CMSIS/Include/core_cm3.h **** /* TPI TRIGGER Register Definitions */
ARM GAS  /var/folders/m1/3lv6xmzs0mlckxs4mx90nfb40000gn/T//cczUMWYd.s 			page 27


1053:Drivers/CMSIS/Include/core_cm3.h **** #define TPI_TRIGGER_TRIGGER_Pos             0U                                         /*!< TPI TRI
1054:Drivers/CMSIS/Include/core_cm3.h **** #define TPI_TRIGGER_TRIGGER_Msk            (0x1UL /*<< TPI_TRIGGER_TRIGGER_Pos*/)      /*!< TPI TRI
1055:Drivers/CMSIS/Include/core_cm3.h **** 
1056:Drivers/CMSIS/Include/core_cm3.h **** /* TPI Integration ETM Data Register Definitions (FIFO0) */
1057:Drivers/CMSIS/Include/core_cm3.h **** #define TPI_FIFO0_ITM_ATVALID_Pos          29U                                         /*!< TPI FIF
1058:Drivers/CMSIS/Include/core_cm3.h **** #define TPI_FIFO0_ITM_ATVALID_Msk          (0x3UL << TPI_FIFO0_ITM_ATVALID_Pos)        /*!< TPI FIF
1059:Drivers/CMSIS/Include/core_cm3.h **** 
1060:Drivers/CMSIS/Include/core_cm3.h **** #define TPI_FIFO0_ITM_bytecount_Pos        27U                                         /*!< TPI FIF
1061:Drivers/CMSIS/Include/core_cm3.h **** #define TPI_FIFO0_ITM_bytecount_Msk        (0x3UL << TPI_FIFO0_ITM_bytecount_Pos)      /*!< TPI FIF
1062:Drivers/CMSIS/Include/core_cm3.h **** 
1063:Drivers/CMSIS/Include/core_cm3.h **** #define TPI_FIFO0_ETM_ATVALID_Pos          26U                                         /*!< TPI FIF
1064:Drivers/CMSIS/Include/core_cm3.h **** #define TPI_FIFO0_ETM_ATVALID_Msk          (0x3UL << TPI_FIFO0_ETM_ATVALID_Pos)        /*!< TPI FIF
1065:Drivers/CMSIS/Include/core_cm3.h **** 
1066:Drivers/CMSIS/Include/core_cm3.h **** #define TPI_FIFO0_ETM_bytecount_Pos        24U                                         /*!< TPI FIF
1067:Drivers/CMSIS/Include/core_cm3.h **** #define TPI_FIFO0_ETM_bytecount_Msk        (0x3UL << TPI_FIFO0_ETM_bytecount_Pos)      /*!< TPI FIF
1068:Drivers/CMSIS/Include/core_cm3.h **** 
1069:Drivers/CMSIS/Include/core_cm3.h **** #define TPI_FIFO0_ETM2_Pos                 16U                                         /*!< TPI FIF
1070:Drivers/CMSIS/Include/core_cm3.h **** #define TPI_FIFO0_ETM2_Msk                 (0xFFUL << TPI_FIFO0_ETM2_Pos)              /*!< TPI FIF
1071:Drivers/CMSIS/Include/core_cm3.h **** 
1072:Drivers/CMSIS/Include/core_cm3.h **** #define TPI_FIFO0_ETM1_Pos                  8U                                         /*!< TPI FIF
1073:Drivers/CMSIS/Include/core_cm3.h **** #define TPI_FIFO0_ETM1_Msk                 (0xFFUL << TPI_FIFO0_ETM1_Pos)              /*!< TPI FIF
1074:Drivers/CMSIS/Include/core_cm3.h **** 
1075:Drivers/CMSIS/Include/core_cm3.h **** #define TPI_FIFO0_ETM0_Pos                  0U                                         /*!< TPI FIF
1076:Drivers/CMSIS/Include/core_cm3.h **** #define TPI_FIFO0_ETM0_Msk                 (0xFFUL /*<< TPI_FIFO0_ETM0_Pos*/)          /*!< TPI FIF
1077:Drivers/CMSIS/Include/core_cm3.h **** 
1078:Drivers/CMSIS/Include/core_cm3.h **** /* TPI ITATBCTR2 Register Definitions */
1079:Drivers/CMSIS/Include/core_cm3.h **** #define TPI_ITATBCTR2_ATREADY2_Pos          0U                                         /*!< TPI ITA
1080:Drivers/CMSIS/Include/core_cm3.h **** #define TPI_ITATBCTR2_ATREADY2_Msk         (0x1UL /*<< TPI_ITATBCTR2_ATREADY2_Pos*/)   /*!< TPI ITA
1081:Drivers/CMSIS/Include/core_cm3.h **** 
1082:Drivers/CMSIS/Include/core_cm3.h **** #define TPI_ITATBCTR2_ATREADY1_Pos          0U                                         /*!< TPI ITA
1083:Drivers/CMSIS/Include/core_cm3.h **** #define TPI_ITATBCTR2_ATREADY1_Msk         (0x1UL /*<< TPI_ITATBCTR2_ATREADY1_Pos*/)   /*!< TPI ITA
1084:Drivers/CMSIS/Include/core_cm3.h **** 
1085:Drivers/CMSIS/Include/core_cm3.h **** /* TPI Integration ITM Data Register Definitions (FIFO1) */
1086:Drivers/CMSIS/Include/core_cm3.h **** #define TPI_FIFO1_ITM_ATVALID_Pos          29U                                         /*!< TPI FIF
1087:Drivers/CMSIS/Include/core_cm3.h **** #define TPI_FIFO1_ITM_ATVALID_Msk          (0x3UL << TPI_FIFO1_ITM_ATVALID_Pos)        /*!< TPI FIF
1088:Drivers/CMSIS/Include/core_cm3.h **** 
1089:Drivers/CMSIS/Include/core_cm3.h **** #define TPI_FIFO1_ITM_bytecount_Pos        27U                                         /*!< TPI FIF
1090:Drivers/CMSIS/Include/core_cm3.h **** #define TPI_FIFO1_ITM_bytecount_Msk        (0x3UL << TPI_FIFO1_ITM_bytecount_Pos)      /*!< TPI FIF
1091:Drivers/CMSIS/Include/core_cm3.h **** 
1092:Drivers/CMSIS/Include/core_cm3.h **** #define TPI_FIFO1_ETM_ATVALID_Pos          26U                                         /*!< TPI FIF
1093:Drivers/CMSIS/Include/core_cm3.h **** #define TPI_FIFO1_ETM_ATVALID_Msk          (0x3UL << TPI_FIFO1_ETM_ATVALID_Pos)        /*!< TPI FIF
1094:Drivers/CMSIS/Include/core_cm3.h **** 
1095:Drivers/CMSIS/Include/core_cm3.h **** #define TPI_FIFO1_ETM_bytecount_Pos        24U                                         /*!< TPI FIF
1096:Drivers/CMSIS/Include/core_cm3.h **** #define TPI_FIFO1_ETM_bytecount_Msk        (0x3UL << TPI_FIFO1_ETM_bytecount_Pos)      /*!< TPI FIF
1097:Drivers/CMSIS/Include/core_cm3.h **** 
1098:Drivers/CMSIS/Include/core_cm3.h **** #define TPI_FIFO1_ITM2_Pos                 16U                                         /*!< TPI FIF
1099:Drivers/CMSIS/Include/core_cm3.h **** #define TPI_FIFO1_ITM2_Msk                 (0xFFUL << TPI_FIFO1_ITM2_Pos)              /*!< TPI FIF
1100:Drivers/CMSIS/Include/core_cm3.h **** 
1101:Drivers/CMSIS/Include/core_cm3.h **** #define TPI_FIFO1_ITM1_Pos                  8U                                         /*!< TPI FIF
1102:Drivers/CMSIS/Include/core_cm3.h **** #define TPI_FIFO1_ITM1_Msk                 (0xFFUL << TPI_FIFO1_ITM1_Pos)              /*!< TPI FIF
1103:Drivers/CMSIS/Include/core_cm3.h **** 
1104:Drivers/CMSIS/Include/core_cm3.h **** #define TPI_FIFO1_ITM0_Pos                  0U                                         /*!< TPI FIF
1105:Drivers/CMSIS/Include/core_cm3.h **** #define TPI_FIFO1_ITM0_Msk                 (0xFFUL /*<< TPI_FIFO1_ITM0_Pos*/)          /*!< TPI FIF
1106:Drivers/CMSIS/Include/core_cm3.h **** 
1107:Drivers/CMSIS/Include/core_cm3.h **** /* TPI ITATBCTR0 Register Definitions */
1108:Drivers/CMSIS/Include/core_cm3.h **** #define TPI_ITATBCTR0_ATREADY2_Pos          0U                                         /*!< TPI ITA
1109:Drivers/CMSIS/Include/core_cm3.h **** #define TPI_ITATBCTR0_ATREADY2_Msk         (0x1UL /*<< TPI_ITATBCTR0_ATREADY2_Pos*/)   /*!< TPI ITA
ARM GAS  /var/folders/m1/3lv6xmzs0mlckxs4mx90nfb40000gn/T//cczUMWYd.s 			page 28


1110:Drivers/CMSIS/Include/core_cm3.h **** 
1111:Drivers/CMSIS/Include/core_cm3.h **** #define TPI_ITATBCTR0_ATREADY1_Pos          0U                                         /*!< TPI ITA
1112:Drivers/CMSIS/Include/core_cm3.h **** #define TPI_ITATBCTR0_ATREADY1_Msk         (0x1UL /*<< TPI_ITATBCTR0_ATREADY1_Pos*/)   /*!< TPI ITA
1113:Drivers/CMSIS/Include/core_cm3.h **** 
1114:Drivers/CMSIS/Include/core_cm3.h **** /* TPI Integration Mode Control Register Definitions */
1115:Drivers/CMSIS/Include/core_cm3.h **** #define TPI_ITCTRL_Mode_Pos                 0U                                         /*!< TPI ITC
1116:Drivers/CMSIS/Include/core_cm3.h **** #define TPI_ITCTRL_Mode_Msk                (0x3UL /*<< TPI_ITCTRL_Mode_Pos*/)          /*!< TPI ITC
1117:Drivers/CMSIS/Include/core_cm3.h **** 
1118:Drivers/CMSIS/Include/core_cm3.h **** /* TPI DEVID Register Definitions */
1119:Drivers/CMSIS/Include/core_cm3.h **** #define TPI_DEVID_NRZVALID_Pos             11U                                         /*!< TPI DEV
1120:Drivers/CMSIS/Include/core_cm3.h **** #define TPI_DEVID_NRZVALID_Msk             (0x1UL << TPI_DEVID_NRZVALID_Pos)           /*!< TPI DEV
1121:Drivers/CMSIS/Include/core_cm3.h **** 
1122:Drivers/CMSIS/Include/core_cm3.h **** #define TPI_DEVID_MANCVALID_Pos            10U                                         /*!< TPI DEV
1123:Drivers/CMSIS/Include/core_cm3.h **** #define TPI_DEVID_MANCVALID_Msk            (0x1UL << TPI_DEVID_MANCVALID_Pos)          /*!< TPI DEV
1124:Drivers/CMSIS/Include/core_cm3.h **** 
1125:Drivers/CMSIS/Include/core_cm3.h **** #define TPI_DEVID_PTINVALID_Pos             9U                                         /*!< TPI DEV
1126:Drivers/CMSIS/Include/core_cm3.h **** #define TPI_DEVID_PTINVALID_Msk            (0x1UL << TPI_DEVID_PTINVALID_Pos)          /*!< TPI DEV
1127:Drivers/CMSIS/Include/core_cm3.h **** 
1128:Drivers/CMSIS/Include/core_cm3.h **** #define TPI_DEVID_MinBufSz_Pos              6U                                         /*!< TPI DEV
1129:Drivers/CMSIS/Include/core_cm3.h **** #define TPI_DEVID_MinBufSz_Msk             (0x7UL << TPI_DEVID_MinBufSz_Pos)           /*!< TPI DEV
1130:Drivers/CMSIS/Include/core_cm3.h **** 
1131:Drivers/CMSIS/Include/core_cm3.h **** #define TPI_DEVID_AsynClkIn_Pos             5U                                         /*!< TPI DEV
1132:Drivers/CMSIS/Include/core_cm3.h **** #define TPI_DEVID_AsynClkIn_Msk            (0x1UL << TPI_DEVID_AsynClkIn_Pos)          /*!< TPI DEV
1133:Drivers/CMSIS/Include/core_cm3.h **** 
1134:Drivers/CMSIS/Include/core_cm3.h **** #define TPI_DEVID_NrTraceInput_Pos          0U                                         /*!< TPI DEV
1135:Drivers/CMSIS/Include/core_cm3.h **** #define TPI_DEVID_NrTraceInput_Msk         (0x1FUL /*<< TPI_DEVID_NrTraceInput_Pos*/)  /*!< TPI DEV
1136:Drivers/CMSIS/Include/core_cm3.h **** 
1137:Drivers/CMSIS/Include/core_cm3.h **** /* TPI DEVTYPE Register Definitions */
1138:Drivers/CMSIS/Include/core_cm3.h **** #define TPI_DEVTYPE_SubType_Pos             4U                                         /*!< TPI DEV
1139:Drivers/CMSIS/Include/core_cm3.h **** #define TPI_DEVTYPE_SubType_Msk            (0xFUL /*<< TPI_DEVTYPE_SubType_Pos*/)      /*!< TPI DEV
1140:Drivers/CMSIS/Include/core_cm3.h **** 
1141:Drivers/CMSIS/Include/core_cm3.h **** #define TPI_DEVTYPE_MajorType_Pos           0U                                         /*!< TPI DEV
1142:Drivers/CMSIS/Include/core_cm3.h **** #define TPI_DEVTYPE_MajorType_Msk          (0xFUL << TPI_DEVTYPE_MajorType_Pos)        /*!< TPI DEV
1143:Drivers/CMSIS/Include/core_cm3.h **** 
1144:Drivers/CMSIS/Include/core_cm3.h **** /*@}*/ /* end of group CMSIS_TPI */
1145:Drivers/CMSIS/Include/core_cm3.h **** 
1146:Drivers/CMSIS/Include/core_cm3.h **** 
1147:Drivers/CMSIS/Include/core_cm3.h **** #if defined (__MPU_PRESENT) && (__MPU_PRESENT == 1U)
1148:Drivers/CMSIS/Include/core_cm3.h **** /**
1149:Drivers/CMSIS/Include/core_cm3.h ****   \ingroup  CMSIS_core_register
1150:Drivers/CMSIS/Include/core_cm3.h ****   \defgroup CMSIS_MPU     Memory Protection Unit (MPU)
1151:Drivers/CMSIS/Include/core_cm3.h ****   \brief    Type definitions for the Memory Protection Unit (MPU)
1152:Drivers/CMSIS/Include/core_cm3.h ****   @{
1153:Drivers/CMSIS/Include/core_cm3.h ****  */
1154:Drivers/CMSIS/Include/core_cm3.h **** 
1155:Drivers/CMSIS/Include/core_cm3.h **** /**
1156:Drivers/CMSIS/Include/core_cm3.h ****   \brief  Structure type to access the Memory Protection Unit (MPU).
1157:Drivers/CMSIS/Include/core_cm3.h ****  */
1158:Drivers/CMSIS/Include/core_cm3.h **** typedef struct
1159:Drivers/CMSIS/Include/core_cm3.h **** {
1160:Drivers/CMSIS/Include/core_cm3.h ****   __IM  uint32_t TYPE;                   /*!< Offset: 0x000 (R/ )  MPU Type Register */
1161:Drivers/CMSIS/Include/core_cm3.h ****   __IOM uint32_t CTRL;                   /*!< Offset: 0x004 (R/W)  MPU Control Register */
1162:Drivers/CMSIS/Include/core_cm3.h ****   __IOM uint32_t RNR;                    /*!< Offset: 0x008 (R/W)  MPU Region RNRber Register */
1163:Drivers/CMSIS/Include/core_cm3.h ****   __IOM uint32_t RBAR;                   /*!< Offset: 0x00C (R/W)  MPU Region Base Address Register
1164:Drivers/CMSIS/Include/core_cm3.h ****   __IOM uint32_t RASR;                   /*!< Offset: 0x010 (R/W)  MPU Region Attribute and Size Re
1165:Drivers/CMSIS/Include/core_cm3.h ****   __IOM uint32_t RBAR_A1;                /*!< Offset: 0x014 (R/W)  MPU Alias 1 Region Base Address 
1166:Drivers/CMSIS/Include/core_cm3.h ****   __IOM uint32_t RASR_A1;                /*!< Offset: 0x018 (R/W)  MPU Alias 1 Region Attribute and
ARM GAS  /var/folders/m1/3lv6xmzs0mlckxs4mx90nfb40000gn/T//cczUMWYd.s 			page 29


1167:Drivers/CMSIS/Include/core_cm3.h ****   __IOM uint32_t RBAR_A2;                /*!< Offset: 0x01C (R/W)  MPU Alias 2 Region Base Address 
1168:Drivers/CMSIS/Include/core_cm3.h ****   __IOM uint32_t RASR_A2;                /*!< Offset: 0x020 (R/W)  MPU Alias 2 Region Attribute and
1169:Drivers/CMSIS/Include/core_cm3.h ****   __IOM uint32_t RBAR_A3;                /*!< Offset: 0x024 (R/W)  MPU Alias 3 Region Base Address 
1170:Drivers/CMSIS/Include/core_cm3.h ****   __IOM uint32_t RASR_A3;                /*!< Offset: 0x028 (R/W)  MPU Alias 3 Region Attribute and
1171:Drivers/CMSIS/Include/core_cm3.h **** } MPU_Type;
1172:Drivers/CMSIS/Include/core_cm3.h **** 
1173:Drivers/CMSIS/Include/core_cm3.h **** #define MPU_TYPE_RALIASES                  4U
1174:Drivers/CMSIS/Include/core_cm3.h **** 
1175:Drivers/CMSIS/Include/core_cm3.h **** /* MPU Type Register Definitions */
1176:Drivers/CMSIS/Include/core_cm3.h **** #define MPU_TYPE_IREGION_Pos               16U                                            /*!< MPU 
1177:Drivers/CMSIS/Include/core_cm3.h **** #define MPU_TYPE_IREGION_Msk               (0xFFUL << MPU_TYPE_IREGION_Pos)               /*!< MPU 
1178:Drivers/CMSIS/Include/core_cm3.h **** 
1179:Drivers/CMSIS/Include/core_cm3.h **** #define MPU_TYPE_DREGION_Pos                8U                                            /*!< MPU 
1180:Drivers/CMSIS/Include/core_cm3.h **** #define MPU_TYPE_DREGION_Msk               (0xFFUL << MPU_TYPE_DREGION_Pos)               /*!< MPU 
1181:Drivers/CMSIS/Include/core_cm3.h **** 
1182:Drivers/CMSIS/Include/core_cm3.h **** #define MPU_TYPE_SEPARATE_Pos               0U                                            /*!< MPU 
1183:Drivers/CMSIS/Include/core_cm3.h **** #define MPU_TYPE_SEPARATE_Msk              (1UL /*<< MPU_TYPE_SEPARATE_Pos*/)             /*!< MPU 
1184:Drivers/CMSIS/Include/core_cm3.h **** 
1185:Drivers/CMSIS/Include/core_cm3.h **** /* MPU Control Register Definitions */
1186:Drivers/CMSIS/Include/core_cm3.h **** #define MPU_CTRL_PRIVDEFENA_Pos             2U                                            /*!< MPU 
1187:Drivers/CMSIS/Include/core_cm3.h **** #define MPU_CTRL_PRIVDEFENA_Msk            (1UL << MPU_CTRL_PRIVDEFENA_Pos)               /*!< MPU 
1188:Drivers/CMSIS/Include/core_cm3.h **** 
1189:Drivers/CMSIS/Include/core_cm3.h **** #define MPU_CTRL_HFNMIENA_Pos               1U                                            /*!< MPU 
1190:Drivers/CMSIS/Include/core_cm3.h **** #define MPU_CTRL_HFNMIENA_Msk              (1UL << MPU_CTRL_HFNMIENA_Pos)                 /*!< MPU 
1191:Drivers/CMSIS/Include/core_cm3.h **** 
1192:Drivers/CMSIS/Include/core_cm3.h **** #define MPU_CTRL_ENABLE_Pos                 0U                                            /*!< MPU 
1193:Drivers/CMSIS/Include/core_cm3.h **** #define MPU_CTRL_ENABLE_Msk                (1UL /*<< MPU_CTRL_ENABLE_Pos*/)               /*!< MPU 
1194:Drivers/CMSIS/Include/core_cm3.h **** 
1195:Drivers/CMSIS/Include/core_cm3.h **** /* MPU Region Number Register Definitions */
1196:Drivers/CMSIS/Include/core_cm3.h **** #define MPU_RNR_REGION_Pos                  0U                                            /*!< MPU 
1197:Drivers/CMSIS/Include/core_cm3.h **** #define MPU_RNR_REGION_Msk                 (0xFFUL /*<< MPU_RNR_REGION_Pos*/)             /*!< MPU 
1198:Drivers/CMSIS/Include/core_cm3.h **** 
1199:Drivers/CMSIS/Include/core_cm3.h **** /* MPU Region Base Address Register Definitions */
1200:Drivers/CMSIS/Include/core_cm3.h **** #define MPU_RBAR_ADDR_Pos                   5U                                            /*!< MPU 
1201:Drivers/CMSIS/Include/core_cm3.h **** #define MPU_RBAR_ADDR_Msk                  (0x7FFFFFFUL << MPU_RBAR_ADDR_Pos)             /*!< MPU 
1202:Drivers/CMSIS/Include/core_cm3.h **** 
1203:Drivers/CMSIS/Include/core_cm3.h **** #define MPU_RBAR_VALID_Pos                  4U                                            /*!< MPU 
1204:Drivers/CMSIS/Include/core_cm3.h **** #define MPU_RBAR_VALID_Msk                 (1UL << MPU_RBAR_VALID_Pos)                    /*!< MPU 
1205:Drivers/CMSIS/Include/core_cm3.h **** 
1206:Drivers/CMSIS/Include/core_cm3.h **** #define MPU_RBAR_REGION_Pos                 0U                                            /*!< MPU 
1207:Drivers/CMSIS/Include/core_cm3.h **** #define MPU_RBAR_REGION_Msk                (0xFUL /*<< MPU_RBAR_REGION_Pos*/)             /*!< MPU 
1208:Drivers/CMSIS/Include/core_cm3.h **** 
1209:Drivers/CMSIS/Include/core_cm3.h **** /* MPU Region Attribute and Size Register Definitions */
1210:Drivers/CMSIS/Include/core_cm3.h **** #define MPU_RASR_ATTRS_Pos                 16U                                            /*!< MPU 
1211:Drivers/CMSIS/Include/core_cm3.h **** #define MPU_RASR_ATTRS_Msk                 (0xFFFFUL << MPU_RASR_ATTRS_Pos)               /*!< MPU 
1212:Drivers/CMSIS/Include/core_cm3.h **** 
1213:Drivers/CMSIS/Include/core_cm3.h **** #define MPU_RASR_XN_Pos                    28U                                            /*!< MPU 
1214:Drivers/CMSIS/Include/core_cm3.h **** #define MPU_RASR_XN_Msk                    (1UL << MPU_RASR_XN_Pos)                       /*!< MPU 
1215:Drivers/CMSIS/Include/core_cm3.h **** 
1216:Drivers/CMSIS/Include/core_cm3.h **** #define MPU_RASR_AP_Pos                    24U                                            /*!< MPU 
1217:Drivers/CMSIS/Include/core_cm3.h **** #define MPU_RASR_AP_Msk                    (0x7UL << MPU_RASR_AP_Pos)                     /*!< MPU 
1218:Drivers/CMSIS/Include/core_cm3.h **** 
1219:Drivers/CMSIS/Include/core_cm3.h **** #define MPU_RASR_TEX_Pos                   19U                                            /*!< MPU 
1220:Drivers/CMSIS/Include/core_cm3.h **** #define MPU_RASR_TEX_Msk                   (0x7UL << MPU_RASR_TEX_Pos)                    /*!< MPU 
1221:Drivers/CMSIS/Include/core_cm3.h **** 
1222:Drivers/CMSIS/Include/core_cm3.h **** #define MPU_RASR_S_Pos                     18U                                            /*!< MPU 
1223:Drivers/CMSIS/Include/core_cm3.h **** #define MPU_RASR_S_Msk                     (1UL << MPU_RASR_S_Pos)                        /*!< MPU 
ARM GAS  /var/folders/m1/3lv6xmzs0mlckxs4mx90nfb40000gn/T//cczUMWYd.s 			page 30


1224:Drivers/CMSIS/Include/core_cm3.h **** 
1225:Drivers/CMSIS/Include/core_cm3.h **** #define MPU_RASR_C_Pos                     17U                                            /*!< MPU 
1226:Drivers/CMSIS/Include/core_cm3.h **** #define MPU_RASR_C_Msk                     (1UL << MPU_RASR_C_Pos)                        /*!< MPU 
1227:Drivers/CMSIS/Include/core_cm3.h **** 
1228:Drivers/CMSIS/Include/core_cm3.h **** #define MPU_RASR_B_Pos                     16U                                            /*!< MPU 
1229:Drivers/CMSIS/Include/core_cm3.h **** #define MPU_RASR_B_Msk                     (1UL << MPU_RASR_B_Pos)                        /*!< MPU 
1230:Drivers/CMSIS/Include/core_cm3.h **** 
1231:Drivers/CMSIS/Include/core_cm3.h **** #define MPU_RASR_SRD_Pos                    8U                                            /*!< MPU 
1232:Drivers/CMSIS/Include/core_cm3.h **** #define MPU_RASR_SRD_Msk                   (0xFFUL << MPU_RASR_SRD_Pos)                   /*!< MPU 
1233:Drivers/CMSIS/Include/core_cm3.h **** 
1234:Drivers/CMSIS/Include/core_cm3.h **** #define MPU_RASR_SIZE_Pos                   1U                                            /*!< MPU 
1235:Drivers/CMSIS/Include/core_cm3.h **** #define MPU_RASR_SIZE_Msk                  (0x1FUL << MPU_RASR_SIZE_Pos)                  /*!< MPU 
1236:Drivers/CMSIS/Include/core_cm3.h **** 
1237:Drivers/CMSIS/Include/core_cm3.h **** #define MPU_RASR_ENABLE_Pos                 0U                                            /*!< MPU 
1238:Drivers/CMSIS/Include/core_cm3.h **** #define MPU_RASR_ENABLE_Msk                (1UL /*<< MPU_RASR_ENABLE_Pos*/)               /*!< MPU 
1239:Drivers/CMSIS/Include/core_cm3.h **** 
1240:Drivers/CMSIS/Include/core_cm3.h **** /*@} end of group CMSIS_MPU */
1241:Drivers/CMSIS/Include/core_cm3.h **** #endif
1242:Drivers/CMSIS/Include/core_cm3.h **** 
1243:Drivers/CMSIS/Include/core_cm3.h **** 
1244:Drivers/CMSIS/Include/core_cm3.h **** /**
1245:Drivers/CMSIS/Include/core_cm3.h ****   \ingroup  CMSIS_core_register
1246:Drivers/CMSIS/Include/core_cm3.h ****   \defgroup CMSIS_CoreDebug       Core Debug Registers (CoreDebug)
1247:Drivers/CMSIS/Include/core_cm3.h ****   \brief    Type definitions for the Core Debug Registers
1248:Drivers/CMSIS/Include/core_cm3.h ****   @{
1249:Drivers/CMSIS/Include/core_cm3.h ****  */
1250:Drivers/CMSIS/Include/core_cm3.h **** 
1251:Drivers/CMSIS/Include/core_cm3.h **** /**
1252:Drivers/CMSIS/Include/core_cm3.h ****   \brief  Structure type to access the Core Debug Register (CoreDebug).
1253:Drivers/CMSIS/Include/core_cm3.h ****  */
1254:Drivers/CMSIS/Include/core_cm3.h **** typedef struct
1255:Drivers/CMSIS/Include/core_cm3.h **** {
1256:Drivers/CMSIS/Include/core_cm3.h ****   __IOM uint32_t DHCSR;                  /*!< Offset: 0x000 (R/W)  Debug Halting Control and Status
1257:Drivers/CMSIS/Include/core_cm3.h ****   __OM  uint32_t DCRSR;                  /*!< Offset: 0x004 ( /W)  Debug Core Register Selector Reg
1258:Drivers/CMSIS/Include/core_cm3.h ****   __IOM uint32_t DCRDR;                  /*!< Offset: 0x008 (R/W)  Debug Core Register Data Registe
1259:Drivers/CMSIS/Include/core_cm3.h ****   __IOM uint32_t DEMCR;                  /*!< Offset: 0x00C (R/W)  Debug Exception and Monitor Cont
1260:Drivers/CMSIS/Include/core_cm3.h **** } CoreDebug_Type;
1261:Drivers/CMSIS/Include/core_cm3.h **** 
1262:Drivers/CMSIS/Include/core_cm3.h **** /* Debug Halting Control and Status Register Definitions */
1263:Drivers/CMSIS/Include/core_cm3.h **** #define CoreDebug_DHCSR_DBGKEY_Pos         16U                                            /*!< Core
1264:Drivers/CMSIS/Include/core_cm3.h **** #define CoreDebug_DHCSR_DBGKEY_Msk         (0xFFFFUL << CoreDebug_DHCSR_DBGKEY_Pos)       /*!< Core
1265:Drivers/CMSIS/Include/core_cm3.h **** 
1266:Drivers/CMSIS/Include/core_cm3.h **** #define CoreDebug_DHCSR_S_RESET_ST_Pos     25U                                            /*!< Core
1267:Drivers/CMSIS/Include/core_cm3.h **** #define CoreDebug_DHCSR_S_RESET_ST_Msk     (1UL << CoreDebug_DHCSR_S_RESET_ST_Pos)        /*!< Core
1268:Drivers/CMSIS/Include/core_cm3.h **** 
1269:Drivers/CMSIS/Include/core_cm3.h **** #define CoreDebug_DHCSR_S_RETIRE_ST_Pos    24U                                            /*!< Core
1270:Drivers/CMSIS/Include/core_cm3.h **** #define CoreDebug_DHCSR_S_RETIRE_ST_Msk    (1UL << CoreDebug_DHCSR_S_RETIRE_ST_Pos)       /*!< Core
1271:Drivers/CMSIS/Include/core_cm3.h **** 
1272:Drivers/CMSIS/Include/core_cm3.h **** #define CoreDebug_DHCSR_S_LOCKUP_Pos       19U                                            /*!< Core
1273:Drivers/CMSIS/Include/core_cm3.h **** #define CoreDebug_DHCSR_S_LOCKUP_Msk       (1UL << CoreDebug_DHCSR_S_LOCKUP_Pos)          /*!< Core
1274:Drivers/CMSIS/Include/core_cm3.h **** 
1275:Drivers/CMSIS/Include/core_cm3.h **** #define CoreDebug_DHCSR_S_SLEEP_Pos        18U                                            /*!< Core
1276:Drivers/CMSIS/Include/core_cm3.h **** #define CoreDebug_DHCSR_S_SLEEP_Msk        (1UL << CoreDebug_DHCSR_S_SLEEP_Pos)           /*!< Core
1277:Drivers/CMSIS/Include/core_cm3.h **** 
1278:Drivers/CMSIS/Include/core_cm3.h **** #define CoreDebug_DHCSR_S_HALT_Pos         17U                                            /*!< Core
1279:Drivers/CMSIS/Include/core_cm3.h **** #define CoreDebug_DHCSR_S_HALT_Msk         (1UL << CoreDebug_DHCSR_S_HALT_Pos)            /*!< Core
1280:Drivers/CMSIS/Include/core_cm3.h **** 
ARM GAS  /var/folders/m1/3lv6xmzs0mlckxs4mx90nfb40000gn/T//cczUMWYd.s 			page 31


1281:Drivers/CMSIS/Include/core_cm3.h **** #define CoreDebug_DHCSR_S_REGRDY_Pos       16U                                            /*!< Core
1282:Drivers/CMSIS/Include/core_cm3.h **** #define CoreDebug_DHCSR_S_REGRDY_Msk       (1UL << CoreDebug_DHCSR_S_REGRDY_Pos)          /*!< Core
1283:Drivers/CMSIS/Include/core_cm3.h **** 
1284:Drivers/CMSIS/Include/core_cm3.h **** #define CoreDebug_DHCSR_C_SNAPSTALL_Pos     5U                                            /*!< Core
1285:Drivers/CMSIS/Include/core_cm3.h **** #define CoreDebug_DHCSR_C_SNAPSTALL_Msk    (1UL << CoreDebug_DHCSR_C_SNAPSTALL_Pos)       /*!< Core
1286:Drivers/CMSIS/Include/core_cm3.h **** 
1287:Drivers/CMSIS/Include/core_cm3.h **** #define CoreDebug_DHCSR_C_MASKINTS_Pos      3U                                            /*!< Core
1288:Drivers/CMSIS/Include/core_cm3.h **** #define CoreDebug_DHCSR_C_MASKINTS_Msk     (1UL << CoreDebug_DHCSR_C_MASKINTS_Pos)        /*!< Core
1289:Drivers/CMSIS/Include/core_cm3.h **** 
1290:Drivers/CMSIS/Include/core_cm3.h **** #define CoreDebug_DHCSR_C_STEP_Pos          2U                                            /*!< Core
1291:Drivers/CMSIS/Include/core_cm3.h **** #define CoreDebug_DHCSR_C_STEP_Msk         (1UL << CoreDebug_DHCSR_C_STEP_Pos)            /*!< Core
1292:Drivers/CMSIS/Include/core_cm3.h **** 
1293:Drivers/CMSIS/Include/core_cm3.h **** #define CoreDebug_DHCSR_C_HALT_Pos          1U                                            /*!< Core
1294:Drivers/CMSIS/Include/core_cm3.h **** #define CoreDebug_DHCSR_C_HALT_Msk         (1UL << CoreDebug_DHCSR_C_HALT_Pos)            /*!< Core
1295:Drivers/CMSIS/Include/core_cm3.h **** 
1296:Drivers/CMSIS/Include/core_cm3.h **** #define CoreDebug_DHCSR_C_DEBUGEN_Pos       0U                                            /*!< Core
1297:Drivers/CMSIS/Include/core_cm3.h **** #define CoreDebug_DHCSR_C_DEBUGEN_Msk      (1UL /*<< CoreDebug_DHCSR_C_DEBUGEN_Pos*/)     /*!< Core
1298:Drivers/CMSIS/Include/core_cm3.h **** 
1299:Drivers/CMSIS/Include/core_cm3.h **** /* Debug Core Register Selector Register Definitions */
1300:Drivers/CMSIS/Include/core_cm3.h **** #define CoreDebug_DCRSR_REGWnR_Pos         16U                                            /*!< Core
1301:Drivers/CMSIS/Include/core_cm3.h **** #define CoreDebug_DCRSR_REGWnR_Msk         (1UL << CoreDebug_DCRSR_REGWnR_Pos)            /*!< Core
1302:Drivers/CMSIS/Include/core_cm3.h **** 
1303:Drivers/CMSIS/Include/core_cm3.h **** #define CoreDebug_DCRSR_REGSEL_Pos          0U                                            /*!< Core
1304:Drivers/CMSIS/Include/core_cm3.h **** #define CoreDebug_DCRSR_REGSEL_Msk         (0x1FUL /*<< CoreDebug_DCRSR_REGSEL_Pos*/)     /*!< Core
1305:Drivers/CMSIS/Include/core_cm3.h **** 
1306:Drivers/CMSIS/Include/core_cm3.h **** /* Debug Exception and Monitor Control Register Definitions */
1307:Drivers/CMSIS/Include/core_cm3.h **** #define CoreDebug_DEMCR_TRCENA_Pos         24U                                            /*!< Core
1308:Drivers/CMSIS/Include/core_cm3.h **** #define CoreDebug_DEMCR_TRCENA_Msk         (1UL << CoreDebug_DEMCR_TRCENA_Pos)            /*!< Core
1309:Drivers/CMSIS/Include/core_cm3.h **** 
1310:Drivers/CMSIS/Include/core_cm3.h **** #define CoreDebug_DEMCR_MON_REQ_Pos        19U                                            /*!< Core
1311:Drivers/CMSIS/Include/core_cm3.h **** #define CoreDebug_DEMCR_MON_REQ_Msk        (1UL << CoreDebug_DEMCR_MON_REQ_Pos)           /*!< Core
1312:Drivers/CMSIS/Include/core_cm3.h **** 
1313:Drivers/CMSIS/Include/core_cm3.h **** #define CoreDebug_DEMCR_MON_STEP_Pos       18U                                            /*!< Core
1314:Drivers/CMSIS/Include/core_cm3.h **** #define CoreDebug_DEMCR_MON_STEP_Msk       (1UL << CoreDebug_DEMCR_MON_STEP_Pos)          /*!< Core
1315:Drivers/CMSIS/Include/core_cm3.h **** 
1316:Drivers/CMSIS/Include/core_cm3.h **** #define CoreDebug_DEMCR_MON_PEND_Pos       17U                                            /*!< Core
1317:Drivers/CMSIS/Include/core_cm3.h **** #define CoreDebug_DEMCR_MON_PEND_Msk       (1UL << CoreDebug_DEMCR_MON_PEND_Pos)          /*!< Core
1318:Drivers/CMSIS/Include/core_cm3.h **** 
1319:Drivers/CMSIS/Include/core_cm3.h **** #define CoreDebug_DEMCR_MON_EN_Pos         16U                                            /*!< Core
1320:Drivers/CMSIS/Include/core_cm3.h **** #define CoreDebug_DEMCR_MON_EN_Msk         (1UL << CoreDebug_DEMCR_MON_EN_Pos)            /*!< Core
1321:Drivers/CMSIS/Include/core_cm3.h **** 
1322:Drivers/CMSIS/Include/core_cm3.h **** #define CoreDebug_DEMCR_VC_HARDERR_Pos     10U                                            /*!< Core
1323:Drivers/CMSIS/Include/core_cm3.h **** #define CoreDebug_DEMCR_VC_HARDERR_Msk     (1UL << CoreDebug_DEMCR_VC_HARDERR_Pos)        /*!< Core
1324:Drivers/CMSIS/Include/core_cm3.h **** 
1325:Drivers/CMSIS/Include/core_cm3.h **** #define CoreDebug_DEMCR_VC_INTERR_Pos       9U                                            /*!< Core
1326:Drivers/CMSIS/Include/core_cm3.h **** #define CoreDebug_DEMCR_VC_INTERR_Msk      (1UL << CoreDebug_DEMCR_VC_INTERR_Pos)         /*!< Core
1327:Drivers/CMSIS/Include/core_cm3.h **** 
1328:Drivers/CMSIS/Include/core_cm3.h **** #define CoreDebug_DEMCR_VC_BUSERR_Pos       8U                                            /*!< Core
1329:Drivers/CMSIS/Include/core_cm3.h **** #define CoreDebug_DEMCR_VC_BUSERR_Msk      (1UL << CoreDebug_DEMCR_VC_BUSERR_Pos)         /*!< Core
1330:Drivers/CMSIS/Include/core_cm3.h **** 
1331:Drivers/CMSIS/Include/core_cm3.h **** #define CoreDebug_DEMCR_VC_STATERR_Pos      7U                                            /*!< Core
1332:Drivers/CMSIS/Include/core_cm3.h **** #define CoreDebug_DEMCR_VC_STATERR_Msk     (1UL << CoreDebug_DEMCR_VC_STATERR_Pos)        /*!< Core
1333:Drivers/CMSIS/Include/core_cm3.h **** 
1334:Drivers/CMSIS/Include/core_cm3.h **** #define CoreDebug_DEMCR_VC_CHKERR_Pos       6U                                            /*!< Core
1335:Drivers/CMSIS/Include/core_cm3.h **** #define CoreDebug_DEMCR_VC_CHKERR_Msk      (1UL << CoreDebug_DEMCR_VC_CHKERR_Pos)         /*!< Core
1336:Drivers/CMSIS/Include/core_cm3.h **** 
1337:Drivers/CMSIS/Include/core_cm3.h **** #define CoreDebug_DEMCR_VC_NOCPERR_Pos      5U                                            /*!< Core
ARM GAS  /var/folders/m1/3lv6xmzs0mlckxs4mx90nfb40000gn/T//cczUMWYd.s 			page 32


1338:Drivers/CMSIS/Include/core_cm3.h **** #define CoreDebug_DEMCR_VC_NOCPERR_Msk     (1UL << CoreDebug_DEMCR_VC_NOCPERR_Pos)        /*!< Core
1339:Drivers/CMSIS/Include/core_cm3.h **** 
1340:Drivers/CMSIS/Include/core_cm3.h **** #define CoreDebug_DEMCR_VC_MMERR_Pos        4U                                            /*!< Core
1341:Drivers/CMSIS/Include/core_cm3.h **** #define CoreDebug_DEMCR_VC_MMERR_Msk       (1UL << CoreDebug_DEMCR_VC_MMERR_Pos)          /*!< Core
1342:Drivers/CMSIS/Include/core_cm3.h **** 
1343:Drivers/CMSIS/Include/core_cm3.h **** #define CoreDebug_DEMCR_VC_CORERESET_Pos    0U                                            /*!< Core
1344:Drivers/CMSIS/Include/core_cm3.h **** #define CoreDebug_DEMCR_VC_CORERESET_Msk   (1UL /*<< CoreDebug_DEMCR_VC_CORERESET_Pos*/)  /*!< Core
1345:Drivers/CMSIS/Include/core_cm3.h **** 
1346:Drivers/CMSIS/Include/core_cm3.h **** /*@} end of group CMSIS_CoreDebug */
1347:Drivers/CMSIS/Include/core_cm3.h **** 
1348:Drivers/CMSIS/Include/core_cm3.h **** 
1349:Drivers/CMSIS/Include/core_cm3.h **** /**
1350:Drivers/CMSIS/Include/core_cm3.h ****   \ingroup    CMSIS_core_register
1351:Drivers/CMSIS/Include/core_cm3.h ****   \defgroup   CMSIS_core_bitfield     Core register bit field macros
1352:Drivers/CMSIS/Include/core_cm3.h ****   \brief      Macros for use with bit field definitions (xxx_Pos, xxx_Msk).
1353:Drivers/CMSIS/Include/core_cm3.h ****   @{
1354:Drivers/CMSIS/Include/core_cm3.h ****  */
1355:Drivers/CMSIS/Include/core_cm3.h **** 
1356:Drivers/CMSIS/Include/core_cm3.h **** /**
1357:Drivers/CMSIS/Include/core_cm3.h ****   \brief   Mask and shift a bit field value for use in a register bit range.
1358:Drivers/CMSIS/Include/core_cm3.h ****   \param[in] field  Name of the register bit field.
1359:Drivers/CMSIS/Include/core_cm3.h ****   \param[in] value  Value of the bit field. This parameter is interpreted as an uint32_t type.
1360:Drivers/CMSIS/Include/core_cm3.h ****   \return           Masked and shifted value.
1361:Drivers/CMSIS/Include/core_cm3.h **** */
1362:Drivers/CMSIS/Include/core_cm3.h **** #define _VAL2FLD(field, value)    (((uint32_t)(value) << field ## _Pos) & field ## _Msk)
1363:Drivers/CMSIS/Include/core_cm3.h **** 
1364:Drivers/CMSIS/Include/core_cm3.h **** /**
1365:Drivers/CMSIS/Include/core_cm3.h ****   \brief     Mask and shift a register value to extract a bit filed value.
1366:Drivers/CMSIS/Include/core_cm3.h ****   \param[in] field  Name of the register bit field.
1367:Drivers/CMSIS/Include/core_cm3.h ****   \param[in] value  Value of register. This parameter is interpreted as an uint32_t type.
1368:Drivers/CMSIS/Include/core_cm3.h ****   \return           Masked and shifted bit field value.
1369:Drivers/CMSIS/Include/core_cm3.h **** */
1370:Drivers/CMSIS/Include/core_cm3.h **** #define _FLD2VAL(field, value)    (((uint32_t)(value) & field ## _Msk) >> field ## _Pos)
1371:Drivers/CMSIS/Include/core_cm3.h **** 
1372:Drivers/CMSIS/Include/core_cm3.h **** /*@} end of group CMSIS_core_bitfield */
1373:Drivers/CMSIS/Include/core_cm3.h **** 
1374:Drivers/CMSIS/Include/core_cm3.h **** 
1375:Drivers/CMSIS/Include/core_cm3.h **** /**
1376:Drivers/CMSIS/Include/core_cm3.h ****   \ingroup    CMSIS_core_register
1377:Drivers/CMSIS/Include/core_cm3.h ****   \defgroup   CMSIS_core_base     Core Definitions
1378:Drivers/CMSIS/Include/core_cm3.h ****   \brief      Definitions for base addresses, unions, and structures.
1379:Drivers/CMSIS/Include/core_cm3.h ****   @{
1380:Drivers/CMSIS/Include/core_cm3.h ****  */
1381:Drivers/CMSIS/Include/core_cm3.h **** 
1382:Drivers/CMSIS/Include/core_cm3.h **** /* Memory mapping of Core Hardware */
1383:Drivers/CMSIS/Include/core_cm3.h **** #define SCS_BASE            (0xE000E000UL)                            /*!< System Control Space Bas
1384:Drivers/CMSIS/Include/core_cm3.h **** #define ITM_BASE            (0xE0000000UL)                            /*!< ITM Base Address */
1385:Drivers/CMSIS/Include/core_cm3.h **** #define DWT_BASE            (0xE0001000UL)                            /*!< DWT Base Address */
1386:Drivers/CMSIS/Include/core_cm3.h **** #define TPI_BASE            (0xE0040000UL)                            /*!< TPI Base Address */
1387:Drivers/CMSIS/Include/core_cm3.h **** #define CoreDebug_BASE      (0xE000EDF0UL)                            /*!< Core Debug Base Address 
1388:Drivers/CMSIS/Include/core_cm3.h **** #define SysTick_BASE        (SCS_BASE +  0x0010UL)                    /*!< SysTick Base Address */
1389:Drivers/CMSIS/Include/core_cm3.h **** #define NVIC_BASE           (SCS_BASE +  0x0100UL)                    /*!< NVIC Base Address */
1390:Drivers/CMSIS/Include/core_cm3.h **** #define SCB_BASE            (SCS_BASE +  0x0D00UL)                    /*!< System Control Block Bas
1391:Drivers/CMSIS/Include/core_cm3.h **** 
1392:Drivers/CMSIS/Include/core_cm3.h **** #define SCnSCB              ((SCnSCB_Type    *)     SCS_BASE      )   /*!< System control Register 
1393:Drivers/CMSIS/Include/core_cm3.h **** #define SCB                 ((SCB_Type       *)     SCB_BASE      )   /*!< SCB configuration struct
1394:Drivers/CMSIS/Include/core_cm3.h **** #define SysTick             ((SysTick_Type   *)     SysTick_BASE  )   /*!< SysTick configuration st
ARM GAS  /var/folders/m1/3lv6xmzs0mlckxs4mx90nfb40000gn/T//cczUMWYd.s 			page 33


1395:Drivers/CMSIS/Include/core_cm3.h **** #define NVIC                ((NVIC_Type      *)     NVIC_BASE     )   /*!< NVIC configuration struc
1396:Drivers/CMSIS/Include/core_cm3.h **** #define ITM                 ((ITM_Type       *)     ITM_BASE      )   /*!< ITM configuration struct
1397:Drivers/CMSIS/Include/core_cm3.h **** #define DWT                 ((DWT_Type       *)     DWT_BASE      )   /*!< DWT configuration struct
1398:Drivers/CMSIS/Include/core_cm3.h **** #define TPI                 ((TPI_Type       *)     TPI_BASE      )   /*!< TPI configuration struct
1399:Drivers/CMSIS/Include/core_cm3.h **** #define CoreDebug           ((CoreDebug_Type *)     CoreDebug_BASE)   /*!< Core Debug configuration
1400:Drivers/CMSIS/Include/core_cm3.h **** 
1401:Drivers/CMSIS/Include/core_cm3.h **** #if defined (__MPU_PRESENT) && (__MPU_PRESENT == 1U)
1402:Drivers/CMSIS/Include/core_cm3.h ****   #define MPU_BASE          (SCS_BASE +  0x0D90UL)                    /*!< Memory Protection Unit *
1403:Drivers/CMSIS/Include/core_cm3.h ****   #define MPU               ((MPU_Type       *)     MPU_BASE      )   /*!< Memory Protection Unit *
1404:Drivers/CMSIS/Include/core_cm3.h **** #endif
1405:Drivers/CMSIS/Include/core_cm3.h **** 
1406:Drivers/CMSIS/Include/core_cm3.h **** /*@} */
1407:Drivers/CMSIS/Include/core_cm3.h **** 
1408:Drivers/CMSIS/Include/core_cm3.h **** 
1409:Drivers/CMSIS/Include/core_cm3.h **** 
1410:Drivers/CMSIS/Include/core_cm3.h **** /*******************************************************************************
1411:Drivers/CMSIS/Include/core_cm3.h ****  *                Hardware Abstraction Layer
1412:Drivers/CMSIS/Include/core_cm3.h ****   Core Function Interface contains:
1413:Drivers/CMSIS/Include/core_cm3.h ****   - Core NVIC Functions
1414:Drivers/CMSIS/Include/core_cm3.h ****   - Core SysTick Functions
1415:Drivers/CMSIS/Include/core_cm3.h ****   - Core Debug Functions
1416:Drivers/CMSIS/Include/core_cm3.h ****   - Core Register Access Functions
1417:Drivers/CMSIS/Include/core_cm3.h ****  ******************************************************************************/
1418:Drivers/CMSIS/Include/core_cm3.h **** /**
1419:Drivers/CMSIS/Include/core_cm3.h ****   \defgroup CMSIS_Core_FunctionInterface Functions and Instructions Reference
1420:Drivers/CMSIS/Include/core_cm3.h **** */
1421:Drivers/CMSIS/Include/core_cm3.h **** 
1422:Drivers/CMSIS/Include/core_cm3.h **** 
1423:Drivers/CMSIS/Include/core_cm3.h **** 
1424:Drivers/CMSIS/Include/core_cm3.h **** /* ##########################   NVIC functions  #################################### */
1425:Drivers/CMSIS/Include/core_cm3.h **** /**
1426:Drivers/CMSIS/Include/core_cm3.h ****   \ingroup  CMSIS_Core_FunctionInterface
1427:Drivers/CMSIS/Include/core_cm3.h ****   \defgroup CMSIS_Core_NVICFunctions NVIC Functions
1428:Drivers/CMSIS/Include/core_cm3.h ****   \brief    Functions that manage interrupts and exceptions via the NVIC.
1429:Drivers/CMSIS/Include/core_cm3.h ****   @{
1430:Drivers/CMSIS/Include/core_cm3.h ****  */
1431:Drivers/CMSIS/Include/core_cm3.h **** 
1432:Drivers/CMSIS/Include/core_cm3.h **** #ifdef CMSIS_NVIC_VIRTUAL
1433:Drivers/CMSIS/Include/core_cm3.h ****   #ifndef CMSIS_NVIC_VIRTUAL_HEADER_FILE
1434:Drivers/CMSIS/Include/core_cm3.h ****     #define CMSIS_NVIC_VIRTUAL_HEADER_FILE "cmsis_nvic_virtual.h"
1435:Drivers/CMSIS/Include/core_cm3.h ****   #endif
1436:Drivers/CMSIS/Include/core_cm3.h ****   #include CMSIS_NVIC_VIRTUAL_HEADER_FILE
1437:Drivers/CMSIS/Include/core_cm3.h **** #else
1438:Drivers/CMSIS/Include/core_cm3.h ****   #define NVIC_SetPriorityGrouping    __NVIC_SetPriorityGrouping
1439:Drivers/CMSIS/Include/core_cm3.h ****   #define NVIC_GetPriorityGrouping    __NVIC_GetPriorityGrouping
1440:Drivers/CMSIS/Include/core_cm3.h ****   #define NVIC_EnableIRQ              __NVIC_EnableIRQ
1441:Drivers/CMSIS/Include/core_cm3.h ****   #define NVIC_GetEnableIRQ           __NVIC_GetEnableIRQ
1442:Drivers/CMSIS/Include/core_cm3.h ****   #define NVIC_DisableIRQ             __NVIC_DisableIRQ
1443:Drivers/CMSIS/Include/core_cm3.h ****   #define NVIC_GetPendingIRQ          __NVIC_GetPendingIRQ
1444:Drivers/CMSIS/Include/core_cm3.h ****   #define NVIC_SetPendingIRQ          __NVIC_SetPendingIRQ
1445:Drivers/CMSIS/Include/core_cm3.h ****   #define NVIC_ClearPendingIRQ        __NVIC_ClearPendingIRQ
1446:Drivers/CMSIS/Include/core_cm3.h ****   #define NVIC_GetActive              __NVIC_GetActive
1447:Drivers/CMSIS/Include/core_cm3.h ****   #define NVIC_SetPriority            __NVIC_SetPriority
1448:Drivers/CMSIS/Include/core_cm3.h ****   #define NVIC_GetPriority            __NVIC_GetPriority
1449:Drivers/CMSIS/Include/core_cm3.h ****   #define NVIC_SystemReset            __NVIC_SystemReset
1450:Drivers/CMSIS/Include/core_cm3.h **** #endif /* CMSIS_NVIC_VIRTUAL */
1451:Drivers/CMSIS/Include/core_cm3.h **** 
ARM GAS  /var/folders/m1/3lv6xmzs0mlckxs4mx90nfb40000gn/T//cczUMWYd.s 			page 34


1452:Drivers/CMSIS/Include/core_cm3.h **** #ifdef CMSIS_VECTAB_VIRTUAL
1453:Drivers/CMSIS/Include/core_cm3.h ****   #ifndef CMSIS_VECTAB_VIRTUAL_HEADER_FILE
1454:Drivers/CMSIS/Include/core_cm3.h ****    #define CMSIS_VECTAB_VIRTUAL_HEADER_FILE "cmsis_vectab_virtual.h"
1455:Drivers/CMSIS/Include/core_cm3.h ****   #endif
1456:Drivers/CMSIS/Include/core_cm3.h ****   #include CMSIS_VECTAB_VIRTUAL_HEADER_FILE
1457:Drivers/CMSIS/Include/core_cm3.h **** #else
1458:Drivers/CMSIS/Include/core_cm3.h ****   #define NVIC_SetVector              __NVIC_SetVector
1459:Drivers/CMSIS/Include/core_cm3.h ****   #define NVIC_GetVector              __NVIC_GetVector
1460:Drivers/CMSIS/Include/core_cm3.h **** #endif  /* (CMSIS_VECTAB_VIRTUAL) */
1461:Drivers/CMSIS/Include/core_cm3.h **** 
1462:Drivers/CMSIS/Include/core_cm3.h **** #define NVIC_USER_IRQ_OFFSET          16
1463:Drivers/CMSIS/Include/core_cm3.h **** 
1464:Drivers/CMSIS/Include/core_cm3.h **** 
1465:Drivers/CMSIS/Include/core_cm3.h **** /* The following EXC_RETURN values are saved the LR on exception entry */
1466:Drivers/CMSIS/Include/core_cm3.h **** #define EXC_RETURN_HANDLER         (0xFFFFFFF1UL)     /* return to Handler mode, uses MSP after ret
1467:Drivers/CMSIS/Include/core_cm3.h **** #define EXC_RETURN_THREAD_MSP      (0xFFFFFFF9UL)     /* return to Thread mode, uses MSP after retu
1468:Drivers/CMSIS/Include/core_cm3.h **** #define EXC_RETURN_THREAD_PSP      (0xFFFFFFFDUL)     /* return to Thread mode, uses PSP after retu
1469:Drivers/CMSIS/Include/core_cm3.h **** 
1470:Drivers/CMSIS/Include/core_cm3.h **** 
1471:Drivers/CMSIS/Include/core_cm3.h **** /**
1472:Drivers/CMSIS/Include/core_cm3.h ****   \brief   Set Priority Grouping
1473:Drivers/CMSIS/Include/core_cm3.h ****   \details Sets the priority grouping field using the required unlock sequence.
1474:Drivers/CMSIS/Include/core_cm3.h ****            The parameter PriorityGroup is assigned to the field SCB->AIRCR [10:8] PRIGROUP field.
1475:Drivers/CMSIS/Include/core_cm3.h ****            Only values from 0..7 are used.
1476:Drivers/CMSIS/Include/core_cm3.h ****            In case of a conflict between priority grouping and available
1477:Drivers/CMSIS/Include/core_cm3.h ****            priority bits (__NVIC_PRIO_BITS), the smallest possible priority group is set.
1478:Drivers/CMSIS/Include/core_cm3.h ****   \param [in]      PriorityGroup  Priority grouping field.
1479:Drivers/CMSIS/Include/core_cm3.h ****  */
1480:Drivers/CMSIS/Include/core_cm3.h **** __STATIC_INLINE void __NVIC_SetPriorityGrouping(uint32_t PriorityGroup)
1481:Drivers/CMSIS/Include/core_cm3.h **** {
1482:Drivers/CMSIS/Include/core_cm3.h ****   uint32_t reg_value;
1483:Drivers/CMSIS/Include/core_cm3.h ****   uint32_t PriorityGroupTmp = (PriorityGroup & (uint32_t)0x07UL);             /* only values 0..7 a
1484:Drivers/CMSIS/Include/core_cm3.h **** 
1485:Drivers/CMSIS/Include/core_cm3.h ****   reg_value  =  SCB->AIRCR;                                                   /* read old register 
1486:Drivers/CMSIS/Include/core_cm3.h ****   reg_value &= ~((uint32_t)(SCB_AIRCR_VECTKEY_Msk | SCB_AIRCR_PRIGROUP_Msk)); /* clear bits to chan
1487:Drivers/CMSIS/Include/core_cm3.h ****   reg_value  =  (reg_value                                   |
1488:Drivers/CMSIS/Include/core_cm3.h ****                 ((uint32_t)0x5FAUL << SCB_AIRCR_VECTKEY_Pos) |
1489:Drivers/CMSIS/Include/core_cm3.h ****                 (PriorityGroupTmp << SCB_AIRCR_PRIGROUP_Pos) );               /* Insert write key a
1490:Drivers/CMSIS/Include/core_cm3.h ****   SCB->AIRCR =  reg_value;
1491:Drivers/CMSIS/Include/core_cm3.h **** }
1492:Drivers/CMSIS/Include/core_cm3.h **** 
1493:Drivers/CMSIS/Include/core_cm3.h **** 
1494:Drivers/CMSIS/Include/core_cm3.h **** /**
1495:Drivers/CMSIS/Include/core_cm3.h ****   \brief   Get Priority Grouping
1496:Drivers/CMSIS/Include/core_cm3.h ****   \details Reads the priority grouping field from the NVIC Interrupt Controller.
1497:Drivers/CMSIS/Include/core_cm3.h ****   \return                Priority grouping field (SCB->AIRCR [10:8] PRIGROUP field).
1498:Drivers/CMSIS/Include/core_cm3.h ****  */
1499:Drivers/CMSIS/Include/core_cm3.h **** __STATIC_INLINE uint32_t __NVIC_GetPriorityGrouping(void)
1500:Drivers/CMSIS/Include/core_cm3.h **** {
1501:Drivers/CMSIS/Include/core_cm3.h ****   return ((uint32_t)((SCB->AIRCR & SCB_AIRCR_PRIGROUP_Msk) >> SCB_AIRCR_PRIGROUP_Pos));
1502:Drivers/CMSIS/Include/core_cm3.h **** }
1503:Drivers/CMSIS/Include/core_cm3.h **** 
1504:Drivers/CMSIS/Include/core_cm3.h **** 
1505:Drivers/CMSIS/Include/core_cm3.h **** /**
1506:Drivers/CMSIS/Include/core_cm3.h ****   \brief   Enable Interrupt
1507:Drivers/CMSIS/Include/core_cm3.h ****   \details Enables a device specific interrupt in the NVIC interrupt controller.
1508:Drivers/CMSIS/Include/core_cm3.h ****   \param [in]      IRQn  Device specific interrupt number.
ARM GAS  /var/folders/m1/3lv6xmzs0mlckxs4mx90nfb40000gn/T//cczUMWYd.s 			page 35


1509:Drivers/CMSIS/Include/core_cm3.h ****   \note    IRQn must not be negative.
1510:Drivers/CMSIS/Include/core_cm3.h ****  */
1511:Drivers/CMSIS/Include/core_cm3.h **** __STATIC_INLINE void __NVIC_EnableIRQ(IRQn_Type IRQn)
1512:Drivers/CMSIS/Include/core_cm3.h **** {
1513:Drivers/CMSIS/Include/core_cm3.h ****   if ((int32_t)(IRQn) >= 0)
1514:Drivers/CMSIS/Include/core_cm3.h ****   {
1515:Drivers/CMSIS/Include/core_cm3.h ****     NVIC->ISER[(((uint32_t)IRQn) >> 5UL)] = (uint32_t)(1UL << (((uint32_t)IRQn) & 0x1FUL));
1516:Drivers/CMSIS/Include/core_cm3.h ****   }
1517:Drivers/CMSIS/Include/core_cm3.h **** }
1518:Drivers/CMSIS/Include/core_cm3.h **** 
1519:Drivers/CMSIS/Include/core_cm3.h **** 
1520:Drivers/CMSIS/Include/core_cm3.h **** /**
1521:Drivers/CMSIS/Include/core_cm3.h ****   \brief   Get Interrupt Enable status
1522:Drivers/CMSIS/Include/core_cm3.h ****   \details Returns a device specific interrupt enable status from the NVIC interrupt controller.
1523:Drivers/CMSIS/Include/core_cm3.h ****   \param [in]      IRQn  Device specific interrupt number.
1524:Drivers/CMSIS/Include/core_cm3.h ****   \return             0  Interrupt is not enabled.
1525:Drivers/CMSIS/Include/core_cm3.h ****   \return             1  Interrupt is enabled.
1526:Drivers/CMSIS/Include/core_cm3.h ****   \note    IRQn must not be negative.
1527:Drivers/CMSIS/Include/core_cm3.h ****  */
1528:Drivers/CMSIS/Include/core_cm3.h **** __STATIC_INLINE uint32_t __NVIC_GetEnableIRQ(IRQn_Type IRQn)
1529:Drivers/CMSIS/Include/core_cm3.h **** {
1530:Drivers/CMSIS/Include/core_cm3.h ****   if ((int32_t)(IRQn) >= 0)
1531:Drivers/CMSIS/Include/core_cm3.h ****   {
1532:Drivers/CMSIS/Include/core_cm3.h ****     return((uint32_t)(((NVIC->ISER[(((uint32_t)IRQn) >> 5UL)] & (1UL << (((uint32_t)IRQn) & 0x1FUL)
1533:Drivers/CMSIS/Include/core_cm3.h ****   }
1534:Drivers/CMSIS/Include/core_cm3.h ****   else
1535:Drivers/CMSIS/Include/core_cm3.h ****   {
1536:Drivers/CMSIS/Include/core_cm3.h ****     return(0U);
1537:Drivers/CMSIS/Include/core_cm3.h ****   }
1538:Drivers/CMSIS/Include/core_cm3.h **** }
1539:Drivers/CMSIS/Include/core_cm3.h **** 
1540:Drivers/CMSIS/Include/core_cm3.h **** 
1541:Drivers/CMSIS/Include/core_cm3.h **** /**
1542:Drivers/CMSIS/Include/core_cm3.h ****   \brief   Disable Interrupt
1543:Drivers/CMSIS/Include/core_cm3.h ****   \details Disables a device specific interrupt in the NVIC interrupt controller.
1544:Drivers/CMSIS/Include/core_cm3.h ****   \param [in]      IRQn  Device specific interrupt number.
1545:Drivers/CMSIS/Include/core_cm3.h ****   \note    IRQn must not be negative.
1546:Drivers/CMSIS/Include/core_cm3.h ****  */
1547:Drivers/CMSIS/Include/core_cm3.h **** __STATIC_INLINE void __NVIC_DisableIRQ(IRQn_Type IRQn)
1548:Drivers/CMSIS/Include/core_cm3.h **** {
1549:Drivers/CMSIS/Include/core_cm3.h ****   if ((int32_t)(IRQn) >= 0)
1550:Drivers/CMSIS/Include/core_cm3.h ****   {
1551:Drivers/CMSIS/Include/core_cm3.h ****     NVIC->ICER[(((uint32_t)IRQn) >> 5UL)] = (uint32_t)(1UL << (((uint32_t)IRQn) & 0x1FUL));
1552:Drivers/CMSIS/Include/core_cm3.h ****     __DSB();
1553:Drivers/CMSIS/Include/core_cm3.h ****     __ISB();
1554:Drivers/CMSIS/Include/core_cm3.h ****   }
1555:Drivers/CMSIS/Include/core_cm3.h **** }
1556:Drivers/CMSIS/Include/core_cm3.h **** 
1557:Drivers/CMSIS/Include/core_cm3.h **** 
1558:Drivers/CMSIS/Include/core_cm3.h **** /**
1559:Drivers/CMSIS/Include/core_cm3.h ****   \brief   Get Pending Interrupt
1560:Drivers/CMSIS/Include/core_cm3.h ****   \details Reads the NVIC pending register and returns the pending bit for the specified device spe
1561:Drivers/CMSIS/Include/core_cm3.h ****   \param [in]      IRQn  Device specific interrupt number.
1562:Drivers/CMSIS/Include/core_cm3.h ****   \return             0  Interrupt status is not pending.
1563:Drivers/CMSIS/Include/core_cm3.h ****   \return             1  Interrupt status is pending.
1564:Drivers/CMSIS/Include/core_cm3.h ****   \note    IRQn must not be negative.
1565:Drivers/CMSIS/Include/core_cm3.h ****  */
ARM GAS  /var/folders/m1/3lv6xmzs0mlckxs4mx90nfb40000gn/T//cczUMWYd.s 			page 36


1566:Drivers/CMSIS/Include/core_cm3.h **** __STATIC_INLINE uint32_t __NVIC_GetPendingIRQ(IRQn_Type IRQn)
1567:Drivers/CMSIS/Include/core_cm3.h **** {
1568:Drivers/CMSIS/Include/core_cm3.h ****   if ((int32_t)(IRQn) >= 0)
1569:Drivers/CMSIS/Include/core_cm3.h ****   {
1570:Drivers/CMSIS/Include/core_cm3.h ****     return((uint32_t)(((NVIC->ISPR[(((uint32_t)IRQn) >> 5UL)] & (1UL << (((uint32_t)IRQn) & 0x1FUL)
1571:Drivers/CMSIS/Include/core_cm3.h ****   }
1572:Drivers/CMSIS/Include/core_cm3.h ****   else
1573:Drivers/CMSIS/Include/core_cm3.h ****   {
1574:Drivers/CMSIS/Include/core_cm3.h ****     return(0U);
1575:Drivers/CMSIS/Include/core_cm3.h ****   }
1576:Drivers/CMSIS/Include/core_cm3.h **** }
1577:Drivers/CMSIS/Include/core_cm3.h **** 
1578:Drivers/CMSIS/Include/core_cm3.h **** 
1579:Drivers/CMSIS/Include/core_cm3.h **** /**
1580:Drivers/CMSIS/Include/core_cm3.h ****   \brief   Set Pending Interrupt
1581:Drivers/CMSIS/Include/core_cm3.h ****   \details Sets the pending bit of a device specific interrupt in the NVIC pending register.
1582:Drivers/CMSIS/Include/core_cm3.h ****   \param [in]      IRQn  Device specific interrupt number.
1583:Drivers/CMSIS/Include/core_cm3.h ****   \note    IRQn must not be negative.
1584:Drivers/CMSIS/Include/core_cm3.h ****  */
1585:Drivers/CMSIS/Include/core_cm3.h **** __STATIC_INLINE void __NVIC_SetPendingIRQ(IRQn_Type IRQn)
1586:Drivers/CMSIS/Include/core_cm3.h **** {
1587:Drivers/CMSIS/Include/core_cm3.h ****   if ((int32_t)(IRQn) >= 0)
1588:Drivers/CMSIS/Include/core_cm3.h ****   {
1589:Drivers/CMSIS/Include/core_cm3.h ****     NVIC->ISPR[(((uint32_t)IRQn) >> 5UL)] = (uint32_t)(1UL << (((uint32_t)IRQn) & 0x1FUL));
1590:Drivers/CMSIS/Include/core_cm3.h ****   }
1591:Drivers/CMSIS/Include/core_cm3.h **** }
1592:Drivers/CMSIS/Include/core_cm3.h **** 
1593:Drivers/CMSIS/Include/core_cm3.h **** 
1594:Drivers/CMSIS/Include/core_cm3.h **** /**
1595:Drivers/CMSIS/Include/core_cm3.h ****   \brief   Clear Pending Interrupt
1596:Drivers/CMSIS/Include/core_cm3.h ****   \details Clears the pending bit of a device specific interrupt in the NVIC pending register.
1597:Drivers/CMSIS/Include/core_cm3.h ****   \param [in]      IRQn  Device specific interrupt number.
1598:Drivers/CMSIS/Include/core_cm3.h ****   \note    IRQn must not be negative.
1599:Drivers/CMSIS/Include/core_cm3.h ****  */
1600:Drivers/CMSIS/Include/core_cm3.h **** __STATIC_INLINE void __NVIC_ClearPendingIRQ(IRQn_Type IRQn)
1601:Drivers/CMSIS/Include/core_cm3.h **** {
1602:Drivers/CMSIS/Include/core_cm3.h ****   if ((int32_t)(IRQn) >= 0)
1603:Drivers/CMSIS/Include/core_cm3.h ****   {
1604:Drivers/CMSIS/Include/core_cm3.h ****     NVIC->ICPR[(((uint32_t)IRQn) >> 5UL)] = (uint32_t)(1UL << (((uint32_t)IRQn) & 0x1FUL));
 236              		.loc 2 1604 0
 237 000e 4022     		movs	r2, #64
 238 0010 014B     		ldr	r3, .L17
 239 0012 C3F88021 		str	r2, [r3, #384]
 240              	.LVL3:
 241              	.LBE46:
 242              	.LBE45:
 243              	.LBE44:
 215:Src/stm32f1xx_it.c ****   NVIC_ClearPendingIRQ(EXTI0_IRQn);
 216:Src/stm32f1xx_it.c ****   /* USER CODE END EXTI0_IRQn 1 */
 217:Src/stm32f1xx_it.c **** }
 244              		.loc 1 217 0
 245 0016 08BD     		pop	{r3, pc}
 246              	.L18:
 247              		.align	2
 248              	.L17:
 249 0018 00E100E0 		.word	-536813312
 250              		.cfi_endproc
ARM GAS  /var/folders/m1/3lv6xmzs0mlckxs4mx90nfb40000gn/T//cczUMWYd.s 			page 37


 251              	.LFE712:
 253              		.section	.text.EXTI1_IRQHandler,"ax",%progbits
 254              		.align	1
 255              		.p2align 2,,3
 256              		.global	EXTI1_IRQHandler
 257              		.syntax unified
 258              		.thumb
 259              		.thumb_func
 260              		.fpu softvfp
 262              	EXTI1_IRQHandler:
 263              	.LFB713:
 218:Src/stm32f1xx_it.c **** 
 219:Src/stm32f1xx_it.c **** /**
 220:Src/stm32f1xx_it.c ****   * @brief This function handles EXTI line1 interrupt.
 221:Src/stm32f1xx_it.c ****   */
 222:Src/stm32f1xx_it.c **** void EXTI1_IRQHandler(void)
 223:Src/stm32f1xx_it.c **** {
 264              		.loc 1 223 0
 265              		.cfi_startproc
 266              		@ args = 0, pretend = 0, frame = 0
 267              		@ frame_needed = 0, uses_anonymous_args = 0
 268 0000 08B5     		push	{r3, lr}
 269              	.LCFI1:
 270              		.cfi_def_cfa_offset 8
 271              		.cfi_offset 3, -8
 272              		.cfi_offset 14, -4
 224:Src/stm32f1xx_it.c ****   /* USER CODE BEGIN EXTI1_IRQn 0 */
 225:Src/stm32f1xx_it.c **** 
 226:Src/stm32f1xx_it.c ****   /* USER CODE END EXTI1_IRQn 0 */
 227:Src/stm32f1xx_it.c ****   HAL_GPIO_EXTI_IRQHandler(GPIO_PIN_1);
 273              		.loc 1 227 0
 274 0002 0220     		movs	r0, #2
 275 0004 FFF7FEFF 		bl	HAL_GPIO_EXTI_IRQHandler
 276              	.LVL4:
 228:Src/stm32f1xx_it.c ****   /* USER CODE BEGIN EXTI1_IRQn 1 */
 229:Src/stm32f1xx_it.c ****   HandleControlIT(GPIO_PIN_1);
 277              		.loc 1 229 0
 278 0008 0220     		movs	r0, #2
 279 000a FFF7FEFF 		bl	HandleControlIT
 280              	.LVL5:
 281              	.LBB51:
 282              	.LBB52:
 283              	.LBB53:
 284              		.loc 2 1604 0
 285 000e 8022     		movs	r2, #128
 286 0010 014B     		ldr	r3, .L21
 287 0012 C3F88021 		str	r2, [r3, #384]
 288              	.LVL6:
 289              	.LBE53:
 290              	.LBE52:
 291              	.LBE51:
 230:Src/stm32f1xx_it.c ****   NVIC_ClearPendingIRQ(EXTI1_IRQn);
 231:Src/stm32f1xx_it.c ****   /* USER CODE END EXTI1_IRQn 1 */
 232:Src/stm32f1xx_it.c **** }
 292              		.loc 1 232 0
 293 0016 08BD     		pop	{r3, pc}
 294              	.L22:
ARM GAS  /var/folders/m1/3lv6xmzs0mlckxs4mx90nfb40000gn/T//cczUMWYd.s 			page 38


 295              		.align	2
 296              	.L21:
 297 0018 00E100E0 		.word	-536813312
 298              		.cfi_endproc
 299              	.LFE713:
 301              		.section	.text.EXTI3_IRQHandler,"ax",%progbits
 302              		.align	1
 303              		.p2align 2,,3
 304              		.global	EXTI3_IRQHandler
 305              		.syntax unified
 306              		.thumb
 307              		.thumb_func
 308              		.fpu softvfp
 310              	EXTI3_IRQHandler:
 311              	.LFB714:
 233:Src/stm32f1xx_it.c **** 
 234:Src/stm32f1xx_it.c **** /**
 235:Src/stm32f1xx_it.c ****   * @brief This function handles EXTI line3 interrupt.
 236:Src/stm32f1xx_it.c ****   */
 237:Src/stm32f1xx_it.c **** void EXTI3_IRQHandler(void)
 238:Src/stm32f1xx_it.c **** {
 312              		.loc 1 238 0
 313              		.cfi_startproc
 314              		@ args = 0, pretend = 0, frame = 0
 315              		@ frame_needed = 0, uses_anonymous_args = 0
 316 0000 08B5     		push	{r3, lr}
 317              	.LCFI2:
 318              		.cfi_def_cfa_offset 8
 319              		.cfi_offset 3, -8
 320              		.cfi_offset 14, -4
 239:Src/stm32f1xx_it.c ****   /* USER CODE BEGIN EXTI3_IRQn 0 */
 240:Src/stm32f1xx_it.c **** 
 241:Src/stm32f1xx_it.c ****   /* USER CODE END EXTI3_IRQn 0 */
 242:Src/stm32f1xx_it.c ****   HAL_GPIO_EXTI_IRQHandler(GPIO_PIN_3);
 321              		.loc 1 242 0
 322 0002 0820     		movs	r0, #8
 323 0004 FFF7FEFF 		bl	HAL_GPIO_EXTI_IRQHandler
 324              	.LVL7:
 243:Src/stm32f1xx_it.c ****   /* USER CODE BEGIN EXTI3_IRQn 1 */
 244:Src/stm32f1xx_it.c ****   HandleControlIT(GPIO_PIN_3);
 325              		.loc 1 244 0
 326 0008 0820     		movs	r0, #8
 327 000a FFF7FEFF 		bl	HandleControlIT
 328              	.LVL8:
 329              	.LBB58:
 330              	.LBB59:
 331              	.LBB60:
 332              		.loc 2 1604 0
 333 000e 4FF40072 		mov	r2, #512
 334 0012 024B     		ldr	r3, .L25
 335 0014 C3F88021 		str	r2, [r3, #384]
 336              	.LVL9:
 337              	.LBE60:
 338              	.LBE59:
 339              	.LBE58:
 245:Src/stm32f1xx_it.c ****   NVIC_ClearPendingIRQ(EXTI3_IRQn);
 246:Src/stm32f1xx_it.c ****   /* USER CODE END EXTI3_IRQn 1 */
ARM GAS  /var/folders/m1/3lv6xmzs0mlckxs4mx90nfb40000gn/T//cczUMWYd.s 			page 39


 247:Src/stm32f1xx_it.c **** }
 340              		.loc 1 247 0
 341 0018 08BD     		pop	{r3, pc}
 342              	.L26:
 343 001a 00BF     		.align	2
 344              	.L25:
 345 001c 00E100E0 		.word	-536813312
 346              		.cfi_endproc
 347              	.LFE714:
 349              		.section	.text.EXTI4_IRQHandler,"ax",%progbits
 350              		.align	1
 351              		.p2align 2,,3
 352              		.global	EXTI4_IRQHandler
 353              		.syntax unified
 354              		.thumb
 355              		.thumb_func
 356              		.fpu softvfp
 358              	EXTI4_IRQHandler:
 359              	.LFB715:
 248:Src/stm32f1xx_it.c **** 
 249:Src/stm32f1xx_it.c **** /**
 250:Src/stm32f1xx_it.c ****   * @brief This function handles EXTI line4 interrupt.
 251:Src/stm32f1xx_it.c ****   */
 252:Src/stm32f1xx_it.c **** void EXTI4_IRQHandler(void)
 253:Src/stm32f1xx_it.c **** {
 360              		.loc 1 253 0
 361              		.cfi_startproc
 362              		@ args = 0, pretend = 0, frame = 0
 363              		@ frame_needed = 0, uses_anonymous_args = 0
 364 0000 08B5     		push	{r3, lr}
 365              	.LCFI3:
 366              		.cfi_def_cfa_offset 8
 367              		.cfi_offset 3, -8
 368              		.cfi_offset 14, -4
 254:Src/stm32f1xx_it.c ****   /* USER CODE BEGIN EXTI4_IRQn 0 */
 255:Src/stm32f1xx_it.c **** 
 256:Src/stm32f1xx_it.c ****   /* USER CODE END EXTI4_IRQn 0 */
 257:Src/stm32f1xx_it.c ****   HAL_GPIO_EXTI_IRQHandler(GPIO_PIN_4);
 369              		.loc 1 257 0
 370 0002 1020     		movs	r0, #16
 371 0004 FFF7FEFF 		bl	HAL_GPIO_EXTI_IRQHandler
 372              	.LVL10:
 258:Src/stm32f1xx_it.c ****   /* USER CODE BEGIN EXTI4_IRQn 1 */
 259:Src/stm32f1xx_it.c ****   HandleControlIT(GPIO_PIN_4);
 373              		.loc 1 259 0
 374 0008 1020     		movs	r0, #16
 375 000a FFF7FEFF 		bl	HandleControlIT
 376              	.LVL11:
 377              	.LBB65:
 378              	.LBB66:
 379              	.LBB67:
 380              		.loc 2 1604 0
 381 000e 4FF48062 		mov	r2, #1024
 382 0012 024B     		ldr	r3, .L29
 383 0014 C3F88021 		str	r2, [r3, #384]
 384              	.LVL12:
 385              	.LBE67:
ARM GAS  /var/folders/m1/3lv6xmzs0mlckxs4mx90nfb40000gn/T//cczUMWYd.s 			page 40


 386              	.LBE66:
 387              	.LBE65:
 260:Src/stm32f1xx_it.c ****   NVIC_ClearPendingIRQ(EXTI4_IRQn);
 261:Src/stm32f1xx_it.c ****   /* USER CODE END EXTI4_IRQn 1 */
 262:Src/stm32f1xx_it.c **** }
 388              		.loc 1 262 0
 389 0018 08BD     		pop	{r3, pc}
 390              	.L30:
 391 001a 00BF     		.align	2
 392              	.L29:
 393 001c 00E100E0 		.word	-536813312
 394              		.cfi_endproc
 395              	.LFE715:
 397              		.section	.text.TIM2_IRQHandler,"ax",%progbits
 398              		.align	1
 399              		.p2align 2,,3
 400              		.global	TIM2_IRQHandler
 401              		.syntax unified
 402              		.thumb
 403              		.thumb_func
 404              		.fpu softvfp
 406              	TIM2_IRQHandler:
 407              	.LFB716:
 263:Src/stm32f1xx_it.c **** 
 264:Src/stm32f1xx_it.c **** /**
 265:Src/stm32f1xx_it.c ****   * @brief This function handles TIM2 global interrupt.
 266:Src/stm32f1xx_it.c ****   */
 267:Src/stm32f1xx_it.c **** void TIM2_IRQHandler(void)
 268:Src/stm32f1xx_it.c **** {
 408              		.loc 1 268 0
 409              		.cfi_startproc
 410              		@ args = 0, pretend = 0, frame = 0
 411              		@ frame_needed = 0, uses_anonymous_args = 0
 412              		@ link register save eliminated.
 413              	.LVL13:
 414              	.LBB68:
 415              	.LBB69:
 416              		.file 3 "Drivers/STM32F1xx_HAL_Driver/Inc/stm32f1xx_ll_tim.h"
   1:Drivers/STM32F1xx_HAL_Driver/Inc/stm32f1xx_ll_tim.h **** /**
   2:Drivers/STM32F1xx_HAL_Driver/Inc/stm32f1xx_ll_tim.h ****   ******************************************************************************
   3:Drivers/STM32F1xx_HAL_Driver/Inc/stm32f1xx_ll_tim.h ****   * @file    stm32f1xx_ll_tim.h
   4:Drivers/STM32F1xx_HAL_Driver/Inc/stm32f1xx_ll_tim.h ****   * @author  MCD Application Team
   5:Drivers/STM32F1xx_HAL_Driver/Inc/stm32f1xx_ll_tim.h ****   * @brief   Header file of TIM LL module.
   6:Drivers/STM32F1xx_HAL_Driver/Inc/stm32f1xx_ll_tim.h ****   ******************************************************************************
   7:Drivers/STM32F1xx_HAL_Driver/Inc/stm32f1xx_ll_tim.h ****   * @attention
   8:Drivers/STM32F1xx_HAL_Driver/Inc/stm32f1xx_ll_tim.h ****   *
   9:Drivers/STM32F1xx_HAL_Driver/Inc/stm32f1xx_ll_tim.h ****   * <h2><center>&copy; Copyright (c) 2016 STMicroelectronics.
  10:Drivers/STM32F1xx_HAL_Driver/Inc/stm32f1xx_ll_tim.h ****   * All rights reserved.</center></h2>
  11:Drivers/STM32F1xx_HAL_Driver/Inc/stm32f1xx_ll_tim.h ****   *
  12:Drivers/STM32F1xx_HAL_Driver/Inc/stm32f1xx_ll_tim.h ****   * This software component is licensed by ST under BSD 3-Clause license,
  13:Drivers/STM32F1xx_HAL_Driver/Inc/stm32f1xx_ll_tim.h ****   * the "License"; You may not use this file except in compliance with the
  14:Drivers/STM32F1xx_HAL_Driver/Inc/stm32f1xx_ll_tim.h ****   * License. You may obtain a copy of the License at:
  15:Drivers/STM32F1xx_HAL_Driver/Inc/stm32f1xx_ll_tim.h ****   *                        opensource.org/licenses/BSD-3-Clause
  16:Drivers/STM32F1xx_HAL_Driver/Inc/stm32f1xx_ll_tim.h ****   *
  17:Drivers/STM32F1xx_HAL_Driver/Inc/stm32f1xx_ll_tim.h ****   ******************************************************************************
  18:Drivers/STM32F1xx_HAL_Driver/Inc/stm32f1xx_ll_tim.h ****   */
  19:Drivers/STM32F1xx_HAL_Driver/Inc/stm32f1xx_ll_tim.h **** 
ARM GAS  /var/folders/m1/3lv6xmzs0mlckxs4mx90nfb40000gn/T//cczUMWYd.s 			page 41


  20:Drivers/STM32F1xx_HAL_Driver/Inc/stm32f1xx_ll_tim.h **** /* Define to prevent recursive inclusion -------------------------------------*/
  21:Drivers/STM32F1xx_HAL_Driver/Inc/stm32f1xx_ll_tim.h **** #ifndef __STM32F1xx_LL_TIM_H
  22:Drivers/STM32F1xx_HAL_Driver/Inc/stm32f1xx_ll_tim.h **** #define __STM32F1xx_LL_TIM_H
  23:Drivers/STM32F1xx_HAL_Driver/Inc/stm32f1xx_ll_tim.h **** 
  24:Drivers/STM32F1xx_HAL_Driver/Inc/stm32f1xx_ll_tim.h **** #ifdef __cplusplus
  25:Drivers/STM32F1xx_HAL_Driver/Inc/stm32f1xx_ll_tim.h **** extern "C" {
  26:Drivers/STM32F1xx_HAL_Driver/Inc/stm32f1xx_ll_tim.h **** #endif
  27:Drivers/STM32F1xx_HAL_Driver/Inc/stm32f1xx_ll_tim.h **** 
  28:Drivers/STM32F1xx_HAL_Driver/Inc/stm32f1xx_ll_tim.h **** /* Includes ------------------------------------------------------------------*/
  29:Drivers/STM32F1xx_HAL_Driver/Inc/stm32f1xx_ll_tim.h **** #include "stm32f1xx.h"
  30:Drivers/STM32F1xx_HAL_Driver/Inc/stm32f1xx_ll_tim.h **** 
  31:Drivers/STM32F1xx_HAL_Driver/Inc/stm32f1xx_ll_tim.h **** /** @addtogroup STM32F1xx_LL_Driver
  32:Drivers/STM32F1xx_HAL_Driver/Inc/stm32f1xx_ll_tim.h ****   * @{
  33:Drivers/STM32F1xx_HAL_Driver/Inc/stm32f1xx_ll_tim.h ****   */
  34:Drivers/STM32F1xx_HAL_Driver/Inc/stm32f1xx_ll_tim.h **** 
  35:Drivers/STM32F1xx_HAL_Driver/Inc/stm32f1xx_ll_tim.h **** #if defined (TIM1) || defined (TIM2) || defined (TIM3) || defined (TIM4) || defined (TIM5) || defin
  36:Drivers/STM32F1xx_HAL_Driver/Inc/stm32f1xx_ll_tim.h **** 
  37:Drivers/STM32F1xx_HAL_Driver/Inc/stm32f1xx_ll_tim.h **** /** @defgroup TIM_LL TIM
  38:Drivers/STM32F1xx_HAL_Driver/Inc/stm32f1xx_ll_tim.h ****   * @{
  39:Drivers/STM32F1xx_HAL_Driver/Inc/stm32f1xx_ll_tim.h ****   */
  40:Drivers/STM32F1xx_HAL_Driver/Inc/stm32f1xx_ll_tim.h **** 
  41:Drivers/STM32F1xx_HAL_Driver/Inc/stm32f1xx_ll_tim.h **** /* Private types -------------------------------------------------------------*/
  42:Drivers/STM32F1xx_HAL_Driver/Inc/stm32f1xx_ll_tim.h **** /* Private variables ---------------------------------------------------------*/
  43:Drivers/STM32F1xx_HAL_Driver/Inc/stm32f1xx_ll_tim.h **** /** @defgroup TIM_LL_Private_Variables TIM Private Variables
  44:Drivers/STM32F1xx_HAL_Driver/Inc/stm32f1xx_ll_tim.h ****   * @{
  45:Drivers/STM32F1xx_HAL_Driver/Inc/stm32f1xx_ll_tim.h ****   */
  46:Drivers/STM32F1xx_HAL_Driver/Inc/stm32f1xx_ll_tim.h **** static const uint8_t OFFSET_TAB_CCMRx[] =
  47:Drivers/STM32F1xx_HAL_Driver/Inc/stm32f1xx_ll_tim.h **** {
  48:Drivers/STM32F1xx_HAL_Driver/Inc/stm32f1xx_ll_tim.h ****   0x00U,   /* 0: TIMx_CH1  */
  49:Drivers/STM32F1xx_HAL_Driver/Inc/stm32f1xx_ll_tim.h ****   0x00U,   /* 1: TIMx_CH1N */
  50:Drivers/STM32F1xx_HAL_Driver/Inc/stm32f1xx_ll_tim.h ****   0x00U,   /* 2: TIMx_CH2  */
  51:Drivers/STM32F1xx_HAL_Driver/Inc/stm32f1xx_ll_tim.h ****   0x00U,   /* 3: TIMx_CH2N */
  52:Drivers/STM32F1xx_HAL_Driver/Inc/stm32f1xx_ll_tim.h ****   0x04U,   /* 4: TIMx_CH3  */
  53:Drivers/STM32F1xx_HAL_Driver/Inc/stm32f1xx_ll_tim.h ****   0x04U,   /* 5: TIMx_CH3N */
  54:Drivers/STM32F1xx_HAL_Driver/Inc/stm32f1xx_ll_tim.h ****   0x04U    /* 6: TIMx_CH4  */
  55:Drivers/STM32F1xx_HAL_Driver/Inc/stm32f1xx_ll_tim.h **** };
  56:Drivers/STM32F1xx_HAL_Driver/Inc/stm32f1xx_ll_tim.h **** 
  57:Drivers/STM32F1xx_HAL_Driver/Inc/stm32f1xx_ll_tim.h **** static const uint8_t SHIFT_TAB_OCxx[] =
  58:Drivers/STM32F1xx_HAL_Driver/Inc/stm32f1xx_ll_tim.h **** {
  59:Drivers/STM32F1xx_HAL_Driver/Inc/stm32f1xx_ll_tim.h ****   0U,            /* 0: OC1M, OC1FE, OC1PE */
  60:Drivers/STM32F1xx_HAL_Driver/Inc/stm32f1xx_ll_tim.h ****   0U,            /* 1: - NA */
  61:Drivers/STM32F1xx_HAL_Driver/Inc/stm32f1xx_ll_tim.h ****   8U,            /* 2: OC2M, OC2FE, OC2PE */
  62:Drivers/STM32F1xx_HAL_Driver/Inc/stm32f1xx_ll_tim.h ****   0U,            /* 3: - NA */
  63:Drivers/STM32F1xx_HAL_Driver/Inc/stm32f1xx_ll_tim.h ****   0U,            /* 4: OC3M, OC3FE, OC3PE */
  64:Drivers/STM32F1xx_HAL_Driver/Inc/stm32f1xx_ll_tim.h ****   0U,            /* 5: - NA */
  65:Drivers/STM32F1xx_HAL_Driver/Inc/stm32f1xx_ll_tim.h ****   8U             /* 6: OC4M, OC4FE, OC4PE */
  66:Drivers/STM32F1xx_HAL_Driver/Inc/stm32f1xx_ll_tim.h **** };
  67:Drivers/STM32F1xx_HAL_Driver/Inc/stm32f1xx_ll_tim.h **** 
  68:Drivers/STM32F1xx_HAL_Driver/Inc/stm32f1xx_ll_tim.h **** static const uint8_t SHIFT_TAB_ICxx[] =
  69:Drivers/STM32F1xx_HAL_Driver/Inc/stm32f1xx_ll_tim.h **** {
  70:Drivers/STM32F1xx_HAL_Driver/Inc/stm32f1xx_ll_tim.h ****   0U,            /* 0: CC1S, IC1PSC, IC1F */
  71:Drivers/STM32F1xx_HAL_Driver/Inc/stm32f1xx_ll_tim.h ****   0U,            /* 1: - NA */
  72:Drivers/STM32F1xx_HAL_Driver/Inc/stm32f1xx_ll_tim.h ****   8U,            /* 2: CC2S, IC2PSC, IC2F */
  73:Drivers/STM32F1xx_HAL_Driver/Inc/stm32f1xx_ll_tim.h ****   0U,            /* 3: - NA */
  74:Drivers/STM32F1xx_HAL_Driver/Inc/stm32f1xx_ll_tim.h ****   0U,            /* 4: CC3S, IC3PSC, IC3F */
  75:Drivers/STM32F1xx_HAL_Driver/Inc/stm32f1xx_ll_tim.h ****   0U,            /* 5: - NA */
  76:Drivers/STM32F1xx_HAL_Driver/Inc/stm32f1xx_ll_tim.h ****   8U             /* 6: CC4S, IC4PSC, IC4F */
ARM GAS  /var/folders/m1/3lv6xmzs0mlckxs4mx90nfb40000gn/T//cczUMWYd.s 			page 42


  77:Drivers/STM32F1xx_HAL_Driver/Inc/stm32f1xx_ll_tim.h **** };
  78:Drivers/STM32F1xx_HAL_Driver/Inc/stm32f1xx_ll_tim.h **** 
  79:Drivers/STM32F1xx_HAL_Driver/Inc/stm32f1xx_ll_tim.h **** static const uint8_t SHIFT_TAB_CCxP[] =
  80:Drivers/STM32F1xx_HAL_Driver/Inc/stm32f1xx_ll_tim.h **** {
  81:Drivers/STM32F1xx_HAL_Driver/Inc/stm32f1xx_ll_tim.h ****   0U,            /* 0: CC1P */
  82:Drivers/STM32F1xx_HAL_Driver/Inc/stm32f1xx_ll_tim.h ****   2U,            /* 1: CC1NP */
  83:Drivers/STM32F1xx_HAL_Driver/Inc/stm32f1xx_ll_tim.h ****   4U,            /* 2: CC2P */
  84:Drivers/STM32F1xx_HAL_Driver/Inc/stm32f1xx_ll_tim.h ****   6U,            /* 3: CC2NP */
  85:Drivers/STM32F1xx_HAL_Driver/Inc/stm32f1xx_ll_tim.h ****   8U,            /* 4: CC3P */
  86:Drivers/STM32F1xx_HAL_Driver/Inc/stm32f1xx_ll_tim.h ****   10U,           /* 5: CC3NP */
  87:Drivers/STM32F1xx_HAL_Driver/Inc/stm32f1xx_ll_tim.h ****   12U            /* 6: CC4P */
  88:Drivers/STM32F1xx_HAL_Driver/Inc/stm32f1xx_ll_tim.h **** };
  89:Drivers/STM32F1xx_HAL_Driver/Inc/stm32f1xx_ll_tim.h **** 
  90:Drivers/STM32F1xx_HAL_Driver/Inc/stm32f1xx_ll_tim.h **** static const uint8_t SHIFT_TAB_OISx[] =
  91:Drivers/STM32F1xx_HAL_Driver/Inc/stm32f1xx_ll_tim.h **** {
  92:Drivers/STM32F1xx_HAL_Driver/Inc/stm32f1xx_ll_tim.h ****   0U,            /* 0: OIS1 */
  93:Drivers/STM32F1xx_HAL_Driver/Inc/stm32f1xx_ll_tim.h ****   1U,            /* 1: OIS1N */
  94:Drivers/STM32F1xx_HAL_Driver/Inc/stm32f1xx_ll_tim.h ****   2U,            /* 2: OIS2 */
  95:Drivers/STM32F1xx_HAL_Driver/Inc/stm32f1xx_ll_tim.h ****   3U,            /* 3: OIS2N */
  96:Drivers/STM32F1xx_HAL_Driver/Inc/stm32f1xx_ll_tim.h ****   4U,            /* 4: OIS3 */
  97:Drivers/STM32F1xx_HAL_Driver/Inc/stm32f1xx_ll_tim.h ****   5U,            /* 5: OIS3N */
  98:Drivers/STM32F1xx_HAL_Driver/Inc/stm32f1xx_ll_tim.h ****   6U             /* 6: OIS4 */
  99:Drivers/STM32F1xx_HAL_Driver/Inc/stm32f1xx_ll_tim.h **** };
 100:Drivers/STM32F1xx_HAL_Driver/Inc/stm32f1xx_ll_tim.h **** /**
 101:Drivers/STM32F1xx_HAL_Driver/Inc/stm32f1xx_ll_tim.h ****   * @}
 102:Drivers/STM32F1xx_HAL_Driver/Inc/stm32f1xx_ll_tim.h ****   */
 103:Drivers/STM32F1xx_HAL_Driver/Inc/stm32f1xx_ll_tim.h **** 
 104:Drivers/STM32F1xx_HAL_Driver/Inc/stm32f1xx_ll_tim.h **** /* Private constants ---------------------------------------------------------*/
 105:Drivers/STM32F1xx_HAL_Driver/Inc/stm32f1xx_ll_tim.h **** /** @defgroup TIM_LL_Private_Constants TIM Private Constants
 106:Drivers/STM32F1xx_HAL_Driver/Inc/stm32f1xx_ll_tim.h ****   * @{
 107:Drivers/STM32F1xx_HAL_Driver/Inc/stm32f1xx_ll_tim.h ****   */
 108:Drivers/STM32F1xx_HAL_Driver/Inc/stm32f1xx_ll_tim.h **** 
 109:Drivers/STM32F1xx_HAL_Driver/Inc/stm32f1xx_ll_tim.h **** 
 110:Drivers/STM32F1xx_HAL_Driver/Inc/stm32f1xx_ll_tim.h **** 
 111:Drivers/STM32F1xx_HAL_Driver/Inc/stm32f1xx_ll_tim.h **** /* Mask used to set the TDG[x:0] of the DTG bits of the TIMx_BDTR register */
 112:Drivers/STM32F1xx_HAL_Driver/Inc/stm32f1xx_ll_tim.h **** #define DT_DELAY_1 ((uint8_t)0x7F)
 113:Drivers/STM32F1xx_HAL_Driver/Inc/stm32f1xx_ll_tim.h **** #define DT_DELAY_2 ((uint8_t)0x3F)
 114:Drivers/STM32F1xx_HAL_Driver/Inc/stm32f1xx_ll_tim.h **** #define DT_DELAY_3 ((uint8_t)0x1F)
 115:Drivers/STM32F1xx_HAL_Driver/Inc/stm32f1xx_ll_tim.h **** #define DT_DELAY_4 ((uint8_t)0x1F)
 116:Drivers/STM32F1xx_HAL_Driver/Inc/stm32f1xx_ll_tim.h **** 
 117:Drivers/STM32F1xx_HAL_Driver/Inc/stm32f1xx_ll_tim.h **** /* Mask used to set the DTG[7:5] bits of the DTG bits of the TIMx_BDTR register */
 118:Drivers/STM32F1xx_HAL_Driver/Inc/stm32f1xx_ll_tim.h **** #define DT_RANGE_1 ((uint8_t)0x00)
 119:Drivers/STM32F1xx_HAL_Driver/Inc/stm32f1xx_ll_tim.h **** #define DT_RANGE_2 ((uint8_t)0x80)
 120:Drivers/STM32F1xx_HAL_Driver/Inc/stm32f1xx_ll_tim.h **** #define DT_RANGE_3 ((uint8_t)0xC0)
 121:Drivers/STM32F1xx_HAL_Driver/Inc/stm32f1xx_ll_tim.h **** #define DT_RANGE_4 ((uint8_t)0xE0)
 122:Drivers/STM32F1xx_HAL_Driver/Inc/stm32f1xx_ll_tim.h **** 
 123:Drivers/STM32F1xx_HAL_Driver/Inc/stm32f1xx_ll_tim.h **** 
 124:Drivers/STM32F1xx_HAL_Driver/Inc/stm32f1xx_ll_tim.h **** /**
 125:Drivers/STM32F1xx_HAL_Driver/Inc/stm32f1xx_ll_tim.h ****   * @}
 126:Drivers/STM32F1xx_HAL_Driver/Inc/stm32f1xx_ll_tim.h ****   */
 127:Drivers/STM32F1xx_HAL_Driver/Inc/stm32f1xx_ll_tim.h **** 
 128:Drivers/STM32F1xx_HAL_Driver/Inc/stm32f1xx_ll_tim.h **** /* Private macros ------------------------------------------------------------*/
 129:Drivers/STM32F1xx_HAL_Driver/Inc/stm32f1xx_ll_tim.h **** /** @defgroup TIM_LL_Private_Macros TIM Private Macros
 130:Drivers/STM32F1xx_HAL_Driver/Inc/stm32f1xx_ll_tim.h ****   * @{
 131:Drivers/STM32F1xx_HAL_Driver/Inc/stm32f1xx_ll_tim.h ****   */
 132:Drivers/STM32F1xx_HAL_Driver/Inc/stm32f1xx_ll_tim.h **** /** @brief  Convert channel id into channel index.
 133:Drivers/STM32F1xx_HAL_Driver/Inc/stm32f1xx_ll_tim.h ****   * @param  __CHANNEL__ This parameter can be one of the following values:
ARM GAS  /var/folders/m1/3lv6xmzs0mlckxs4mx90nfb40000gn/T//cczUMWYd.s 			page 43


 134:Drivers/STM32F1xx_HAL_Driver/Inc/stm32f1xx_ll_tim.h ****   *         @arg @ref LL_TIM_CHANNEL_CH1
 135:Drivers/STM32F1xx_HAL_Driver/Inc/stm32f1xx_ll_tim.h ****   *         @arg @ref LL_TIM_CHANNEL_CH1N
 136:Drivers/STM32F1xx_HAL_Driver/Inc/stm32f1xx_ll_tim.h ****   *         @arg @ref LL_TIM_CHANNEL_CH2
 137:Drivers/STM32F1xx_HAL_Driver/Inc/stm32f1xx_ll_tim.h ****   *         @arg @ref LL_TIM_CHANNEL_CH2N
 138:Drivers/STM32F1xx_HAL_Driver/Inc/stm32f1xx_ll_tim.h ****   *         @arg @ref LL_TIM_CHANNEL_CH3
 139:Drivers/STM32F1xx_HAL_Driver/Inc/stm32f1xx_ll_tim.h ****   *         @arg @ref LL_TIM_CHANNEL_CH3N
 140:Drivers/STM32F1xx_HAL_Driver/Inc/stm32f1xx_ll_tim.h ****   *         @arg @ref LL_TIM_CHANNEL_CH4
 141:Drivers/STM32F1xx_HAL_Driver/Inc/stm32f1xx_ll_tim.h ****   * @retval none
 142:Drivers/STM32F1xx_HAL_Driver/Inc/stm32f1xx_ll_tim.h ****   */
 143:Drivers/STM32F1xx_HAL_Driver/Inc/stm32f1xx_ll_tim.h **** #define TIM_GET_CHANNEL_INDEX( __CHANNEL__) \
 144:Drivers/STM32F1xx_HAL_Driver/Inc/stm32f1xx_ll_tim.h ****   (((__CHANNEL__) == LL_TIM_CHANNEL_CH1) ? 0U :\
 145:Drivers/STM32F1xx_HAL_Driver/Inc/stm32f1xx_ll_tim.h ****    ((__CHANNEL__) == LL_TIM_CHANNEL_CH1N) ? 1U :\
 146:Drivers/STM32F1xx_HAL_Driver/Inc/stm32f1xx_ll_tim.h ****    ((__CHANNEL__) == LL_TIM_CHANNEL_CH2) ? 2U :\
 147:Drivers/STM32F1xx_HAL_Driver/Inc/stm32f1xx_ll_tim.h ****    ((__CHANNEL__) == LL_TIM_CHANNEL_CH2N) ? 3U :\
 148:Drivers/STM32F1xx_HAL_Driver/Inc/stm32f1xx_ll_tim.h ****    ((__CHANNEL__) == LL_TIM_CHANNEL_CH3) ? 4U :\
 149:Drivers/STM32F1xx_HAL_Driver/Inc/stm32f1xx_ll_tim.h ****    ((__CHANNEL__) == LL_TIM_CHANNEL_CH3N) ? 5U : 6U)
 150:Drivers/STM32F1xx_HAL_Driver/Inc/stm32f1xx_ll_tim.h **** 
 151:Drivers/STM32F1xx_HAL_Driver/Inc/stm32f1xx_ll_tim.h **** /** @brief  Calculate the deadtime sampling period(in ps).
 152:Drivers/STM32F1xx_HAL_Driver/Inc/stm32f1xx_ll_tim.h ****   * @param  __TIMCLK__ timer input clock frequency (in Hz).
 153:Drivers/STM32F1xx_HAL_Driver/Inc/stm32f1xx_ll_tim.h ****   * @param  __CKD__ This parameter can be one of the following values:
 154:Drivers/STM32F1xx_HAL_Driver/Inc/stm32f1xx_ll_tim.h ****   *         @arg @ref LL_TIM_CLOCKDIVISION_DIV1
 155:Drivers/STM32F1xx_HAL_Driver/Inc/stm32f1xx_ll_tim.h ****   *         @arg @ref LL_TIM_CLOCKDIVISION_DIV2
 156:Drivers/STM32F1xx_HAL_Driver/Inc/stm32f1xx_ll_tim.h ****   *         @arg @ref LL_TIM_CLOCKDIVISION_DIV4
 157:Drivers/STM32F1xx_HAL_Driver/Inc/stm32f1xx_ll_tim.h ****   * @retval none
 158:Drivers/STM32F1xx_HAL_Driver/Inc/stm32f1xx_ll_tim.h ****   */
 159:Drivers/STM32F1xx_HAL_Driver/Inc/stm32f1xx_ll_tim.h **** #define TIM_CALC_DTS(__TIMCLK__, __CKD__)                                                        \
 160:Drivers/STM32F1xx_HAL_Driver/Inc/stm32f1xx_ll_tim.h ****   (((__CKD__) == LL_TIM_CLOCKDIVISION_DIV1) ? ((uint64_t)1000000000000U/(__TIMCLK__))         : \
 161:Drivers/STM32F1xx_HAL_Driver/Inc/stm32f1xx_ll_tim.h ****    ((__CKD__) == LL_TIM_CLOCKDIVISION_DIV2) ? ((uint64_t)1000000000000U/((__TIMCLK__) >> 1U)) : \
 162:Drivers/STM32F1xx_HAL_Driver/Inc/stm32f1xx_ll_tim.h ****    ((uint64_t)1000000000000U/((__TIMCLK__) >> 2U)))
 163:Drivers/STM32F1xx_HAL_Driver/Inc/stm32f1xx_ll_tim.h **** /**
 164:Drivers/STM32F1xx_HAL_Driver/Inc/stm32f1xx_ll_tim.h ****   * @}
 165:Drivers/STM32F1xx_HAL_Driver/Inc/stm32f1xx_ll_tim.h ****   */
 166:Drivers/STM32F1xx_HAL_Driver/Inc/stm32f1xx_ll_tim.h **** 
 167:Drivers/STM32F1xx_HAL_Driver/Inc/stm32f1xx_ll_tim.h **** 
 168:Drivers/STM32F1xx_HAL_Driver/Inc/stm32f1xx_ll_tim.h **** /* Exported types ------------------------------------------------------------*/
 169:Drivers/STM32F1xx_HAL_Driver/Inc/stm32f1xx_ll_tim.h **** #if defined(USE_FULL_LL_DRIVER)
 170:Drivers/STM32F1xx_HAL_Driver/Inc/stm32f1xx_ll_tim.h **** /** @defgroup TIM_LL_ES_INIT TIM Exported Init structure
 171:Drivers/STM32F1xx_HAL_Driver/Inc/stm32f1xx_ll_tim.h ****   * @{
 172:Drivers/STM32F1xx_HAL_Driver/Inc/stm32f1xx_ll_tim.h ****   */
 173:Drivers/STM32F1xx_HAL_Driver/Inc/stm32f1xx_ll_tim.h **** 
 174:Drivers/STM32F1xx_HAL_Driver/Inc/stm32f1xx_ll_tim.h **** /**
 175:Drivers/STM32F1xx_HAL_Driver/Inc/stm32f1xx_ll_tim.h ****   * @brief  TIM Time Base configuration structure definition.
 176:Drivers/STM32F1xx_HAL_Driver/Inc/stm32f1xx_ll_tim.h ****   */
 177:Drivers/STM32F1xx_HAL_Driver/Inc/stm32f1xx_ll_tim.h **** typedef struct
 178:Drivers/STM32F1xx_HAL_Driver/Inc/stm32f1xx_ll_tim.h **** {
 179:Drivers/STM32F1xx_HAL_Driver/Inc/stm32f1xx_ll_tim.h ****   uint16_t Prescaler;         /*!< Specifies the prescaler value used to divide the TIM clock.
 180:Drivers/STM32F1xx_HAL_Driver/Inc/stm32f1xx_ll_tim.h ****                                    This parameter can be a number between Min_Data=0x0000 and Max_D
 181:Drivers/STM32F1xx_HAL_Driver/Inc/stm32f1xx_ll_tim.h **** 
 182:Drivers/STM32F1xx_HAL_Driver/Inc/stm32f1xx_ll_tim.h ****                                    This feature can be modified afterwards using unitary function @
 183:Drivers/STM32F1xx_HAL_Driver/Inc/stm32f1xx_ll_tim.h **** 
 184:Drivers/STM32F1xx_HAL_Driver/Inc/stm32f1xx_ll_tim.h ****   uint32_t CounterMode;       /*!< Specifies the counter mode.
 185:Drivers/STM32F1xx_HAL_Driver/Inc/stm32f1xx_ll_tim.h ****                                    This parameter can be a value of @ref TIM_LL_EC_COUNTERMODE.
 186:Drivers/STM32F1xx_HAL_Driver/Inc/stm32f1xx_ll_tim.h **** 
 187:Drivers/STM32F1xx_HAL_Driver/Inc/stm32f1xx_ll_tim.h ****                                    This feature can be modified afterwards using unitary function @
 188:Drivers/STM32F1xx_HAL_Driver/Inc/stm32f1xx_ll_tim.h **** 
 189:Drivers/STM32F1xx_HAL_Driver/Inc/stm32f1xx_ll_tim.h ****   uint32_t Autoreload;        /*!< Specifies the auto reload value to be loaded into the active
 190:Drivers/STM32F1xx_HAL_Driver/Inc/stm32f1xx_ll_tim.h ****                                    Auto-Reload Register at the next update event.
ARM GAS  /var/folders/m1/3lv6xmzs0mlckxs4mx90nfb40000gn/T//cczUMWYd.s 			page 44


 191:Drivers/STM32F1xx_HAL_Driver/Inc/stm32f1xx_ll_tim.h ****                                    This parameter must be a number between Min_Data=0x0000 and Max_
 192:Drivers/STM32F1xx_HAL_Driver/Inc/stm32f1xx_ll_tim.h ****                                    Some timer instances may support 32 bits counters. In that case 
 193:Drivers/STM32F1xx_HAL_Driver/Inc/stm32f1xx_ll_tim.h **** 
 194:Drivers/STM32F1xx_HAL_Driver/Inc/stm32f1xx_ll_tim.h ****                                    This feature can be modified afterwards using unitary function @
 195:Drivers/STM32F1xx_HAL_Driver/Inc/stm32f1xx_ll_tim.h **** 
 196:Drivers/STM32F1xx_HAL_Driver/Inc/stm32f1xx_ll_tim.h ****   uint32_t ClockDivision;     /*!< Specifies the clock division.
 197:Drivers/STM32F1xx_HAL_Driver/Inc/stm32f1xx_ll_tim.h ****                                    This parameter can be a value of @ref TIM_LL_EC_CLOCKDIVISION.
 198:Drivers/STM32F1xx_HAL_Driver/Inc/stm32f1xx_ll_tim.h **** 
 199:Drivers/STM32F1xx_HAL_Driver/Inc/stm32f1xx_ll_tim.h ****                                    This feature can be modified afterwards using unitary function @
 200:Drivers/STM32F1xx_HAL_Driver/Inc/stm32f1xx_ll_tim.h **** 
 201:Drivers/STM32F1xx_HAL_Driver/Inc/stm32f1xx_ll_tim.h ****   uint8_t RepetitionCounter;  /*!< Specifies the repetition counter value. Each time the RCR downco
 202:Drivers/STM32F1xx_HAL_Driver/Inc/stm32f1xx_ll_tim.h ****                                    reaches zero, an update event is generated and counting restarts
 203:Drivers/STM32F1xx_HAL_Driver/Inc/stm32f1xx_ll_tim.h ****                                    from the RCR value (N).
 204:Drivers/STM32F1xx_HAL_Driver/Inc/stm32f1xx_ll_tim.h ****                                    This means in PWM mode that (N+1) corresponds to:
 205:Drivers/STM32F1xx_HAL_Driver/Inc/stm32f1xx_ll_tim.h ****                                       - the number of PWM periods in edge-aligned mode
 206:Drivers/STM32F1xx_HAL_Driver/Inc/stm32f1xx_ll_tim.h ****                                       - the number of half PWM period in center-aligned mode
 207:Drivers/STM32F1xx_HAL_Driver/Inc/stm32f1xx_ll_tim.h ****                                    This parameter must be a number between 0x00 and 0xFF.
 208:Drivers/STM32F1xx_HAL_Driver/Inc/stm32f1xx_ll_tim.h **** 
 209:Drivers/STM32F1xx_HAL_Driver/Inc/stm32f1xx_ll_tim.h ****                                    This feature can be modified afterwards using unitary function @
 210:Drivers/STM32F1xx_HAL_Driver/Inc/stm32f1xx_ll_tim.h **** } LL_TIM_InitTypeDef;
 211:Drivers/STM32F1xx_HAL_Driver/Inc/stm32f1xx_ll_tim.h **** 
 212:Drivers/STM32F1xx_HAL_Driver/Inc/stm32f1xx_ll_tim.h **** /**
 213:Drivers/STM32F1xx_HAL_Driver/Inc/stm32f1xx_ll_tim.h ****   * @brief  TIM Output Compare configuration structure definition.
 214:Drivers/STM32F1xx_HAL_Driver/Inc/stm32f1xx_ll_tim.h ****   */
 215:Drivers/STM32F1xx_HAL_Driver/Inc/stm32f1xx_ll_tim.h **** typedef struct
 216:Drivers/STM32F1xx_HAL_Driver/Inc/stm32f1xx_ll_tim.h **** {
 217:Drivers/STM32F1xx_HAL_Driver/Inc/stm32f1xx_ll_tim.h ****   uint32_t OCMode;        /*!< Specifies the output mode.
 218:Drivers/STM32F1xx_HAL_Driver/Inc/stm32f1xx_ll_tim.h ****                                This parameter can be a value of @ref TIM_LL_EC_OCMODE.
 219:Drivers/STM32F1xx_HAL_Driver/Inc/stm32f1xx_ll_tim.h **** 
 220:Drivers/STM32F1xx_HAL_Driver/Inc/stm32f1xx_ll_tim.h ****                                This feature can be modified afterwards using unitary function @ref 
 221:Drivers/STM32F1xx_HAL_Driver/Inc/stm32f1xx_ll_tim.h **** 
 222:Drivers/STM32F1xx_HAL_Driver/Inc/stm32f1xx_ll_tim.h ****   uint32_t OCState;       /*!< Specifies the TIM Output Compare state.
 223:Drivers/STM32F1xx_HAL_Driver/Inc/stm32f1xx_ll_tim.h ****                                This parameter can be a value of @ref TIM_LL_EC_OCSTATE.
 224:Drivers/STM32F1xx_HAL_Driver/Inc/stm32f1xx_ll_tim.h **** 
 225:Drivers/STM32F1xx_HAL_Driver/Inc/stm32f1xx_ll_tim.h ****                                This feature can be modified afterwards using unitary functions @ref
 226:Drivers/STM32F1xx_HAL_Driver/Inc/stm32f1xx_ll_tim.h **** 
 227:Drivers/STM32F1xx_HAL_Driver/Inc/stm32f1xx_ll_tim.h ****   uint32_t OCNState;      /*!< Specifies the TIM complementary Output Compare state.
 228:Drivers/STM32F1xx_HAL_Driver/Inc/stm32f1xx_ll_tim.h ****                                This parameter can be a value of @ref TIM_LL_EC_OCSTATE.
 229:Drivers/STM32F1xx_HAL_Driver/Inc/stm32f1xx_ll_tim.h **** 
 230:Drivers/STM32F1xx_HAL_Driver/Inc/stm32f1xx_ll_tim.h ****                                This feature can be modified afterwards using unitary functions @ref
 231:Drivers/STM32F1xx_HAL_Driver/Inc/stm32f1xx_ll_tim.h **** 
 232:Drivers/STM32F1xx_HAL_Driver/Inc/stm32f1xx_ll_tim.h ****   uint32_t CompareValue;  /*!< Specifies the Compare value to be loaded into the Capture Compare Re
 233:Drivers/STM32F1xx_HAL_Driver/Inc/stm32f1xx_ll_tim.h ****                                This parameter can be a number between Min_Data=0x0000 and Max_Data=
 234:Drivers/STM32F1xx_HAL_Driver/Inc/stm32f1xx_ll_tim.h **** 
 235:Drivers/STM32F1xx_HAL_Driver/Inc/stm32f1xx_ll_tim.h ****                                This feature can be modified afterwards using unitary function LL_TI
 236:Drivers/STM32F1xx_HAL_Driver/Inc/stm32f1xx_ll_tim.h **** 
 237:Drivers/STM32F1xx_HAL_Driver/Inc/stm32f1xx_ll_tim.h ****   uint32_t OCPolarity;    /*!< Specifies the output polarity.
 238:Drivers/STM32F1xx_HAL_Driver/Inc/stm32f1xx_ll_tim.h ****                                This parameter can be a value of @ref TIM_LL_EC_OCPOLARITY.
 239:Drivers/STM32F1xx_HAL_Driver/Inc/stm32f1xx_ll_tim.h **** 
 240:Drivers/STM32F1xx_HAL_Driver/Inc/stm32f1xx_ll_tim.h ****                                This feature can be modified afterwards using unitary function @ref 
 241:Drivers/STM32F1xx_HAL_Driver/Inc/stm32f1xx_ll_tim.h **** 
 242:Drivers/STM32F1xx_HAL_Driver/Inc/stm32f1xx_ll_tim.h ****   uint32_t OCNPolarity;   /*!< Specifies the complementary output polarity.
 243:Drivers/STM32F1xx_HAL_Driver/Inc/stm32f1xx_ll_tim.h ****                                This parameter can be a value of @ref TIM_LL_EC_OCPOLARITY.
 244:Drivers/STM32F1xx_HAL_Driver/Inc/stm32f1xx_ll_tim.h **** 
 245:Drivers/STM32F1xx_HAL_Driver/Inc/stm32f1xx_ll_tim.h ****                                This feature can be modified afterwards using unitary function @ref 
 246:Drivers/STM32F1xx_HAL_Driver/Inc/stm32f1xx_ll_tim.h **** 
 247:Drivers/STM32F1xx_HAL_Driver/Inc/stm32f1xx_ll_tim.h **** 
ARM GAS  /var/folders/m1/3lv6xmzs0mlckxs4mx90nfb40000gn/T//cczUMWYd.s 			page 45


 248:Drivers/STM32F1xx_HAL_Driver/Inc/stm32f1xx_ll_tim.h ****   uint32_t OCIdleState;   /*!< Specifies the TIM Output Compare pin state during Idle state.
 249:Drivers/STM32F1xx_HAL_Driver/Inc/stm32f1xx_ll_tim.h ****                                This parameter can be a value of @ref TIM_LL_EC_OCIDLESTATE.
 250:Drivers/STM32F1xx_HAL_Driver/Inc/stm32f1xx_ll_tim.h **** 
 251:Drivers/STM32F1xx_HAL_Driver/Inc/stm32f1xx_ll_tim.h ****                                This feature can be modified afterwards using unitary function @ref 
 252:Drivers/STM32F1xx_HAL_Driver/Inc/stm32f1xx_ll_tim.h **** 
 253:Drivers/STM32F1xx_HAL_Driver/Inc/stm32f1xx_ll_tim.h ****   uint32_t OCNIdleState;  /*!< Specifies the TIM Output Compare pin state during Idle state.
 254:Drivers/STM32F1xx_HAL_Driver/Inc/stm32f1xx_ll_tim.h ****                                This parameter can be a value of @ref TIM_LL_EC_OCIDLESTATE.
 255:Drivers/STM32F1xx_HAL_Driver/Inc/stm32f1xx_ll_tim.h **** 
 256:Drivers/STM32F1xx_HAL_Driver/Inc/stm32f1xx_ll_tim.h ****                                This feature can be modified afterwards using unitary function @ref 
 257:Drivers/STM32F1xx_HAL_Driver/Inc/stm32f1xx_ll_tim.h **** } LL_TIM_OC_InitTypeDef;
 258:Drivers/STM32F1xx_HAL_Driver/Inc/stm32f1xx_ll_tim.h **** 
 259:Drivers/STM32F1xx_HAL_Driver/Inc/stm32f1xx_ll_tim.h **** /**
 260:Drivers/STM32F1xx_HAL_Driver/Inc/stm32f1xx_ll_tim.h ****   * @brief  TIM Input Capture configuration structure definition.
 261:Drivers/STM32F1xx_HAL_Driver/Inc/stm32f1xx_ll_tim.h ****   */
 262:Drivers/STM32F1xx_HAL_Driver/Inc/stm32f1xx_ll_tim.h **** 
 263:Drivers/STM32F1xx_HAL_Driver/Inc/stm32f1xx_ll_tim.h **** typedef struct
 264:Drivers/STM32F1xx_HAL_Driver/Inc/stm32f1xx_ll_tim.h **** {
 265:Drivers/STM32F1xx_HAL_Driver/Inc/stm32f1xx_ll_tim.h **** 
 266:Drivers/STM32F1xx_HAL_Driver/Inc/stm32f1xx_ll_tim.h ****   uint32_t ICPolarity;    /*!< Specifies the active edge of the input signal.
 267:Drivers/STM32F1xx_HAL_Driver/Inc/stm32f1xx_ll_tim.h ****                                This parameter can be a value of @ref TIM_LL_EC_IC_POLARITY.
 268:Drivers/STM32F1xx_HAL_Driver/Inc/stm32f1xx_ll_tim.h **** 
 269:Drivers/STM32F1xx_HAL_Driver/Inc/stm32f1xx_ll_tim.h ****                                This feature can be modified afterwards using unitary function @ref 
 270:Drivers/STM32F1xx_HAL_Driver/Inc/stm32f1xx_ll_tim.h **** 
 271:Drivers/STM32F1xx_HAL_Driver/Inc/stm32f1xx_ll_tim.h ****   uint32_t ICActiveInput; /*!< Specifies the input.
 272:Drivers/STM32F1xx_HAL_Driver/Inc/stm32f1xx_ll_tim.h ****                                This parameter can be a value of @ref TIM_LL_EC_ACTIVEINPUT.
 273:Drivers/STM32F1xx_HAL_Driver/Inc/stm32f1xx_ll_tim.h **** 
 274:Drivers/STM32F1xx_HAL_Driver/Inc/stm32f1xx_ll_tim.h ****                                This feature can be modified afterwards using unitary function @ref 
 275:Drivers/STM32F1xx_HAL_Driver/Inc/stm32f1xx_ll_tim.h **** 
 276:Drivers/STM32F1xx_HAL_Driver/Inc/stm32f1xx_ll_tim.h ****   uint32_t ICPrescaler;   /*!< Specifies the Input Capture Prescaler.
 277:Drivers/STM32F1xx_HAL_Driver/Inc/stm32f1xx_ll_tim.h ****                                This parameter can be a value of @ref TIM_LL_EC_ICPSC.
 278:Drivers/STM32F1xx_HAL_Driver/Inc/stm32f1xx_ll_tim.h **** 
 279:Drivers/STM32F1xx_HAL_Driver/Inc/stm32f1xx_ll_tim.h ****                                This feature can be modified afterwards using unitary function @ref 
 280:Drivers/STM32F1xx_HAL_Driver/Inc/stm32f1xx_ll_tim.h **** 
 281:Drivers/STM32F1xx_HAL_Driver/Inc/stm32f1xx_ll_tim.h ****   uint32_t ICFilter;      /*!< Specifies the input capture filter.
 282:Drivers/STM32F1xx_HAL_Driver/Inc/stm32f1xx_ll_tim.h ****                                This parameter can be a value of @ref TIM_LL_EC_IC_FILTER.
 283:Drivers/STM32F1xx_HAL_Driver/Inc/stm32f1xx_ll_tim.h **** 
 284:Drivers/STM32F1xx_HAL_Driver/Inc/stm32f1xx_ll_tim.h ****                                This feature can be modified afterwards using unitary function @ref 
 285:Drivers/STM32F1xx_HAL_Driver/Inc/stm32f1xx_ll_tim.h **** } LL_TIM_IC_InitTypeDef;
 286:Drivers/STM32F1xx_HAL_Driver/Inc/stm32f1xx_ll_tim.h **** 
 287:Drivers/STM32F1xx_HAL_Driver/Inc/stm32f1xx_ll_tim.h **** 
 288:Drivers/STM32F1xx_HAL_Driver/Inc/stm32f1xx_ll_tim.h **** /**
 289:Drivers/STM32F1xx_HAL_Driver/Inc/stm32f1xx_ll_tim.h ****   * @brief  TIM Encoder interface configuration structure definition.
 290:Drivers/STM32F1xx_HAL_Driver/Inc/stm32f1xx_ll_tim.h ****   */
 291:Drivers/STM32F1xx_HAL_Driver/Inc/stm32f1xx_ll_tim.h **** typedef struct
 292:Drivers/STM32F1xx_HAL_Driver/Inc/stm32f1xx_ll_tim.h **** {
 293:Drivers/STM32F1xx_HAL_Driver/Inc/stm32f1xx_ll_tim.h ****   uint32_t EncoderMode;     /*!< Specifies the encoder resolution (x2 or x4).
 294:Drivers/STM32F1xx_HAL_Driver/Inc/stm32f1xx_ll_tim.h ****                                  This parameter can be a value of @ref TIM_LL_EC_ENCODERMODE.
 295:Drivers/STM32F1xx_HAL_Driver/Inc/stm32f1xx_ll_tim.h **** 
 296:Drivers/STM32F1xx_HAL_Driver/Inc/stm32f1xx_ll_tim.h ****                                  This feature can be modified afterwards using unitary function @re
 297:Drivers/STM32F1xx_HAL_Driver/Inc/stm32f1xx_ll_tim.h **** 
 298:Drivers/STM32F1xx_HAL_Driver/Inc/stm32f1xx_ll_tim.h ****   uint32_t IC1Polarity;     /*!< Specifies the active edge of TI1 input.
 299:Drivers/STM32F1xx_HAL_Driver/Inc/stm32f1xx_ll_tim.h ****                                  This parameter can be a value of @ref TIM_LL_EC_IC_POLARITY.
 300:Drivers/STM32F1xx_HAL_Driver/Inc/stm32f1xx_ll_tim.h **** 
 301:Drivers/STM32F1xx_HAL_Driver/Inc/stm32f1xx_ll_tim.h ****                                  This feature can be modified afterwards using unitary function @re
 302:Drivers/STM32F1xx_HAL_Driver/Inc/stm32f1xx_ll_tim.h **** 
 303:Drivers/STM32F1xx_HAL_Driver/Inc/stm32f1xx_ll_tim.h ****   uint32_t IC1ActiveInput;  /*!< Specifies the TI1 input source
 304:Drivers/STM32F1xx_HAL_Driver/Inc/stm32f1xx_ll_tim.h ****                                  This parameter can be a value of @ref TIM_LL_EC_ACTIVEINPUT.
ARM GAS  /var/folders/m1/3lv6xmzs0mlckxs4mx90nfb40000gn/T//cczUMWYd.s 			page 46


 305:Drivers/STM32F1xx_HAL_Driver/Inc/stm32f1xx_ll_tim.h **** 
 306:Drivers/STM32F1xx_HAL_Driver/Inc/stm32f1xx_ll_tim.h ****                                  This feature can be modified afterwards using unitary function @re
 307:Drivers/STM32F1xx_HAL_Driver/Inc/stm32f1xx_ll_tim.h **** 
 308:Drivers/STM32F1xx_HAL_Driver/Inc/stm32f1xx_ll_tim.h ****   uint32_t IC1Prescaler;    /*!< Specifies the TI1 input prescaler value.
 309:Drivers/STM32F1xx_HAL_Driver/Inc/stm32f1xx_ll_tim.h ****                                  This parameter can be a value of @ref TIM_LL_EC_ICPSC.
 310:Drivers/STM32F1xx_HAL_Driver/Inc/stm32f1xx_ll_tim.h **** 
 311:Drivers/STM32F1xx_HAL_Driver/Inc/stm32f1xx_ll_tim.h ****                                  This feature can be modified afterwards using unitary function @re
 312:Drivers/STM32F1xx_HAL_Driver/Inc/stm32f1xx_ll_tim.h **** 
 313:Drivers/STM32F1xx_HAL_Driver/Inc/stm32f1xx_ll_tim.h ****   uint32_t IC1Filter;       /*!< Specifies the TI1 input filter.
 314:Drivers/STM32F1xx_HAL_Driver/Inc/stm32f1xx_ll_tim.h ****                                  This parameter can be a value of @ref TIM_LL_EC_IC_FILTER.
 315:Drivers/STM32F1xx_HAL_Driver/Inc/stm32f1xx_ll_tim.h **** 
 316:Drivers/STM32F1xx_HAL_Driver/Inc/stm32f1xx_ll_tim.h ****                                  This feature can be modified afterwards using unitary function @re
 317:Drivers/STM32F1xx_HAL_Driver/Inc/stm32f1xx_ll_tim.h **** 
 318:Drivers/STM32F1xx_HAL_Driver/Inc/stm32f1xx_ll_tim.h ****   uint32_t IC2Polarity;      /*!< Specifies the active edge of TI2 input.
 319:Drivers/STM32F1xx_HAL_Driver/Inc/stm32f1xx_ll_tim.h ****                                  This parameter can be a value of @ref TIM_LL_EC_IC_POLARITY.
 320:Drivers/STM32F1xx_HAL_Driver/Inc/stm32f1xx_ll_tim.h **** 
 321:Drivers/STM32F1xx_HAL_Driver/Inc/stm32f1xx_ll_tim.h ****                                  This feature can be modified afterwards using unitary function @re
 322:Drivers/STM32F1xx_HAL_Driver/Inc/stm32f1xx_ll_tim.h **** 
 323:Drivers/STM32F1xx_HAL_Driver/Inc/stm32f1xx_ll_tim.h ****   uint32_t IC2ActiveInput;  /*!< Specifies the TI2 input source
 324:Drivers/STM32F1xx_HAL_Driver/Inc/stm32f1xx_ll_tim.h ****                                  This parameter can be a value of @ref TIM_LL_EC_ACTIVEINPUT.
 325:Drivers/STM32F1xx_HAL_Driver/Inc/stm32f1xx_ll_tim.h **** 
 326:Drivers/STM32F1xx_HAL_Driver/Inc/stm32f1xx_ll_tim.h ****                                  This feature can be modified afterwards using unitary function @re
 327:Drivers/STM32F1xx_HAL_Driver/Inc/stm32f1xx_ll_tim.h **** 
 328:Drivers/STM32F1xx_HAL_Driver/Inc/stm32f1xx_ll_tim.h ****   uint32_t IC2Prescaler;    /*!< Specifies the TI2 input prescaler value.
 329:Drivers/STM32F1xx_HAL_Driver/Inc/stm32f1xx_ll_tim.h ****                                  This parameter can be a value of @ref TIM_LL_EC_ICPSC.
 330:Drivers/STM32F1xx_HAL_Driver/Inc/stm32f1xx_ll_tim.h **** 
 331:Drivers/STM32F1xx_HAL_Driver/Inc/stm32f1xx_ll_tim.h ****                                  This feature can be modified afterwards using unitary function @re
 332:Drivers/STM32F1xx_HAL_Driver/Inc/stm32f1xx_ll_tim.h **** 
 333:Drivers/STM32F1xx_HAL_Driver/Inc/stm32f1xx_ll_tim.h ****   uint32_t IC2Filter;       /*!< Specifies the TI2 input filter.
 334:Drivers/STM32F1xx_HAL_Driver/Inc/stm32f1xx_ll_tim.h ****                                  This parameter can be a value of @ref TIM_LL_EC_IC_FILTER.
 335:Drivers/STM32F1xx_HAL_Driver/Inc/stm32f1xx_ll_tim.h **** 
 336:Drivers/STM32F1xx_HAL_Driver/Inc/stm32f1xx_ll_tim.h ****                                  This feature can be modified afterwards using unitary function @re
 337:Drivers/STM32F1xx_HAL_Driver/Inc/stm32f1xx_ll_tim.h **** 
 338:Drivers/STM32F1xx_HAL_Driver/Inc/stm32f1xx_ll_tim.h **** } LL_TIM_ENCODER_InitTypeDef;
 339:Drivers/STM32F1xx_HAL_Driver/Inc/stm32f1xx_ll_tim.h **** 
 340:Drivers/STM32F1xx_HAL_Driver/Inc/stm32f1xx_ll_tim.h **** /**
 341:Drivers/STM32F1xx_HAL_Driver/Inc/stm32f1xx_ll_tim.h ****   * @brief  TIM Hall sensor interface configuration structure definition.
 342:Drivers/STM32F1xx_HAL_Driver/Inc/stm32f1xx_ll_tim.h ****   */
 343:Drivers/STM32F1xx_HAL_Driver/Inc/stm32f1xx_ll_tim.h **** typedef struct
 344:Drivers/STM32F1xx_HAL_Driver/Inc/stm32f1xx_ll_tim.h **** {
 345:Drivers/STM32F1xx_HAL_Driver/Inc/stm32f1xx_ll_tim.h **** 
 346:Drivers/STM32F1xx_HAL_Driver/Inc/stm32f1xx_ll_tim.h ****   uint32_t IC1Polarity;        /*!< Specifies the active edge of TI1 input.
 347:Drivers/STM32F1xx_HAL_Driver/Inc/stm32f1xx_ll_tim.h ****                                     This parameter can be a value of @ref TIM_LL_EC_IC_POLARITY.
 348:Drivers/STM32F1xx_HAL_Driver/Inc/stm32f1xx_ll_tim.h **** 
 349:Drivers/STM32F1xx_HAL_Driver/Inc/stm32f1xx_ll_tim.h ****                                     This feature can be modified afterwards using unitary function 
 350:Drivers/STM32F1xx_HAL_Driver/Inc/stm32f1xx_ll_tim.h **** 
 351:Drivers/STM32F1xx_HAL_Driver/Inc/stm32f1xx_ll_tim.h ****   uint32_t IC1Prescaler;       /*!< Specifies the TI1 input prescaler value.
 352:Drivers/STM32F1xx_HAL_Driver/Inc/stm32f1xx_ll_tim.h ****                                     Prescaler must be set to get a maximum counter period longer th
 353:Drivers/STM32F1xx_HAL_Driver/Inc/stm32f1xx_ll_tim.h ****                                     time interval between 2 consecutive changes on the Hall inputs.
 354:Drivers/STM32F1xx_HAL_Driver/Inc/stm32f1xx_ll_tim.h ****                                     This parameter can be a value of @ref TIM_LL_EC_ICPSC.
 355:Drivers/STM32F1xx_HAL_Driver/Inc/stm32f1xx_ll_tim.h **** 
 356:Drivers/STM32F1xx_HAL_Driver/Inc/stm32f1xx_ll_tim.h ****                                     This feature can be modified afterwards using unitary function 
 357:Drivers/STM32F1xx_HAL_Driver/Inc/stm32f1xx_ll_tim.h **** 
 358:Drivers/STM32F1xx_HAL_Driver/Inc/stm32f1xx_ll_tim.h ****   uint32_t IC1Filter;          /*!< Specifies the TI1 input filter.
 359:Drivers/STM32F1xx_HAL_Driver/Inc/stm32f1xx_ll_tim.h ****                                     This parameter can be a value of @ref TIM_LL_EC_IC_FILTER.
 360:Drivers/STM32F1xx_HAL_Driver/Inc/stm32f1xx_ll_tim.h **** 
 361:Drivers/STM32F1xx_HAL_Driver/Inc/stm32f1xx_ll_tim.h ****                                     This feature can be modified afterwards using unitary function 
ARM GAS  /var/folders/m1/3lv6xmzs0mlckxs4mx90nfb40000gn/T//cczUMWYd.s 			page 47


 362:Drivers/STM32F1xx_HAL_Driver/Inc/stm32f1xx_ll_tim.h **** 
 363:Drivers/STM32F1xx_HAL_Driver/Inc/stm32f1xx_ll_tim.h ****   uint32_t CommutationDelay;   /*!< Specifies the compare value to be loaded into the Capture Compa
 364:Drivers/STM32F1xx_HAL_Driver/Inc/stm32f1xx_ll_tim.h ****                                     A positive pulse (TRGO event) is generated with a programmable 
 365:Drivers/STM32F1xx_HAL_Driver/Inc/stm32f1xx_ll_tim.h ****                                     a change occurs on the Hall inputs.
 366:Drivers/STM32F1xx_HAL_Driver/Inc/stm32f1xx_ll_tim.h ****                                     This parameter can be a number between Min_Data = 0x0000 and Ma
 367:Drivers/STM32F1xx_HAL_Driver/Inc/stm32f1xx_ll_tim.h **** 
 368:Drivers/STM32F1xx_HAL_Driver/Inc/stm32f1xx_ll_tim.h ****                                     This feature can be modified afterwards using unitary function 
 369:Drivers/STM32F1xx_HAL_Driver/Inc/stm32f1xx_ll_tim.h **** } LL_TIM_HALLSENSOR_InitTypeDef;
 370:Drivers/STM32F1xx_HAL_Driver/Inc/stm32f1xx_ll_tim.h **** 
 371:Drivers/STM32F1xx_HAL_Driver/Inc/stm32f1xx_ll_tim.h **** /**
 372:Drivers/STM32F1xx_HAL_Driver/Inc/stm32f1xx_ll_tim.h ****   * @brief  BDTR (Break and Dead Time) structure definition
 373:Drivers/STM32F1xx_HAL_Driver/Inc/stm32f1xx_ll_tim.h ****   */
 374:Drivers/STM32F1xx_HAL_Driver/Inc/stm32f1xx_ll_tim.h **** typedef struct
 375:Drivers/STM32F1xx_HAL_Driver/Inc/stm32f1xx_ll_tim.h **** {
 376:Drivers/STM32F1xx_HAL_Driver/Inc/stm32f1xx_ll_tim.h ****   uint32_t OSSRState;            /*!< Specifies the Off-State selection used in Run mode.
 377:Drivers/STM32F1xx_HAL_Driver/Inc/stm32f1xx_ll_tim.h ****                                       This parameter can be a value of @ref TIM_LL_EC_OSSR
 378:Drivers/STM32F1xx_HAL_Driver/Inc/stm32f1xx_ll_tim.h **** 
 379:Drivers/STM32F1xx_HAL_Driver/Inc/stm32f1xx_ll_tim.h ****                                       This feature can be modified afterwards using unitary functio
 380:Drivers/STM32F1xx_HAL_Driver/Inc/stm32f1xx_ll_tim.h **** 
 381:Drivers/STM32F1xx_HAL_Driver/Inc/stm32f1xx_ll_tim.h ****                                       @note This bit-field cannot be modified as long as LOCK level
 382:Drivers/STM32F1xx_HAL_Driver/Inc/stm32f1xx_ll_tim.h **** 
 383:Drivers/STM32F1xx_HAL_Driver/Inc/stm32f1xx_ll_tim.h ****   uint32_t OSSIState;            /*!< Specifies the Off-State used in Idle state.
 384:Drivers/STM32F1xx_HAL_Driver/Inc/stm32f1xx_ll_tim.h ****                                       This parameter can be a value of @ref TIM_LL_EC_OSSI
 385:Drivers/STM32F1xx_HAL_Driver/Inc/stm32f1xx_ll_tim.h **** 
 386:Drivers/STM32F1xx_HAL_Driver/Inc/stm32f1xx_ll_tim.h ****                                       This feature can be modified afterwards using unitary functio
 387:Drivers/STM32F1xx_HAL_Driver/Inc/stm32f1xx_ll_tim.h **** 
 388:Drivers/STM32F1xx_HAL_Driver/Inc/stm32f1xx_ll_tim.h ****                                       @note This bit-field cannot be modified as long as LOCK level
 389:Drivers/STM32F1xx_HAL_Driver/Inc/stm32f1xx_ll_tim.h **** 
 390:Drivers/STM32F1xx_HAL_Driver/Inc/stm32f1xx_ll_tim.h ****   uint32_t LockLevel;            /*!< Specifies the LOCK level parameters.
 391:Drivers/STM32F1xx_HAL_Driver/Inc/stm32f1xx_ll_tim.h ****                                       This parameter can be a value of @ref TIM_LL_EC_LOCKLEVEL
 392:Drivers/STM32F1xx_HAL_Driver/Inc/stm32f1xx_ll_tim.h **** 
 393:Drivers/STM32F1xx_HAL_Driver/Inc/stm32f1xx_ll_tim.h ****                                       @note The LOCK bits can be written only once after the reset.
 394:Drivers/STM32F1xx_HAL_Driver/Inc/stm32f1xx_ll_tim.h ****                                             has been written, their content is frozen until the nex
 395:Drivers/STM32F1xx_HAL_Driver/Inc/stm32f1xx_ll_tim.h **** 
 396:Drivers/STM32F1xx_HAL_Driver/Inc/stm32f1xx_ll_tim.h ****   uint8_t DeadTime;              /*!< Specifies the delay time between the switching-off and the
 397:Drivers/STM32F1xx_HAL_Driver/Inc/stm32f1xx_ll_tim.h ****                                       switching-on of the outputs.
 398:Drivers/STM32F1xx_HAL_Driver/Inc/stm32f1xx_ll_tim.h ****                                       This parameter can be a number between Min_Data = 0x00 and Ma
 399:Drivers/STM32F1xx_HAL_Driver/Inc/stm32f1xx_ll_tim.h **** 
 400:Drivers/STM32F1xx_HAL_Driver/Inc/stm32f1xx_ll_tim.h ****                                       This feature can be modified afterwards using unitary functio
 401:Drivers/STM32F1xx_HAL_Driver/Inc/stm32f1xx_ll_tim.h **** 
 402:Drivers/STM32F1xx_HAL_Driver/Inc/stm32f1xx_ll_tim.h ****                                       @note This bit-field can not be modified as long as LOCK leve
 403:Drivers/STM32F1xx_HAL_Driver/Inc/stm32f1xx_ll_tim.h **** 
 404:Drivers/STM32F1xx_HAL_Driver/Inc/stm32f1xx_ll_tim.h ****   uint16_t BreakState;           /*!< Specifies whether the TIM Break input is enabled or not.
 405:Drivers/STM32F1xx_HAL_Driver/Inc/stm32f1xx_ll_tim.h ****                                       This parameter can be a value of @ref TIM_LL_EC_BREAK_ENABLE
 406:Drivers/STM32F1xx_HAL_Driver/Inc/stm32f1xx_ll_tim.h **** 
 407:Drivers/STM32F1xx_HAL_Driver/Inc/stm32f1xx_ll_tim.h ****                                       This feature can be modified afterwards using unitary functio
 408:Drivers/STM32F1xx_HAL_Driver/Inc/stm32f1xx_ll_tim.h **** 
 409:Drivers/STM32F1xx_HAL_Driver/Inc/stm32f1xx_ll_tim.h ****                                       @note This bit-field can not be modified as long as LOCK leve
 410:Drivers/STM32F1xx_HAL_Driver/Inc/stm32f1xx_ll_tim.h **** 
 411:Drivers/STM32F1xx_HAL_Driver/Inc/stm32f1xx_ll_tim.h ****   uint32_t BreakPolarity;        /*!< Specifies the TIM Break Input pin polarity.
 412:Drivers/STM32F1xx_HAL_Driver/Inc/stm32f1xx_ll_tim.h ****                                       This parameter can be a value of @ref TIM_LL_EC_BREAK_POLARIT
 413:Drivers/STM32F1xx_HAL_Driver/Inc/stm32f1xx_ll_tim.h **** 
 414:Drivers/STM32F1xx_HAL_Driver/Inc/stm32f1xx_ll_tim.h ****                                       This feature can be modified afterwards using unitary functio
 415:Drivers/STM32F1xx_HAL_Driver/Inc/stm32f1xx_ll_tim.h **** 
 416:Drivers/STM32F1xx_HAL_Driver/Inc/stm32f1xx_ll_tim.h ****                                       @note This bit-field can not be modified as long as LOCK leve
 417:Drivers/STM32F1xx_HAL_Driver/Inc/stm32f1xx_ll_tim.h **** 
 418:Drivers/STM32F1xx_HAL_Driver/Inc/stm32f1xx_ll_tim.h ****   uint32_t AutomaticOutput;      /*!< Specifies whether the TIM Automatic Output feature is enabled
ARM GAS  /var/folders/m1/3lv6xmzs0mlckxs4mx90nfb40000gn/T//cczUMWYd.s 			page 48


 419:Drivers/STM32F1xx_HAL_Driver/Inc/stm32f1xx_ll_tim.h ****                                       This parameter can be a value of @ref TIM_LL_EC_AUTOMATICOUTP
 420:Drivers/STM32F1xx_HAL_Driver/Inc/stm32f1xx_ll_tim.h **** 
 421:Drivers/STM32F1xx_HAL_Driver/Inc/stm32f1xx_ll_tim.h ****                                       This feature can be modified afterwards using unitary functio
 422:Drivers/STM32F1xx_HAL_Driver/Inc/stm32f1xx_ll_tim.h **** 
 423:Drivers/STM32F1xx_HAL_Driver/Inc/stm32f1xx_ll_tim.h ****                                       @note This bit-field can not be modified as long as LOCK leve
 424:Drivers/STM32F1xx_HAL_Driver/Inc/stm32f1xx_ll_tim.h **** } LL_TIM_BDTR_InitTypeDef;
 425:Drivers/STM32F1xx_HAL_Driver/Inc/stm32f1xx_ll_tim.h **** 
 426:Drivers/STM32F1xx_HAL_Driver/Inc/stm32f1xx_ll_tim.h **** /**
 427:Drivers/STM32F1xx_HAL_Driver/Inc/stm32f1xx_ll_tim.h ****   * @}
 428:Drivers/STM32F1xx_HAL_Driver/Inc/stm32f1xx_ll_tim.h ****   */
 429:Drivers/STM32F1xx_HAL_Driver/Inc/stm32f1xx_ll_tim.h **** #endif /* USE_FULL_LL_DRIVER */
 430:Drivers/STM32F1xx_HAL_Driver/Inc/stm32f1xx_ll_tim.h **** 
 431:Drivers/STM32F1xx_HAL_Driver/Inc/stm32f1xx_ll_tim.h **** /* Exported constants --------------------------------------------------------*/
 432:Drivers/STM32F1xx_HAL_Driver/Inc/stm32f1xx_ll_tim.h **** /** @defgroup TIM_LL_Exported_Constants TIM Exported Constants
 433:Drivers/STM32F1xx_HAL_Driver/Inc/stm32f1xx_ll_tim.h ****   * @{
 434:Drivers/STM32F1xx_HAL_Driver/Inc/stm32f1xx_ll_tim.h ****   */
 435:Drivers/STM32F1xx_HAL_Driver/Inc/stm32f1xx_ll_tim.h **** 
 436:Drivers/STM32F1xx_HAL_Driver/Inc/stm32f1xx_ll_tim.h **** /** @defgroup TIM_LL_EC_GET_FLAG Get Flags Defines
 437:Drivers/STM32F1xx_HAL_Driver/Inc/stm32f1xx_ll_tim.h ****   * @brief    Flags defines which can be used with LL_TIM_ReadReg function.
 438:Drivers/STM32F1xx_HAL_Driver/Inc/stm32f1xx_ll_tim.h ****   * @{
 439:Drivers/STM32F1xx_HAL_Driver/Inc/stm32f1xx_ll_tim.h ****   */
 440:Drivers/STM32F1xx_HAL_Driver/Inc/stm32f1xx_ll_tim.h **** #define LL_TIM_SR_UIF                          TIM_SR_UIF           /*!< Update interrupt flag */
 441:Drivers/STM32F1xx_HAL_Driver/Inc/stm32f1xx_ll_tim.h **** #define LL_TIM_SR_CC1IF                        TIM_SR_CC1IF         /*!< Capture/compare 1 interrup
 442:Drivers/STM32F1xx_HAL_Driver/Inc/stm32f1xx_ll_tim.h **** #define LL_TIM_SR_CC2IF                        TIM_SR_CC2IF         /*!< Capture/compare 2 interrup
 443:Drivers/STM32F1xx_HAL_Driver/Inc/stm32f1xx_ll_tim.h **** #define LL_TIM_SR_CC3IF                        TIM_SR_CC3IF         /*!< Capture/compare 3 interrup
 444:Drivers/STM32F1xx_HAL_Driver/Inc/stm32f1xx_ll_tim.h **** #define LL_TIM_SR_CC4IF                        TIM_SR_CC4IF         /*!< Capture/compare 4 interrup
 445:Drivers/STM32F1xx_HAL_Driver/Inc/stm32f1xx_ll_tim.h **** #define LL_TIM_SR_COMIF                        TIM_SR_COMIF         /*!< COM interrupt flag */
 446:Drivers/STM32F1xx_HAL_Driver/Inc/stm32f1xx_ll_tim.h **** #define LL_TIM_SR_TIF                          TIM_SR_TIF           /*!< Trigger interrupt flag */
 447:Drivers/STM32F1xx_HAL_Driver/Inc/stm32f1xx_ll_tim.h **** #define LL_TIM_SR_BIF                          TIM_SR_BIF           /*!< Break interrupt flag */
 448:Drivers/STM32F1xx_HAL_Driver/Inc/stm32f1xx_ll_tim.h **** #define LL_TIM_SR_CC1OF                        TIM_SR_CC1OF         /*!< Capture/Compare 1 overcapt
 449:Drivers/STM32F1xx_HAL_Driver/Inc/stm32f1xx_ll_tim.h **** #define LL_TIM_SR_CC2OF                        TIM_SR_CC2OF         /*!< Capture/Compare 2 overcapt
 450:Drivers/STM32F1xx_HAL_Driver/Inc/stm32f1xx_ll_tim.h **** #define LL_TIM_SR_CC3OF                        TIM_SR_CC3OF         /*!< Capture/Compare 3 overcapt
 451:Drivers/STM32F1xx_HAL_Driver/Inc/stm32f1xx_ll_tim.h **** #define LL_TIM_SR_CC4OF                        TIM_SR_CC4OF         /*!< Capture/Compare 4 overcapt
 452:Drivers/STM32F1xx_HAL_Driver/Inc/stm32f1xx_ll_tim.h **** /**
 453:Drivers/STM32F1xx_HAL_Driver/Inc/stm32f1xx_ll_tim.h ****   * @}
 454:Drivers/STM32F1xx_HAL_Driver/Inc/stm32f1xx_ll_tim.h ****   */
 455:Drivers/STM32F1xx_HAL_Driver/Inc/stm32f1xx_ll_tim.h **** 
 456:Drivers/STM32F1xx_HAL_Driver/Inc/stm32f1xx_ll_tim.h **** #if defined(USE_FULL_LL_DRIVER)
 457:Drivers/STM32F1xx_HAL_Driver/Inc/stm32f1xx_ll_tim.h **** /** @defgroup TIM_LL_EC_BREAK_ENABLE Break Enable
 458:Drivers/STM32F1xx_HAL_Driver/Inc/stm32f1xx_ll_tim.h ****   * @{
 459:Drivers/STM32F1xx_HAL_Driver/Inc/stm32f1xx_ll_tim.h ****   */
 460:Drivers/STM32F1xx_HAL_Driver/Inc/stm32f1xx_ll_tim.h **** #define LL_TIM_BREAK_DISABLE            0x00000000U             /*!< Break function disabled */
 461:Drivers/STM32F1xx_HAL_Driver/Inc/stm32f1xx_ll_tim.h **** #define LL_TIM_BREAK_ENABLE             TIM_BDTR_BKE            /*!< Break function enabled */
 462:Drivers/STM32F1xx_HAL_Driver/Inc/stm32f1xx_ll_tim.h **** /**
 463:Drivers/STM32F1xx_HAL_Driver/Inc/stm32f1xx_ll_tim.h ****   * @}
 464:Drivers/STM32F1xx_HAL_Driver/Inc/stm32f1xx_ll_tim.h ****   */
 465:Drivers/STM32F1xx_HAL_Driver/Inc/stm32f1xx_ll_tim.h **** 
 466:Drivers/STM32F1xx_HAL_Driver/Inc/stm32f1xx_ll_tim.h **** /** @defgroup TIM_LL_EC_AUTOMATICOUTPUT_ENABLE Automatic output enable
 467:Drivers/STM32F1xx_HAL_Driver/Inc/stm32f1xx_ll_tim.h ****   * @{
 468:Drivers/STM32F1xx_HAL_Driver/Inc/stm32f1xx_ll_tim.h ****   */
 469:Drivers/STM32F1xx_HAL_Driver/Inc/stm32f1xx_ll_tim.h **** #define LL_TIM_AUTOMATICOUTPUT_DISABLE         0x00000000U             /*!< MOE can be set only by 
 470:Drivers/STM32F1xx_HAL_Driver/Inc/stm32f1xx_ll_tim.h **** #define LL_TIM_AUTOMATICOUTPUT_ENABLE          TIM_BDTR_AOE            /*!< MOE can be set by softw
 471:Drivers/STM32F1xx_HAL_Driver/Inc/stm32f1xx_ll_tim.h **** /**
 472:Drivers/STM32F1xx_HAL_Driver/Inc/stm32f1xx_ll_tim.h ****   * @}
 473:Drivers/STM32F1xx_HAL_Driver/Inc/stm32f1xx_ll_tim.h ****   */
 474:Drivers/STM32F1xx_HAL_Driver/Inc/stm32f1xx_ll_tim.h **** #endif /* USE_FULL_LL_DRIVER */
 475:Drivers/STM32F1xx_HAL_Driver/Inc/stm32f1xx_ll_tim.h **** 
ARM GAS  /var/folders/m1/3lv6xmzs0mlckxs4mx90nfb40000gn/T//cczUMWYd.s 			page 49


 476:Drivers/STM32F1xx_HAL_Driver/Inc/stm32f1xx_ll_tim.h **** /** @defgroup TIM_LL_EC_IT IT Defines
 477:Drivers/STM32F1xx_HAL_Driver/Inc/stm32f1xx_ll_tim.h ****   * @brief    IT defines which can be used with LL_TIM_ReadReg and  LL_TIM_WriteReg functions.
 478:Drivers/STM32F1xx_HAL_Driver/Inc/stm32f1xx_ll_tim.h ****   * @{
 479:Drivers/STM32F1xx_HAL_Driver/Inc/stm32f1xx_ll_tim.h ****   */
 480:Drivers/STM32F1xx_HAL_Driver/Inc/stm32f1xx_ll_tim.h **** #define LL_TIM_DIER_UIE                        TIM_DIER_UIE         /*!< Update interrupt enable */
 481:Drivers/STM32F1xx_HAL_Driver/Inc/stm32f1xx_ll_tim.h **** #define LL_TIM_DIER_CC1IE                      TIM_DIER_CC1IE       /*!< Capture/compare 1 interrup
 482:Drivers/STM32F1xx_HAL_Driver/Inc/stm32f1xx_ll_tim.h **** #define LL_TIM_DIER_CC2IE                      TIM_DIER_CC2IE       /*!< Capture/compare 2 interrup
 483:Drivers/STM32F1xx_HAL_Driver/Inc/stm32f1xx_ll_tim.h **** #define LL_TIM_DIER_CC3IE                      TIM_DIER_CC3IE       /*!< Capture/compare 3 interrup
 484:Drivers/STM32F1xx_HAL_Driver/Inc/stm32f1xx_ll_tim.h **** #define LL_TIM_DIER_CC4IE                      TIM_DIER_CC4IE       /*!< Capture/compare 4 interrup
 485:Drivers/STM32F1xx_HAL_Driver/Inc/stm32f1xx_ll_tim.h **** #define LL_TIM_DIER_COMIE                      TIM_DIER_COMIE       /*!< COM interrupt enable */
 486:Drivers/STM32F1xx_HAL_Driver/Inc/stm32f1xx_ll_tim.h **** #define LL_TIM_DIER_TIE                        TIM_DIER_TIE         /*!< Trigger interrupt enable *
 487:Drivers/STM32F1xx_HAL_Driver/Inc/stm32f1xx_ll_tim.h **** #define LL_TIM_DIER_BIE                        TIM_DIER_BIE         /*!< Break interrupt enable */
 488:Drivers/STM32F1xx_HAL_Driver/Inc/stm32f1xx_ll_tim.h **** /**
 489:Drivers/STM32F1xx_HAL_Driver/Inc/stm32f1xx_ll_tim.h ****   * @}
 490:Drivers/STM32F1xx_HAL_Driver/Inc/stm32f1xx_ll_tim.h ****   */
 491:Drivers/STM32F1xx_HAL_Driver/Inc/stm32f1xx_ll_tim.h **** 
 492:Drivers/STM32F1xx_HAL_Driver/Inc/stm32f1xx_ll_tim.h **** /** @defgroup TIM_LL_EC_UPDATESOURCE Update Source
 493:Drivers/STM32F1xx_HAL_Driver/Inc/stm32f1xx_ll_tim.h ****   * @{
 494:Drivers/STM32F1xx_HAL_Driver/Inc/stm32f1xx_ll_tim.h ****   */
 495:Drivers/STM32F1xx_HAL_Driver/Inc/stm32f1xx_ll_tim.h **** #define LL_TIM_UPDATESOURCE_REGULAR            0x00000000U          /*!< Counter overflow/underflow
 496:Drivers/STM32F1xx_HAL_Driver/Inc/stm32f1xx_ll_tim.h **** #define LL_TIM_UPDATESOURCE_COUNTER            TIM_CR1_URS          /*!< Only counter overflow/unde
 497:Drivers/STM32F1xx_HAL_Driver/Inc/stm32f1xx_ll_tim.h **** /**
 498:Drivers/STM32F1xx_HAL_Driver/Inc/stm32f1xx_ll_tim.h ****   * @}
 499:Drivers/STM32F1xx_HAL_Driver/Inc/stm32f1xx_ll_tim.h ****   */
 500:Drivers/STM32F1xx_HAL_Driver/Inc/stm32f1xx_ll_tim.h **** 
 501:Drivers/STM32F1xx_HAL_Driver/Inc/stm32f1xx_ll_tim.h **** /** @defgroup TIM_LL_EC_ONEPULSEMODE One Pulse Mode
 502:Drivers/STM32F1xx_HAL_Driver/Inc/stm32f1xx_ll_tim.h ****   * @{
 503:Drivers/STM32F1xx_HAL_Driver/Inc/stm32f1xx_ll_tim.h ****   */
 504:Drivers/STM32F1xx_HAL_Driver/Inc/stm32f1xx_ll_tim.h **** #define LL_TIM_ONEPULSEMODE_SINGLE             TIM_CR1_OPM          /*!< Counter is not stopped at 
 505:Drivers/STM32F1xx_HAL_Driver/Inc/stm32f1xx_ll_tim.h **** #define LL_TIM_ONEPULSEMODE_REPETITIVE         0x00000000U          /*!< Counter stops counting at 
 506:Drivers/STM32F1xx_HAL_Driver/Inc/stm32f1xx_ll_tim.h **** /**
 507:Drivers/STM32F1xx_HAL_Driver/Inc/stm32f1xx_ll_tim.h ****   * @}
 508:Drivers/STM32F1xx_HAL_Driver/Inc/stm32f1xx_ll_tim.h ****   */
 509:Drivers/STM32F1xx_HAL_Driver/Inc/stm32f1xx_ll_tim.h **** 
 510:Drivers/STM32F1xx_HAL_Driver/Inc/stm32f1xx_ll_tim.h **** /** @defgroup TIM_LL_EC_COUNTERMODE Counter Mode
 511:Drivers/STM32F1xx_HAL_Driver/Inc/stm32f1xx_ll_tim.h ****   * @{
 512:Drivers/STM32F1xx_HAL_Driver/Inc/stm32f1xx_ll_tim.h ****   */
 513:Drivers/STM32F1xx_HAL_Driver/Inc/stm32f1xx_ll_tim.h **** #define LL_TIM_COUNTERMODE_UP                  0x00000000U          /*!<Counter used as upcounter *
 514:Drivers/STM32F1xx_HAL_Driver/Inc/stm32f1xx_ll_tim.h **** #define LL_TIM_COUNTERMODE_DOWN                TIM_CR1_DIR          /*!< Counter used as downcounte
 515:Drivers/STM32F1xx_HAL_Driver/Inc/stm32f1xx_ll_tim.h **** #define LL_TIM_COUNTERMODE_CENTER_UP           TIM_CR1_CMS_0        /*!< The counter counts up and 
 516:Drivers/STM32F1xx_HAL_Driver/Inc/stm32f1xx_ll_tim.h **** #define LL_TIM_COUNTERMODE_CENTER_DOWN         TIM_CR1_CMS_1        /*!<The counter counts up and d
 517:Drivers/STM32F1xx_HAL_Driver/Inc/stm32f1xx_ll_tim.h **** #define LL_TIM_COUNTERMODE_CENTER_UP_DOWN      TIM_CR1_CMS          /*!< The counter counts up and 
 518:Drivers/STM32F1xx_HAL_Driver/Inc/stm32f1xx_ll_tim.h **** /**
 519:Drivers/STM32F1xx_HAL_Driver/Inc/stm32f1xx_ll_tim.h ****   * @}
 520:Drivers/STM32F1xx_HAL_Driver/Inc/stm32f1xx_ll_tim.h ****   */
 521:Drivers/STM32F1xx_HAL_Driver/Inc/stm32f1xx_ll_tim.h **** 
 522:Drivers/STM32F1xx_HAL_Driver/Inc/stm32f1xx_ll_tim.h **** /** @defgroup TIM_LL_EC_CLOCKDIVISION Clock Division
 523:Drivers/STM32F1xx_HAL_Driver/Inc/stm32f1xx_ll_tim.h ****   * @{
 524:Drivers/STM32F1xx_HAL_Driver/Inc/stm32f1xx_ll_tim.h ****   */
 525:Drivers/STM32F1xx_HAL_Driver/Inc/stm32f1xx_ll_tim.h **** #define LL_TIM_CLOCKDIVISION_DIV1              0x00000000U          /*!< tDTS=tCK_INT */
 526:Drivers/STM32F1xx_HAL_Driver/Inc/stm32f1xx_ll_tim.h **** #define LL_TIM_CLOCKDIVISION_DIV2              TIM_CR1_CKD_0        /*!< tDTS=2*tCK_INT */
 527:Drivers/STM32F1xx_HAL_Driver/Inc/stm32f1xx_ll_tim.h **** #define LL_TIM_CLOCKDIVISION_DIV4              TIM_CR1_CKD_1        /*!< tDTS=4*tCK_INT */
 528:Drivers/STM32F1xx_HAL_Driver/Inc/stm32f1xx_ll_tim.h **** /**
 529:Drivers/STM32F1xx_HAL_Driver/Inc/stm32f1xx_ll_tim.h ****   * @}
 530:Drivers/STM32F1xx_HAL_Driver/Inc/stm32f1xx_ll_tim.h ****   */
 531:Drivers/STM32F1xx_HAL_Driver/Inc/stm32f1xx_ll_tim.h **** 
 532:Drivers/STM32F1xx_HAL_Driver/Inc/stm32f1xx_ll_tim.h **** /** @defgroup TIM_LL_EC_COUNTERDIRECTION Counter Direction
ARM GAS  /var/folders/m1/3lv6xmzs0mlckxs4mx90nfb40000gn/T//cczUMWYd.s 			page 50


 533:Drivers/STM32F1xx_HAL_Driver/Inc/stm32f1xx_ll_tim.h ****   * @{
 534:Drivers/STM32F1xx_HAL_Driver/Inc/stm32f1xx_ll_tim.h ****   */
 535:Drivers/STM32F1xx_HAL_Driver/Inc/stm32f1xx_ll_tim.h **** #define LL_TIM_COUNTERDIRECTION_UP             0x00000000U          /*!< Timer counter counts up */
 536:Drivers/STM32F1xx_HAL_Driver/Inc/stm32f1xx_ll_tim.h **** #define LL_TIM_COUNTERDIRECTION_DOWN           TIM_CR1_DIR          /*!< Timer counter counts down 
 537:Drivers/STM32F1xx_HAL_Driver/Inc/stm32f1xx_ll_tim.h **** /**
 538:Drivers/STM32F1xx_HAL_Driver/Inc/stm32f1xx_ll_tim.h ****   * @}
 539:Drivers/STM32F1xx_HAL_Driver/Inc/stm32f1xx_ll_tim.h ****   */
 540:Drivers/STM32F1xx_HAL_Driver/Inc/stm32f1xx_ll_tim.h **** 
 541:Drivers/STM32F1xx_HAL_Driver/Inc/stm32f1xx_ll_tim.h **** /** @defgroup TIM_LL_EC_CCUPDATESOURCE Capture Compare  Update Source
 542:Drivers/STM32F1xx_HAL_Driver/Inc/stm32f1xx_ll_tim.h ****   * @{
 543:Drivers/STM32F1xx_HAL_Driver/Inc/stm32f1xx_ll_tim.h ****   */
 544:Drivers/STM32F1xx_HAL_Driver/Inc/stm32f1xx_ll_tim.h **** #define LL_TIM_CCUPDATESOURCE_COMG_ONLY        0x00000000U          /*!< Capture/compare control bi
 545:Drivers/STM32F1xx_HAL_Driver/Inc/stm32f1xx_ll_tim.h **** #define LL_TIM_CCUPDATESOURCE_COMG_AND_TRGI    TIM_CR2_CCUS         /*!< Capture/compare control bi
 546:Drivers/STM32F1xx_HAL_Driver/Inc/stm32f1xx_ll_tim.h **** /**
 547:Drivers/STM32F1xx_HAL_Driver/Inc/stm32f1xx_ll_tim.h ****   * @}
 548:Drivers/STM32F1xx_HAL_Driver/Inc/stm32f1xx_ll_tim.h ****   */
 549:Drivers/STM32F1xx_HAL_Driver/Inc/stm32f1xx_ll_tim.h **** 
 550:Drivers/STM32F1xx_HAL_Driver/Inc/stm32f1xx_ll_tim.h **** /** @defgroup TIM_LL_EC_CCDMAREQUEST Capture Compare DMA Request
 551:Drivers/STM32F1xx_HAL_Driver/Inc/stm32f1xx_ll_tim.h ****   * @{
 552:Drivers/STM32F1xx_HAL_Driver/Inc/stm32f1xx_ll_tim.h ****   */
 553:Drivers/STM32F1xx_HAL_Driver/Inc/stm32f1xx_ll_tim.h **** #define LL_TIM_CCDMAREQUEST_CC                 0x00000000U          /*!< CCx DMA request sent when 
 554:Drivers/STM32F1xx_HAL_Driver/Inc/stm32f1xx_ll_tim.h **** #define LL_TIM_CCDMAREQUEST_UPDATE             TIM_CR2_CCDS         /*!< CCx DMA requests sent when
 555:Drivers/STM32F1xx_HAL_Driver/Inc/stm32f1xx_ll_tim.h **** /**
 556:Drivers/STM32F1xx_HAL_Driver/Inc/stm32f1xx_ll_tim.h ****   * @}
 557:Drivers/STM32F1xx_HAL_Driver/Inc/stm32f1xx_ll_tim.h ****   */
 558:Drivers/STM32F1xx_HAL_Driver/Inc/stm32f1xx_ll_tim.h **** 
 559:Drivers/STM32F1xx_HAL_Driver/Inc/stm32f1xx_ll_tim.h **** /** @defgroup TIM_LL_EC_LOCKLEVEL Lock Level
 560:Drivers/STM32F1xx_HAL_Driver/Inc/stm32f1xx_ll_tim.h ****   * @{
 561:Drivers/STM32F1xx_HAL_Driver/Inc/stm32f1xx_ll_tim.h ****   */
 562:Drivers/STM32F1xx_HAL_Driver/Inc/stm32f1xx_ll_tim.h **** #define LL_TIM_LOCKLEVEL_OFF                   0x00000000U          /*!< LOCK OFF - No bit is write
 563:Drivers/STM32F1xx_HAL_Driver/Inc/stm32f1xx_ll_tim.h **** #define LL_TIM_LOCKLEVEL_1                     TIM_BDTR_LOCK_0      /*!< LOCK Level 1 */
 564:Drivers/STM32F1xx_HAL_Driver/Inc/stm32f1xx_ll_tim.h **** #define LL_TIM_LOCKLEVEL_2                     TIM_BDTR_LOCK_1      /*!< LOCK Level 2 */
 565:Drivers/STM32F1xx_HAL_Driver/Inc/stm32f1xx_ll_tim.h **** #define LL_TIM_LOCKLEVEL_3                     TIM_BDTR_LOCK        /*!< LOCK Level 3 */
 566:Drivers/STM32F1xx_HAL_Driver/Inc/stm32f1xx_ll_tim.h **** /**
 567:Drivers/STM32F1xx_HAL_Driver/Inc/stm32f1xx_ll_tim.h ****   * @}
 568:Drivers/STM32F1xx_HAL_Driver/Inc/stm32f1xx_ll_tim.h ****   */
 569:Drivers/STM32F1xx_HAL_Driver/Inc/stm32f1xx_ll_tim.h **** 
 570:Drivers/STM32F1xx_HAL_Driver/Inc/stm32f1xx_ll_tim.h **** /** @defgroup TIM_LL_EC_CHANNEL Channel
 571:Drivers/STM32F1xx_HAL_Driver/Inc/stm32f1xx_ll_tim.h ****   * @{
 572:Drivers/STM32F1xx_HAL_Driver/Inc/stm32f1xx_ll_tim.h ****   */
 573:Drivers/STM32F1xx_HAL_Driver/Inc/stm32f1xx_ll_tim.h **** #define LL_TIM_CHANNEL_CH1                     TIM_CCER_CC1E     /*!< Timer input/output channel 1 
 574:Drivers/STM32F1xx_HAL_Driver/Inc/stm32f1xx_ll_tim.h **** #define LL_TIM_CHANNEL_CH1N                    TIM_CCER_CC1NE    /*!< Timer complementary output ch
 575:Drivers/STM32F1xx_HAL_Driver/Inc/stm32f1xx_ll_tim.h **** #define LL_TIM_CHANNEL_CH2                     TIM_CCER_CC2E     /*!< Timer input/output channel 2 
 576:Drivers/STM32F1xx_HAL_Driver/Inc/stm32f1xx_ll_tim.h **** #define LL_TIM_CHANNEL_CH2N                    TIM_CCER_CC2NE    /*!< Timer complementary output ch
 577:Drivers/STM32F1xx_HAL_Driver/Inc/stm32f1xx_ll_tim.h **** #define LL_TIM_CHANNEL_CH3                     TIM_CCER_CC3E     /*!< Timer input/output channel 3 
 578:Drivers/STM32F1xx_HAL_Driver/Inc/stm32f1xx_ll_tim.h **** #define LL_TIM_CHANNEL_CH3N                    TIM_CCER_CC3NE    /*!< Timer complementary output ch
 579:Drivers/STM32F1xx_HAL_Driver/Inc/stm32f1xx_ll_tim.h **** #define LL_TIM_CHANNEL_CH4                     TIM_CCER_CC4E     /*!< Timer input/output channel 4 
 580:Drivers/STM32F1xx_HAL_Driver/Inc/stm32f1xx_ll_tim.h **** /**
 581:Drivers/STM32F1xx_HAL_Driver/Inc/stm32f1xx_ll_tim.h ****   * @}
 582:Drivers/STM32F1xx_HAL_Driver/Inc/stm32f1xx_ll_tim.h ****   */
 583:Drivers/STM32F1xx_HAL_Driver/Inc/stm32f1xx_ll_tim.h **** 
 584:Drivers/STM32F1xx_HAL_Driver/Inc/stm32f1xx_ll_tim.h **** #if defined(USE_FULL_LL_DRIVER)
 585:Drivers/STM32F1xx_HAL_Driver/Inc/stm32f1xx_ll_tim.h **** /** @defgroup TIM_LL_EC_OCSTATE Output Configuration State
 586:Drivers/STM32F1xx_HAL_Driver/Inc/stm32f1xx_ll_tim.h ****   * @{
 587:Drivers/STM32F1xx_HAL_Driver/Inc/stm32f1xx_ll_tim.h ****   */
 588:Drivers/STM32F1xx_HAL_Driver/Inc/stm32f1xx_ll_tim.h **** #define LL_TIM_OCSTATE_DISABLE                 0x00000000U             /*!< OCx is not active */
 589:Drivers/STM32F1xx_HAL_Driver/Inc/stm32f1xx_ll_tim.h **** #define LL_TIM_OCSTATE_ENABLE                  TIM_CCER_CC1E           /*!< OCx signal is output on
ARM GAS  /var/folders/m1/3lv6xmzs0mlckxs4mx90nfb40000gn/T//cczUMWYd.s 			page 51


 590:Drivers/STM32F1xx_HAL_Driver/Inc/stm32f1xx_ll_tim.h **** /**
 591:Drivers/STM32F1xx_HAL_Driver/Inc/stm32f1xx_ll_tim.h ****   * @}
 592:Drivers/STM32F1xx_HAL_Driver/Inc/stm32f1xx_ll_tim.h ****   */
 593:Drivers/STM32F1xx_HAL_Driver/Inc/stm32f1xx_ll_tim.h **** #endif /* USE_FULL_LL_DRIVER */
 594:Drivers/STM32F1xx_HAL_Driver/Inc/stm32f1xx_ll_tim.h **** 
 595:Drivers/STM32F1xx_HAL_Driver/Inc/stm32f1xx_ll_tim.h **** /** @defgroup TIM_LL_EC_OCMODE Output Configuration Mode
 596:Drivers/STM32F1xx_HAL_Driver/Inc/stm32f1xx_ll_tim.h ****   * @{
 597:Drivers/STM32F1xx_HAL_Driver/Inc/stm32f1xx_ll_tim.h ****   */
 598:Drivers/STM32F1xx_HAL_Driver/Inc/stm32f1xx_ll_tim.h **** #define LL_TIM_OCMODE_FROZEN                   0x00000000U                                         
 599:Drivers/STM32F1xx_HAL_Driver/Inc/stm32f1xx_ll_tim.h **** #define LL_TIM_OCMODE_ACTIVE                   TIM_CCMR1_OC1M_0                                    
 600:Drivers/STM32F1xx_HAL_Driver/Inc/stm32f1xx_ll_tim.h **** #define LL_TIM_OCMODE_INACTIVE                 TIM_CCMR1_OC1M_1                                    
 601:Drivers/STM32F1xx_HAL_Driver/Inc/stm32f1xx_ll_tim.h **** #define LL_TIM_OCMODE_TOGGLE                   (TIM_CCMR1_OC1M_1 | TIM_CCMR1_OC1M_0)               
