ARM GAS  /var/folders/m1/3lv6xmzs0mlckxs4mx90nfb40000gn/T//cclHv6kQ.s 			page 1


   1              		.cpu cortex-m3
   2              		.eabi_attribute 20, 1
   3              		.eabi_attribute 21, 1
   4              		.eabi_attribute 23, 3
   5              		.eabi_attribute 24, 1
   6              		.eabi_attribute 25, 1
   7              		.eabi_attribute 26, 1
   8              		.eabi_attribute 30, 2
   9              		.eabi_attribute 34, 1
  10              		.eabi_attribute 18, 4
  11              		.file	"stm32f1xx_ll_exti.c"
  12              		.text
  13              	.Ltext0:
  14              		.cfi_sections	.debug_frame
  15              		.section	.text.LL_EXTI_DeInit,"ax",%progbits
  16              		.align	1
  17              		.p2align 2,,3
  18              		.global	LL_EXTI_DeInit
  19              		.syntax unified
  20              		.thumb
  21              		.thumb_func
  22              		.fpu softvfp
  24              	LL_EXTI_DeInit:
  25              	.LFB81:
  26              		.file 1 "Drivers/STM32F1xx_HAL_Driver/Src/stm32f1xx_ll_exti.c"
   1:Drivers/STM32F1xx_HAL_Driver/Src/stm32f1xx_ll_exti.c **** /**
   2:Drivers/STM32F1xx_HAL_Driver/Src/stm32f1xx_ll_exti.c ****   ******************************************************************************
   3:Drivers/STM32F1xx_HAL_Driver/Src/stm32f1xx_ll_exti.c ****   * @file    stm32f1xx_ll_exti.c
   4:Drivers/STM32F1xx_HAL_Driver/Src/stm32f1xx_ll_exti.c ****   * @author  MCD Application Team
   5:Drivers/STM32F1xx_HAL_Driver/Src/stm32f1xx_ll_exti.c ****   * @brief   EXTI LL module driver.
   6:Drivers/STM32F1xx_HAL_Driver/Src/stm32f1xx_ll_exti.c ****   ******************************************************************************
   7:Drivers/STM32F1xx_HAL_Driver/Src/stm32f1xx_ll_exti.c ****   * @attention
   8:Drivers/STM32F1xx_HAL_Driver/Src/stm32f1xx_ll_exti.c ****   *
   9:Drivers/STM32F1xx_HAL_Driver/Src/stm32f1xx_ll_exti.c ****   * <h2><center>&copy; Copyright (c) 2016 STMicroelectronics.
  10:Drivers/STM32F1xx_HAL_Driver/Src/stm32f1xx_ll_exti.c ****   * All rights reserved.</center></h2>
  11:Drivers/STM32F1xx_HAL_Driver/Src/stm32f1xx_ll_exti.c ****   *
  12:Drivers/STM32F1xx_HAL_Driver/Src/stm32f1xx_ll_exti.c ****   * This software component is licensed by ST under BSD 3-Clause license,
  13:Drivers/STM32F1xx_HAL_Driver/Src/stm32f1xx_ll_exti.c ****   * the "License"; You may not use this file except in compliance with the
  14:Drivers/STM32F1xx_HAL_Driver/Src/stm32f1xx_ll_exti.c ****   * License. You may obtain a copy of the License at:
  15:Drivers/STM32F1xx_HAL_Driver/Src/stm32f1xx_ll_exti.c ****   *                        opensource.org/licenses/BSD-3-Clause
  16:Drivers/STM32F1xx_HAL_Driver/Src/stm32f1xx_ll_exti.c ****   *
  17:Drivers/STM32F1xx_HAL_Driver/Src/stm32f1xx_ll_exti.c ****   ******************************************************************************
  18:Drivers/STM32F1xx_HAL_Driver/Src/stm32f1xx_ll_exti.c ****   */
  19:Drivers/STM32F1xx_HAL_Driver/Src/stm32f1xx_ll_exti.c **** 
  20:Drivers/STM32F1xx_HAL_Driver/Src/stm32f1xx_ll_exti.c **** #if defined(USE_FULL_LL_DRIVER)
  21:Drivers/STM32F1xx_HAL_Driver/Src/stm32f1xx_ll_exti.c **** 
  22:Drivers/STM32F1xx_HAL_Driver/Src/stm32f1xx_ll_exti.c **** /* Includes ------------------------------------------------------------------*/
  23:Drivers/STM32F1xx_HAL_Driver/Src/stm32f1xx_ll_exti.c **** #include "stm32f1xx_ll_exti.h"
  24:Drivers/STM32F1xx_HAL_Driver/Src/stm32f1xx_ll_exti.c **** #ifdef  USE_FULL_ASSERT
  25:Drivers/STM32F1xx_HAL_Driver/Src/stm32f1xx_ll_exti.c **** #include "stm32_assert.h"
  26:Drivers/STM32F1xx_HAL_Driver/Src/stm32f1xx_ll_exti.c **** #else
  27:Drivers/STM32F1xx_HAL_Driver/Src/stm32f1xx_ll_exti.c **** #define assert_param(expr) ((void)0U)
  28:Drivers/STM32F1xx_HAL_Driver/Src/stm32f1xx_ll_exti.c **** #endif
  29:Drivers/STM32F1xx_HAL_Driver/Src/stm32f1xx_ll_exti.c **** 
  30:Drivers/STM32F1xx_HAL_Driver/Src/stm32f1xx_ll_exti.c **** /** @addtogroup STM32F1xx_LL_Driver
  31:Drivers/STM32F1xx_HAL_Driver/Src/stm32f1xx_ll_exti.c ****   * @{
  32:Drivers/STM32F1xx_HAL_Driver/Src/stm32f1xx_ll_exti.c ****   */
ARM GAS  /var/folders/m1/3lv6xmzs0mlckxs4mx90nfb40000gn/T//cclHv6kQ.s 			page 2


  33:Drivers/STM32F1xx_HAL_Driver/Src/stm32f1xx_ll_exti.c **** 
  34:Drivers/STM32F1xx_HAL_Driver/Src/stm32f1xx_ll_exti.c **** #if defined (EXTI)
  35:Drivers/STM32F1xx_HAL_Driver/Src/stm32f1xx_ll_exti.c **** 
  36:Drivers/STM32F1xx_HAL_Driver/Src/stm32f1xx_ll_exti.c **** /** @defgroup EXTI_LL EXTI
  37:Drivers/STM32F1xx_HAL_Driver/Src/stm32f1xx_ll_exti.c ****   * @{
  38:Drivers/STM32F1xx_HAL_Driver/Src/stm32f1xx_ll_exti.c ****   */
  39:Drivers/STM32F1xx_HAL_Driver/Src/stm32f1xx_ll_exti.c **** 
  40:Drivers/STM32F1xx_HAL_Driver/Src/stm32f1xx_ll_exti.c **** /* Private types -------------------------------------------------------------*/
  41:Drivers/STM32F1xx_HAL_Driver/Src/stm32f1xx_ll_exti.c **** /* Private variables ---------------------------------------------------------*/
  42:Drivers/STM32F1xx_HAL_Driver/Src/stm32f1xx_ll_exti.c **** /* Private constants ---------------------------------------------------------*/
  43:Drivers/STM32F1xx_HAL_Driver/Src/stm32f1xx_ll_exti.c **** /* Private macros ------------------------------------------------------------*/
  44:Drivers/STM32F1xx_HAL_Driver/Src/stm32f1xx_ll_exti.c **** /** @addtogroup EXTI_LL_Private_Macros
  45:Drivers/STM32F1xx_HAL_Driver/Src/stm32f1xx_ll_exti.c ****   * @{
  46:Drivers/STM32F1xx_HAL_Driver/Src/stm32f1xx_ll_exti.c ****   */
  47:Drivers/STM32F1xx_HAL_Driver/Src/stm32f1xx_ll_exti.c **** 
  48:Drivers/STM32F1xx_HAL_Driver/Src/stm32f1xx_ll_exti.c **** #define IS_LL_EXTI_LINE_0_31(__VALUE__)              (((__VALUE__) & ~LL_EXTI_LINE_ALL_0_31) == 0x0
  49:Drivers/STM32F1xx_HAL_Driver/Src/stm32f1xx_ll_exti.c **** 
  50:Drivers/STM32F1xx_HAL_Driver/Src/stm32f1xx_ll_exti.c **** #define IS_LL_EXTI_MODE(__VALUE__)                   (((__VALUE__) == LL_EXTI_MODE_IT)            \
  51:Drivers/STM32F1xx_HAL_Driver/Src/stm32f1xx_ll_exti.c ****                                                    || ((__VALUE__) == LL_EXTI_MODE_EVENT)         \
  52:Drivers/STM32F1xx_HAL_Driver/Src/stm32f1xx_ll_exti.c ****                                                    || ((__VALUE__) == LL_EXTI_MODE_IT_EVENT))
  53:Drivers/STM32F1xx_HAL_Driver/Src/stm32f1xx_ll_exti.c **** 
  54:Drivers/STM32F1xx_HAL_Driver/Src/stm32f1xx_ll_exti.c **** 
  55:Drivers/STM32F1xx_HAL_Driver/Src/stm32f1xx_ll_exti.c **** #define IS_LL_EXTI_TRIGGER(__VALUE__)                (((__VALUE__) == LL_EXTI_TRIGGER_NONE)       \
  56:Drivers/STM32F1xx_HAL_Driver/Src/stm32f1xx_ll_exti.c ****                                                    || ((__VALUE__) == LL_EXTI_TRIGGER_RISING)     \
  57:Drivers/STM32F1xx_HAL_Driver/Src/stm32f1xx_ll_exti.c ****                                                    || ((__VALUE__) == LL_EXTI_TRIGGER_FALLING)    \
  58:Drivers/STM32F1xx_HAL_Driver/Src/stm32f1xx_ll_exti.c ****                                                    || ((__VALUE__) == LL_EXTI_TRIGGER_RISING_FALLIN
  59:Drivers/STM32F1xx_HAL_Driver/Src/stm32f1xx_ll_exti.c **** 
  60:Drivers/STM32F1xx_HAL_Driver/Src/stm32f1xx_ll_exti.c **** /**
  61:Drivers/STM32F1xx_HAL_Driver/Src/stm32f1xx_ll_exti.c ****   * @}
  62:Drivers/STM32F1xx_HAL_Driver/Src/stm32f1xx_ll_exti.c ****   */
  63:Drivers/STM32F1xx_HAL_Driver/Src/stm32f1xx_ll_exti.c **** 
  64:Drivers/STM32F1xx_HAL_Driver/Src/stm32f1xx_ll_exti.c **** /* Private function prototypes -----------------------------------------------*/
  65:Drivers/STM32F1xx_HAL_Driver/Src/stm32f1xx_ll_exti.c **** 
  66:Drivers/STM32F1xx_HAL_Driver/Src/stm32f1xx_ll_exti.c **** /* Exported functions --------------------------------------------------------*/
  67:Drivers/STM32F1xx_HAL_Driver/Src/stm32f1xx_ll_exti.c **** /** @addtogroup EXTI_LL_Exported_Functions
  68:Drivers/STM32F1xx_HAL_Driver/Src/stm32f1xx_ll_exti.c ****   * @{
  69:Drivers/STM32F1xx_HAL_Driver/Src/stm32f1xx_ll_exti.c ****   */
  70:Drivers/STM32F1xx_HAL_Driver/Src/stm32f1xx_ll_exti.c **** 
  71:Drivers/STM32F1xx_HAL_Driver/Src/stm32f1xx_ll_exti.c **** /** @addtogroup EXTI_LL_EF_Init
  72:Drivers/STM32F1xx_HAL_Driver/Src/stm32f1xx_ll_exti.c ****   * @{
  73:Drivers/STM32F1xx_HAL_Driver/Src/stm32f1xx_ll_exti.c ****   */
  74:Drivers/STM32F1xx_HAL_Driver/Src/stm32f1xx_ll_exti.c **** 
  75:Drivers/STM32F1xx_HAL_Driver/Src/stm32f1xx_ll_exti.c **** /**
  76:Drivers/STM32F1xx_HAL_Driver/Src/stm32f1xx_ll_exti.c ****   * @brief  De-initialize the EXTI registers to their default reset values.
  77:Drivers/STM32F1xx_HAL_Driver/Src/stm32f1xx_ll_exti.c ****   * @retval An ErrorStatus enumeration value:
  78:Drivers/STM32F1xx_HAL_Driver/Src/stm32f1xx_ll_exti.c ****   *          - SUCCESS: EXTI registers are de-initialized
  79:Drivers/STM32F1xx_HAL_Driver/Src/stm32f1xx_ll_exti.c ****   *          - ERROR: not applicable
  80:Drivers/STM32F1xx_HAL_Driver/Src/stm32f1xx_ll_exti.c ****   */
  81:Drivers/STM32F1xx_HAL_Driver/Src/stm32f1xx_ll_exti.c **** uint32_t LL_EXTI_DeInit(void)
  82:Drivers/STM32F1xx_HAL_Driver/Src/stm32f1xx_ll_exti.c **** {
  27              		.loc 1 82 0
  28              		.cfi_startproc
  29              		@ args = 0, pretend = 0, frame = 0
  30              		@ frame_needed = 0, uses_anonymous_args = 0
  31              		@ link register save eliminated.
  83:Drivers/STM32F1xx_HAL_Driver/Src/stm32f1xx_ll_exti.c ****   /* Interrupt mask register set to default reset values */
  84:Drivers/STM32F1xx_HAL_Driver/Src/stm32f1xx_ll_exti.c ****   LL_EXTI_WriteReg(IMR,   0x00000000U);
ARM GAS  /var/folders/m1/3lv6xmzs0mlckxs4mx90nfb40000gn/T//cclHv6kQ.s 			page 3


  32              		.loc 1 84 0
  33 0000 0022     		movs	r2, #0
  34 0002 054B     		ldr	r3, .L3
  85:Drivers/STM32F1xx_HAL_Driver/Src/stm32f1xx_ll_exti.c ****   /* Event mask register set to default reset values */
  86:Drivers/STM32F1xx_HAL_Driver/Src/stm32f1xx_ll_exti.c ****   LL_EXTI_WriteReg(EMR,   0x00000000U);
  87:Drivers/STM32F1xx_HAL_Driver/Src/stm32f1xx_ll_exti.c ****   /* Rising Trigger selection register set to default reset values */
  88:Drivers/STM32F1xx_HAL_Driver/Src/stm32f1xx_ll_exti.c ****   LL_EXTI_WriteReg(RTSR,  0x00000000U);
  89:Drivers/STM32F1xx_HAL_Driver/Src/stm32f1xx_ll_exti.c ****   /* Falling Trigger selection register set to default reset values */
  90:Drivers/STM32F1xx_HAL_Driver/Src/stm32f1xx_ll_exti.c ****   LL_EXTI_WriteReg(FTSR,  0x00000000U);
  91:Drivers/STM32F1xx_HAL_Driver/Src/stm32f1xx_ll_exti.c ****   /* Software interrupt event register set to default reset values */
  92:Drivers/STM32F1xx_HAL_Driver/Src/stm32f1xx_ll_exti.c ****   LL_EXTI_WriteReg(SWIER, 0x00000000U);
  93:Drivers/STM32F1xx_HAL_Driver/Src/stm32f1xx_ll_exti.c ****   /* Pending register clear */
  94:Drivers/STM32F1xx_HAL_Driver/Src/stm32f1xx_ll_exti.c ****   LL_EXTI_WriteReg(PR,    0x000FFFFFU);
  35              		.loc 1 94 0
  36 0004 0549     		ldr	r1, .L3+4
  84:Drivers/STM32F1xx_HAL_Driver/Src/stm32f1xx_ll_exti.c ****   /* Event mask register set to default reset values */
  37              		.loc 1 84 0
  38 0006 1A60     		str	r2, [r3]
  95:Drivers/STM32F1xx_HAL_Driver/Src/stm32f1xx_ll_exti.c **** 
  96:Drivers/STM32F1xx_HAL_Driver/Src/stm32f1xx_ll_exti.c ****   return SUCCESS;
  97:Drivers/STM32F1xx_HAL_Driver/Src/stm32f1xx_ll_exti.c **** }
  39              		.loc 1 97 0
  40 0008 1046     		mov	r0, r2
  86:Drivers/STM32F1xx_HAL_Driver/Src/stm32f1xx_ll_exti.c ****   /* Rising Trigger selection register set to default reset values */
  41              		.loc 1 86 0
  42 000a 5A60     		str	r2, [r3, #4]
  88:Drivers/STM32F1xx_HAL_Driver/Src/stm32f1xx_ll_exti.c ****   /* Falling Trigger selection register set to default reset values */
  43              		.loc 1 88 0
  44 000c 9A60     		str	r2, [r3, #8]
  90:Drivers/STM32F1xx_HAL_Driver/Src/stm32f1xx_ll_exti.c ****   /* Software interrupt event register set to default reset values */
  45              		.loc 1 90 0
  46 000e DA60     		str	r2, [r3, #12]
  92:Drivers/STM32F1xx_HAL_Driver/Src/stm32f1xx_ll_exti.c ****   /* Pending register clear */
  47              		.loc 1 92 0
  48 0010 1A61     		str	r2, [r3, #16]
  94:Drivers/STM32F1xx_HAL_Driver/Src/stm32f1xx_ll_exti.c **** 
  49              		.loc 1 94 0
  50 0012 5961     		str	r1, [r3, #20]
  51              		.loc 1 97 0
  52 0014 7047     		bx	lr
  53              	.L4:
  54 0016 00BF     		.align	2
  55              	.L3:
  56 0018 00040140 		.word	1073808384
  57 001c FFFF0F00 		.word	1048575
  58              		.cfi_endproc
  59              	.LFE81:
  61              		.section	.text.LL_EXTI_Init,"ax",%progbits
  62              		.align	1
  63              		.p2align 2,,3
  64              		.global	LL_EXTI_Init
  65              		.syntax unified
  66              		.thumb
  67              		.thumb_func
  68              		.fpu softvfp
  70              	LL_EXTI_Init:
  71              	.LFB82:
ARM GAS  /var/folders/m1/3lv6xmzs0mlckxs4mx90nfb40000gn/T//cclHv6kQ.s 			page 4


  98:Drivers/STM32F1xx_HAL_Driver/Src/stm32f1xx_ll_exti.c **** 
  99:Drivers/STM32F1xx_HAL_Driver/Src/stm32f1xx_ll_exti.c **** /**
 100:Drivers/STM32F1xx_HAL_Driver/Src/stm32f1xx_ll_exti.c ****   * @brief  Initialize the EXTI registers according to the specified parameters in EXTI_InitStruct.
 101:Drivers/STM32F1xx_HAL_Driver/Src/stm32f1xx_ll_exti.c ****   * @param  EXTI_InitStruct pointer to a @ref LL_EXTI_InitTypeDef structure.
 102:Drivers/STM32F1xx_HAL_Driver/Src/stm32f1xx_ll_exti.c ****   * @retval An ErrorStatus enumeration value:
 103:Drivers/STM32F1xx_HAL_Driver/Src/stm32f1xx_ll_exti.c ****   *          - SUCCESS: EXTI registers are initialized
 104:Drivers/STM32F1xx_HAL_Driver/Src/stm32f1xx_ll_exti.c ****   *          - ERROR: not applicable
 105:Drivers/STM32F1xx_HAL_Driver/Src/stm32f1xx_ll_exti.c ****   */
 106:Drivers/STM32F1xx_HAL_Driver/Src/stm32f1xx_ll_exti.c **** uint32_t LL_EXTI_Init(LL_EXTI_InitTypeDef *EXTI_InitStruct)
 107:Drivers/STM32F1xx_HAL_Driver/Src/stm32f1xx_ll_exti.c **** {
  72              		.loc 1 107 0
  73              		.cfi_startproc
  74              		@ args = 0, pretend = 0, frame = 0
  75              		@ frame_needed = 0, uses_anonymous_args = 0
  76              		@ link register save eliminated.
  77              	.LVL0:
 108:Drivers/STM32F1xx_HAL_Driver/Src/stm32f1xx_ll_exti.c ****   ErrorStatus status = SUCCESS;
 109:Drivers/STM32F1xx_HAL_Driver/Src/stm32f1xx_ll_exti.c ****   /* Check the parameters */
 110:Drivers/STM32F1xx_HAL_Driver/Src/stm32f1xx_ll_exti.c ****   assert_param(IS_LL_EXTI_LINE_0_31(EXTI_InitStruct->Line_0_31));
 111:Drivers/STM32F1xx_HAL_Driver/Src/stm32f1xx_ll_exti.c ****   assert_param(IS_FUNCTIONAL_STATE(EXTI_InitStruct->LineCommand));
 112:Drivers/STM32F1xx_HAL_Driver/Src/stm32f1xx_ll_exti.c ****   assert_param(IS_LL_EXTI_MODE(EXTI_InitStruct->Mode));
 113:Drivers/STM32F1xx_HAL_Driver/Src/stm32f1xx_ll_exti.c **** 
 114:Drivers/STM32F1xx_HAL_Driver/Src/stm32f1xx_ll_exti.c ****   /* ENABLE LineCommand */
 115:Drivers/STM32F1xx_HAL_Driver/Src/stm32f1xx_ll_exti.c ****   if (EXTI_InitStruct->LineCommand != DISABLE)
  78              		.loc 1 115 0
  79 0000 0179     		ldrb	r1, [r0, #4]	@ zero_extendqisi2
 107:Drivers/STM32F1xx_HAL_Driver/Src/stm32f1xx_ll_exti.c ****   ErrorStatus status = SUCCESS;
  80              		.loc 1 107 0
  81 0002 10B4     		push	{r4}
  82              	.LCFI0:
  83              		.cfi_def_cfa_offset 4
  84              		.cfi_offset 4, -4
  85 0004 0368     		ldr	r3, [r0]
  86              		.loc 1 115 0
  87 0006 D1B1     		cbz	r1, .L6
 116:Drivers/STM32F1xx_HAL_Driver/Src/stm32f1xx_ll_exti.c ****   {
 117:Drivers/STM32F1xx_HAL_Driver/Src/stm32f1xx_ll_exti.c ****     assert_param(IS_LL_EXTI_TRIGGER(EXTI_InitStruct->Trigger));
 118:Drivers/STM32F1xx_HAL_Driver/Src/stm32f1xx_ll_exti.c **** 
 119:Drivers/STM32F1xx_HAL_Driver/Src/stm32f1xx_ll_exti.c ****     /* Configure EXTI Lines in range from 0 to 31 */
 120:Drivers/STM32F1xx_HAL_Driver/Src/stm32f1xx_ll_exti.c ****     if (EXTI_InitStruct->Line_0_31 != LL_EXTI_LINE_NONE)
  88              		.loc 1 120 0
  89 0008 B3B1     		cbz	r3, .L5
 121:Drivers/STM32F1xx_HAL_Driver/Src/stm32f1xx_ll_exti.c ****     {
 122:Drivers/STM32F1xx_HAL_Driver/Src/stm32f1xx_ll_exti.c ****       switch (EXTI_InitStruct->Mode)
  90              		.loc 1 122 0
  91 000a 4279     		ldrb	r2, [r0, #5]	@ zero_extendqisi2
  92 000c 012A     		cmp	r2, #1
  93 000e 37D0     		beq	.L9
  94 0010 21D3     		bcc	.L10
  95 0012 022A     		cmp	r2, #2
  96 0014 3ED1     		bne	.L26
  97              	.LVL1:
  98              	.LBB30:
  99              	.LBB31:
 100              		.file 2 "Drivers/STM32F1xx_HAL_Driver/Inc/stm32f1xx_ll_exti.h"
   1:Drivers/STM32F1xx_HAL_Driver/Inc/stm32f1xx_ll_exti.h **** /**
   2:Drivers/STM32F1xx_HAL_Driver/Inc/stm32f1xx_ll_exti.h ****   ******************************************************************************
ARM GAS  /var/folders/m1/3lv6xmzs0mlckxs4mx90nfb40000gn/T//cclHv6kQ.s 			page 5


   3:Drivers/STM32F1xx_HAL_Driver/Inc/stm32f1xx_ll_exti.h ****   * @file    stm32f1xx_ll_exti.h
   4:Drivers/STM32F1xx_HAL_Driver/Inc/stm32f1xx_ll_exti.h ****   * @author  MCD Application Team
   5:Drivers/STM32F1xx_HAL_Driver/Inc/stm32f1xx_ll_exti.h ****   * @brief   Header file of EXTI LL module.
   6:Drivers/STM32F1xx_HAL_Driver/Inc/stm32f1xx_ll_exti.h ****   ******************************************************************************
   7:Drivers/STM32F1xx_HAL_Driver/Inc/stm32f1xx_ll_exti.h ****   * @attention
   8:Drivers/STM32F1xx_HAL_Driver/Inc/stm32f1xx_ll_exti.h ****   *
   9:Drivers/STM32F1xx_HAL_Driver/Inc/stm32f1xx_ll_exti.h ****   * <h2><center>&copy; Copyright (c) 2016 STMicroelectronics.
  10:Drivers/STM32F1xx_HAL_Driver/Inc/stm32f1xx_ll_exti.h ****   * All rights reserved.</center></h2>
  11:Drivers/STM32F1xx_HAL_Driver/Inc/stm32f1xx_ll_exti.h ****   *
  12:Drivers/STM32F1xx_HAL_Driver/Inc/stm32f1xx_ll_exti.h ****   * This software component is licensed by ST under BSD 3-Clause license,
  13:Drivers/STM32F1xx_HAL_Driver/Inc/stm32f1xx_ll_exti.h ****   * the "License"; You may not use this file except in compliance with the
  14:Drivers/STM32F1xx_HAL_Driver/Inc/stm32f1xx_ll_exti.h ****   * License. You may obtain a copy of the License at:
  15:Drivers/STM32F1xx_HAL_Driver/Inc/stm32f1xx_ll_exti.h ****   *                        opensource.org/licenses/BSD-3-Clause
  16:Drivers/STM32F1xx_HAL_Driver/Inc/stm32f1xx_ll_exti.h ****   *
  17:Drivers/STM32F1xx_HAL_Driver/Inc/stm32f1xx_ll_exti.h ****   ******************************************************************************
  18:Drivers/STM32F1xx_HAL_Driver/Inc/stm32f1xx_ll_exti.h ****   */
  19:Drivers/STM32F1xx_HAL_Driver/Inc/stm32f1xx_ll_exti.h **** 
  20:Drivers/STM32F1xx_HAL_Driver/Inc/stm32f1xx_ll_exti.h **** /* Define to prevent recursive inclusion -------------------------------------*/
  21:Drivers/STM32F1xx_HAL_Driver/Inc/stm32f1xx_ll_exti.h **** #ifndef STM32F1xx_LL_EXTI_H
  22:Drivers/STM32F1xx_HAL_Driver/Inc/stm32f1xx_ll_exti.h **** #define STM32F1xx_LL_EXTI_H
  23:Drivers/STM32F1xx_HAL_Driver/Inc/stm32f1xx_ll_exti.h **** 
  24:Drivers/STM32F1xx_HAL_Driver/Inc/stm32f1xx_ll_exti.h **** #ifdef __cplusplus
  25:Drivers/STM32F1xx_HAL_Driver/Inc/stm32f1xx_ll_exti.h **** extern "C" {
  26:Drivers/STM32F1xx_HAL_Driver/Inc/stm32f1xx_ll_exti.h **** #endif
  27:Drivers/STM32F1xx_HAL_Driver/Inc/stm32f1xx_ll_exti.h **** 
  28:Drivers/STM32F1xx_HAL_Driver/Inc/stm32f1xx_ll_exti.h **** /* Includes ------------------------------------------------------------------*/
  29:Drivers/STM32F1xx_HAL_Driver/Inc/stm32f1xx_ll_exti.h **** #include "stm32f1xx.h"
  30:Drivers/STM32F1xx_HAL_Driver/Inc/stm32f1xx_ll_exti.h **** 
  31:Drivers/STM32F1xx_HAL_Driver/Inc/stm32f1xx_ll_exti.h **** /** @addtogroup STM32F1xx_LL_Driver
  32:Drivers/STM32F1xx_HAL_Driver/Inc/stm32f1xx_ll_exti.h ****   * @{
  33:Drivers/STM32F1xx_HAL_Driver/Inc/stm32f1xx_ll_exti.h ****   */
  34:Drivers/STM32F1xx_HAL_Driver/Inc/stm32f1xx_ll_exti.h **** 
  35:Drivers/STM32F1xx_HAL_Driver/Inc/stm32f1xx_ll_exti.h **** #if defined (EXTI)
  36:Drivers/STM32F1xx_HAL_Driver/Inc/stm32f1xx_ll_exti.h **** 
  37:Drivers/STM32F1xx_HAL_Driver/Inc/stm32f1xx_ll_exti.h **** /** @defgroup EXTI_LL EXTI
  38:Drivers/STM32F1xx_HAL_Driver/Inc/stm32f1xx_ll_exti.h ****   * @{
  39:Drivers/STM32F1xx_HAL_Driver/Inc/stm32f1xx_ll_exti.h ****   */
  40:Drivers/STM32F1xx_HAL_Driver/Inc/stm32f1xx_ll_exti.h **** 
  41:Drivers/STM32F1xx_HAL_Driver/Inc/stm32f1xx_ll_exti.h **** /* Private types -------------------------------------------------------------*/
  42:Drivers/STM32F1xx_HAL_Driver/Inc/stm32f1xx_ll_exti.h **** /* Private variables ---------------------------------------------------------*/
  43:Drivers/STM32F1xx_HAL_Driver/Inc/stm32f1xx_ll_exti.h **** /* Private constants ---------------------------------------------------------*/
  44:Drivers/STM32F1xx_HAL_Driver/Inc/stm32f1xx_ll_exti.h **** /* Private Macros ------------------------------------------------------------*/
  45:Drivers/STM32F1xx_HAL_Driver/Inc/stm32f1xx_ll_exti.h **** #if defined(USE_FULL_LL_DRIVER)
  46:Drivers/STM32F1xx_HAL_Driver/Inc/stm32f1xx_ll_exti.h **** /** @defgroup EXTI_LL_Private_Macros EXTI Private Macros
  47:Drivers/STM32F1xx_HAL_Driver/Inc/stm32f1xx_ll_exti.h ****   * @{
  48:Drivers/STM32F1xx_HAL_Driver/Inc/stm32f1xx_ll_exti.h ****   */
  49:Drivers/STM32F1xx_HAL_Driver/Inc/stm32f1xx_ll_exti.h **** /**
  50:Drivers/STM32F1xx_HAL_Driver/Inc/stm32f1xx_ll_exti.h ****   * @}
  51:Drivers/STM32F1xx_HAL_Driver/Inc/stm32f1xx_ll_exti.h ****   */
  52:Drivers/STM32F1xx_HAL_Driver/Inc/stm32f1xx_ll_exti.h **** #endif /*USE_FULL_LL_DRIVER*/
  53:Drivers/STM32F1xx_HAL_Driver/Inc/stm32f1xx_ll_exti.h **** /* Exported types ------------------------------------------------------------*/
  54:Drivers/STM32F1xx_HAL_Driver/Inc/stm32f1xx_ll_exti.h **** #if defined(USE_FULL_LL_DRIVER)
  55:Drivers/STM32F1xx_HAL_Driver/Inc/stm32f1xx_ll_exti.h **** /** @defgroup EXTI_LL_ES_INIT EXTI Exported Init structure
  56:Drivers/STM32F1xx_HAL_Driver/Inc/stm32f1xx_ll_exti.h ****   * @{
  57:Drivers/STM32F1xx_HAL_Driver/Inc/stm32f1xx_ll_exti.h ****   */
  58:Drivers/STM32F1xx_HAL_Driver/Inc/stm32f1xx_ll_exti.h **** typedef struct
  59:Drivers/STM32F1xx_HAL_Driver/Inc/stm32f1xx_ll_exti.h **** {
ARM GAS  /var/folders/m1/3lv6xmzs0mlckxs4mx90nfb40000gn/T//cclHv6kQ.s 			page 6


  60:Drivers/STM32F1xx_HAL_Driver/Inc/stm32f1xx_ll_exti.h **** 
  61:Drivers/STM32F1xx_HAL_Driver/Inc/stm32f1xx_ll_exti.h ****   uint32_t Line_0_31;           /*!< Specifies the EXTI lines to be enabled or disabled for Lines i
  62:Drivers/STM32F1xx_HAL_Driver/Inc/stm32f1xx_ll_exti.h ****                                      This parameter can be any combination of @ref EXTI_LL_EC_LINE 
  63:Drivers/STM32F1xx_HAL_Driver/Inc/stm32f1xx_ll_exti.h **** 
  64:Drivers/STM32F1xx_HAL_Driver/Inc/stm32f1xx_ll_exti.h ****   FunctionalState LineCommand;  /*!< Specifies the new state of the selected EXTI lines.
  65:Drivers/STM32F1xx_HAL_Driver/Inc/stm32f1xx_ll_exti.h ****                                      This parameter can be set either to ENABLE or DISABLE */
  66:Drivers/STM32F1xx_HAL_Driver/Inc/stm32f1xx_ll_exti.h **** 
  67:Drivers/STM32F1xx_HAL_Driver/Inc/stm32f1xx_ll_exti.h ****   uint8_t Mode;                 /*!< Specifies the mode for the EXTI lines.
  68:Drivers/STM32F1xx_HAL_Driver/Inc/stm32f1xx_ll_exti.h ****                                      This parameter can be a value of @ref EXTI_LL_EC_MODE. */
  69:Drivers/STM32F1xx_HAL_Driver/Inc/stm32f1xx_ll_exti.h **** 
  70:Drivers/STM32F1xx_HAL_Driver/Inc/stm32f1xx_ll_exti.h ****   uint8_t Trigger;              /*!< Specifies the trigger signal active edge for the EXTI lines.
  71:Drivers/STM32F1xx_HAL_Driver/Inc/stm32f1xx_ll_exti.h ****                                      This parameter can be a value of @ref EXTI_LL_EC_TRIGGER. */
  72:Drivers/STM32F1xx_HAL_Driver/Inc/stm32f1xx_ll_exti.h **** } LL_EXTI_InitTypeDef;
  73:Drivers/STM32F1xx_HAL_Driver/Inc/stm32f1xx_ll_exti.h **** 
  74:Drivers/STM32F1xx_HAL_Driver/Inc/stm32f1xx_ll_exti.h **** /**
  75:Drivers/STM32F1xx_HAL_Driver/Inc/stm32f1xx_ll_exti.h ****   * @}
  76:Drivers/STM32F1xx_HAL_Driver/Inc/stm32f1xx_ll_exti.h ****   */
  77:Drivers/STM32F1xx_HAL_Driver/Inc/stm32f1xx_ll_exti.h **** #endif /*USE_FULL_LL_DRIVER*/
  78:Drivers/STM32F1xx_HAL_Driver/Inc/stm32f1xx_ll_exti.h **** 
  79:Drivers/STM32F1xx_HAL_Driver/Inc/stm32f1xx_ll_exti.h **** /* Exported constants --------------------------------------------------------*/
  80:Drivers/STM32F1xx_HAL_Driver/Inc/stm32f1xx_ll_exti.h **** /** @defgroup EXTI_LL_Exported_Constants EXTI Exported Constants
  81:Drivers/STM32F1xx_HAL_Driver/Inc/stm32f1xx_ll_exti.h ****   * @{
  82:Drivers/STM32F1xx_HAL_Driver/Inc/stm32f1xx_ll_exti.h ****   */
  83:Drivers/STM32F1xx_HAL_Driver/Inc/stm32f1xx_ll_exti.h **** 
  84:Drivers/STM32F1xx_HAL_Driver/Inc/stm32f1xx_ll_exti.h **** /** @defgroup EXTI_LL_EC_LINE LINE
  85:Drivers/STM32F1xx_HAL_Driver/Inc/stm32f1xx_ll_exti.h ****   * @{
  86:Drivers/STM32F1xx_HAL_Driver/Inc/stm32f1xx_ll_exti.h ****   */
  87:Drivers/STM32F1xx_HAL_Driver/Inc/stm32f1xx_ll_exti.h **** #define LL_EXTI_LINE_0                 EXTI_IMR_IM0           /*!< Extended line 0 */
  88:Drivers/STM32F1xx_HAL_Driver/Inc/stm32f1xx_ll_exti.h **** #define LL_EXTI_LINE_1                 EXTI_IMR_IM1           /*!< Extended line 1 */
  89:Drivers/STM32F1xx_HAL_Driver/Inc/stm32f1xx_ll_exti.h **** #define LL_EXTI_LINE_2                 EXTI_IMR_IM2           /*!< Extended line 2 */
  90:Drivers/STM32F1xx_HAL_Driver/Inc/stm32f1xx_ll_exti.h **** #define LL_EXTI_LINE_3                 EXTI_IMR_IM3           /*!< Extended line 3 */
  91:Drivers/STM32F1xx_HAL_Driver/Inc/stm32f1xx_ll_exti.h **** #define LL_EXTI_LINE_4                 EXTI_IMR_IM4           /*!< Extended line 4 */
  92:Drivers/STM32F1xx_HAL_Driver/Inc/stm32f1xx_ll_exti.h **** #define LL_EXTI_LINE_5                 EXTI_IMR_IM5           /*!< Extended line 5 */
  93:Drivers/STM32F1xx_HAL_Driver/Inc/stm32f1xx_ll_exti.h **** #define LL_EXTI_LINE_6                 EXTI_IMR_IM6           /*!< Extended line 6 */
  94:Drivers/STM32F1xx_HAL_Driver/Inc/stm32f1xx_ll_exti.h **** #define LL_EXTI_LINE_7                 EXTI_IMR_IM7           /*!< Extended line 7 */
  95:Drivers/STM32F1xx_HAL_Driver/Inc/stm32f1xx_ll_exti.h **** #define LL_EXTI_LINE_8                 EXTI_IMR_IM8           /*!< Extended line 8 */
  96:Drivers/STM32F1xx_HAL_Driver/Inc/stm32f1xx_ll_exti.h **** #define LL_EXTI_LINE_9                 EXTI_IMR_IM9           /*!< Extended line 9 */
  97:Drivers/STM32F1xx_HAL_Driver/Inc/stm32f1xx_ll_exti.h **** #define LL_EXTI_LINE_10                EXTI_IMR_IM10          /*!< Extended line 10 */
  98:Drivers/STM32F1xx_HAL_Driver/Inc/stm32f1xx_ll_exti.h **** #define LL_EXTI_LINE_11                EXTI_IMR_IM11          /*!< Extended line 11 */
  99:Drivers/STM32F1xx_HAL_Driver/Inc/stm32f1xx_ll_exti.h **** #define LL_EXTI_LINE_12                EXTI_IMR_IM12          /*!< Extended line 12 */
 100:Drivers/STM32F1xx_HAL_Driver/Inc/stm32f1xx_ll_exti.h **** #define LL_EXTI_LINE_13                EXTI_IMR_IM13          /*!< Extended line 13 */
 101:Drivers/STM32F1xx_HAL_Driver/Inc/stm32f1xx_ll_exti.h **** #define LL_EXTI_LINE_14                EXTI_IMR_IM14          /*!< Extended line 14 */
 102:Drivers/STM32F1xx_HAL_Driver/Inc/stm32f1xx_ll_exti.h **** #define LL_EXTI_LINE_15                EXTI_IMR_IM15          /*!< Extended line 15 */
 103:Drivers/STM32F1xx_HAL_Driver/Inc/stm32f1xx_ll_exti.h **** #if defined(EXTI_IMR_IM16)
 104:Drivers/STM32F1xx_HAL_Driver/Inc/stm32f1xx_ll_exti.h **** #define LL_EXTI_LINE_16                EXTI_IMR_IM16          /*!< Extended line 16 */
 105:Drivers/STM32F1xx_HAL_Driver/Inc/stm32f1xx_ll_exti.h **** #endif
 106:Drivers/STM32F1xx_HAL_Driver/Inc/stm32f1xx_ll_exti.h **** #define LL_EXTI_LINE_17                EXTI_IMR_IM17          /*!< Extended line 17 */
 107:Drivers/STM32F1xx_HAL_Driver/Inc/stm32f1xx_ll_exti.h **** #if defined(EXTI_IMR_IM18)
 108:Drivers/STM32F1xx_HAL_Driver/Inc/stm32f1xx_ll_exti.h **** #define LL_EXTI_LINE_18                EXTI_IMR_IM18          /*!< Extended line 18 */
 109:Drivers/STM32F1xx_HAL_Driver/Inc/stm32f1xx_ll_exti.h **** #endif
 110:Drivers/STM32F1xx_HAL_Driver/Inc/stm32f1xx_ll_exti.h **** #if defined(EXTI_IMR_IM19)
 111:Drivers/STM32F1xx_HAL_Driver/Inc/stm32f1xx_ll_exti.h **** #define LL_EXTI_LINE_19                EXTI_IMR_IM19          /*!< Extended line 19 */
 112:Drivers/STM32F1xx_HAL_Driver/Inc/stm32f1xx_ll_exti.h **** #endif
 113:Drivers/STM32F1xx_HAL_Driver/Inc/stm32f1xx_ll_exti.h **** #if defined(EXTI_IMR_IM20)
 114:Drivers/STM32F1xx_HAL_Driver/Inc/stm32f1xx_ll_exti.h **** #define LL_EXTI_LINE_20                EXTI_IMR_IM20          /*!< Extended line 20 */
 115:Drivers/STM32F1xx_HAL_Driver/Inc/stm32f1xx_ll_exti.h **** #endif
 116:Drivers/STM32F1xx_HAL_Driver/Inc/stm32f1xx_ll_exti.h **** #if defined(EXTI_IMR_IM21)
ARM GAS  /var/folders/m1/3lv6xmzs0mlckxs4mx90nfb40000gn/T//cclHv6kQ.s 			page 7


 117:Drivers/STM32F1xx_HAL_Driver/Inc/stm32f1xx_ll_exti.h **** #define LL_EXTI_LINE_21                EXTI_IMR_IM21          /*!< Extended line 21 */
 118:Drivers/STM32F1xx_HAL_Driver/Inc/stm32f1xx_ll_exti.h **** #endif
 119:Drivers/STM32F1xx_HAL_Driver/Inc/stm32f1xx_ll_exti.h **** #if defined(EXTI_IMR_IM22)
 120:Drivers/STM32F1xx_HAL_Driver/Inc/stm32f1xx_ll_exti.h **** #define LL_EXTI_LINE_22                EXTI_IMR_IM22          /*!< Extended line 22 */
 121:Drivers/STM32F1xx_HAL_Driver/Inc/stm32f1xx_ll_exti.h **** #endif
 122:Drivers/STM32F1xx_HAL_Driver/Inc/stm32f1xx_ll_exti.h **** #if defined(EXTI_IMR_IM23)
 123:Drivers/STM32F1xx_HAL_Driver/Inc/stm32f1xx_ll_exti.h **** #define LL_EXTI_LINE_23                EXTI_IMR_IM23          /*!< Extended line 23 */
 124:Drivers/STM32F1xx_HAL_Driver/Inc/stm32f1xx_ll_exti.h **** #endif
 125:Drivers/STM32F1xx_HAL_Driver/Inc/stm32f1xx_ll_exti.h **** #if defined(EXTI_IMR_IM24)
 126:Drivers/STM32F1xx_HAL_Driver/Inc/stm32f1xx_ll_exti.h **** #define LL_EXTI_LINE_24                EXTI_IMR_IM24          /*!< Extended line 24 */
 127:Drivers/STM32F1xx_HAL_Driver/Inc/stm32f1xx_ll_exti.h **** #endif
 128:Drivers/STM32F1xx_HAL_Driver/Inc/stm32f1xx_ll_exti.h **** #if defined(EXTI_IMR_IM25)
 129:Drivers/STM32F1xx_HAL_Driver/Inc/stm32f1xx_ll_exti.h **** #define LL_EXTI_LINE_25                EXTI_IMR_IM25          /*!< Extended line 25 */
 130:Drivers/STM32F1xx_HAL_Driver/Inc/stm32f1xx_ll_exti.h **** #endif
 131:Drivers/STM32F1xx_HAL_Driver/Inc/stm32f1xx_ll_exti.h **** #if defined(EXTI_IMR_IM26)
 132:Drivers/STM32F1xx_HAL_Driver/Inc/stm32f1xx_ll_exti.h **** #define LL_EXTI_LINE_26                EXTI_IMR_IM26          /*!< Extended line 26 */
 133:Drivers/STM32F1xx_HAL_Driver/Inc/stm32f1xx_ll_exti.h **** #endif
 134:Drivers/STM32F1xx_HAL_Driver/Inc/stm32f1xx_ll_exti.h **** #if defined(EXTI_IMR_IM27)
 135:Drivers/STM32F1xx_HAL_Driver/Inc/stm32f1xx_ll_exti.h **** #define LL_EXTI_LINE_27                EXTI_IMR_IM27          /*!< Extended line 27 */
 136:Drivers/STM32F1xx_HAL_Driver/Inc/stm32f1xx_ll_exti.h **** #endif
 137:Drivers/STM32F1xx_HAL_Driver/Inc/stm32f1xx_ll_exti.h **** #if defined(EXTI_IMR_IM28)
 138:Drivers/STM32F1xx_HAL_Driver/Inc/stm32f1xx_ll_exti.h **** #define LL_EXTI_LINE_28                EXTI_IMR_IM28          /*!< Extended line 28 */
 139:Drivers/STM32F1xx_HAL_Driver/Inc/stm32f1xx_ll_exti.h **** #endif
 140:Drivers/STM32F1xx_HAL_Driver/Inc/stm32f1xx_ll_exti.h **** #if defined(EXTI_IMR_IM29)
 141:Drivers/STM32F1xx_HAL_Driver/Inc/stm32f1xx_ll_exti.h **** #define LL_EXTI_LINE_29                EXTI_IMR_IM29          /*!< Extended line 29 */
 142:Drivers/STM32F1xx_HAL_Driver/Inc/stm32f1xx_ll_exti.h **** #endif
 143:Drivers/STM32F1xx_HAL_Driver/Inc/stm32f1xx_ll_exti.h **** #if defined(EXTI_IMR_IM30)
 144:Drivers/STM32F1xx_HAL_Driver/Inc/stm32f1xx_ll_exti.h **** #define LL_EXTI_LINE_30                EXTI_IMR_IM30          /*!< Extended line 30 */
 145:Drivers/STM32F1xx_HAL_Driver/Inc/stm32f1xx_ll_exti.h **** #endif
 146:Drivers/STM32F1xx_HAL_Driver/Inc/stm32f1xx_ll_exti.h **** #if defined(EXTI_IMR_IM31)
 147:Drivers/STM32F1xx_HAL_Driver/Inc/stm32f1xx_ll_exti.h **** #define LL_EXTI_LINE_31                EXTI_IMR_IM31          /*!< Extended line 31 */
 148:Drivers/STM32F1xx_HAL_Driver/Inc/stm32f1xx_ll_exti.h **** #endif
 149:Drivers/STM32F1xx_HAL_Driver/Inc/stm32f1xx_ll_exti.h **** #define LL_EXTI_LINE_ALL_0_31          EXTI_IMR_IM            /*!< All Extended line not reserved*/
 150:Drivers/STM32F1xx_HAL_Driver/Inc/stm32f1xx_ll_exti.h **** 
 151:Drivers/STM32F1xx_HAL_Driver/Inc/stm32f1xx_ll_exti.h **** 
 152:Drivers/STM32F1xx_HAL_Driver/Inc/stm32f1xx_ll_exti.h **** #define LL_EXTI_LINE_ALL               (0xFFFFFFFFU)  /*!< All Extended line */
 153:Drivers/STM32F1xx_HAL_Driver/Inc/stm32f1xx_ll_exti.h **** 
 154:Drivers/STM32F1xx_HAL_Driver/Inc/stm32f1xx_ll_exti.h **** #if defined(USE_FULL_LL_DRIVER)
 155:Drivers/STM32F1xx_HAL_Driver/Inc/stm32f1xx_ll_exti.h **** #define LL_EXTI_LINE_NONE              (0x00000000U)  /*!< None Extended line */
 156:Drivers/STM32F1xx_HAL_Driver/Inc/stm32f1xx_ll_exti.h **** #endif /*USE_FULL_LL_DRIVER*/
 157:Drivers/STM32F1xx_HAL_Driver/Inc/stm32f1xx_ll_exti.h **** 
 158:Drivers/STM32F1xx_HAL_Driver/Inc/stm32f1xx_ll_exti.h **** /**
 159:Drivers/STM32F1xx_HAL_Driver/Inc/stm32f1xx_ll_exti.h ****   * @}
 160:Drivers/STM32F1xx_HAL_Driver/Inc/stm32f1xx_ll_exti.h ****   */
 161:Drivers/STM32F1xx_HAL_Driver/Inc/stm32f1xx_ll_exti.h **** #if defined(USE_FULL_LL_DRIVER)
 162:Drivers/STM32F1xx_HAL_Driver/Inc/stm32f1xx_ll_exti.h **** 
 163:Drivers/STM32F1xx_HAL_Driver/Inc/stm32f1xx_ll_exti.h **** /** @defgroup EXTI_LL_EC_MODE Mode
 164:Drivers/STM32F1xx_HAL_Driver/Inc/stm32f1xx_ll_exti.h ****   * @{
 165:Drivers/STM32F1xx_HAL_Driver/Inc/stm32f1xx_ll_exti.h ****   */
 166:Drivers/STM32F1xx_HAL_Driver/Inc/stm32f1xx_ll_exti.h **** #define LL_EXTI_MODE_IT                 ((uint8_t)0x00) /*!< Interrupt Mode */
 167:Drivers/STM32F1xx_HAL_Driver/Inc/stm32f1xx_ll_exti.h **** #define LL_EXTI_MODE_EVENT              ((uint8_t)0x01) /*!< Event Mode */
 168:Drivers/STM32F1xx_HAL_Driver/Inc/stm32f1xx_ll_exti.h **** #define LL_EXTI_MODE_IT_EVENT           ((uint8_t)0x02) /*!< Interrupt & Event Mode */
 169:Drivers/STM32F1xx_HAL_Driver/Inc/stm32f1xx_ll_exti.h **** /**
 170:Drivers/STM32F1xx_HAL_Driver/Inc/stm32f1xx_ll_exti.h ****   * @}
 171:Drivers/STM32F1xx_HAL_Driver/Inc/stm32f1xx_ll_exti.h ****   */
 172:Drivers/STM32F1xx_HAL_Driver/Inc/stm32f1xx_ll_exti.h **** 
 173:Drivers/STM32F1xx_HAL_Driver/Inc/stm32f1xx_ll_exti.h **** /** @defgroup EXTI_LL_EC_TRIGGER Edge Trigger
ARM GAS  /var/folders/m1/3lv6xmzs0mlckxs4mx90nfb40000gn/T//cclHv6kQ.s 			page 8


 174:Drivers/STM32F1xx_HAL_Driver/Inc/stm32f1xx_ll_exti.h ****   * @{
 175:Drivers/STM32F1xx_HAL_Driver/Inc/stm32f1xx_ll_exti.h ****   */
 176:Drivers/STM32F1xx_HAL_Driver/Inc/stm32f1xx_ll_exti.h **** #define LL_EXTI_TRIGGER_NONE            ((uint8_t)0x00) /*!< No Trigger Mode */
 177:Drivers/STM32F1xx_HAL_Driver/Inc/stm32f1xx_ll_exti.h **** #define LL_EXTI_TRIGGER_RISING          ((uint8_t)0x01) /*!< Trigger Rising Mode */
 178:Drivers/STM32F1xx_HAL_Driver/Inc/stm32f1xx_ll_exti.h **** #define LL_EXTI_TRIGGER_FALLING         ((uint8_t)0x02) /*!< Trigger Falling Mode */
 179:Drivers/STM32F1xx_HAL_Driver/Inc/stm32f1xx_ll_exti.h **** #define LL_EXTI_TRIGGER_RISING_FALLING  ((uint8_t)0x03) /*!< Trigger Rising & Falling Mode */
 180:Drivers/STM32F1xx_HAL_Driver/Inc/stm32f1xx_ll_exti.h **** 
 181:Drivers/STM32F1xx_HAL_Driver/Inc/stm32f1xx_ll_exti.h **** /**
 182:Drivers/STM32F1xx_HAL_Driver/Inc/stm32f1xx_ll_exti.h ****   * @}
 183:Drivers/STM32F1xx_HAL_Driver/Inc/stm32f1xx_ll_exti.h ****   */
 184:Drivers/STM32F1xx_HAL_Driver/Inc/stm32f1xx_ll_exti.h **** 
 185:Drivers/STM32F1xx_HAL_Driver/Inc/stm32f1xx_ll_exti.h **** 
 186:Drivers/STM32F1xx_HAL_Driver/Inc/stm32f1xx_ll_exti.h **** #endif /*USE_FULL_LL_DRIVER*/
 187:Drivers/STM32F1xx_HAL_Driver/Inc/stm32f1xx_ll_exti.h **** 
 188:Drivers/STM32F1xx_HAL_Driver/Inc/stm32f1xx_ll_exti.h **** 
 189:Drivers/STM32F1xx_HAL_Driver/Inc/stm32f1xx_ll_exti.h **** /**
 190:Drivers/STM32F1xx_HAL_Driver/Inc/stm32f1xx_ll_exti.h ****   * @}
 191:Drivers/STM32F1xx_HAL_Driver/Inc/stm32f1xx_ll_exti.h ****   */
 192:Drivers/STM32F1xx_HAL_Driver/Inc/stm32f1xx_ll_exti.h **** 
 193:Drivers/STM32F1xx_HAL_Driver/Inc/stm32f1xx_ll_exti.h **** /* Exported macro ------------------------------------------------------------*/
 194:Drivers/STM32F1xx_HAL_Driver/Inc/stm32f1xx_ll_exti.h **** /** @defgroup EXTI_LL_Exported_Macros EXTI Exported Macros
 195:Drivers/STM32F1xx_HAL_Driver/Inc/stm32f1xx_ll_exti.h ****   * @{
 196:Drivers/STM32F1xx_HAL_Driver/Inc/stm32f1xx_ll_exti.h ****   */
 197:Drivers/STM32F1xx_HAL_Driver/Inc/stm32f1xx_ll_exti.h **** 
 198:Drivers/STM32F1xx_HAL_Driver/Inc/stm32f1xx_ll_exti.h **** /** @defgroup EXTI_LL_EM_WRITE_READ Common Write and read registers Macros
 199:Drivers/STM32F1xx_HAL_Driver/Inc/stm32f1xx_ll_exti.h ****   * @{
 200:Drivers/STM32F1xx_HAL_Driver/Inc/stm32f1xx_ll_exti.h ****   */
 201:Drivers/STM32F1xx_HAL_Driver/Inc/stm32f1xx_ll_exti.h **** 
 202:Drivers/STM32F1xx_HAL_Driver/Inc/stm32f1xx_ll_exti.h **** /**
 203:Drivers/STM32F1xx_HAL_Driver/Inc/stm32f1xx_ll_exti.h ****   * @brief  Write a value in EXTI register
 204:Drivers/STM32F1xx_HAL_Driver/Inc/stm32f1xx_ll_exti.h ****   * @param  __REG__ Register to be written
 205:Drivers/STM32F1xx_HAL_Driver/Inc/stm32f1xx_ll_exti.h ****   * @param  __VALUE__ Value to be written in the register
 206:Drivers/STM32F1xx_HAL_Driver/Inc/stm32f1xx_ll_exti.h ****   * @retval None
 207:Drivers/STM32F1xx_HAL_Driver/Inc/stm32f1xx_ll_exti.h ****   */
 208:Drivers/STM32F1xx_HAL_Driver/Inc/stm32f1xx_ll_exti.h **** #define LL_EXTI_WriteReg(__REG__, __VALUE__) WRITE_REG(EXTI->__REG__, (__VALUE__))
 209:Drivers/STM32F1xx_HAL_Driver/Inc/stm32f1xx_ll_exti.h **** 
 210:Drivers/STM32F1xx_HAL_Driver/Inc/stm32f1xx_ll_exti.h **** /**
 211:Drivers/STM32F1xx_HAL_Driver/Inc/stm32f1xx_ll_exti.h ****   * @brief  Read a value in EXTI register
 212:Drivers/STM32F1xx_HAL_Driver/Inc/stm32f1xx_ll_exti.h ****   * @param  __REG__ Register to be read
 213:Drivers/STM32F1xx_HAL_Driver/Inc/stm32f1xx_ll_exti.h ****   * @retval Register value
 214:Drivers/STM32F1xx_HAL_Driver/Inc/stm32f1xx_ll_exti.h ****   */
 215:Drivers/STM32F1xx_HAL_Driver/Inc/stm32f1xx_ll_exti.h **** #define LL_EXTI_ReadReg(__REG__) READ_REG(EXTI->__REG__)
 216:Drivers/STM32F1xx_HAL_Driver/Inc/stm32f1xx_ll_exti.h **** /**
 217:Drivers/STM32F1xx_HAL_Driver/Inc/stm32f1xx_ll_exti.h ****   * @}
 218:Drivers/STM32F1xx_HAL_Driver/Inc/stm32f1xx_ll_exti.h ****   */
 219:Drivers/STM32F1xx_HAL_Driver/Inc/stm32f1xx_ll_exti.h **** 
 220:Drivers/STM32F1xx_HAL_Driver/Inc/stm32f1xx_ll_exti.h **** 
 221:Drivers/STM32F1xx_HAL_Driver/Inc/stm32f1xx_ll_exti.h **** /**
 222:Drivers/STM32F1xx_HAL_Driver/Inc/stm32f1xx_ll_exti.h ****   * @}
 223:Drivers/STM32F1xx_HAL_Driver/Inc/stm32f1xx_ll_exti.h ****   */
 224:Drivers/STM32F1xx_HAL_Driver/Inc/stm32f1xx_ll_exti.h **** 
 225:Drivers/STM32F1xx_HAL_Driver/Inc/stm32f1xx_ll_exti.h **** 
 226:Drivers/STM32F1xx_HAL_Driver/Inc/stm32f1xx_ll_exti.h **** 
 227:Drivers/STM32F1xx_HAL_Driver/Inc/stm32f1xx_ll_exti.h **** /* Exported functions --------------------------------------------------------*/
 228:Drivers/STM32F1xx_HAL_Driver/Inc/stm32f1xx_ll_exti.h **** /** @defgroup EXTI_LL_Exported_Functions EXTI Exported Functions
 229:Drivers/STM32F1xx_HAL_Driver/Inc/stm32f1xx_ll_exti.h ****  * @{
 230:Drivers/STM32F1xx_HAL_Driver/Inc/stm32f1xx_ll_exti.h ****  */
ARM GAS  /var/folders/m1/3lv6xmzs0mlckxs4mx90nfb40000gn/T//cclHv6kQ.s 			page 9


 231:Drivers/STM32F1xx_HAL_Driver/Inc/stm32f1xx_ll_exti.h **** /** @defgroup EXTI_LL_EF_IT_Management IT_Management
 232:Drivers/STM32F1xx_HAL_Driver/Inc/stm32f1xx_ll_exti.h ****   * @{
 233:Drivers/STM32F1xx_HAL_Driver/Inc/stm32f1xx_ll_exti.h ****   */
 234:Drivers/STM32F1xx_HAL_Driver/Inc/stm32f1xx_ll_exti.h **** 
 235:Drivers/STM32F1xx_HAL_Driver/Inc/stm32f1xx_ll_exti.h **** /**
 236:Drivers/STM32F1xx_HAL_Driver/Inc/stm32f1xx_ll_exti.h ****   * @brief  Enable ExtiLine Interrupt request for Lines in range 0 to 31
 237:Drivers/STM32F1xx_HAL_Driver/Inc/stm32f1xx_ll_exti.h ****   * @note The reset value for the direct or internal lines (see RM)
 238:Drivers/STM32F1xx_HAL_Driver/Inc/stm32f1xx_ll_exti.h ****   *       is set to 1 in order to enable the interrupt by default.
 239:Drivers/STM32F1xx_HAL_Driver/Inc/stm32f1xx_ll_exti.h ****   *       Bits are set automatically at Power on.
 240:Drivers/STM32F1xx_HAL_Driver/Inc/stm32f1xx_ll_exti.h ****   * @rmtoll IMR         IMx           LL_EXTI_EnableIT_0_31
 241:Drivers/STM32F1xx_HAL_Driver/Inc/stm32f1xx_ll_exti.h ****   * @param  ExtiLine This parameter can be one of the following values:
 242:Drivers/STM32F1xx_HAL_Driver/Inc/stm32f1xx_ll_exti.h ****   *         @arg @ref LL_EXTI_LINE_0
 243:Drivers/STM32F1xx_HAL_Driver/Inc/stm32f1xx_ll_exti.h ****   *         @arg @ref LL_EXTI_LINE_1
 244:Drivers/STM32F1xx_HAL_Driver/Inc/stm32f1xx_ll_exti.h ****   *         @arg @ref LL_EXTI_LINE_2
 245:Drivers/STM32F1xx_HAL_Driver/Inc/stm32f1xx_ll_exti.h ****   *         @arg @ref LL_EXTI_LINE_3
 246:Drivers/STM32F1xx_HAL_Driver/Inc/stm32f1xx_ll_exti.h ****   *         @arg @ref LL_EXTI_LINE_4
 247:Drivers/STM32F1xx_HAL_Driver/Inc/stm32f1xx_ll_exti.h ****   *         @arg @ref LL_EXTI_LINE_5
 248:Drivers/STM32F1xx_HAL_Driver/Inc/stm32f1xx_ll_exti.h ****   *         @arg @ref LL_EXTI_LINE_6
 249:Drivers/STM32F1xx_HAL_Driver/Inc/stm32f1xx_ll_exti.h ****   *         @arg @ref LL_EXTI_LINE_7
 250:Drivers/STM32F1xx_HAL_Driver/Inc/stm32f1xx_ll_exti.h ****   *         @arg @ref LL_EXTI_LINE_8
 251:Drivers/STM32F1xx_HAL_Driver/Inc/stm32f1xx_ll_exti.h ****   *         @arg @ref LL_EXTI_LINE_9
 252:Drivers/STM32F1xx_HAL_Driver/Inc/stm32f1xx_ll_exti.h ****   *         @arg @ref LL_EXTI_LINE_10
 253:Drivers/STM32F1xx_HAL_Driver/Inc/stm32f1xx_ll_exti.h ****   *         @arg @ref LL_EXTI_LINE_11
 254:Drivers/STM32F1xx_HAL_Driver/Inc/stm32f1xx_ll_exti.h ****   *         @arg @ref LL_EXTI_LINE_12
 255:Drivers/STM32F1xx_HAL_Driver/Inc/stm32f1xx_ll_exti.h ****   *         @arg @ref LL_EXTI_LINE_13
 256:Drivers/STM32F1xx_HAL_Driver/Inc/stm32f1xx_ll_exti.h ****   *         @arg @ref LL_EXTI_LINE_14
 257:Drivers/STM32F1xx_HAL_Driver/Inc/stm32f1xx_ll_exti.h ****   *         @arg @ref LL_EXTI_LINE_15
 258:Drivers/STM32F1xx_HAL_Driver/Inc/stm32f1xx_ll_exti.h ****   *         @arg @ref LL_EXTI_LINE_16
 259:Drivers/STM32F1xx_HAL_Driver/Inc/stm32f1xx_ll_exti.h ****   *         @arg @ref LL_EXTI_LINE_17
 260:Drivers/STM32F1xx_HAL_Driver/Inc/stm32f1xx_ll_exti.h ****   *         @arg @ref LL_EXTI_LINE_18
 261:Drivers/STM32F1xx_HAL_Driver/Inc/stm32f1xx_ll_exti.h ****   *         @arg @ref LL_EXTI_LINE_19
 262:Drivers/STM32F1xx_HAL_Driver/Inc/stm32f1xx_ll_exti.h ****   *         @arg @ref LL_EXTI_LINE_ALL_0_31
 263:Drivers/STM32F1xx_HAL_Driver/Inc/stm32f1xx_ll_exti.h ****   * @note   Please check each device line mapping for EXTI Line availability
 264:Drivers/STM32F1xx_HAL_Driver/Inc/stm32f1xx_ll_exti.h ****   * @retval None
 265:Drivers/STM32F1xx_HAL_Driver/Inc/stm32f1xx_ll_exti.h ****   */
 266:Drivers/STM32F1xx_HAL_Driver/Inc/stm32f1xx_ll_exti.h **** __STATIC_INLINE void LL_EXTI_EnableIT_0_31(uint32_t ExtiLine)
 267:Drivers/STM32F1xx_HAL_Driver/Inc/stm32f1xx_ll_exti.h **** {
 268:Drivers/STM32F1xx_HAL_Driver/Inc/stm32f1xx_ll_exti.h ****   SET_BIT(EXTI->IMR, ExtiLine);
 269:Drivers/STM32F1xx_HAL_Driver/Inc/stm32f1xx_ll_exti.h **** }
 270:Drivers/STM32F1xx_HAL_Driver/Inc/stm32f1xx_ll_exti.h **** 
 271:Drivers/STM32F1xx_HAL_Driver/Inc/stm32f1xx_ll_exti.h **** /**
 272:Drivers/STM32F1xx_HAL_Driver/Inc/stm32f1xx_ll_exti.h ****   * @brief  Disable ExtiLine Interrupt request for Lines in range 0 to 31
 273:Drivers/STM32F1xx_HAL_Driver/Inc/stm32f1xx_ll_exti.h ****   * @note The reset value for the direct or internal lines (see RM)
 274:Drivers/STM32F1xx_HAL_Driver/Inc/stm32f1xx_ll_exti.h ****   *       is set to 1 in order to enable the interrupt by default.
 275:Drivers/STM32F1xx_HAL_Driver/Inc/stm32f1xx_ll_exti.h ****   *       Bits are set automatically at Power on.
 276:Drivers/STM32F1xx_HAL_Driver/Inc/stm32f1xx_ll_exti.h ****   * @rmtoll IMR         IMx           LL_EXTI_DisableIT_0_31
 277:Drivers/STM32F1xx_HAL_Driver/Inc/stm32f1xx_ll_exti.h ****   * @param  ExtiLine This parameter can be one of the following values:
 278:Drivers/STM32F1xx_HAL_Driver/Inc/stm32f1xx_ll_exti.h ****   *         @arg @ref LL_EXTI_LINE_0
 279:Drivers/STM32F1xx_HAL_Driver/Inc/stm32f1xx_ll_exti.h ****   *         @arg @ref LL_EXTI_LINE_1
 280:Drivers/STM32F1xx_HAL_Driver/Inc/stm32f1xx_ll_exti.h ****   *         @arg @ref LL_EXTI_LINE_2
 281:Drivers/STM32F1xx_HAL_Driver/Inc/stm32f1xx_ll_exti.h ****   *         @arg @ref LL_EXTI_LINE_3
 282:Drivers/STM32F1xx_HAL_Driver/Inc/stm32f1xx_ll_exti.h ****   *         @arg @ref LL_EXTI_LINE_4
 283:Drivers/STM32F1xx_HAL_Driver/Inc/stm32f1xx_ll_exti.h ****   *         @arg @ref LL_EXTI_LINE_5
 284:Drivers/STM32F1xx_HAL_Driver/Inc/stm32f1xx_ll_exti.h ****   *         @arg @ref LL_EXTI_LINE_6
 285:Drivers/STM32F1xx_HAL_Driver/Inc/stm32f1xx_ll_exti.h ****   *         @arg @ref LL_EXTI_LINE_7
 286:Drivers/STM32F1xx_HAL_Driver/Inc/stm32f1xx_ll_exti.h ****   *         @arg @ref LL_EXTI_LINE_8
 287:Drivers/STM32F1xx_HAL_Driver/Inc/stm32f1xx_ll_exti.h ****   *         @arg @ref LL_EXTI_LINE_9
ARM GAS  /var/folders/m1/3lv6xmzs0mlckxs4mx90nfb40000gn/T//cclHv6kQ.s 			page 10


 288:Drivers/STM32F1xx_HAL_Driver/Inc/stm32f1xx_ll_exti.h ****   *         @arg @ref LL_EXTI_LINE_10
 289:Drivers/STM32F1xx_HAL_Driver/Inc/stm32f1xx_ll_exti.h ****   *         @arg @ref LL_EXTI_LINE_11
 290:Drivers/STM32F1xx_HAL_Driver/Inc/stm32f1xx_ll_exti.h ****   *         @arg @ref LL_EXTI_LINE_12
 291:Drivers/STM32F1xx_HAL_Driver/Inc/stm32f1xx_ll_exti.h ****   *         @arg @ref LL_EXTI_LINE_13
 292:Drivers/STM32F1xx_HAL_Driver/Inc/stm32f1xx_ll_exti.h ****   *         @arg @ref LL_EXTI_LINE_14
 293:Drivers/STM32F1xx_HAL_Driver/Inc/stm32f1xx_ll_exti.h ****   *         @arg @ref LL_EXTI_LINE_15
 294:Drivers/STM32F1xx_HAL_Driver/Inc/stm32f1xx_ll_exti.h ****   *         @arg @ref LL_EXTI_LINE_16
 295:Drivers/STM32F1xx_HAL_Driver/Inc/stm32f1xx_ll_exti.h ****   *         @arg @ref LL_EXTI_LINE_17
 296:Drivers/STM32F1xx_HAL_Driver/Inc/stm32f1xx_ll_exti.h ****   *         @arg @ref LL_EXTI_LINE_18
 297:Drivers/STM32F1xx_HAL_Driver/Inc/stm32f1xx_ll_exti.h ****   *         @arg @ref LL_EXTI_LINE_19
 298:Drivers/STM32F1xx_HAL_Driver/Inc/stm32f1xx_ll_exti.h ****   *         @arg @ref LL_EXTI_LINE_ALL_0_31
 299:Drivers/STM32F1xx_HAL_Driver/Inc/stm32f1xx_ll_exti.h ****   * @note   Please check each device line mapping for EXTI Line availability
 300:Drivers/STM32F1xx_HAL_Driver/Inc/stm32f1xx_ll_exti.h ****   * @retval None
 301:Drivers/STM32F1xx_HAL_Driver/Inc/stm32f1xx_ll_exti.h ****   */
 302:Drivers/STM32F1xx_HAL_Driver/Inc/stm32f1xx_ll_exti.h **** __STATIC_INLINE void LL_EXTI_DisableIT_0_31(uint32_t ExtiLine)
 303:Drivers/STM32F1xx_HAL_Driver/Inc/stm32f1xx_ll_exti.h **** {
 304:Drivers/STM32F1xx_HAL_Driver/Inc/stm32f1xx_ll_exti.h ****   CLEAR_BIT(EXTI->IMR, ExtiLine);
 305:Drivers/STM32F1xx_HAL_Driver/Inc/stm32f1xx_ll_exti.h **** }
 306:Drivers/STM32F1xx_HAL_Driver/Inc/stm32f1xx_ll_exti.h **** 
 307:Drivers/STM32F1xx_HAL_Driver/Inc/stm32f1xx_ll_exti.h **** 
 308:Drivers/STM32F1xx_HAL_Driver/Inc/stm32f1xx_ll_exti.h **** /**
 309:Drivers/STM32F1xx_HAL_Driver/Inc/stm32f1xx_ll_exti.h ****   * @brief  Indicate if ExtiLine Interrupt request is enabled for Lines in range 0 to 31
 310:Drivers/STM32F1xx_HAL_Driver/Inc/stm32f1xx_ll_exti.h ****   * @note The reset value for the direct or internal lines (see RM)
 311:Drivers/STM32F1xx_HAL_Driver/Inc/stm32f1xx_ll_exti.h ****   *       is set to 1 in order to enable the interrupt by default.
 312:Drivers/STM32F1xx_HAL_Driver/Inc/stm32f1xx_ll_exti.h ****   *       Bits are set automatically at Power on.
 313:Drivers/STM32F1xx_HAL_Driver/Inc/stm32f1xx_ll_exti.h ****   * @rmtoll IMR         IMx           LL_EXTI_IsEnabledIT_0_31
 314:Drivers/STM32F1xx_HAL_Driver/Inc/stm32f1xx_ll_exti.h ****   * @param  ExtiLine This parameter can be one of the following values:
 315:Drivers/STM32F1xx_HAL_Driver/Inc/stm32f1xx_ll_exti.h ****   *         @arg @ref LL_EXTI_LINE_0
 316:Drivers/STM32F1xx_HAL_Driver/Inc/stm32f1xx_ll_exti.h ****   *         @arg @ref LL_EXTI_LINE_1
 317:Drivers/STM32F1xx_HAL_Driver/Inc/stm32f1xx_ll_exti.h ****   *         @arg @ref LL_EXTI_LINE_2
 318:Drivers/STM32F1xx_HAL_Driver/Inc/stm32f1xx_ll_exti.h ****   *         @arg @ref LL_EXTI_LINE_3
 319:Drivers/STM32F1xx_HAL_Driver/Inc/stm32f1xx_ll_exti.h ****   *         @arg @ref LL_EXTI_LINE_4
 320:Drivers/STM32F1xx_HAL_Driver/Inc/stm32f1xx_ll_exti.h ****   *         @arg @ref LL_EXTI_LINE_5
 321:Drivers/STM32F1xx_HAL_Driver/Inc/stm32f1xx_ll_exti.h ****   *         @arg @ref LL_EXTI_LINE_6
 322:Drivers/STM32F1xx_HAL_Driver/Inc/stm32f1xx_ll_exti.h ****   *         @arg @ref LL_EXTI_LINE_7
 323:Drivers/STM32F1xx_HAL_Driver/Inc/stm32f1xx_ll_exti.h ****   *         @arg @ref LL_EXTI_LINE_8
 324:Drivers/STM32F1xx_HAL_Driver/Inc/stm32f1xx_ll_exti.h ****   *         @arg @ref LL_EXTI_LINE_9
 325:Drivers/STM32F1xx_HAL_Driver/Inc/stm32f1xx_ll_exti.h ****   *         @arg @ref LL_EXTI_LINE_10
 326:Drivers/STM32F1xx_HAL_Driver/Inc/stm32f1xx_ll_exti.h ****   *         @arg @ref LL_EXTI_LINE_11
 327:Drivers/STM32F1xx_HAL_Driver/Inc/stm32f1xx_ll_exti.h ****   *         @arg @ref LL_EXTI_LINE_12
 328:Drivers/STM32F1xx_HAL_Driver/Inc/stm32f1xx_ll_exti.h ****   *         @arg @ref LL_EXTI_LINE_13
 329:Drivers/STM32F1xx_HAL_Driver/Inc/stm32f1xx_ll_exti.h ****   *         @arg @ref LL_EXTI_LINE_14
 330:Drivers/STM32F1xx_HAL_Driver/Inc/stm32f1xx_ll_exti.h ****   *         @arg @ref LL_EXTI_LINE_15
 331:Drivers/STM32F1xx_HAL_Driver/Inc/stm32f1xx_ll_exti.h ****   *         @arg @ref LL_EXTI_LINE_16
 332:Drivers/STM32F1xx_HAL_Driver/Inc/stm32f1xx_ll_exti.h ****   *         @arg @ref LL_EXTI_LINE_17
 333:Drivers/STM32F1xx_HAL_Driver/Inc/stm32f1xx_ll_exti.h ****   *         @arg @ref LL_EXTI_LINE_18
 334:Drivers/STM32F1xx_HAL_Driver/Inc/stm32f1xx_ll_exti.h ****   *         @arg @ref LL_EXTI_LINE_19
 335:Drivers/STM32F1xx_HAL_Driver/Inc/stm32f1xx_ll_exti.h ****   *         @arg @ref LL_EXTI_LINE_ALL_0_31
 336:Drivers/STM32F1xx_HAL_Driver/Inc/stm32f1xx_ll_exti.h ****   * @note   Please check each device line mapping for EXTI Line availability
 337:Drivers/STM32F1xx_HAL_Driver/Inc/stm32f1xx_ll_exti.h ****   * @retval State of bit (1 or 0).
 338:Drivers/STM32F1xx_HAL_Driver/Inc/stm32f1xx_ll_exti.h ****   */
 339:Drivers/STM32F1xx_HAL_Driver/Inc/stm32f1xx_ll_exti.h **** __STATIC_INLINE uint32_t LL_EXTI_IsEnabledIT_0_31(uint32_t ExtiLine)
 340:Drivers/STM32F1xx_HAL_Driver/Inc/stm32f1xx_ll_exti.h **** {
 341:Drivers/STM32F1xx_HAL_Driver/Inc/stm32f1xx_ll_exti.h ****   return (READ_BIT(EXTI->IMR, ExtiLine) == (ExtiLine));
 342:Drivers/STM32F1xx_HAL_Driver/Inc/stm32f1xx_ll_exti.h **** }
 343:Drivers/STM32F1xx_HAL_Driver/Inc/stm32f1xx_ll_exti.h **** 
 344:Drivers/STM32F1xx_HAL_Driver/Inc/stm32f1xx_ll_exti.h **** 
ARM GAS  /var/folders/m1/3lv6xmzs0mlckxs4mx90nfb40000gn/T//cclHv6kQ.s 			page 11


 345:Drivers/STM32F1xx_HAL_Driver/Inc/stm32f1xx_ll_exti.h **** /**
 346:Drivers/STM32F1xx_HAL_Driver/Inc/stm32f1xx_ll_exti.h ****   * @}
 347:Drivers/STM32F1xx_HAL_Driver/Inc/stm32f1xx_ll_exti.h ****   */
 348:Drivers/STM32F1xx_HAL_Driver/Inc/stm32f1xx_ll_exti.h **** 
 349:Drivers/STM32F1xx_HAL_Driver/Inc/stm32f1xx_ll_exti.h **** /** @defgroup EXTI_LL_EF_Event_Management Event_Management
 350:Drivers/STM32F1xx_HAL_Driver/Inc/stm32f1xx_ll_exti.h ****   * @{
 351:Drivers/STM32F1xx_HAL_Driver/Inc/stm32f1xx_ll_exti.h ****   */
 352:Drivers/STM32F1xx_HAL_Driver/Inc/stm32f1xx_ll_exti.h **** 
 353:Drivers/STM32F1xx_HAL_Driver/Inc/stm32f1xx_ll_exti.h **** /**
 354:Drivers/STM32F1xx_HAL_Driver/Inc/stm32f1xx_ll_exti.h ****   * @brief  Enable ExtiLine Event request for Lines in range 0 to 31
 355:Drivers/STM32F1xx_HAL_Driver/Inc/stm32f1xx_ll_exti.h ****   * @rmtoll EMR         EMx           LL_EXTI_EnableEvent_0_31
 356:Drivers/STM32F1xx_HAL_Driver/Inc/stm32f1xx_ll_exti.h ****   * @param  ExtiLine This parameter can be one of the following values:
 357:Drivers/STM32F1xx_HAL_Driver/Inc/stm32f1xx_ll_exti.h ****   *         @arg @ref LL_EXTI_LINE_0
 358:Drivers/STM32F1xx_HAL_Driver/Inc/stm32f1xx_ll_exti.h ****   *         @arg @ref LL_EXTI_LINE_1
 359:Drivers/STM32F1xx_HAL_Driver/Inc/stm32f1xx_ll_exti.h ****   *         @arg @ref LL_EXTI_LINE_2
 360:Drivers/STM32F1xx_HAL_Driver/Inc/stm32f1xx_ll_exti.h ****   *         @arg @ref LL_EXTI_LINE_3
 361:Drivers/STM32F1xx_HAL_Driver/Inc/stm32f1xx_ll_exti.h ****   *         @arg @ref LL_EXTI_LINE_4
 362:Drivers/STM32F1xx_HAL_Driver/Inc/stm32f1xx_ll_exti.h ****   *         @arg @ref LL_EXTI_LINE_5
 363:Drivers/STM32F1xx_HAL_Driver/Inc/stm32f1xx_ll_exti.h ****   *         @arg @ref LL_EXTI_LINE_6
 364:Drivers/STM32F1xx_HAL_Driver/Inc/stm32f1xx_ll_exti.h ****   *         @arg @ref LL_EXTI_LINE_7
 365:Drivers/STM32F1xx_HAL_Driver/Inc/stm32f1xx_ll_exti.h ****   *         @arg @ref LL_EXTI_LINE_8
 366:Drivers/STM32F1xx_HAL_Driver/Inc/stm32f1xx_ll_exti.h ****   *         @arg @ref LL_EXTI_LINE_9
 367:Drivers/STM32F1xx_HAL_Driver/Inc/stm32f1xx_ll_exti.h ****   *         @arg @ref LL_EXTI_LINE_10
 368:Drivers/STM32F1xx_HAL_Driver/Inc/stm32f1xx_ll_exti.h ****   *         @arg @ref LL_EXTI_LINE_11
 369:Drivers/STM32F1xx_HAL_Driver/Inc/stm32f1xx_ll_exti.h ****   *         @arg @ref LL_EXTI_LINE_12
 370:Drivers/STM32F1xx_HAL_Driver/Inc/stm32f1xx_ll_exti.h ****   *         @arg @ref LL_EXTI_LINE_13
 371:Drivers/STM32F1xx_HAL_Driver/Inc/stm32f1xx_ll_exti.h ****   *         @arg @ref LL_EXTI_LINE_14
 372:Drivers/STM32F1xx_HAL_Driver/Inc/stm32f1xx_ll_exti.h ****   *         @arg @ref LL_EXTI_LINE_15
 373:Drivers/STM32F1xx_HAL_Driver/Inc/stm32f1xx_ll_exti.h ****   *         @arg @ref LL_EXTI_LINE_16
 374:Drivers/STM32F1xx_HAL_Driver/Inc/stm32f1xx_ll_exti.h ****   *         @arg @ref LL_EXTI_LINE_17
 375:Drivers/STM32F1xx_HAL_Driver/Inc/stm32f1xx_ll_exti.h ****   *         @arg @ref LL_EXTI_LINE_18
 376:Drivers/STM32F1xx_HAL_Driver/Inc/stm32f1xx_ll_exti.h ****   *         @arg @ref LL_EXTI_LINE_19
 377:Drivers/STM32F1xx_HAL_Driver/Inc/stm32f1xx_ll_exti.h ****   *         @arg @ref LL_EXTI_LINE_ALL_0_31
 378:Drivers/STM32F1xx_HAL_Driver/Inc/stm32f1xx_ll_exti.h ****   * @note   Please check each device line mapping for EXTI Line availability
 379:Drivers/STM32F1xx_HAL_Driver/Inc/stm32f1xx_ll_exti.h ****   * @retval None
 380:Drivers/STM32F1xx_HAL_Driver/Inc/stm32f1xx_ll_exti.h ****   */
 381:Drivers/STM32F1xx_HAL_Driver/Inc/stm32f1xx_ll_exti.h **** __STATIC_INLINE void LL_EXTI_EnableEvent_0_31(uint32_t ExtiLine)
 382:Drivers/STM32F1xx_HAL_Driver/Inc/stm32f1xx_ll_exti.h **** {
 383:Drivers/STM32F1xx_HAL_Driver/Inc/stm32f1xx_ll_exti.h ****   SET_BIT(EXTI->EMR, ExtiLine);
 101              		.loc 2 383 0
 102 0016 0021     		movs	r1, #0
 103              	.LBE31:
 104              	.LBE30:
 105              	.LBB33:
 106              	.LBB34:
 268:Drivers/STM32F1xx_HAL_Driver/Inc/stm32f1xx_ll_exti.h **** }
 107              		.loc 2 268 0
 108 0018 274A     		ldr	r2, .L28
 109 001a 1468     		ldr	r4, [r2]
 110 001c 1C43     		orrs	r4, r4, r3
 111 001e 1460     		str	r4, [r2]
 112              	.LVL2:
 113              	.LBE34:
 114              	.LBE33:
 115              	.LBB35:
 116              	.LBB32:
 117              		.loc 2 383 0
ARM GAS  /var/folders/m1/3lv6xmzs0mlckxs4mx90nfb40000gn/T//cclHv6kQ.s 			page 12


 118 0020 5468     		ldr	r4, [r2, #4]
 119 0022 1C43     		orrs	r4, r4, r3
 120 0024 5460     		str	r4, [r2, #4]
 121              	.L8:
 122              	.LVL3:
 123              	.LBE32:
 124              	.LBE35:
 123:Drivers/STM32F1xx_HAL_Driver/Src/stm32f1xx_ll_exti.c ****       {
 124:Drivers/STM32F1xx_HAL_Driver/Src/stm32f1xx_ll_exti.c ****         case LL_EXTI_MODE_IT:
 125:Drivers/STM32F1xx_HAL_Driver/Src/stm32f1xx_ll_exti.c ****           /* First Disable Event on provided Lines */
 126:Drivers/STM32F1xx_HAL_Driver/Src/stm32f1xx_ll_exti.c ****           LL_EXTI_DisableEvent_0_31(EXTI_InitStruct->Line_0_31);
 127:Drivers/STM32F1xx_HAL_Driver/Src/stm32f1xx_ll_exti.c ****           /* Then Enable IT on provided Lines */
 128:Drivers/STM32F1xx_HAL_Driver/Src/stm32f1xx_ll_exti.c ****           LL_EXTI_EnableIT_0_31(EXTI_InitStruct->Line_0_31);
 129:Drivers/STM32F1xx_HAL_Driver/Src/stm32f1xx_ll_exti.c ****           break;
 130:Drivers/STM32F1xx_HAL_Driver/Src/stm32f1xx_ll_exti.c ****         case LL_EXTI_MODE_EVENT:
 131:Drivers/STM32F1xx_HAL_Driver/Src/stm32f1xx_ll_exti.c ****           /* First Disable IT on provided Lines */
 132:Drivers/STM32F1xx_HAL_Driver/Src/stm32f1xx_ll_exti.c ****           LL_EXTI_DisableIT_0_31(EXTI_InitStruct->Line_0_31);
 133:Drivers/STM32F1xx_HAL_Driver/Src/stm32f1xx_ll_exti.c ****           /* Then Enable Event on provided Lines */
 134:Drivers/STM32F1xx_HAL_Driver/Src/stm32f1xx_ll_exti.c ****           LL_EXTI_EnableEvent_0_31(EXTI_InitStruct->Line_0_31);
 135:Drivers/STM32F1xx_HAL_Driver/Src/stm32f1xx_ll_exti.c ****           break;
 136:Drivers/STM32F1xx_HAL_Driver/Src/stm32f1xx_ll_exti.c ****         case LL_EXTI_MODE_IT_EVENT:
 137:Drivers/STM32F1xx_HAL_Driver/Src/stm32f1xx_ll_exti.c ****           /* Directly Enable IT & Event on provided Lines */
 138:Drivers/STM32F1xx_HAL_Driver/Src/stm32f1xx_ll_exti.c ****           LL_EXTI_EnableIT_0_31(EXTI_InitStruct->Line_0_31);
 139:Drivers/STM32F1xx_HAL_Driver/Src/stm32f1xx_ll_exti.c ****           LL_EXTI_EnableEvent_0_31(EXTI_InitStruct->Line_0_31);
 140:Drivers/STM32F1xx_HAL_Driver/Src/stm32f1xx_ll_exti.c ****           break;
 141:Drivers/STM32F1xx_HAL_Driver/Src/stm32f1xx_ll_exti.c ****         default:
 142:Drivers/STM32F1xx_HAL_Driver/Src/stm32f1xx_ll_exti.c ****           status = ERROR;
 143:Drivers/STM32F1xx_HAL_Driver/Src/stm32f1xx_ll_exti.c ****           break;
 144:Drivers/STM32F1xx_HAL_Driver/Src/stm32f1xx_ll_exti.c ****       }
 145:Drivers/STM32F1xx_HAL_Driver/Src/stm32f1xx_ll_exti.c ****       if (EXTI_InitStruct->Trigger != LL_EXTI_TRIGGER_NONE)
 125              		.loc 1 145 0
 126 0026 8279     		ldrb	r2, [r0, #6]	@ zero_extendqisi2
 127 0028 32B3     		cbz	r2, .L25
 146:Drivers/STM32F1xx_HAL_Driver/Src/stm32f1xx_ll_exti.c ****       {
 147:Drivers/STM32F1xx_HAL_Driver/Src/stm32f1xx_ll_exti.c ****         switch (EXTI_InitStruct->Trigger)
 128              		.loc 1 147 0
 129 002a 022A     		cmp	r2, #2
 130 002c 3ED0     		beq	.L12
 131 002e 032A     		cmp	r2, #3
 132 0030 1BD0     		beq	.L13
 133 0032 012A     		cmp	r2, #1
 134 0034 30D0     		beq	.L27
 135 0036 0123     		movs	r3, #1
 136              	.LVL4:
 137              	.L5:
 148:Drivers/STM32F1xx_HAL_Driver/Src/stm32f1xx_ll_exti.c ****         {
 149:Drivers/STM32F1xx_HAL_Driver/Src/stm32f1xx_ll_exti.c ****           case LL_EXTI_TRIGGER_RISING:
 150:Drivers/STM32F1xx_HAL_Driver/Src/stm32f1xx_ll_exti.c ****             /* First Disable Falling Trigger on provided Lines */
 151:Drivers/STM32F1xx_HAL_Driver/Src/stm32f1xx_ll_exti.c ****             LL_EXTI_DisableFallingTrig_0_31(EXTI_InitStruct->Line_0_31);
 152:Drivers/STM32F1xx_HAL_Driver/Src/stm32f1xx_ll_exti.c ****             /* Then Enable Rising Trigger on provided Lines */
 153:Drivers/STM32F1xx_HAL_Driver/Src/stm32f1xx_ll_exti.c ****             LL_EXTI_EnableRisingTrig_0_31(EXTI_InitStruct->Line_0_31);
 154:Drivers/STM32F1xx_HAL_Driver/Src/stm32f1xx_ll_exti.c ****             break;
 155:Drivers/STM32F1xx_HAL_Driver/Src/stm32f1xx_ll_exti.c ****           case LL_EXTI_TRIGGER_FALLING:
 156:Drivers/STM32F1xx_HAL_Driver/Src/stm32f1xx_ll_exti.c ****             /* First Disable Rising Trigger on provided Lines */
 157:Drivers/STM32F1xx_HAL_Driver/Src/stm32f1xx_ll_exti.c ****             LL_EXTI_DisableRisingTrig_0_31(EXTI_InitStruct->Line_0_31);
 158:Drivers/STM32F1xx_HAL_Driver/Src/stm32f1xx_ll_exti.c ****             /* Then Enable Falling Trigger on provided Lines */
 159:Drivers/STM32F1xx_HAL_Driver/Src/stm32f1xx_ll_exti.c ****             LL_EXTI_EnableFallingTrig_0_31(EXTI_InitStruct->Line_0_31);
ARM GAS  /var/folders/m1/3lv6xmzs0mlckxs4mx90nfb40000gn/T//cclHv6kQ.s 			page 13


 160:Drivers/STM32F1xx_HAL_Driver/Src/stm32f1xx_ll_exti.c ****             break;
 161:Drivers/STM32F1xx_HAL_Driver/Src/stm32f1xx_ll_exti.c ****           case LL_EXTI_TRIGGER_RISING_FALLING:
 162:Drivers/STM32F1xx_HAL_Driver/Src/stm32f1xx_ll_exti.c ****             LL_EXTI_EnableRisingTrig_0_31(EXTI_InitStruct->Line_0_31);
 163:Drivers/STM32F1xx_HAL_Driver/Src/stm32f1xx_ll_exti.c ****             LL_EXTI_EnableFallingTrig_0_31(EXTI_InitStruct->Line_0_31);
 164:Drivers/STM32F1xx_HAL_Driver/Src/stm32f1xx_ll_exti.c ****             break;
 165:Drivers/STM32F1xx_HAL_Driver/Src/stm32f1xx_ll_exti.c ****           default:
 166:Drivers/STM32F1xx_HAL_Driver/Src/stm32f1xx_ll_exti.c ****             status = ERROR;
 167:Drivers/STM32F1xx_HAL_Driver/Src/stm32f1xx_ll_exti.c ****             break;
 168:Drivers/STM32F1xx_HAL_Driver/Src/stm32f1xx_ll_exti.c ****         }
 169:Drivers/STM32F1xx_HAL_Driver/Src/stm32f1xx_ll_exti.c ****       }
 170:Drivers/STM32F1xx_HAL_Driver/Src/stm32f1xx_ll_exti.c ****     }
 171:Drivers/STM32F1xx_HAL_Driver/Src/stm32f1xx_ll_exti.c ****   }
 172:Drivers/STM32F1xx_HAL_Driver/Src/stm32f1xx_ll_exti.c ****   /* DISABLE LineCommand */
 173:Drivers/STM32F1xx_HAL_Driver/Src/stm32f1xx_ll_exti.c ****   else
 174:Drivers/STM32F1xx_HAL_Driver/Src/stm32f1xx_ll_exti.c ****   {
 175:Drivers/STM32F1xx_HAL_Driver/Src/stm32f1xx_ll_exti.c ****     /* De-configure EXTI Lines in range from 0 to 31 */
 176:Drivers/STM32F1xx_HAL_Driver/Src/stm32f1xx_ll_exti.c ****     LL_EXTI_DisableIT_0_31(EXTI_InitStruct->Line_0_31);
 177:Drivers/STM32F1xx_HAL_Driver/Src/stm32f1xx_ll_exti.c ****     LL_EXTI_DisableEvent_0_31(EXTI_InitStruct->Line_0_31);
 178:Drivers/STM32F1xx_HAL_Driver/Src/stm32f1xx_ll_exti.c ****   }
 179:Drivers/STM32F1xx_HAL_Driver/Src/stm32f1xx_ll_exti.c ****   return status;
 180:Drivers/STM32F1xx_HAL_Driver/Src/stm32f1xx_ll_exti.c **** }
 138              		.loc 1 180 0
 139 0038 1846     		mov	r0, r3
 140 003a 10BC     		pop	{r4}
 141              	.LCFI1:
 142              		.cfi_remember_state
 143              		.cfi_restore 4
 144              		.cfi_def_cfa_offset 0
 145 003c 7047     		bx	lr
 146              	.LVL5:
 147              	.L6:
 148              	.LCFI2:
 149              		.cfi_restore_state
 150              	.LBB36:
 151              	.LBB37:
 304:Drivers/STM32F1xx_HAL_Driver/Inc/stm32f1xx_ll_exti.h **** }
 152              		.loc 2 304 0
 153 003e DC43     		mvns	r4, r3
 154              	.LBE37:
 155              	.LBE36:
 156              	.LBB39:
 157              	.LBB40:
 384:Drivers/STM32F1xx_HAL_Driver/Inc/stm32f1xx_ll_exti.h **** 
 385:Drivers/STM32F1xx_HAL_Driver/Inc/stm32f1xx_ll_exti.h **** }
 386:Drivers/STM32F1xx_HAL_Driver/Inc/stm32f1xx_ll_exti.h **** 
 387:Drivers/STM32F1xx_HAL_Driver/Inc/stm32f1xx_ll_exti.h **** 
 388:Drivers/STM32F1xx_HAL_Driver/Inc/stm32f1xx_ll_exti.h **** /**
 389:Drivers/STM32F1xx_HAL_Driver/Inc/stm32f1xx_ll_exti.h ****   * @brief  Disable ExtiLine Event request for Lines in range 0 to 31
 390:Drivers/STM32F1xx_HAL_Driver/Inc/stm32f1xx_ll_exti.h ****   * @rmtoll EMR         EMx           LL_EXTI_DisableEvent_0_31
 391:Drivers/STM32F1xx_HAL_Driver/Inc/stm32f1xx_ll_exti.h ****   * @param  ExtiLine This parameter can be one of the following values:
 392:Drivers/STM32F1xx_HAL_Driver/Inc/stm32f1xx_ll_exti.h ****   *         @arg @ref LL_EXTI_LINE_0
 393:Drivers/STM32F1xx_HAL_Driver/Inc/stm32f1xx_ll_exti.h ****   *         @arg @ref LL_EXTI_LINE_1
 394:Drivers/STM32F1xx_HAL_Driver/Inc/stm32f1xx_ll_exti.h ****   *         @arg @ref LL_EXTI_LINE_2
 395:Drivers/STM32F1xx_HAL_Driver/Inc/stm32f1xx_ll_exti.h ****   *         @arg @ref LL_EXTI_LINE_3
 396:Drivers/STM32F1xx_HAL_Driver/Inc/stm32f1xx_ll_exti.h ****   *         @arg @ref LL_EXTI_LINE_4
 397:Drivers/STM32F1xx_HAL_Driver/Inc/stm32f1xx_ll_exti.h ****   *         @arg @ref LL_EXTI_LINE_5
 398:Drivers/STM32F1xx_HAL_Driver/Inc/stm32f1xx_ll_exti.h ****   *         @arg @ref LL_EXTI_LINE_6
ARM GAS  /var/folders/m1/3lv6xmzs0mlckxs4mx90nfb40000gn/T//cclHv6kQ.s 			page 14


 399:Drivers/STM32F1xx_HAL_Driver/Inc/stm32f1xx_ll_exti.h ****   *         @arg @ref LL_EXTI_LINE_7
 400:Drivers/STM32F1xx_HAL_Driver/Inc/stm32f1xx_ll_exti.h ****   *         @arg @ref LL_EXTI_LINE_8
 401:Drivers/STM32F1xx_HAL_Driver/Inc/stm32f1xx_ll_exti.h ****   *         @arg @ref LL_EXTI_LINE_9
 402:Drivers/STM32F1xx_HAL_Driver/Inc/stm32f1xx_ll_exti.h ****   *         @arg @ref LL_EXTI_LINE_10
 403:Drivers/STM32F1xx_HAL_Driver/Inc/stm32f1xx_ll_exti.h ****   *         @arg @ref LL_EXTI_LINE_11
 404:Drivers/STM32F1xx_HAL_Driver/Inc/stm32f1xx_ll_exti.h ****   *         @arg @ref LL_EXTI_LINE_12
 405:Drivers/STM32F1xx_HAL_Driver/Inc/stm32f1xx_ll_exti.h ****   *         @arg @ref LL_EXTI_LINE_13
 406:Drivers/STM32F1xx_HAL_Driver/Inc/stm32f1xx_ll_exti.h ****   *         @arg @ref LL_EXTI_LINE_14
 407:Drivers/STM32F1xx_HAL_Driver/Inc/stm32f1xx_ll_exti.h ****   *         @arg @ref LL_EXTI_LINE_15
 408:Drivers/STM32F1xx_HAL_Driver/Inc/stm32f1xx_ll_exti.h ****   *         @arg @ref LL_EXTI_LINE_16
 409:Drivers/STM32F1xx_HAL_Driver/Inc/stm32f1xx_ll_exti.h ****   *         @arg @ref LL_EXTI_LINE_17
 410:Drivers/STM32F1xx_HAL_Driver/Inc/stm32f1xx_ll_exti.h ****   *         @arg @ref LL_EXTI_LINE_18
 411:Drivers/STM32F1xx_HAL_Driver/Inc/stm32f1xx_ll_exti.h ****   *         @arg @ref LL_EXTI_LINE_19
 412:Drivers/STM32F1xx_HAL_Driver/Inc/stm32f1xx_ll_exti.h ****   *         @arg @ref LL_EXTI_LINE_ALL_0_31
 413:Drivers/STM32F1xx_HAL_Driver/Inc/stm32f1xx_ll_exti.h ****   * @note   Please check each device line mapping for EXTI Line availability
 414:Drivers/STM32F1xx_HAL_Driver/Inc/stm32f1xx_ll_exti.h ****   * @retval None
 415:Drivers/STM32F1xx_HAL_Driver/Inc/stm32f1xx_ll_exti.h ****   */
 416:Drivers/STM32F1xx_HAL_Driver/Inc/stm32f1xx_ll_exti.h **** __STATIC_INLINE void LL_EXTI_DisableEvent_0_31(uint32_t ExtiLine)
 417:Drivers/STM32F1xx_HAL_Driver/Inc/stm32f1xx_ll_exti.h **** {
 418:Drivers/STM32F1xx_HAL_Driver/Inc/stm32f1xx_ll_exti.h ****   CLEAR_BIT(EXTI->EMR, ExtiLine);
 158              		.loc 2 418 0
 159 0040 0B46     		mov	r3, r1
 160              	.LBE40:
 161              	.LBE39:
 162              	.LBB43:
 163              	.LBB38:
 304:Drivers/STM32F1xx_HAL_Driver/Inc/stm32f1xx_ll_exti.h **** }
 164              		.loc 2 304 0
 165 0042 1D4A     		ldr	r2, .L28
 166 0044 1068     		ldr	r0, [r2]
 167              	.LVL6:
 168 0046 2040     		ands	r0, r0, r4
 169 0048 1060     		str	r0, [r2]
 170              	.LVL7:
 171              	.LBE38:
 172              	.LBE43:
 173              	.LBB44:
 174              	.LBB41:
 175              		.loc 2 418 0
 176 004a 5168     		ldr	r1, [r2, #4]
 177              	.LBE41:
 178              	.LBE44:
 179              		.loc 1 180 0
 180 004c 1846     		mov	r0, r3
 181              	.LBB45:
 182              	.LBB42:
 183              		.loc 2 418 0
 184 004e 2140     		ands	r1, r1, r4
 185 0050 5160     		str	r1, [r2, #4]
 186              	.LBE42:
 187              	.LBE45:
 188              		.loc 1 180 0
 189 0052 10BC     		pop	{r4}
 190              	.LCFI3:
 191              		.cfi_remember_state
 192              		.cfi_restore 4
 193              		.cfi_def_cfa_offset 0
ARM GAS  /var/folders/m1/3lv6xmzs0mlckxs4mx90nfb40000gn/T//cclHv6kQ.s 			page 15


 194 0054 7047     		bx	lr
 195              	.LVL8:
 196              	.L10:
 197              	.LCFI4:
 198              		.cfi_restore_state
 199              	.LBB46:
 200              	.LBB47:
 201              		.loc 2 418 0
 202 0056 184A     		ldr	r2, .L28
 203              	.LBE47:
 204              	.LBE46:
 205              	.LBB49:
 206              	.LBB50:
 268:Drivers/STM32F1xx_HAL_Driver/Inc/stm32f1xx_ll_exti.h **** }
 207              		.loc 2 268 0
 208 0058 0021     		movs	r1, #0
 209              	.LBE50:
 210              	.LBE49:
 211              	.LBB52:
 212              	.LBB48:
 213              		.loc 2 418 0
 214 005a 5468     		ldr	r4, [r2, #4]
 215 005c 24EA0304 		bic	r4, r4, r3
 216 0060 5460     		str	r4, [r2, #4]
 217              	.LVL9:
 218              	.LBE48:
 219              	.LBE52:
 220              	.LBB53:
 221              	.LBB51:
 268:Drivers/STM32F1xx_HAL_Driver/Inc/stm32f1xx_ll_exti.h **** }
 222              		.loc 2 268 0
 223 0062 1468     		ldr	r4, [r2]
 224 0064 1C43     		orrs	r4, r4, r3
 225 0066 1460     		str	r4, [r2]
 226 0068 DDE7     		b	.L8
 227              	.LVL10:
 228              	.L13:
 229              	.LBE51:
 230              	.LBE53:
 231              	.LBB54:
 232              	.LBB55:
 419:Drivers/STM32F1xx_HAL_Driver/Inc/stm32f1xx_ll_exti.h **** }
 420:Drivers/STM32F1xx_HAL_Driver/Inc/stm32f1xx_ll_exti.h **** 
 421:Drivers/STM32F1xx_HAL_Driver/Inc/stm32f1xx_ll_exti.h **** 
 422:Drivers/STM32F1xx_HAL_Driver/Inc/stm32f1xx_ll_exti.h **** /**
 423:Drivers/STM32F1xx_HAL_Driver/Inc/stm32f1xx_ll_exti.h ****   * @brief  Indicate if ExtiLine Event request is enabled for Lines in range 0 to 31
 424:Drivers/STM32F1xx_HAL_Driver/Inc/stm32f1xx_ll_exti.h ****   * @rmtoll EMR         EMx           LL_EXTI_IsEnabledEvent_0_31
 425:Drivers/STM32F1xx_HAL_Driver/Inc/stm32f1xx_ll_exti.h ****   * @param  ExtiLine This parameter can be one of the following values:
 426:Drivers/STM32F1xx_HAL_Driver/Inc/stm32f1xx_ll_exti.h ****   *         @arg @ref LL_EXTI_LINE_0
 427:Drivers/STM32F1xx_HAL_Driver/Inc/stm32f1xx_ll_exti.h ****   *         @arg @ref LL_EXTI_LINE_1
 428:Drivers/STM32F1xx_HAL_Driver/Inc/stm32f1xx_ll_exti.h ****   *         @arg @ref LL_EXTI_LINE_2
 429:Drivers/STM32F1xx_HAL_Driver/Inc/stm32f1xx_ll_exti.h ****   *         @arg @ref LL_EXTI_LINE_3
 430:Drivers/STM32F1xx_HAL_Driver/Inc/stm32f1xx_ll_exti.h ****   *         @arg @ref LL_EXTI_LINE_4
 431:Drivers/STM32F1xx_HAL_Driver/Inc/stm32f1xx_ll_exti.h ****   *         @arg @ref LL_EXTI_LINE_5
 432:Drivers/STM32F1xx_HAL_Driver/Inc/stm32f1xx_ll_exti.h ****   *         @arg @ref LL_EXTI_LINE_6
 433:Drivers/STM32F1xx_HAL_Driver/Inc/stm32f1xx_ll_exti.h ****   *         @arg @ref LL_EXTI_LINE_7
 434:Drivers/STM32F1xx_HAL_Driver/Inc/stm32f1xx_ll_exti.h ****   *         @arg @ref LL_EXTI_LINE_8
ARM GAS  /var/folders/m1/3lv6xmzs0mlckxs4mx90nfb40000gn/T//cclHv6kQ.s 			page 16


 435:Drivers/STM32F1xx_HAL_Driver/Inc/stm32f1xx_ll_exti.h ****   *         @arg @ref LL_EXTI_LINE_9
 436:Drivers/STM32F1xx_HAL_Driver/Inc/stm32f1xx_ll_exti.h ****   *         @arg @ref LL_EXTI_LINE_10
 437:Drivers/STM32F1xx_HAL_Driver/Inc/stm32f1xx_ll_exti.h ****   *         @arg @ref LL_EXTI_LINE_11
 438:Drivers/STM32F1xx_HAL_Driver/Inc/stm32f1xx_ll_exti.h ****   *         @arg @ref LL_EXTI_LINE_12
 439:Drivers/STM32F1xx_HAL_Driver/Inc/stm32f1xx_ll_exti.h ****   *         @arg @ref LL_EXTI_LINE_13
 440:Drivers/STM32F1xx_HAL_Driver/Inc/stm32f1xx_ll_exti.h ****   *         @arg @ref LL_EXTI_LINE_14
 441:Drivers/STM32F1xx_HAL_Driver/Inc/stm32f1xx_ll_exti.h ****   *         @arg @ref LL_EXTI_LINE_15
 442:Drivers/STM32F1xx_HAL_Driver/Inc/stm32f1xx_ll_exti.h ****   *         @arg @ref LL_EXTI_LINE_16
 443:Drivers/STM32F1xx_HAL_Driver/Inc/stm32f1xx_ll_exti.h ****   *         @arg @ref LL_EXTI_LINE_17
 444:Drivers/STM32F1xx_HAL_Driver/Inc/stm32f1xx_ll_exti.h ****   *         @arg @ref LL_EXTI_LINE_18
 445:Drivers/STM32F1xx_HAL_Driver/Inc/stm32f1xx_ll_exti.h ****   *         @arg @ref LL_EXTI_LINE_19
 446:Drivers/STM32F1xx_HAL_Driver/Inc/stm32f1xx_ll_exti.h ****   *         @arg @ref LL_EXTI_LINE_ALL_0_31
 447:Drivers/STM32F1xx_HAL_Driver/Inc/stm32f1xx_ll_exti.h ****   * @note   Please check each device line mapping for EXTI Line availability
 448:Drivers/STM32F1xx_HAL_Driver/Inc/stm32f1xx_ll_exti.h ****   * @retval State of bit (1 or 0).
 449:Drivers/STM32F1xx_HAL_Driver/Inc/stm32f1xx_ll_exti.h ****   */
 450:Drivers/STM32F1xx_HAL_Driver/Inc/stm32f1xx_ll_exti.h **** __STATIC_INLINE uint32_t LL_EXTI_IsEnabledEvent_0_31(uint32_t ExtiLine)
 451:Drivers/STM32F1xx_HAL_Driver/Inc/stm32f1xx_ll_exti.h **** {
 452:Drivers/STM32F1xx_HAL_Driver/Inc/stm32f1xx_ll_exti.h ****   return (READ_BIT(EXTI->EMR, ExtiLine) == (ExtiLine));
 453:Drivers/STM32F1xx_HAL_Driver/Inc/stm32f1xx_ll_exti.h **** 
 454:Drivers/STM32F1xx_HAL_Driver/Inc/stm32f1xx_ll_exti.h **** }
 455:Drivers/STM32F1xx_HAL_Driver/Inc/stm32f1xx_ll_exti.h **** 
 456:Drivers/STM32F1xx_HAL_Driver/Inc/stm32f1xx_ll_exti.h **** 
 457:Drivers/STM32F1xx_HAL_Driver/Inc/stm32f1xx_ll_exti.h **** /**
 458:Drivers/STM32F1xx_HAL_Driver/Inc/stm32f1xx_ll_exti.h ****   * @}
 459:Drivers/STM32F1xx_HAL_Driver/Inc/stm32f1xx_ll_exti.h ****   */
 460:Drivers/STM32F1xx_HAL_Driver/Inc/stm32f1xx_ll_exti.h **** 
 461:Drivers/STM32F1xx_HAL_Driver/Inc/stm32f1xx_ll_exti.h **** /** @defgroup EXTI_LL_EF_Rising_Trigger_Management Rising_Trigger_Management
 462:Drivers/STM32F1xx_HAL_Driver/Inc/stm32f1xx_ll_exti.h ****   * @{
 463:Drivers/STM32F1xx_HAL_Driver/Inc/stm32f1xx_ll_exti.h ****   */
 464:Drivers/STM32F1xx_HAL_Driver/Inc/stm32f1xx_ll_exti.h **** 
 465:Drivers/STM32F1xx_HAL_Driver/Inc/stm32f1xx_ll_exti.h **** /**
 466:Drivers/STM32F1xx_HAL_Driver/Inc/stm32f1xx_ll_exti.h ****   * @brief  Enable ExtiLine Rising Edge Trigger for Lines in range 0 to 31
 467:Drivers/STM32F1xx_HAL_Driver/Inc/stm32f1xx_ll_exti.h ****   * @note The configurable wakeup lines are edge-triggered. No glitch must be
 468:Drivers/STM32F1xx_HAL_Driver/Inc/stm32f1xx_ll_exti.h ****   *       generated on these lines. If a rising edge on a configurable interrupt
 469:Drivers/STM32F1xx_HAL_Driver/Inc/stm32f1xx_ll_exti.h ****   *       line occurs during a write operation in the EXTI_RTSR register, the
 470:Drivers/STM32F1xx_HAL_Driver/Inc/stm32f1xx_ll_exti.h ****   *       pending bit is not set.
 471:Drivers/STM32F1xx_HAL_Driver/Inc/stm32f1xx_ll_exti.h ****   *       Rising and falling edge triggers can be set for
 472:Drivers/STM32F1xx_HAL_Driver/Inc/stm32f1xx_ll_exti.h ****   *       the same interrupt line. In this case, both generate a trigger
 473:Drivers/STM32F1xx_HAL_Driver/Inc/stm32f1xx_ll_exti.h ****   *       condition.
 474:Drivers/STM32F1xx_HAL_Driver/Inc/stm32f1xx_ll_exti.h ****   * @rmtoll RTSR        RTx           LL_EXTI_EnableRisingTrig_0_31
 475:Drivers/STM32F1xx_HAL_Driver/Inc/stm32f1xx_ll_exti.h ****   * @param  ExtiLine This parameter can be a combination of the following values:
 476:Drivers/STM32F1xx_HAL_Driver/Inc/stm32f1xx_ll_exti.h ****   *         @arg @ref LL_EXTI_LINE_0
 477:Drivers/STM32F1xx_HAL_Driver/Inc/stm32f1xx_ll_exti.h ****   *         @arg @ref LL_EXTI_LINE_1
 478:Drivers/STM32F1xx_HAL_Driver/Inc/stm32f1xx_ll_exti.h ****   *         @arg @ref LL_EXTI_LINE_2
 479:Drivers/STM32F1xx_HAL_Driver/Inc/stm32f1xx_ll_exti.h ****   *         @arg @ref LL_EXTI_LINE_3
 480:Drivers/STM32F1xx_HAL_Driver/Inc/stm32f1xx_ll_exti.h ****   *         @arg @ref LL_EXTI_LINE_4
 481:Drivers/STM32F1xx_HAL_Driver/Inc/stm32f1xx_ll_exti.h ****   *         @arg @ref LL_EXTI_LINE_5
 482:Drivers/STM32F1xx_HAL_Driver/Inc/stm32f1xx_ll_exti.h ****   *         @arg @ref LL_EXTI_LINE_6
 483:Drivers/STM32F1xx_HAL_Driver/Inc/stm32f1xx_ll_exti.h ****   *         @arg @ref LL_EXTI_LINE_7
 484:Drivers/STM32F1xx_HAL_Driver/Inc/stm32f1xx_ll_exti.h ****   *         @arg @ref LL_EXTI_LINE_8
 485:Drivers/STM32F1xx_HAL_Driver/Inc/stm32f1xx_ll_exti.h ****   *         @arg @ref LL_EXTI_LINE_9
 486:Drivers/STM32F1xx_HAL_Driver/Inc/stm32f1xx_ll_exti.h ****   *         @arg @ref LL_EXTI_LINE_10
 487:Drivers/STM32F1xx_HAL_Driver/Inc/stm32f1xx_ll_exti.h ****   *         @arg @ref LL_EXTI_LINE_11
 488:Drivers/STM32F1xx_HAL_Driver/Inc/stm32f1xx_ll_exti.h ****   *         @arg @ref LL_EXTI_LINE_12
 489:Drivers/STM32F1xx_HAL_Driver/Inc/stm32f1xx_ll_exti.h ****   *         @arg @ref LL_EXTI_LINE_13
 490:Drivers/STM32F1xx_HAL_Driver/Inc/stm32f1xx_ll_exti.h ****   *         @arg @ref LL_EXTI_LINE_14
 491:Drivers/STM32F1xx_HAL_Driver/Inc/stm32f1xx_ll_exti.h ****   *         @arg @ref LL_EXTI_LINE_15
ARM GAS  /var/folders/m1/3lv6xmzs0mlckxs4mx90nfb40000gn/T//cclHv6kQ.s 			page 17


 492:Drivers/STM32F1xx_HAL_Driver/Inc/stm32f1xx_ll_exti.h ****   *         @arg @ref LL_EXTI_LINE_16
 493:Drivers/STM32F1xx_HAL_Driver/Inc/stm32f1xx_ll_exti.h ****   *         @arg @ref LL_EXTI_LINE_18
 494:Drivers/STM32F1xx_HAL_Driver/Inc/stm32f1xx_ll_exti.h ****   *         @arg @ref LL_EXTI_LINE_19
 495:Drivers/STM32F1xx_HAL_Driver/Inc/stm32f1xx_ll_exti.h ****   * @note   Please check each device line mapping for EXTI Line availability
 496:Drivers/STM32F1xx_HAL_Driver/Inc/stm32f1xx_ll_exti.h ****   * @retval None
 497:Drivers/STM32F1xx_HAL_Driver/Inc/stm32f1xx_ll_exti.h ****   */
 498:Drivers/STM32F1xx_HAL_Driver/Inc/stm32f1xx_ll_exti.h **** __STATIC_INLINE void LL_EXTI_EnableRisingTrig_0_31(uint32_t ExtiLine)
 499:Drivers/STM32F1xx_HAL_Driver/Inc/stm32f1xx_ll_exti.h **** {
 500:Drivers/STM32F1xx_HAL_Driver/Inc/stm32f1xx_ll_exti.h ****   SET_BIT(EXTI->RTSR, ExtiLine);
 233              		.loc 2 500 0
 234 006a 134A     		ldr	r2, .L28
 235 006c 9068     		ldr	r0, [r2, #8]
 236              	.LVL11:
 237 006e 1843     		orrs	r0, r0, r3
 238              	.L24:
 239 0070 9060     		str	r0, [r2, #8]
 240              	.LVL12:
 241              	.LBE55:
 242              	.LBE54:
 243              	.LBB56:
 244              	.LBB57:
 501:Drivers/STM32F1xx_HAL_Driver/Inc/stm32f1xx_ll_exti.h **** 
 502:Drivers/STM32F1xx_HAL_Driver/Inc/stm32f1xx_ll_exti.h **** }
 503:Drivers/STM32F1xx_HAL_Driver/Inc/stm32f1xx_ll_exti.h **** 
 504:Drivers/STM32F1xx_HAL_Driver/Inc/stm32f1xx_ll_exti.h **** 
 505:Drivers/STM32F1xx_HAL_Driver/Inc/stm32f1xx_ll_exti.h **** /**
 506:Drivers/STM32F1xx_HAL_Driver/Inc/stm32f1xx_ll_exti.h ****   * @brief  Disable ExtiLine Rising Edge Trigger for Lines in range 0 to 31
 507:Drivers/STM32F1xx_HAL_Driver/Inc/stm32f1xx_ll_exti.h ****   * @note The configurable wakeup lines are edge-triggered. No glitch must be
 508:Drivers/STM32F1xx_HAL_Driver/Inc/stm32f1xx_ll_exti.h ****   *       generated on these lines. If a rising edge on a configurable interrupt
 509:Drivers/STM32F1xx_HAL_Driver/Inc/stm32f1xx_ll_exti.h ****   *       line occurs during a write operation in the EXTI_RTSR register, the
 510:Drivers/STM32F1xx_HAL_Driver/Inc/stm32f1xx_ll_exti.h ****   *       pending bit is not set.
 511:Drivers/STM32F1xx_HAL_Driver/Inc/stm32f1xx_ll_exti.h ****   *       Rising and falling edge triggers can be set for
 512:Drivers/STM32F1xx_HAL_Driver/Inc/stm32f1xx_ll_exti.h ****   *       the same interrupt line. In this case, both generate a trigger
 513:Drivers/STM32F1xx_HAL_Driver/Inc/stm32f1xx_ll_exti.h ****   *       condition.
 514:Drivers/STM32F1xx_HAL_Driver/Inc/stm32f1xx_ll_exti.h ****   * @rmtoll RTSR        RTx           LL_EXTI_DisableRisingTrig_0_31
 515:Drivers/STM32F1xx_HAL_Driver/Inc/stm32f1xx_ll_exti.h ****   * @param  ExtiLine This parameter can be a combination of the following values:
 516:Drivers/STM32F1xx_HAL_Driver/Inc/stm32f1xx_ll_exti.h ****   *         @arg @ref LL_EXTI_LINE_0
 517:Drivers/STM32F1xx_HAL_Driver/Inc/stm32f1xx_ll_exti.h ****   *         @arg @ref LL_EXTI_LINE_1
 518:Drivers/STM32F1xx_HAL_Driver/Inc/stm32f1xx_ll_exti.h ****   *         @arg @ref LL_EXTI_LINE_2
 519:Drivers/STM32F1xx_HAL_Driver/Inc/stm32f1xx_ll_exti.h ****   *         @arg @ref LL_EXTI_LINE_3
 520:Drivers/STM32F1xx_HAL_Driver/Inc/stm32f1xx_ll_exti.h ****   *         @arg @ref LL_EXTI_LINE_4
 521:Drivers/STM32F1xx_HAL_Driver/Inc/stm32f1xx_ll_exti.h ****   *         @arg @ref LL_EXTI_LINE_5
 522:Drivers/STM32F1xx_HAL_Driver/Inc/stm32f1xx_ll_exti.h ****   *         @arg @ref LL_EXTI_LINE_6
 523:Drivers/STM32F1xx_HAL_Driver/Inc/stm32f1xx_ll_exti.h ****   *         @arg @ref LL_EXTI_LINE_7
 524:Drivers/STM32F1xx_HAL_Driver/Inc/stm32f1xx_ll_exti.h ****   *         @arg @ref LL_EXTI_LINE_8
 525:Drivers/STM32F1xx_HAL_Driver/Inc/stm32f1xx_ll_exti.h ****   *         @arg @ref LL_EXTI_LINE_9
 526:Drivers/STM32F1xx_HAL_Driver/Inc/stm32f1xx_ll_exti.h ****   *         @arg @ref LL_EXTI_LINE_10
 527:Drivers/STM32F1xx_HAL_Driver/Inc/stm32f1xx_ll_exti.h ****   *         @arg @ref LL_EXTI_LINE_11
 528:Drivers/STM32F1xx_HAL_Driver/Inc/stm32f1xx_ll_exti.h ****   *         @arg @ref LL_EXTI_LINE_12
 529:Drivers/STM32F1xx_HAL_Driver/Inc/stm32f1xx_ll_exti.h ****   *         @arg @ref LL_EXTI_LINE_13
 530:Drivers/STM32F1xx_HAL_Driver/Inc/stm32f1xx_ll_exti.h ****   *         @arg @ref LL_EXTI_LINE_14
 531:Drivers/STM32F1xx_HAL_Driver/Inc/stm32f1xx_ll_exti.h ****   *         @arg @ref LL_EXTI_LINE_15
 532:Drivers/STM32F1xx_HAL_Driver/Inc/stm32f1xx_ll_exti.h ****   *         @arg @ref LL_EXTI_LINE_16
 533:Drivers/STM32F1xx_HAL_Driver/Inc/stm32f1xx_ll_exti.h ****   *         @arg @ref LL_EXTI_LINE_18
 534:Drivers/STM32F1xx_HAL_Driver/Inc/stm32f1xx_ll_exti.h ****   *         @arg @ref LL_EXTI_LINE_19
 535:Drivers/STM32F1xx_HAL_Driver/Inc/stm32f1xx_ll_exti.h ****   * @note   Please check each device line mapping for EXTI Line availability
 536:Drivers/STM32F1xx_HAL_Driver/Inc/stm32f1xx_ll_exti.h ****   * @retval None
ARM GAS  /var/folders/m1/3lv6xmzs0mlckxs4mx90nfb40000gn/T//cclHv6kQ.s 			page 18


 537:Drivers/STM32F1xx_HAL_Driver/Inc/stm32f1xx_ll_exti.h ****   */
 538:Drivers/STM32F1xx_HAL_Driver/Inc/stm32f1xx_ll_exti.h **** __STATIC_INLINE void LL_EXTI_DisableRisingTrig_0_31(uint32_t ExtiLine)
 539:Drivers/STM32F1xx_HAL_Driver/Inc/stm32f1xx_ll_exti.h **** {
 540:Drivers/STM32F1xx_HAL_Driver/Inc/stm32f1xx_ll_exti.h ****   CLEAR_BIT(EXTI->RTSR, ExtiLine);
 541:Drivers/STM32F1xx_HAL_Driver/Inc/stm32f1xx_ll_exti.h **** 
 542:Drivers/STM32F1xx_HAL_Driver/Inc/stm32f1xx_ll_exti.h **** }
 543:Drivers/STM32F1xx_HAL_Driver/Inc/stm32f1xx_ll_exti.h **** 
 544:Drivers/STM32F1xx_HAL_Driver/Inc/stm32f1xx_ll_exti.h **** 
 545:Drivers/STM32F1xx_HAL_Driver/Inc/stm32f1xx_ll_exti.h **** /**
 546:Drivers/STM32F1xx_HAL_Driver/Inc/stm32f1xx_ll_exti.h ****   * @brief  Check if rising edge trigger is enabled for Lines in range 0 to 31
 547:Drivers/STM32F1xx_HAL_Driver/Inc/stm32f1xx_ll_exti.h ****   * @rmtoll RTSR        RTx           LL_EXTI_IsEnabledRisingTrig_0_31
 548:Drivers/STM32F1xx_HAL_Driver/Inc/stm32f1xx_ll_exti.h ****   * @param  ExtiLine This parameter can be a combination of the following values:
 549:Drivers/STM32F1xx_HAL_Driver/Inc/stm32f1xx_ll_exti.h ****   *         @arg @ref LL_EXTI_LINE_0
 550:Drivers/STM32F1xx_HAL_Driver/Inc/stm32f1xx_ll_exti.h ****   *         @arg @ref LL_EXTI_LINE_1
 551:Drivers/STM32F1xx_HAL_Driver/Inc/stm32f1xx_ll_exti.h ****   *         @arg @ref LL_EXTI_LINE_2
 552:Drivers/STM32F1xx_HAL_Driver/Inc/stm32f1xx_ll_exti.h ****   *         @arg @ref LL_EXTI_LINE_3
 553:Drivers/STM32F1xx_HAL_Driver/Inc/stm32f1xx_ll_exti.h ****   *         @arg @ref LL_EXTI_LINE_4
 554:Drivers/STM32F1xx_HAL_Driver/Inc/stm32f1xx_ll_exti.h ****   *         @arg @ref LL_EXTI_LINE_5
 555:Drivers/STM32F1xx_HAL_Driver/Inc/stm32f1xx_ll_exti.h ****   *         @arg @ref LL_EXTI_LINE_6
 556:Drivers/STM32F1xx_HAL_Driver/Inc/stm32f1xx_ll_exti.h ****   *         @arg @ref LL_EXTI_LINE_7
 557:Drivers/STM32F1xx_HAL_Driver/Inc/stm32f1xx_ll_exti.h ****   *         @arg @ref LL_EXTI_LINE_8
 558:Drivers/STM32F1xx_HAL_Driver/Inc/stm32f1xx_ll_exti.h ****   *         @arg @ref LL_EXTI_LINE_9
 559:Drivers/STM32F1xx_HAL_Driver/Inc/stm32f1xx_ll_exti.h ****   *         @arg @ref LL_EXTI_LINE_10
 560:Drivers/STM32F1xx_HAL_Driver/Inc/stm32f1xx_ll_exti.h ****   *         @arg @ref LL_EXTI_LINE_11
 561:Drivers/STM32F1xx_HAL_Driver/Inc/stm32f1xx_ll_exti.h ****   *         @arg @ref LL_EXTI_LINE_12
 562:Drivers/STM32F1xx_HAL_Driver/Inc/stm32f1xx_ll_exti.h ****   *         @arg @ref LL_EXTI_LINE_13
 563:Drivers/STM32F1xx_HAL_Driver/Inc/stm32f1xx_ll_exti.h ****   *         @arg @ref LL_EXTI_LINE_14
 564:Drivers/STM32F1xx_HAL_Driver/Inc/stm32f1xx_ll_exti.h ****   *         @arg @ref LL_EXTI_LINE_15
 565:Drivers/STM32F1xx_HAL_Driver/Inc/stm32f1xx_ll_exti.h ****   *         @arg @ref LL_EXTI_LINE_16
 566:Drivers/STM32F1xx_HAL_Driver/Inc/stm32f1xx_ll_exti.h ****   *         @arg @ref LL_EXTI_LINE_18
 567:Drivers/STM32F1xx_HAL_Driver/Inc/stm32f1xx_ll_exti.h ****   *         @arg @ref LL_EXTI_LINE_19
 568:Drivers/STM32F1xx_HAL_Driver/Inc/stm32f1xx_ll_exti.h ****   * @note   Please check each device line mapping for EXTI Line availability
 569:Drivers/STM32F1xx_HAL_Driver/Inc/stm32f1xx_ll_exti.h ****   * @retval State of bit (1 or 0).
 570:Drivers/STM32F1xx_HAL_Driver/Inc/stm32f1xx_ll_exti.h ****   */
 571:Drivers/STM32F1xx_HAL_Driver/Inc/stm32f1xx_ll_exti.h **** __STATIC_INLINE uint32_t LL_EXTI_IsEnabledRisingTrig_0_31(uint32_t ExtiLine)
 572:Drivers/STM32F1xx_HAL_Driver/Inc/stm32f1xx_ll_exti.h **** {
 573:Drivers/STM32F1xx_HAL_Driver/Inc/stm32f1xx_ll_exti.h ****   return (READ_BIT(EXTI->RTSR, ExtiLine) == (ExtiLine));
 574:Drivers/STM32F1xx_HAL_Driver/Inc/stm32f1xx_ll_exti.h **** }
 575:Drivers/STM32F1xx_HAL_Driver/Inc/stm32f1xx_ll_exti.h **** 
 576:Drivers/STM32F1xx_HAL_Driver/Inc/stm32f1xx_ll_exti.h **** 
 577:Drivers/STM32F1xx_HAL_Driver/Inc/stm32f1xx_ll_exti.h **** /**
 578:Drivers/STM32F1xx_HAL_Driver/Inc/stm32f1xx_ll_exti.h ****   * @}
 579:Drivers/STM32F1xx_HAL_Driver/Inc/stm32f1xx_ll_exti.h ****   */
 580:Drivers/STM32F1xx_HAL_Driver/Inc/stm32f1xx_ll_exti.h **** 
 581:Drivers/STM32F1xx_HAL_Driver/Inc/stm32f1xx_ll_exti.h **** /** @defgroup EXTI_LL_EF_Falling_Trigger_Management Falling_Trigger_Management
 582:Drivers/STM32F1xx_HAL_Driver/Inc/stm32f1xx_ll_exti.h ****   * @{
 583:Drivers/STM32F1xx_HAL_Driver/Inc/stm32f1xx_ll_exti.h ****   */
 584:Drivers/STM32F1xx_HAL_Driver/Inc/stm32f1xx_ll_exti.h **** 
 585:Drivers/STM32F1xx_HAL_Driver/Inc/stm32f1xx_ll_exti.h **** /**
 586:Drivers/STM32F1xx_HAL_Driver/Inc/stm32f1xx_ll_exti.h ****   * @brief  Enable ExtiLine Falling Edge Trigger for Lines in range 0 to 31
 587:Drivers/STM32F1xx_HAL_Driver/Inc/stm32f1xx_ll_exti.h ****   * @note The configurable wakeup lines are edge-triggered. No glitch must be
 588:Drivers/STM32F1xx_HAL_Driver/Inc/stm32f1xx_ll_exti.h ****   *       generated on these lines. If a falling edge on a configurable interrupt
 589:Drivers/STM32F1xx_HAL_Driver/Inc/stm32f1xx_ll_exti.h ****   *       line occurs during a write operation in the EXTI_FTSR register, the
 590:Drivers/STM32F1xx_HAL_Driver/Inc/stm32f1xx_ll_exti.h ****   *       pending bit is not set.
 591:Drivers/STM32F1xx_HAL_Driver/Inc/stm32f1xx_ll_exti.h ****   *       Rising and falling edge triggers can be set for
 592:Drivers/STM32F1xx_HAL_Driver/Inc/stm32f1xx_ll_exti.h ****   *       the same interrupt line. In this case, both generate a trigger
 593:Drivers/STM32F1xx_HAL_Driver/Inc/stm32f1xx_ll_exti.h ****   *       condition.
ARM GAS  /var/folders/m1/3lv6xmzs0mlckxs4mx90nfb40000gn/T//cclHv6kQ.s 			page 19


 594:Drivers/STM32F1xx_HAL_Driver/Inc/stm32f1xx_ll_exti.h ****   * @rmtoll FTSR        FTx           LL_EXTI_EnableFallingTrig_0_31
 595:Drivers/STM32F1xx_HAL_Driver/Inc/stm32f1xx_ll_exti.h ****   * @param  ExtiLine This parameter can be a combination of the following values:
 596:Drivers/STM32F1xx_HAL_Driver/Inc/stm32f1xx_ll_exti.h ****   *         @arg @ref LL_EXTI_LINE_0
 597:Drivers/STM32F1xx_HAL_Driver/Inc/stm32f1xx_ll_exti.h ****   *         @arg @ref LL_EXTI_LINE_1
 598:Drivers/STM32F1xx_HAL_Driver/Inc/stm32f1xx_ll_exti.h ****   *         @arg @ref LL_EXTI_LINE_2
 599:Drivers/STM32F1xx_HAL_Driver/Inc/stm32f1xx_ll_exti.h ****   *         @arg @ref LL_EXTI_LINE_3
 600:Drivers/STM32F1xx_HAL_Driver/Inc/stm32f1xx_ll_exti.h ****   *         @arg @ref LL_EXTI_LINE_4
 601:Drivers/STM32F1xx_HAL_Driver/Inc/stm32f1xx_ll_exti.h ****   *         @arg @ref LL_EXTI_LINE_5
 602:Drivers/STM32F1xx_HAL_Driver/Inc/stm32f1xx_ll_exti.h ****   *         @arg @ref LL_EXTI_LINE_6
 603:Drivers/STM32F1xx_HAL_Driver/Inc/stm32f1xx_ll_exti.h ****   *         @arg @ref LL_EXTI_LINE_7
 604:Drivers/STM32F1xx_HAL_Driver/Inc/stm32f1xx_ll_exti.h ****   *         @arg @ref LL_EXTI_LINE_8
 605:Drivers/STM32F1xx_HAL_Driver/Inc/stm32f1xx_ll_exti.h ****   *         @arg @ref LL_EXTI_LINE_9
 606:Drivers/STM32F1xx_HAL_Driver/Inc/stm32f1xx_ll_exti.h ****   *         @arg @ref LL_EXTI_LINE_10
 607:Drivers/STM32F1xx_HAL_Driver/Inc/stm32f1xx_ll_exti.h ****   *         @arg @ref LL_EXTI_LINE_11
 608:Drivers/STM32F1xx_HAL_Driver/Inc/stm32f1xx_ll_exti.h ****   *         @arg @ref LL_EXTI_LINE_12
 609:Drivers/STM32F1xx_HAL_Driver/Inc/stm32f1xx_ll_exti.h ****   *         @arg @ref LL_EXTI_LINE_13
 610:Drivers/STM32F1xx_HAL_Driver/Inc/stm32f1xx_ll_exti.h ****   *         @arg @ref LL_EXTI_LINE_14
 611:Drivers/STM32F1xx_HAL_Driver/Inc/stm32f1xx_ll_exti.h ****   *         @arg @ref LL_EXTI_LINE_15
 612:Drivers/STM32F1xx_HAL_Driver/Inc/stm32f1xx_ll_exti.h ****   *         @arg @ref LL_EXTI_LINE_16
 613:Drivers/STM32F1xx_HAL_Driver/Inc/stm32f1xx_ll_exti.h ****   *         @arg @ref LL_EXTI_LINE_18
 614:Drivers/STM32F1xx_HAL_Driver/Inc/stm32f1xx_ll_exti.h ****   *         @arg @ref LL_EXTI_LINE_19
 615:Drivers/STM32F1xx_HAL_Driver/Inc/stm32f1xx_ll_exti.h ****   * @note   Please check each device line mapping for EXTI Line availability
 616:Drivers/STM32F1xx_HAL_Driver/Inc/stm32f1xx_ll_exti.h ****   * @retval None
 617:Drivers/STM32F1xx_HAL_Driver/Inc/stm32f1xx_ll_exti.h ****   */
 618:Drivers/STM32F1xx_HAL_Driver/Inc/stm32f1xx_ll_exti.h **** __STATIC_INLINE void LL_EXTI_EnableFallingTrig_0_31(uint32_t ExtiLine)
 619:Drivers/STM32F1xx_HAL_Driver/Inc/stm32f1xx_ll_exti.h **** {
 620:Drivers/STM32F1xx_HAL_Driver/Inc/stm32f1xx_ll_exti.h ****   SET_BIT(EXTI->FTSR, ExtiLine);
 245              		.loc 2 620 0
 246 0072 D068     		ldr	r0, [r2, #12]
 247 0074 0343     		orrs	r3, r3, r0
 248 0076 D360     		str	r3, [r2, #12]
 249              	.L25:
 250 0078 0B46     		mov	r3, r1
 251              	.LBE57:
 252              	.LBE56:
 253              		.loc 1 180 0
 254 007a 10BC     		pop	{r4}
 255              	.LCFI5:
 256              		.cfi_remember_state
 257              		.cfi_restore 4
 258              		.cfi_def_cfa_offset 0
 259 007c 1846     		mov	r0, r3
 260 007e 7047     		bx	lr
 261              	.LVL13:
 262              	.L9:
 263              	.LCFI6:
 264              		.cfi_restore_state
 265              	.LBB58:
 266              	.LBB59:
 304:Drivers/STM32F1xx_HAL_Driver/Inc/stm32f1xx_ll_exti.h **** }
 267              		.loc 2 304 0
 268 0080 0D4A     		ldr	r2, .L28
 269              	.LBE59:
 270              	.LBE58:
 271              	.LBB61:
 272              	.LBB62:
 383:Drivers/STM32F1xx_HAL_Driver/Inc/stm32f1xx_ll_exti.h **** 
ARM GAS  /var/folders/m1/3lv6xmzs0mlckxs4mx90nfb40000gn/T//cclHv6kQ.s 			page 20


 273              		.loc 2 383 0
 274 0082 0021     		movs	r1, #0
 275              	.LBE62:
 276              	.LBE61:
 277              	.LBB64:
 278              	.LBB60:
 304:Drivers/STM32F1xx_HAL_Driver/Inc/stm32f1xx_ll_exti.h **** }
 279              		.loc 2 304 0
 280 0084 1468     		ldr	r4, [r2]
 281 0086 24EA0304 		bic	r4, r4, r3
 282 008a 1460     		str	r4, [r2]
 283              	.LVL14:
 284              	.LBE60:
 285              	.LBE64:
 286              	.LBB65:
 287              	.LBB63:
 383:Drivers/STM32F1xx_HAL_Driver/Inc/stm32f1xx_ll_exti.h **** 
 288              		.loc 2 383 0
 289 008c 5468     		ldr	r4, [r2, #4]
 290 008e 1C43     		orrs	r4, r4, r3
 291 0090 5460     		str	r4, [r2, #4]
 292 0092 C8E7     		b	.L8
 293              	.L26:
 294              	.LBE63:
 295              	.LBE65:
 122:Drivers/STM32F1xx_HAL_Driver/Src/stm32f1xx_ll_exti.c ****       {
 296              		.loc 1 122 0
 297 0094 0121     		movs	r1, #1
 298 0096 C6E7     		b	.L8
 299              	.LVL15:
 300              	.L27:
 301              	.LBB66:
 302              	.LBB67:
 621:Drivers/STM32F1xx_HAL_Driver/Inc/stm32f1xx_ll_exti.h **** }
 622:Drivers/STM32F1xx_HAL_Driver/Inc/stm32f1xx_ll_exti.h **** 
 623:Drivers/STM32F1xx_HAL_Driver/Inc/stm32f1xx_ll_exti.h **** 
 624:Drivers/STM32F1xx_HAL_Driver/Inc/stm32f1xx_ll_exti.h **** /**
 625:Drivers/STM32F1xx_HAL_Driver/Inc/stm32f1xx_ll_exti.h ****   * @brief  Disable ExtiLine Falling Edge Trigger for Lines in range 0 to 31
 626:Drivers/STM32F1xx_HAL_Driver/Inc/stm32f1xx_ll_exti.h ****   * @note The configurable wakeup lines are edge-triggered. No glitch must be
 627:Drivers/STM32F1xx_HAL_Driver/Inc/stm32f1xx_ll_exti.h ****   *       generated on these lines. If a Falling edge on a configurable interrupt
 628:Drivers/STM32F1xx_HAL_Driver/Inc/stm32f1xx_ll_exti.h ****   *       line occurs during a write operation in the EXTI_FTSR register, the
 629:Drivers/STM32F1xx_HAL_Driver/Inc/stm32f1xx_ll_exti.h ****   *       pending bit is not set.
 630:Drivers/STM32F1xx_HAL_Driver/Inc/stm32f1xx_ll_exti.h ****   *       Rising and falling edge triggers can be set for the same interrupt line.
 631:Drivers/STM32F1xx_HAL_Driver/Inc/stm32f1xx_ll_exti.h ****   *       In this case, both generate a trigger condition.
 632:Drivers/STM32F1xx_HAL_Driver/Inc/stm32f1xx_ll_exti.h ****   * @rmtoll FTSR        FTx           LL_EXTI_DisableFallingTrig_0_31
 633:Drivers/STM32F1xx_HAL_Driver/Inc/stm32f1xx_ll_exti.h ****   * @param  ExtiLine This parameter can be a combination of the following values:
 634:Drivers/STM32F1xx_HAL_Driver/Inc/stm32f1xx_ll_exti.h ****   *         @arg @ref LL_EXTI_LINE_0
 635:Drivers/STM32F1xx_HAL_Driver/Inc/stm32f1xx_ll_exti.h ****   *         @arg @ref LL_EXTI_LINE_1
 636:Drivers/STM32F1xx_HAL_Driver/Inc/stm32f1xx_ll_exti.h ****   *         @arg @ref LL_EXTI_LINE_2
 637:Drivers/STM32F1xx_HAL_Driver/Inc/stm32f1xx_ll_exti.h ****   *         @arg @ref LL_EXTI_LINE_3
 638:Drivers/STM32F1xx_HAL_Driver/Inc/stm32f1xx_ll_exti.h ****   *         @arg @ref LL_EXTI_LINE_4
 639:Drivers/STM32F1xx_HAL_Driver/Inc/stm32f1xx_ll_exti.h ****   *         @arg @ref LL_EXTI_LINE_5
 640:Drivers/STM32F1xx_HAL_Driver/Inc/stm32f1xx_ll_exti.h ****   *         @arg @ref LL_EXTI_LINE_6
 641:Drivers/STM32F1xx_HAL_Driver/Inc/stm32f1xx_ll_exti.h ****   *         @arg @ref LL_EXTI_LINE_7
 642:Drivers/STM32F1xx_HAL_Driver/Inc/stm32f1xx_ll_exti.h ****   *         @arg @ref LL_EXTI_LINE_8
 643:Drivers/STM32F1xx_HAL_Driver/Inc/stm32f1xx_ll_exti.h ****   *         @arg @ref LL_EXTI_LINE_9
 644:Drivers/STM32F1xx_HAL_Driver/Inc/stm32f1xx_ll_exti.h ****   *         @arg @ref LL_EXTI_LINE_10
ARM GAS  /var/folders/m1/3lv6xmzs0mlckxs4mx90nfb40000gn/T//cclHv6kQ.s 			page 21


 645:Drivers/STM32F1xx_HAL_Driver/Inc/stm32f1xx_ll_exti.h ****   *         @arg @ref LL_EXTI_LINE_11
 646:Drivers/STM32F1xx_HAL_Driver/Inc/stm32f1xx_ll_exti.h ****   *         @arg @ref LL_EXTI_LINE_12
 647:Drivers/STM32F1xx_HAL_Driver/Inc/stm32f1xx_ll_exti.h ****   *         @arg @ref LL_EXTI_LINE_13
 648:Drivers/STM32F1xx_HAL_Driver/Inc/stm32f1xx_ll_exti.h ****   *         @arg @ref LL_EXTI_LINE_14
 649:Drivers/STM32F1xx_HAL_Driver/Inc/stm32f1xx_ll_exti.h ****   *         @arg @ref LL_EXTI_LINE_15
 650:Drivers/STM32F1xx_HAL_Driver/Inc/stm32f1xx_ll_exti.h ****   *         @arg @ref LL_EXTI_LINE_16
 651:Drivers/STM32F1xx_HAL_Driver/Inc/stm32f1xx_ll_exti.h ****   *         @arg @ref LL_EXTI_LINE_18
 652:Drivers/STM32F1xx_HAL_Driver/Inc/stm32f1xx_ll_exti.h ****   *         @arg @ref LL_EXTI_LINE_19
 653:Drivers/STM32F1xx_HAL_Driver/Inc/stm32f1xx_ll_exti.h ****   * @note   Please check each device line mapping for EXTI Line availability
 654:Drivers/STM32F1xx_HAL_Driver/Inc/stm32f1xx_ll_exti.h ****   * @retval None
 655:Drivers/STM32F1xx_HAL_Driver/Inc/stm32f1xx_ll_exti.h ****   */
 656:Drivers/STM32F1xx_HAL_Driver/Inc/stm32f1xx_ll_exti.h **** __STATIC_INLINE void LL_EXTI_DisableFallingTrig_0_31(uint32_t ExtiLine)
 657:Drivers/STM32F1xx_HAL_Driver/Inc/stm32f1xx_ll_exti.h **** {
 658:Drivers/STM32F1xx_HAL_Driver/Inc/stm32f1xx_ll_exti.h ****   CLEAR_BIT(EXTI->FTSR, ExtiLine);
 303              		.loc 2 658 0
 304 0098 074A     		ldr	r2, .L28
 305 009a D068     		ldr	r0, [r2, #12]
 306              	.LVL16:
 307 009c 20EA0300 		bic	r0, r0, r3
 308 00a0 D060     		str	r0, [r2, #12]
 309              	.LVL17:
 310              	.LBE67:
 311              	.LBE66:
 312              	.LBB68:
 313              	.LBB69:
 500:Drivers/STM32F1xx_HAL_Driver/Inc/stm32f1xx_ll_exti.h **** 
 314              		.loc 2 500 0
 315 00a2 9068     		ldr	r0, [r2, #8]
 316 00a4 0343     		orrs	r3, r3, r0
 317 00a6 9360     		str	r3, [r2, #8]
 318 00a8 0B46     		mov	r3, r1
 319 00aa C5E7     		b	.L5
 320              	.LVL18:
 321              	.L12:
 322              	.LBE69:
 323              	.LBE68:
 324              	.LBB70:
 325              	.LBB71:
 540:Drivers/STM32F1xx_HAL_Driver/Inc/stm32f1xx_ll_exti.h **** 
 326              		.loc 2 540 0
 327 00ac 024A     		ldr	r2, .L28
 328 00ae 9068     		ldr	r0, [r2, #8]
 329              	.LVL19:
 330 00b0 20EA0300 		bic	r0, r0, r3
 331 00b4 DCE7     		b	.L24
 332              	.L29:
 333 00b6 00BF     		.align	2
 334              	.L28:
 335 00b8 00040140 		.word	1073808384
 336              	.LBE71:
 337              	.LBE70:
 338              		.cfi_endproc
 339              	.LFE82:
 341              		.section	.text.LL_EXTI_StructInit,"ax",%progbits
 342              		.align	1
 343              		.p2align 2,,3
 344              		.global	LL_EXTI_StructInit
ARM GAS  /var/folders/m1/3lv6xmzs0mlckxs4mx90nfb40000gn/T//cclHv6kQ.s 			page 22


 345              		.syntax unified
 346              		.thumb
 347              		.thumb_func
 348              		.fpu softvfp
 350              	LL_EXTI_StructInit:
 351              	.LFB83:
 181:Drivers/STM32F1xx_HAL_Driver/Src/stm32f1xx_ll_exti.c **** 
 182:Drivers/STM32F1xx_HAL_Driver/Src/stm32f1xx_ll_exti.c **** /**
 183:Drivers/STM32F1xx_HAL_Driver/Src/stm32f1xx_ll_exti.c ****   * @brief  Set each @ref LL_EXTI_InitTypeDef field to default value.
 184:Drivers/STM32F1xx_HAL_Driver/Src/stm32f1xx_ll_exti.c ****   * @param  EXTI_InitStruct Pointer to a @ref LL_EXTI_InitTypeDef structure.
 185:Drivers/STM32F1xx_HAL_Driver/Src/stm32f1xx_ll_exti.c ****   * @retval None
 186:Drivers/STM32F1xx_HAL_Driver/Src/stm32f1xx_ll_exti.c ****   */
 187:Drivers/STM32F1xx_HAL_Driver/Src/stm32f1xx_ll_exti.c **** void LL_EXTI_StructInit(LL_EXTI_InitTypeDef *EXTI_InitStruct)
 188:Drivers/STM32F1xx_HAL_Driver/Src/stm32f1xx_ll_exti.c **** {
 352              		.loc 1 188 0
 353              		.cfi_startproc
 354              		@ args = 0, pretend = 0, frame = 0
 355              		@ frame_needed = 0, uses_anonymous_args = 0
 356              		@ link register save eliminated.
 357              	.LVL20:
 189:Drivers/STM32F1xx_HAL_Driver/Src/stm32f1xx_ll_exti.c ****   EXTI_InitStruct->Line_0_31      = LL_EXTI_LINE_NONE;
 358              		.loc 1 189 0
 359 0000 0023     		movs	r3, #0
 190:Drivers/STM32F1xx_HAL_Driver/Src/stm32f1xx_ll_exti.c ****   EXTI_InitStruct->LineCommand    = DISABLE;
 191:Drivers/STM32F1xx_HAL_Driver/Src/stm32f1xx_ll_exti.c ****   EXTI_InitStruct->Mode           = LL_EXTI_MODE_IT;
 192:Drivers/STM32F1xx_HAL_Driver/Src/stm32f1xx_ll_exti.c ****   EXTI_InitStruct->Trigger        = LL_EXTI_TRIGGER_FALLING;
 360              		.loc 1 192 0
 361 0002 0222     		movs	r2, #2
 189:Drivers/STM32F1xx_HAL_Driver/Src/stm32f1xx_ll_exti.c ****   EXTI_InitStruct->Line_0_31      = LL_EXTI_LINE_NONE;
 362              		.loc 1 189 0
 363 0004 0360     		str	r3, [r0]
 364              		.loc 1 192 0
 365 0006 8271     		strb	r2, [r0, #6]
 190:Drivers/STM32F1xx_HAL_Driver/Src/stm32f1xx_ll_exti.c ****   EXTI_InitStruct->LineCommand    = DISABLE;
 366              		.loc 1 190 0
 367 0008 0371     		strb	r3, [r0, #4]
 191:Drivers/STM32F1xx_HAL_Driver/Src/stm32f1xx_ll_exti.c ****   EXTI_InitStruct->Trigger        = LL_EXTI_TRIGGER_FALLING;
 368              		.loc 1 191 0
 369 000a 4371     		strb	r3, [r0, #5]
 193:Drivers/STM32F1xx_HAL_Driver/Src/stm32f1xx_ll_exti.c **** }
 370              		.loc 1 193 0
 371 000c 7047     		bx	lr
 372              		.cfi_endproc
 373              	.LFE83:
 375 000e 00BF     		.text
 376              	.Letext0:
 377              		.file 3 "/usr/local/Cellar/gcc-arm-none-eabi/20180627/arm-none-eabi/include/machine/_default_types
 378              		.file 4 "/usr/local/Cellar/gcc-arm-none-eabi/20180627/arm-none-eabi/include/sys/_stdint.h"
 379              		.file 5 "Drivers/CMSIS/Include/core_cm3.h"
 380              		.file 6 "Drivers/CMSIS/Device/ST/STM32F1xx/Include/system_stm32f1xx.h"
 381              		.file 7 "Drivers/CMSIS/Device/ST/STM32F1xx/Include/stm32f103xb.h"
 382              		.file 8 "Drivers/CMSIS/Device/ST/STM32F1xx/Include/stm32f1xx.h"
 383              		.file 9 "Drivers/STM32F1xx_HAL_Driver/Inc/stm32f1xx_hal.h"
ARM GAS  /var/folders/m1/3lv6xmzs0mlckxs4mx90nfb40000gn/T//cclHv6kQ.s 			page 23

