ARM GAS  /var/folders/m1/3lv6xmzs0mlckxs4mx90nfb40000gn/T//ccNWxiXD.s 			page 1


   1              		.cpu cortex-m3
   2              		.eabi_attribute 20, 1
   3              		.eabi_attribute 21, 1
   4              		.eabi_attribute 23, 3
   5              		.eabi_attribute 24, 1
   6              		.eabi_attribute 25, 1
   7              		.eabi_attribute 26, 1
   8              		.eabi_attribute 30, 2
   9              		.eabi_attribute 34, 1
  10              		.eabi_attribute 18, 4
  11              		.file	"stm32f1xx_ll_utils.c"
  12              		.text
  13              	.Ltext0:
  14              		.cfi_sections	.debug_frame
  15              		.section	.text.LL_Init1msTick,"ax",%progbits
  16              		.align	1
  17              		.p2align 2,,3
  18              		.global	LL_Init1msTick
  19              		.syntax unified
  20              		.thumb
  21              		.thumb_func
  22              		.fpu softvfp
  24              	LL_Init1msTick:
  25              	.LFB174:
  26              		.file 1 "Drivers/STM32F1xx_HAL_Driver/Src/stm32f1xx_ll_utils.c"
   1:Drivers/STM32F1xx_HAL_Driver/Src/stm32f1xx_ll_utils.c **** /**
   2:Drivers/STM32F1xx_HAL_Driver/Src/stm32f1xx_ll_utils.c ****   ******************************************************************************
   3:Drivers/STM32F1xx_HAL_Driver/Src/stm32f1xx_ll_utils.c ****   * @file    stm32f1xx_ll_utils.c
   4:Drivers/STM32F1xx_HAL_Driver/Src/stm32f1xx_ll_utils.c ****   * @author  MCD Application Team
   5:Drivers/STM32F1xx_HAL_Driver/Src/stm32f1xx_ll_utils.c ****   * @brief   UTILS LL module driver.
   6:Drivers/STM32F1xx_HAL_Driver/Src/stm32f1xx_ll_utils.c ****   ******************************************************************************
   7:Drivers/STM32F1xx_HAL_Driver/Src/stm32f1xx_ll_utils.c ****   * @attention
   8:Drivers/STM32F1xx_HAL_Driver/Src/stm32f1xx_ll_utils.c ****   *
   9:Drivers/STM32F1xx_HAL_Driver/Src/stm32f1xx_ll_utils.c ****   * <h2><center>&copy; Copyright (c) 2016 STMicroelectronics.
  10:Drivers/STM32F1xx_HAL_Driver/Src/stm32f1xx_ll_utils.c ****   * All rights reserved.</center></h2>
  11:Drivers/STM32F1xx_HAL_Driver/Src/stm32f1xx_ll_utils.c ****   *
  12:Drivers/STM32F1xx_HAL_Driver/Src/stm32f1xx_ll_utils.c ****   * This software component is licensed by ST under BSD 3-Clause license,
  13:Drivers/STM32F1xx_HAL_Driver/Src/stm32f1xx_ll_utils.c ****   * the "License"; You may not use this file except in compliance with the
  14:Drivers/STM32F1xx_HAL_Driver/Src/stm32f1xx_ll_utils.c ****   * License. You may obtain a copy of the License at:
  15:Drivers/STM32F1xx_HAL_Driver/Src/stm32f1xx_ll_utils.c ****   *                        opensource.org/licenses/BSD-3-Clause
  16:Drivers/STM32F1xx_HAL_Driver/Src/stm32f1xx_ll_utils.c ****   *
  17:Drivers/STM32F1xx_HAL_Driver/Src/stm32f1xx_ll_utils.c ****   ******************************************************************************
  18:Drivers/STM32F1xx_HAL_Driver/Src/stm32f1xx_ll_utils.c ****   */
  19:Drivers/STM32F1xx_HAL_Driver/Src/stm32f1xx_ll_utils.c **** 
  20:Drivers/STM32F1xx_HAL_Driver/Src/stm32f1xx_ll_utils.c **** /* Includes ------------------------------------------------------------------*/
  21:Drivers/STM32F1xx_HAL_Driver/Src/stm32f1xx_ll_utils.c **** #include "stm32f1xx_ll_rcc.h"
  22:Drivers/STM32F1xx_HAL_Driver/Src/stm32f1xx_ll_utils.c **** #include "stm32f1xx_ll_utils.h"
  23:Drivers/STM32F1xx_HAL_Driver/Src/stm32f1xx_ll_utils.c **** #include "stm32f1xx_ll_system.h"
  24:Drivers/STM32F1xx_HAL_Driver/Src/stm32f1xx_ll_utils.c **** #ifdef  USE_FULL_ASSERT
  25:Drivers/STM32F1xx_HAL_Driver/Src/stm32f1xx_ll_utils.c **** #include "stm32_assert.h"
  26:Drivers/STM32F1xx_HAL_Driver/Src/stm32f1xx_ll_utils.c **** #else
  27:Drivers/STM32F1xx_HAL_Driver/Src/stm32f1xx_ll_utils.c **** #define assert_param(expr) ((void)0U)
  28:Drivers/STM32F1xx_HAL_Driver/Src/stm32f1xx_ll_utils.c **** #endif
  29:Drivers/STM32F1xx_HAL_Driver/Src/stm32f1xx_ll_utils.c **** 
  30:Drivers/STM32F1xx_HAL_Driver/Src/stm32f1xx_ll_utils.c **** /** @addtogroup STM32F1xx_LL_Driver
  31:Drivers/STM32F1xx_HAL_Driver/Src/stm32f1xx_ll_utils.c ****   * @{
  32:Drivers/STM32F1xx_HAL_Driver/Src/stm32f1xx_ll_utils.c ****   */
ARM GAS  /var/folders/m1/3lv6xmzs0mlckxs4mx90nfb40000gn/T//ccNWxiXD.s 			page 2


  33:Drivers/STM32F1xx_HAL_Driver/Src/stm32f1xx_ll_utils.c **** 
  34:Drivers/STM32F1xx_HAL_Driver/Src/stm32f1xx_ll_utils.c **** /** @addtogroup UTILS_LL
  35:Drivers/STM32F1xx_HAL_Driver/Src/stm32f1xx_ll_utils.c ****   * @{
  36:Drivers/STM32F1xx_HAL_Driver/Src/stm32f1xx_ll_utils.c ****   */
  37:Drivers/STM32F1xx_HAL_Driver/Src/stm32f1xx_ll_utils.c **** 
  38:Drivers/STM32F1xx_HAL_Driver/Src/stm32f1xx_ll_utils.c **** /* Private types -------------------------------------------------------------*/
  39:Drivers/STM32F1xx_HAL_Driver/Src/stm32f1xx_ll_utils.c **** /* Private variables ---------------------------------------------------------*/
  40:Drivers/STM32F1xx_HAL_Driver/Src/stm32f1xx_ll_utils.c **** /* Private constants ---------------------------------------------------------*/
  41:Drivers/STM32F1xx_HAL_Driver/Src/stm32f1xx_ll_utils.c **** /** @addtogroup UTILS_LL_Private_Constants
  42:Drivers/STM32F1xx_HAL_Driver/Src/stm32f1xx_ll_utils.c ****   * @{
  43:Drivers/STM32F1xx_HAL_Driver/Src/stm32f1xx_ll_utils.c ****   */
  44:Drivers/STM32F1xx_HAL_Driver/Src/stm32f1xx_ll_utils.c **** 
  45:Drivers/STM32F1xx_HAL_Driver/Src/stm32f1xx_ll_utils.c **** /* Defines used for PLL range */
  46:Drivers/STM32F1xx_HAL_Driver/Src/stm32f1xx_ll_utils.c **** #define UTILS_PLL_OUTPUT_MAX        RCC_MAX_FREQUENCY    /*!< Frequency max for PLL output, in Hz  
  47:Drivers/STM32F1xx_HAL_Driver/Src/stm32f1xx_ll_utils.c **** 
  48:Drivers/STM32F1xx_HAL_Driver/Src/stm32f1xx_ll_utils.c **** /* Defines used for HSE range */
  49:Drivers/STM32F1xx_HAL_Driver/Src/stm32f1xx_ll_utils.c **** #define UTILS_HSE_FREQUENCY_MIN     RCC_HSE_MIN       /*!< Frequency min for HSE frequency, in Hz  
  50:Drivers/STM32F1xx_HAL_Driver/Src/stm32f1xx_ll_utils.c **** #define UTILS_HSE_FREQUENCY_MAX     RCC_HSE_MAX       /*!< Frequency max for HSE frequency, in Hz  
  51:Drivers/STM32F1xx_HAL_Driver/Src/stm32f1xx_ll_utils.c **** 
  52:Drivers/STM32F1xx_HAL_Driver/Src/stm32f1xx_ll_utils.c **** /* Defines used for FLASH latency according to HCLK Frequency */
  53:Drivers/STM32F1xx_HAL_Driver/Src/stm32f1xx_ll_utils.c **** #if defined(FLASH_ACR_LATENCY)
  54:Drivers/STM32F1xx_HAL_Driver/Src/stm32f1xx_ll_utils.c **** #define UTILS_LATENCY1_FREQ         24000000U        /*!< SYSCLK frequency to set FLASH latency 1 *
  55:Drivers/STM32F1xx_HAL_Driver/Src/stm32f1xx_ll_utils.c **** #define UTILS_LATENCY2_FREQ         48000000U        /*!< SYSCLK frequency to set FLASH latency 2 *
  56:Drivers/STM32F1xx_HAL_Driver/Src/stm32f1xx_ll_utils.c **** #else
  57:Drivers/STM32F1xx_HAL_Driver/Src/stm32f1xx_ll_utils.c **** /*!< No Latency Configuration in this device */
  58:Drivers/STM32F1xx_HAL_Driver/Src/stm32f1xx_ll_utils.c **** #endif
  59:Drivers/STM32F1xx_HAL_Driver/Src/stm32f1xx_ll_utils.c **** /**
  60:Drivers/STM32F1xx_HAL_Driver/Src/stm32f1xx_ll_utils.c ****   * @}
  61:Drivers/STM32F1xx_HAL_Driver/Src/stm32f1xx_ll_utils.c ****   */
  62:Drivers/STM32F1xx_HAL_Driver/Src/stm32f1xx_ll_utils.c **** /* Private macros ------------------------------------------------------------*/
  63:Drivers/STM32F1xx_HAL_Driver/Src/stm32f1xx_ll_utils.c **** /** @addtogroup UTILS_LL_Private_Macros
  64:Drivers/STM32F1xx_HAL_Driver/Src/stm32f1xx_ll_utils.c ****   * @{
  65:Drivers/STM32F1xx_HAL_Driver/Src/stm32f1xx_ll_utils.c ****   */
  66:Drivers/STM32F1xx_HAL_Driver/Src/stm32f1xx_ll_utils.c **** #define IS_LL_UTILS_SYSCLK_DIV(__VALUE__) (((__VALUE__) == LL_RCC_SYSCLK_DIV_1)   \
  67:Drivers/STM32F1xx_HAL_Driver/Src/stm32f1xx_ll_utils.c ****                                         || ((__VALUE__) == LL_RCC_SYSCLK_DIV_2)   \
  68:Drivers/STM32F1xx_HAL_Driver/Src/stm32f1xx_ll_utils.c ****                                         || ((__VALUE__) == LL_RCC_SYSCLK_DIV_4)   \
  69:Drivers/STM32F1xx_HAL_Driver/Src/stm32f1xx_ll_utils.c ****                                         || ((__VALUE__) == LL_RCC_SYSCLK_DIV_8)   \
  70:Drivers/STM32F1xx_HAL_Driver/Src/stm32f1xx_ll_utils.c ****                                         || ((__VALUE__) == LL_RCC_SYSCLK_DIV_16)  \
  71:Drivers/STM32F1xx_HAL_Driver/Src/stm32f1xx_ll_utils.c ****                                         || ((__VALUE__) == LL_RCC_SYSCLK_DIV_64)  \
  72:Drivers/STM32F1xx_HAL_Driver/Src/stm32f1xx_ll_utils.c ****                                         || ((__VALUE__) == LL_RCC_SYSCLK_DIV_128) \
  73:Drivers/STM32F1xx_HAL_Driver/Src/stm32f1xx_ll_utils.c ****                                         || ((__VALUE__) == LL_RCC_SYSCLK_DIV_256) \
  74:Drivers/STM32F1xx_HAL_Driver/Src/stm32f1xx_ll_utils.c ****                                         || ((__VALUE__) == LL_RCC_SYSCLK_DIV_512))
  75:Drivers/STM32F1xx_HAL_Driver/Src/stm32f1xx_ll_utils.c **** 
  76:Drivers/STM32F1xx_HAL_Driver/Src/stm32f1xx_ll_utils.c **** #define IS_LL_UTILS_APB1_DIV(__VALUE__) (((__VALUE__) == LL_RCC_APB1_DIV_1) \
  77:Drivers/STM32F1xx_HAL_Driver/Src/stm32f1xx_ll_utils.c ****                                       || ((__VALUE__) == LL_RCC_APB1_DIV_2) \
  78:Drivers/STM32F1xx_HAL_Driver/Src/stm32f1xx_ll_utils.c ****                                       || ((__VALUE__) == LL_RCC_APB1_DIV_4) \
  79:Drivers/STM32F1xx_HAL_Driver/Src/stm32f1xx_ll_utils.c ****                                       || ((__VALUE__) == LL_RCC_APB1_DIV_8) \
  80:Drivers/STM32F1xx_HAL_Driver/Src/stm32f1xx_ll_utils.c ****                                       || ((__VALUE__) == LL_RCC_APB1_DIV_16))
  81:Drivers/STM32F1xx_HAL_Driver/Src/stm32f1xx_ll_utils.c **** 
  82:Drivers/STM32F1xx_HAL_Driver/Src/stm32f1xx_ll_utils.c **** #define IS_LL_UTILS_APB2_DIV(__VALUE__) (((__VALUE__) == LL_RCC_APB2_DIV_1) \
  83:Drivers/STM32F1xx_HAL_Driver/Src/stm32f1xx_ll_utils.c ****                                       || ((__VALUE__) == LL_RCC_APB2_DIV_2) \
  84:Drivers/STM32F1xx_HAL_Driver/Src/stm32f1xx_ll_utils.c ****                                       || ((__VALUE__) == LL_RCC_APB2_DIV_4) \
  85:Drivers/STM32F1xx_HAL_Driver/Src/stm32f1xx_ll_utils.c ****                                       || ((__VALUE__) == LL_RCC_APB2_DIV_8) \
  86:Drivers/STM32F1xx_HAL_Driver/Src/stm32f1xx_ll_utils.c ****                                       || ((__VALUE__) == LL_RCC_APB2_DIV_16))
  87:Drivers/STM32F1xx_HAL_Driver/Src/stm32f1xx_ll_utils.c **** 
  88:Drivers/STM32F1xx_HAL_Driver/Src/stm32f1xx_ll_utils.c **** #if defined(RCC_CFGR_PLLMULL6_5)
  89:Drivers/STM32F1xx_HAL_Driver/Src/stm32f1xx_ll_utils.c **** #define IS_LL_UTILS_PLLMUL_VALUE(__VALUE__) (((__VALUE__) == LL_RCC_PLL_MUL_4) \
ARM GAS  /var/folders/m1/3lv6xmzs0mlckxs4mx90nfb40000gn/T//ccNWxiXD.s 			page 3


  90:Drivers/STM32F1xx_HAL_Driver/Src/stm32f1xx_ll_utils.c ****                                           || ((__VALUE__) == LL_RCC_PLL_MUL_5) \
  91:Drivers/STM32F1xx_HAL_Driver/Src/stm32f1xx_ll_utils.c ****                                           || ((__VALUE__) == LL_RCC_PLL_MUL_6) \
  92:Drivers/STM32F1xx_HAL_Driver/Src/stm32f1xx_ll_utils.c ****                                           || ((__VALUE__) == LL_RCC_PLL_MUL_7) \
  93:Drivers/STM32F1xx_HAL_Driver/Src/stm32f1xx_ll_utils.c ****                                           || ((__VALUE__) == LL_RCC_PLL_MUL_8) \
  94:Drivers/STM32F1xx_HAL_Driver/Src/stm32f1xx_ll_utils.c ****                                           || ((__VALUE__) == LL_RCC_PLL_MUL_9) \
  95:Drivers/STM32F1xx_HAL_Driver/Src/stm32f1xx_ll_utils.c ****                                           || ((__VALUE__) == LL_RCC_PLL_MUL_6_5))
  96:Drivers/STM32F1xx_HAL_Driver/Src/stm32f1xx_ll_utils.c **** #else
  97:Drivers/STM32F1xx_HAL_Driver/Src/stm32f1xx_ll_utils.c **** #define IS_LL_UTILS_PLLMUL_VALUE(__VALUE__) (((__VALUE__) == LL_RCC_PLL_MUL_2) \
  98:Drivers/STM32F1xx_HAL_Driver/Src/stm32f1xx_ll_utils.c ****                                           || ((__VALUE__) == LL_RCC_PLL_MUL_3) \
  99:Drivers/STM32F1xx_HAL_Driver/Src/stm32f1xx_ll_utils.c ****                                           || ((__VALUE__) == LL_RCC_PLL_MUL_4) \
 100:Drivers/STM32F1xx_HAL_Driver/Src/stm32f1xx_ll_utils.c ****                                           || ((__VALUE__) == LL_RCC_PLL_MUL_5) \
 101:Drivers/STM32F1xx_HAL_Driver/Src/stm32f1xx_ll_utils.c ****                                           || ((__VALUE__) == LL_RCC_PLL_MUL_6) \
 102:Drivers/STM32F1xx_HAL_Driver/Src/stm32f1xx_ll_utils.c ****                                           || ((__VALUE__) == LL_RCC_PLL_MUL_7) \
 103:Drivers/STM32F1xx_HAL_Driver/Src/stm32f1xx_ll_utils.c ****                                           || ((__VALUE__) == LL_RCC_PLL_MUL_8) \
 104:Drivers/STM32F1xx_HAL_Driver/Src/stm32f1xx_ll_utils.c ****                                           || ((__VALUE__) == LL_RCC_PLL_MUL_9) \
 105:Drivers/STM32F1xx_HAL_Driver/Src/stm32f1xx_ll_utils.c ****                                           || ((__VALUE__) == LL_RCC_PLL_MUL_10) \
 106:Drivers/STM32F1xx_HAL_Driver/Src/stm32f1xx_ll_utils.c ****                                           || ((__VALUE__) == LL_RCC_PLL_MUL_11) \
 107:Drivers/STM32F1xx_HAL_Driver/Src/stm32f1xx_ll_utils.c ****                                           || ((__VALUE__) == LL_RCC_PLL_MUL_12) \
 108:Drivers/STM32F1xx_HAL_Driver/Src/stm32f1xx_ll_utils.c ****                                           || ((__VALUE__) == LL_RCC_PLL_MUL_13) \
 109:Drivers/STM32F1xx_HAL_Driver/Src/stm32f1xx_ll_utils.c ****                                           || ((__VALUE__) == LL_RCC_PLL_MUL_14) \
 110:Drivers/STM32F1xx_HAL_Driver/Src/stm32f1xx_ll_utils.c ****                                           || ((__VALUE__) == LL_RCC_PLL_MUL_15) \
 111:Drivers/STM32F1xx_HAL_Driver/Src/stm32f1xx_ll_utils.c ****                                           || ((__VALUE__) == LL_RCC_PLL_MUL_16))
 112:Drivers/STM32F1xx_HAL_Driver/Src/stm32f1xx_ll_utils.c **** #endif /* RCC_CFGR_PLLMULL6_5 */
 113:Drivers/STM32F1xx_HAL_Driver/Src/stm32f1xx_ll_utils.c **** 
 114:Drivers/STM32F1xx_HAL_Driver/Src/stm32f1xx_ll_utils.c **** #if defined(RCC_CFGR2_PREDIV1)
 115:Drivers/STM32F1xx_HAL_Driver/Src/stm32f1xx_ll_utils.c **** #define IS_LL_UTILS_PREDIV_VALUE(__VALUE__) (((__VALUE__) == LL_RCC_PREDIV_DIV_1)  || ((__VALUE__) 
 116:Drivers/STM32F1xx_HAL_Driver/Src/stm32f1xx_ll_utils.c ****                                              ((__VALUE__) == LL_RCC_PREDIV_DIV_3)  || ((__VALUE__) 
 117:Drivers/STM32F1xx_HAL_Driver/Src/stm32f1xx_ll_utils.c ****                                              ((__VALUE__) == LL_RCC_PREDIV_DIV_5)  || ((__VALUE__) 
 118:Drivers/STM32F1xx_HAL_Driver/Src/stm32f1xx_ll_utils.c ****                                              ((__VALUE__) == LL_RCC_PREDIV_DIV_7)  || ((__VALUE__) 
 119:Drivers/STM32F1xx_HAL_Driver/Src/stm32f1xx_ll_utils.c ****                                              ((__VALUE__) == LL_RCC_PREDIV_DIV_9)  || ((__VALUE__) 
 120:Drivers/STM32F1xx_HAL_Driver/Src/stm32f1xx_ll_utils.c ****                                              ((__VALUE__) == LL_RCC_PREDIV_DIV_11) || ((__VALUE__) 
 121:Drivers/STM32F1xx_HAL_Driver/Src/stm32f1xx_ll_utils.c ****                                              ((__VALUE__) == LL_RCC_PREDIV_DIV_13) || ((__VALUE__) 
 122:Drivers/STM32F1xx_HAL_Driver/Src/stm32f1xx_ll_utils.c ****                                              ((__VALUE__) == LL_RCC_PREDIV_DIV_15) || ((__VALUE__) 
 123:Drivers/STM32F1xx_HAL_Driver/Src/stm32f1xx_ll_utils.c **** #else
 124:Drivers/STM32F1xx_HAL_Driver/Src/stm32f1xx_ll_utils.c **** #define IS_LL_UTILS_PREDIV_VALUE(__VALUE__) (((__VALUE__) == LL_RCC_PREDIV_DIV_1)  || ((__VALUE__) 
 125:Drivers/STM32F1xx_HAL_Driver/Src/stm32f1xx_ll_utils.c **** #endif /*RCC_PREDIV1_DIV_2_16_SUPPORT*/
 126:Drivers/STM32F1xx_HAL_Driver/Src/stm32f1xx_ll_utils.c **** 
 127:Drivers/STM32F1xx_HAL_Driver/Src/stm32f1xx_ll_utils.c **** #define IS_LL_UTILS_PLL_FREQUENCY(__VALUE__) ((__VALUE__) <= UTILS_PLL_OUTPUT_MAX)
 128:Drivers/STM32F1xx_HAL_Driver/Src/stm32f1xx_ll_utils.c **** 
 129:Drivers/STM32F1xx_HAL_Driver/Src/stm32f1xx_ll_utils.c **** 
 130:Drivers/STM32F1xx_HAL_Driver/Src/stm32f1xx_ll_utils.c **** #define IS_LL_UTILS_HSE_BYPASS(__STATE__) (((__STATE__) == LL_UTILS_HSEBYPASS_ON) \
 131:Drivers/STM32F1xx_HAL_Driver/Src/stm32f1xx_ll_utils.c ****                                         || ((__STATE__) == LL_UTILS_HSEBYPASS_OFF))
 132:Drivers/STM32F1xx_HAL_Driver/Src/stm32f1xx_ll_utils.c **** 
 133:Drivers/STM32F1xx_HAL_Driver/Src/stm32f1xx_ll_utils.c **** #define IS_LL_UTILS_HSE_FREQUENCY(__FREQUENCY__) (((__FREQUENCY__) >= UTILS_HSE_FREQUENCY_MIN) && (
 134:Drivers/STM32F1xx_HAL_Driver/Src/stm32f1xx_ll_utils.c **** /**
 135:Drivers/STM32F1xx_HAL_Driver/Src/stm32f1xx_ll_utils.c ****   * @}
 136:Drivers/STM32F1xx_HAL_Driver/Src/stm32f1xx_ll_utils.c ****   */
 137:Drivers/STM32F1xx_HAL_Driver/Src/stm32f1xx_ll_utils.c **** /* Private function prototypes -----------------------------------------------*/
 138:Drivers/STM32F1xx_HAL_Driver/Src/stm32f1xx_ll_utils.c **** /** @defgroup UTILS_LL_Private_Functions UTILS Private functions
 139:Drivers/STM32F1xx_HAL_Driver/Src/stm32f1xx_ll_utils.c ****   * @{
 140:Drivers/STM32F1xx_HAL_Driver/Src/stm32f1xx_ll_utils.c ****   */
 141:Drivers/STM32F1xx_HAL_Driver/Src/stm32f1xx_ll_utils.c **** static uint32_t    UTILS_GetPLLOutputFrequency(uint32_t PLL_InputFrequency,
 142:Drivers/STM32F1xx_HAL_Driver/Src/stm32f1xx_ll_utils.c ****                                                LL_UTILS_PLLInitTypeDef *UTILS_PLLInitStruct);
 143:Drivers/STM32F1xx_HAL_Driver/Src/stm32f1xx_ll_utils.c **** #if defined(FLASH_ACR_LATENCY)
 144:Drivers/STM32F1xx_HAL_Driver/Src/stm32f1xx_ll_utils.c **** static ErrorStatus UTILS_SetFlashLatency(uint32_t Frequency);
 145:Drivers/STM32F1xx_HAL_Driver/Src/stm32f1xx_ll_utils.c **** #endif /* FLASH_ACR_LATENCY */
 146:Drivers/STM32F1xx_HAL_Driver/Src/stm32f1xx_ll_utils.c **** static ErrorStatus UTILS_EnablePLLAndSwitchSystem(uint32_t SYSCLK_Frequency, LL_UTILS_ClkInitTypeDe
ARM GAS  /var/folders/m1/3lv6xmzs0mlckxs4mx90nfb40000gn/T//ccNWxiXD.s 			page 4


 147:Drivers/STM32F1xx_HAL_Driver/Src/stm32f1xx_ll_utils.c **** static ErrorStatus UTILS_PLL_IsBusy(void);
 148:Drivers/STM32F1xx_HAL_Driver/Src/stm32f1xx_ll_utils.c **** /**
 149:Drivers/STM32F1xx_HAL_Driver/Src/stm32f1xx_ll_utils.c ****   * @}
 150:Drivers/STM32F1xx_HAL_Driver/Src/stm32f1xx_ll_utils.c ****   */
 151:Drivers/STM32F1xx_HAL_Driver/Src/stm32f1xx_ll_utils.c **** 
 152:Drivers/STM32F1xx_HAL_Driver/Src/stm32f1xx_ll_utils.c **** /* Exported functions --------------------------------------------------------*/
 153:Drivers/STM32F1xx_HAL_Driver/Src/stm32f1xx_ll_utils.c **** /** @addtogroup UTILS_LL_Exported_Functions
 154:Drivers/STM32F1xx_HAL_Driver/Src/stm32f1xx_ll_utils.c ****   * @{
 155:Drivers/STM32F1xx_HAL_Driver/Src/stm32f1xx_ll_utils.c ****   */
 156:Drivers/STM32F1xx_HAL_Driver/Src/stm32f1xx_ll_utils.c **** 
 157:Drivers/STM32F1xx_HAL_Driver/Src/stm32f1xx_ll_utils.c **** /** @addtogroup UTILS_LL_EF_DELAY
 158:Drivers/STM32F1xx_HAL_Driver/Src/stm32f1xx_ll_utils.c ****   * @{
 159:Drivers/STM32F1xx_HAL_Driver/Src/stm32f1xx_ll_utils.c ****   */
 160:Drivers/STM32F1xx_HAL_Driver/Src/stm32f1xx_ll_utils.c **** 
 161:Drivers/STM32F1xx_HAL_Driver/Src/stm32f1xx_ll_utils.c **** /**
 162:Drivers/STM32F1xx_HAL_Driver/Src/stm32f1xx_ll_utils.c ****   * @brief  This function configures the Cortex-M SysTick source to have 1ms time base.
 163:Drivers/STM32F1xx_HAL_Driver/Src/stm32f1xx_ll_utils.c ****   * @note   When a RTOS is used, it is recommended to avoid changing the Systick
 164:Drivers/STM32F1xx_HAL_Driver/Src/stm32f1xx_ll_utils.c ****   *         configuration by calling this function, for a delay use rather osDelay RTOS service.
 165:Drivers/STM32F1xx_HAL_Driver/Src/stm32f1xx_ll_utils.c ****   * @param  HCLKFrequency HCLK frequency in Hz
 166:Drivers/STM32F1xx_HAL_Driver/Src/stm32f1xx_ll_utils.c ****   * @note   HCLK frequency can be calculated thanks to RCC helper macro or function @ref LL_RCC_Get
 167:Drivers/STM32F1xx_HAL_Driver/Src/stm32f1xx_ll_utils.c ****   * @retval None
 168:Drivers/STM32F1xx_HAL_Driver/Src/stm32f1xx_ll_utils.c ****   */
 169:Drivers/STM32F1xx_HAL_Driver/Src/stm32f1xx_ll_utils.c **** void LL_Init1msTick(uint32_t HCLKFrequency)
 170:Drivers/STM32F1xx_HAL_Driver/Src/stm32f1xx_ll_utils.c **** {
  27              		.loc 1 170 0
  28              		.cfi_startproc
  29              		@ args = 0, pretend = 0, frame = 0
  30              		@ frame_needed = 0, uses_anonymous_args = 0
  31              		@ link register save eliminated.
  32              	.LVL0:
  33              	.LBB68:
  34              	.LBB69:
  35              		.file 2 "Drivers/STM32F1xx_HAL_Driver/Inc/stm32f1xx_ll_utils.h"
   1:Drivers/STM32F1xx_HAL_Driver/Inc/stm32f1xx_ll_utils.h **** /**
   2:Drivers/STM32F1xx_HAL_Driver/Inc/stm32f1xx_ll_utils.h ****   ******************************************************************************
   3:Drivers/STM32F1xx_HAL_Driver/Inc/stm32f1xx_ll_utils.h ****   * @file    stm32f1xx_ll_utils.h
   4:Drivers/STM32F1xx_HAL_Driver/Inc/stm32f1xx_ll_utils.h ****   * @author  MCD Application Team
   5:Drivers/STM32F1xx_HAL_Driver/Inc/stm32f1xx_ll_utils.h ****   * @brief   Header file of UTILS LL module.
   6:Drivers/STM32F1xx_HAL_Driver/Inc/stm32f1xx_ll_utils.h ****   @verbatim
   7:Drivers/STM32F1xx_HAL_Driver/Inc/stm32f1xx_ll_utils.h ****   ==============================================================================
   8:Drivers/STM32F1xx_HAL_Driver/Inc/stm32f1xx_ll_utils.h ****                      ##### How to use this driver #####
   9:Drivers/STM32F1xx_HAL_Driver/Inc/stm32f1xx_ll_utils.h ****   ==============================================================================
  10:Drivers/STM32F1xx_HAL_Driver/Inc/stm32f1xx_ll_utils.h ****     [..]
  11:Drivers/STM32F1xx_HAL_Driver/Inc/stm32f1xx_ll_utils.h ****     The LL UTILS driver contains a set of generic APIs that can be
  12:Drivers/STM32F1xx_HAL_Driver/Inc/stm32f1xx_ll_utils.h ****     used by user:
  13:Drivers/STM32F1xx_HAL_Driver/Inc/stm32f1xx_ll_utils.h ****       (+) Device electronic signature
  14:Drivers/STM32F1xx_HAL_Driver/Inc/stm32f1xx_ll_utils.h ****       (+) Timing functions
  15:Drivers/STM32F1xx_HAL_Driver/Inc/stm32f1xx_ll_utils.h ****       (+) PLL configuration functions
  16:Drivers/STM32F1xx_HAL_Driver/Inc/stm32f1xx_ll_utils.h **** 
  17:Drivers/STM32F1xx_HAL_Driver/Inc/stm32f1xx_ll_utils.h ****   @endverbatim
  18:Drivers/STM32F1xx_HAL_Driver/Inc/stm32f1xx_ll_utils.h ****   ******************************************************************************
  19:Drivers/STM32F1xx_HAL_Driver/Inc/stm32f1xx_ll_utils.h ****   * @attention
  20:Drivers/STM32F1xx_HAL_Driver/Inc/stm32f1xx_ll_utils.h ****   *
  21:Drivers/STM32F1xx_HAL_Driver/Inc/stm32f1xx_ll_utils.h ****   * <h2><center>&copy; Copyright (c) 2016 STMicroelectronics.
  22:Drivers/STM32F1xx_HAL_Driver/Inc/stm32f1xx_ll_utils.h ****   * All rights reserved.</center></h2>
  23:Drivers/STM32F1xx_HAL_Driver/Inc/stm32f1xx_ll_utils.h ****   *
  24:Drivers/STM32F1xx_HAL_Driver/Inc/stm32f1xx_ll_utils.h ****   * This software component is licensed by ST under BSD 3-Clause license,
ARM GAS  /var/folders/m1/3lv6xmzs0mlckxs4mx90nfb40000gn/T//ccNWxiXD.s 			page 5


  25:Drivers/STM32F1xx_HAL_Driver/Inc/stm32f1xx_ll_utils.h ****   * the "License"; You may not use this file except in compliance with the
  26:Drivers/STM32F1xx_HAL_Driver/Inc/stm32f1xx_ll_utils.h ****   * License. You may obtain a copy of the License at:
  27:Drivers/STM32F1xx_HAL_Driver/Inc/stm32f1xx_ll_utils.h ****   *                        opensource.org/licenses/BSD-3-Clause
  28:Drivers/STM32F1xx_HAL_Driver/Inc/stm32f1xx_ll_utils.h ****   *
  29:Drivers/STM32F1xx_HAL_Driver/Inc/stm32f1xx_ll_utils.h ****   ******************************************************************************
  30:Drivers/STM32F1xx_HAL_Driver/Inc/stm32f1xx_ll_utils.h ****   */
  31:Drivers/STM32F1xx_HAL_Driver/Inc/stm32f1xx_ll_utils.h **** 
  32:Drivers/STM32F1xx_HAL_Driver/Inc/stm32f1xx_ll_utils.h **** /* Define to prevent recursive inclusion -------------------------------------*/
  33:Drivers/STM32F1xx_HAL_Driver/Inc/stm32f1xx_ll_utils.h **** #ifndef __STM32F1xx_LL_UTILS_H
  34:Drivers/STM32F1xx_HAL_Driver/Inc/stm32f1xx_ll_utils.h **** #define __STM32F1xx_LL_UTILS_H
  35:Drivers/STM32F1xx_HAL_Driver/Inc/stm32f1xx_ll_utils.h **** 
  36:Drivers/STM32F1xx_HAL_Driver/Inc/stm32f1xx_ll_utils.h **** #ifdef __cplusplus
  37:Drivers/STM32F1xx_HAL_Driver/Inc/stm32f1xx_ll_utils.h **** extern "C" {
  38:Drivers/STM32F1xx_HAL_Driver/Inc/stm32f1xx_ll_utils.h **** #endif
  39:Drivers/STM32F1xx_HAL_Driver/Inc/stm32f1xx_ll_utils.h **** 
  40:Drivers/STM32F1xx_HAL_Driver/Inc/stm32f1xx_ll_utils.h **** /* Includes ------------------------------------------------------------------*/
  41:Drivers/STM32F1xx_HAL_Driver/Inc/stm32f1xx_ll_utils.h **** #include "stm32f1xx.h"
  42:Drivers/STM32F1xx_HAL_Driver/Inc/stm32f1xx_ll_utils.h **** 
  43:Drivers/STM32F1xx_HAL_Driver/Inc/stm32f1xx_ll_utils.h **** /** @addtogroup STM32F1xx_LL_Driver
  44:Drivers/STM32F1xx_HAL_Driver/Inc/stm32f1xx_ll_utils.h ****   * @{
  45:Drivers/STM32F1xx_HAL_Driver/Inc/stm32f1xx_ll_utils.h ****   */
  46:Drivers/STM32F1xx_HAL_Driver/Inc/stm32f1xx_ll_utils.h **** 
  47:Drivers/STM32F1xx_HAL_Driver/Inc/stm32f1xx_ll_utils.h **** /** @defgroup UTILS_LL UTILS
  48:Drivers/STM32F1xx_HAL_Driver/Inc/stm32f1xx_ll_utils.h ****   * @{
  49:Drivers/STM32F1xx_HAL_Driver/Inc/stm32f1xx_ll_utils.h ****   */
  50:Drivers/STM32F1xx_HAL_Driver/Inc/stm32f1xx_ll_utils.h **** 
  51:Drivers/STM32F1xx_HAL_Driver/Inc/stm32f1xx_ll_utils.h **** /* Private types -------------------------------------------------------------*/
  52:Drivers/STM32F1xx_HAL_Driver/Inc/stm32f1xx_ll_utils.h **** /* Private variables ---------------------------------------------------------*/
  53:Drivers/STM32F1xx_HAL_Driver/Inc/stm32f1xx_ll_utils.h **** 
  54:Drivers/STM32F1xx_HAL_Driver/Inc/stm32f1xx_ll_utils.h **** /* Private constants ---------------------------------------------------------*/
  55:Drivers/STM32F1xx_HAL_Driver/Inc/stm32f1xx_ll_utils.h **** /** @defgroup UTILS_LL_Private_Constants UTILS Private Constants
  56:Drivers/STM32F1xx_HAL_Driver/Inc/stm32f1xx_ll_utils.h ****   * @{
  57:Drivers/STM32F1xx_HAL_Driver/Inc/stm32f1xx_ll_utils.h ****   */
  58:Drivers/STM32F1xx_HAL_Driver/Inc/stm32f1xx_ll_utils.h **** 
  59:Drivers/STM32F1xx_HAL_Driver/Inc/stm32f1xx_ll_utils.h **** /* Max delay can be used in LL_mDelay */
  60:Drivers/STM32F1xx_HAL_Driver/Inc/stm32f1xx_ll_utils.h **** #define LL_MAX_DELAY                  0xFFFFFFFFU
  61:Drivers/STM32F1xx_HAL_Driver/Inc/stm32f1xx_ll_utils.h **** 
  62:Drivers/STM32F1xx_HAL_Driver/Inc/stm32f1xx_ll_utils.h **** /**
  63:Drivers/STM32F1xx_HAL_Driver/Inc/stm32f1xx_ll_utils.h ****  * @brief Unique device ID register base address
  64:Drivers/STM32F1xx_HAL_Driver/Inc/stm32f1xx_ll_utils.h ****  */
  65:Drivers/STM32F1xx_HAL_Driver/Inc/stm32f1xx_ll_utils.h **** #define UID_BASE_ADDRESS              UID_BASE
  66:Drivers/STM32F1xx_HAL_Driver/Inc/stm32f1xx_ll_utils.h **** 
  67:Drivers/STM32F1xx_HAL_Driver/Inc/stm32f1xx_ll_utils.h **** /**
  68:Drivers/STM32F1xx_HAL_Driver/Inc/stm32f1xx_ll_utils.h ****  * @brief Flash size data register base address
  69:Drivers/STM32F1xx_HAL_Driver/Inc/stm32f1xx_ll_utils.h ****  */
  70:Drivers/STM32F1xx_HAL_Driver/Inc/stm32f1xx_ll_utils.h **** #define FLASHSIZE_BASE_ADDRESS        FLASHSIZE_BASE
  71:Drivers/STM32F1xx_HAL_Driver/Inc/stm32f1xx_ll_utils.h **** 
  72:Drivers/STM32F1xx_HAL_Driver/Inc/stm32f1xx_ll_utils.h **** /**
  73:Drivers/STM32F1xx_HAL_Driver/Inc/stm32f1xx_ll_utils.h ****   * @}
  74:Drivers/STM32F1xx_HAL_Driver/Inc/stm32f1xx_ll_utils.h ****   */
  75:Drivers/STM32F1xx_HAL_Driver/Inc/stm32f1xx_ll_utils.h **** 
  76:Drivers/STM32F1xx_HAL_Driver/Inc/stm32f1xx_ll_utils.h **** /* Private macros ------------------------------------------------------------*/
  77:Drivers/STM32F1xx_HAL_Driver/Inc/stm32f1xx_ll_utils.h **** /** @defgroup UTILS_LL_Private_Macros UTILS Private Macros
  78:Drivers/STM32F1xx_HAL_Driver/Inc/stm32f1xx_ll_utils.h ****   * @{
  79:Drivers/STM32F1xx_HAL_Driver/Inc/stm32f1xx_ll_utils.h ****   */
  80:Drivers/STM32F1xx_HAL_Driver/Inc/stm32f1xx_ll_utils.h **** /**
  81:Drivers/STM32F1xx_HAL_Driver/Inc/stm32f1xx_ll_utils.h ****   * @}
ARM GAS  /var/folders/m1/3lv6xmzs0mlckxs4mx90nfb40000gn/T//ccNWxiXD.s 			page 6


  82:Drivers/STM32F1xx_HAL_Driver/Inc/stm32f1xx_ll_utils.h ****   */
  83:Drivers/STM32F1xx_HAL_Driver/Inc/stm32f1xx_ll_utils.h **** /* Exported types ------------------------------------------------------------*/
  84:Drivers/STM32F1xx_HAL_Driver/Inc/stm32f1xx_ll_utils.h **** /** @defgroup UTILS_LL_ES_INIT UTILS Exported structures
  85:Drivers/STM32F1xx_HAL_Driver/Inc/stm32f1xx_ll_utils.h ****   * @{
  86:Drivers/STM32F1xx_HAL_Driver/Inc/stm32f1xx_ll_utils.h ****   */
  87:Drivers/STM32F1xx_HAL_Driver/Inc/stm32f1xx_ll_utils.h **** /**
  88:Drivers/STM32F1xx_HAL_Driver/Inc/stm32f1xx_ll_utils.h ****   * @brief  UTILS PLL structure definition
  89:Drivers/STM32F1xx_HAL_Driver/Inc/stm32f1xx_ll_utils.h ****   */
  90:Drivers/STM32F1xx_HAL_Driver/Inc/stm32f1xx_ll_utils.h **** typedef struct
  91:Drivers/STM32F1xx_HAL_Driver/Inc/stm32f1xx_ll_utils.h **** {
  92:Drivers/STM32F1xx_HAL_Driver/Inc/stm32f1xx_ll_utils.h ****   uint32_t PLLMul;   /*!< Multiplication factor for PLL VCO input clock.
  93:Drivers/STM32F1xx_HAL_Driver/Inc/stm32f1xx_ll_utils.h ****                           This parameter can be a value of @ref RCC_LL_EC_PLL_MUL
  94:Drivers/STM32F1xx_HAL_Driver/Inc/stm32f1xx_ll_utils.h **** 
  95:Drivers/STM32F1xx_HAL_Driver/Inc/stm32f1xx_ll_utils.h ****                           This feature can be modified afterwards using unitary function
  96:Drivers/STM32F1xx_HAL_Driver/Inc/stm32f1xx_ll_utils.h ****                           @ref LL_RCC_PLL_ConfigDomain_SYS(). */
  97:Drivers/STM32F1xx_HAL_Driver/Inc/stm32f1xx_ll_utils.h **** 
  98:Drivers/STM32F1xx_HAL_Driver/Inc/stm32f1xx_ll_utils.h ****   uint32_t Prediv;   /*!< Division factor for HSE used as PLL clock source.
  99:Drivers/STM32F1xx_HAL_Driver/Inc/stm32f1xx_ll_utils.h ****                           This parameter can be a value of @ref RCC_LL_EC_PREDIV_DIV
 100:Drivers/STM32F1xx_HAL_Driver/Inc/stm32f1xx_ll_utils.h **** 
 101:Drivers/STM32F1xx_HAL_Driver/Inc/stm32f1xx_ll_utils.h ****                           This feature can be modified afterwards using unitary function
 102:Drivers/STM32F1xx_HAL_Driver/Inc/stm32f1xx_ll_utils.h ****                           @ref LL_RCC_PLL_ConfigDomain_SYS(). */
 103:Drivers/STM32F1xx_HAL_Driver/Inc/stm32f1xx_ll_utils.h **** } LL_UTILS_PLLInitTypeDef;
 104:Drivers/STM32F1xx_HAL_Driver/Inc/stm32f1xx_ll_utils.h **** 
 105:Drivers/STM32F1xx_HAL_Driver/Inc/stm32f1xx_ll_utils.h **** /**
 106:Drivers/STM32F1xx_HAL_Driver/Inc/stm32f1xx_ll_utils.h ****   * @brief  UTILS System, AHB and APB buses clock configuration structure definition
 107:Drivers/STM32F1xx_HAL_Driver/Inc/stm32f1xx_ll_utils.h ****   */
 108:Drivers/STM32F1xx_HAL_Driver/Inc/stm32f1xx_ll_utils.h **** typedef struct
 109:Drivers/STM32F1xx_HAL_Driver/Inc/stm32f1xx_ll_utils.h **** {
 110:Drivers/STM32F1xx_HAL_Driver/Inc/stm32f1xx_ll_utils.h ****   uint32_t AHBCLKDivider;         /*!< The AHB clock (HCLK) divider. This clock is derived from the
 111:Drivers/STM32F1xx_HAL_Driver/Inc/stm32f1xx_ll_utils.h ****                                        This parameter can be a value of @ref RCC_LL_EC_SYSCLK_DIV
 112:Drivers/STM32F1xx_HAL_Driver/Inc/stm32f1xx_ll_utils.h **** 
 113:Drivers/STM32F1xx_HAL_Driver/Inc/stm32f1xx_ll_utils.h ****                                        This feature can be modified afterwards using unitary functi
 114:Drivers/STM32F1xx_HAL_Driver/Inc/stm32f1xx_ll_utils.h ****                                        @ref LL_RCC_SetAHBPrescaler(). */
 115:Drivers/STM32F1xx_HAL_Driver/Inc/stm32f1xx_ll_utils.h **** 
 116:Drivers/STM32F1xx_HAL_Driver/Inc/stm32f1xx_ll_utils.h ****   uint32_t APB1CLKDivider;        /*!< The APB1 clock (PCLK1) divider. This clock is derived from t
 117:Drivers/STM32F1xx_HAL_Driver/Inc/stm32f1xx_ll_utils.h ****                                        This parameter can be a value of @ref RCC_LL_EC_APB1_DIV
 118:Drivers/STM32F1xx_HAL_Driver/Inc/stm32f1xx_ll_utils.h **** 
 119:Drivers/STM32F1xx_HAL_Driver/Inc/stm32f1xx_ll_utils.h ****                                        This feature can be modified afterwards using unitary functi
 120:Drivers/STM32F1xx_HAL_Driver/Inc/stm32f1xx_ll_utils.h ****                                        @ref LL_RCC_SetAPB1Prescaler(). */
 121:Drivers/STM32F1xx_HAL_Driver/Inc/stm32f1xx_ll_utils.h **** 
 122:Drivers/STM32F1xx_HAL_Driver/Inc/stm32f1xx_ll_utils.h ****   uint32_t APB2CLKDivider;        /*!< The APB2 clock (PCLK2) divider. This clock is derived from t
 123:Drivers/STM32F1xx_HAL_Driver/Inc/stm32f1xx_ll_utils.h ****                                        This parameter can be a value of @ref RCC_LL_EC_APB2_DIV
 124:Drivers/STM32F1xx_HAL_Driver/Inc/stm32f1xx_ll_utils.h **** 
 125:Drivers/STM32F1xx_HAL_Driver/Inc/stm32f1xx_ll_utils.h ****                                        This feature can be modified afterwards using unitary functi
 126:Drivers/STM32F1xx_HAL_Driver/Inc/stm32f1xx_ll_utils.h ****                                        @ref LL_RCC_SetAPB2Prescaler(). */
 127:Drivers/STM32F1xx_HAL_Driver/Inc/stm32f1xx_ll_utils.h **** 
 128:Drivers/STM32F1xx_HAL_Driver/Inc/stm32f1xx_ll_utils.h **** } LL_UTILS_ClkInitTypeDef;
 129:Drivers/STM32F1xx_HAL_Driver/Inc/stm32f1xx_ll_utils.h **** 
 130:Drivers/STM32F1xx_HAL_Driver/Inc/stm32f1xx_ll_utils.h **** /**
 131:Drivers/STM32F1xx_HAL_Driver/Inc/stm32f1xx_ll_utils.h ****   * @}
 132:Drivers/STM32F1xx_HAL_Driver/Inc/stm32f1xx_ll_utils.h ****   */
 133:Drivers/STM32F1xx_HAL_Driver/Inc/stm32f1xx_ll_utils.h **** 
 134:Drivers/STM32F1xx_HAL_Driver/Inc/stm32f1xx_ll_utils.h **** /* Exported constants --------------------------------------------------------*/
 135:Drivers/STM32F1xx_HAL_Driver/Inc/stm32f1xx_ll_utils.h **** /** @defgroup UTILS_LL_Exported_Constants UTILS Exported Constants
 136:Drivers/STM32F1xx_HAL_Driver/Inc/stm32f1xx_ll_utils.h ****   * @{
 137:Drivers/STM32F1xx_HAL_Driver/Inc/stm32f1xx_ll_utils.h ****   */
 138:Drivers/STM32F1xx_HAL_Driver/Inc/stm32f1xx_ll_utils.h **** 
ARM GAS  /var/folders/m1/3lv6xmzs0mlckxs4mx90nfb40000gn/T//ccNWxiXD.s 			page 7


 139:Drivers/STM32F1xx_HAL_Driver/Inc/stm32f1xx_ll_utils.h **** /** @defgroup UTILS_EC_HSE_BYPASS HSE Bypass activation
 140:Drivers/STM32F1xx_HAL_Driver/Inc/stm32f1xx_ll_utils.h ****   * @{
 141:Drivers/STM32F1xx_HAL_Driver/Inc/stm32f1xx_ll_utils.h ****   */
 142:Drivers/STM32F1xx_HAL_Driver/Inc/stm32f1xx_ll_utils.h **** #define LL_UTILS_HSEBYPASS_OFF        0x00000000U       /*!< HSE Bypass is not enabled             
 143:Drivers/STM32F1xx_HAL_Driver/Inc/stm32f1xx_ll_utils.h **** #define LL_UTILS_HSEBYPASS_ON         0x00000001U       /*!< HSE Bypass is enabled                 
 144:Drivers/STM32F1xx_HAL_Driver/Inc/stm32f1xx_ll_utils.h **** /**
 145:Drivers/STM32F1xx_HAL_Driver/Inc/stm32f1xx_ll_utils.h ****   * @}
 146:Drivers/STM32F1xx_HAL_Driver/Inc/stm32f1xx_ll_utils.h ****   */
 147:Drivers/STM32F1xx_HAL_Driver/Inc/stm32f1xx_ll_utils.h **** 
 148:Drivers/STM32F1xx_HAL_Driver/Inc/stm32f1xx_ll_utils.h **** /**
 149:Drivers/STM32F1xx_HAL_Driver/Inc/stm32f1xx_ll_utils.h ****   * @}
 150:Drivers/STM32F1xx_HAL_Driver/Inc/stm32f1xx_ll_utils.h ****   */
 151:Drivers/STM32F1xx_HAL_Driver/Inc/stm32f1xx_ll_utils.h **** 
 152:Drivers/STM32F1xx_HAL_Driver/Inc/stm32f1xx_ll_utils.h **** /* Exported macro ------------------------------------------------------------*/
 153:Drivers/STM32F1xx_HAL_Driver/Inc/stm32f1xx_ll_utils.h **** 
 154:Drivers/STM32F1xx_HAL_Driver/Inc/stm32f1xx_ll_utils.h **** /* Exported functions --------------------------------------------------------*/
 155:Drivers/STM32F1xx_HAL_Driver/Inc/stm32f1xx_ll_utils.h **** /** @defgroup UTILS_LL_Exported_Functions UTILS Exported Functions
 156:Drivers/STM32F1xx_HAL_Driver/Inc/stm32f1xx_ll_utils.h ****   * @{
 157:Drivers/STM32F1xx_HAL_Driver/Inc/stm32f1xx_ll_utils.h ****   */
 158:Drivers/STM32F1xx_HAL_Driver/Inc/stm32f1xx_ll_utils.h **** 
 159:Drivers/STM32F1xx_HAL_Driver/Inc/stm32f1xx_ll_utils.h **** /** @defgroup UTILS_EF_DEVICE_ELECTRONIC_SIGNATURE DEVICE ELECTRONIC SIGNATURE
 160:Drivers/STM32F1xx_HAL_Driver/Inc/stm32f1xx_ll_utils.h ****   * @{
 161:Drivers/STM32F1xx_HAL_Driver/Inc/stm32f1xx_ll_utils.h ****   */
 162:Drivers/STM32F1xx_HAL_Driver/Inc/stm32f1xx_ll_utils.h **** 
 163:Drivers/STM32F1xx_HAL_Driver/Inc/stm32f1xx_ll_utils.h **** /**
 164:Drivers/STM32F1xx_HAL_Driver/Inc/stm32f1xx_ll_utils.h ****   * @brief  Get Word0 of the unique device identifier (UID based on 96 bits)
 165:Drivers/STM32F1xx_HAL_Driver/Inc/stm32f1xx_ll_utils.h ****   * @retval UID[31:0]
 166:Drivers/STM32F1xx_HAL_Driver/Inc/stm32f1xx_ll_utils.h ****   */
 167:Drivers/STM32F1xx_HAL_Driver/Inc/stm32f1xx_ll_utils.h **** __STATIC_INLINE uint32_t LL_GetUID_Word0(void)
 168:Drivers/STM32F1xx_HAL_Driver/Inc/stm32f1xx_ll_utils.h **** {
 169:Drivers/STM32F1xx_HAL_Driver/Inc/stm32f1xx_ll_utils.h ****   return (uint32_t)(READ_REG(*((uint32_t *)UID_BASE_ADDRESS)));
 170:Drivers/STM32F1xx_HAL_Driver/Inc/stm32f1xx_ll_utils.h **** }
 171:Drivers/STM32F1xx_HAL_Driver/Inc/stm32f1xx_ll_utils.h **** 
 172:Drivers/STM32F1xx_HAL_Driver/Inc/stm32f1xx_ll_utils.h **** /**
 173:Drivers/STM32F1xx_HAL_Driver/Inc/stm32f1xx_ll_utils.h ****   * @brief  Get Word1 of the unique device identifier (UID based on 96 bits)
 174:Drivers/STM32F1xx_HAL_Driver/Inc/stm32f1xx_ll_utils.h ****   * @retval UID[63:32]
 175:Drivers/STM32F1xx_HAL_Driver/Inc/stm32f1xx_ll_utils.h ****   */
 176:Drivers/STM32F1xx_HAL_Driver/Inc/stm32f1xx_ll_utils.h **** __STATIC_INLINE uint32_t LL_GetUID_Word1(void)
 177:Drivers/STM32F1xx_HAL_Driver/Inc/stm32f1xx_ll_utils.h **** {
 178:Drivers/STM32F1xx_HAL_Driver/Inc/stm32f1xx_ll_utils.h ****   return (uint32_t)(READ_REG(*((uint32_t *)(UID_BASE_ADDRESS + 4U))));
 179:Drivers/STM32F1xx_HAL_Driver/Inc/stm32f1xx_ll_utils.h **** }
 180:Drivers/STM32F1xx_HAL_Driver/Inc/stm32f1xx_ll_utils.h **** 
 181:Drivers/STM32F1xx_HAL_Driver/Inc/stm32f1xx_ll_utils.h **** /**
 182:Drivers/STM32F1xx_HAL_Driver/Inc/stm32f1xx_ll_utils.h ****   * @brief  Get Word2 of the unique device identifier (UID based on 96 bits)
 183:Drivers/STM32F1xx_HAL_Driver/Inc/stm32f1xx_ll_utils.h ****   * @retval UID[95:64]
 184:Drivers/STM32F1xx_HAL_Driver/Inc/stm32f1xx_ll_utils.h ****   */
 185:Drivers/STM32F1xx_HAL_Driver/Inc/stm32f1xx_ll_utils.h **** __STATIC_INLINE uint32_t LL_GetUID_Word2(void)
 186:Drivers/STM32F1xx_HAL_Driver/Inc/stm32f1xx_ll_utils.h **** {
 187:Drivers/STM32F1xx_HAL_Driver/Inc/stm32f1xx_ll_utils.h ****   return (uint32_t)(READ_REG(*((uint32_t *)(UID_BASE_ADDRESS + 8U))));
 188:Drivers/STM32F1xx_HAL_Driver/Inc/stm32f1xx_ll_utils.h **** }
 189:Drivers/STM32F1xx_HAL_Driver/Inc/stm32f1xx_ll_utils.h **** 
 190:Drivers/STM32F1xx_HAL_Driver/Inc/stm32f1xx_ll_utils.h **** /**
 191:Drivers/STM32F1xx_HAL_Driver/Inc/stm32f1xx_ll_utils.h ****   * @brief  Get Flash memory size
 192:Drivers/STM32F1xx_HAL_Driver/Inc/stm32f1xx_ll_utils.h ****   * @note   This bitfield indicates the size of the device Flash memory expressed in
 193:Drivers/STM32F1xx_HAL_Driver/Inc/stm32f1xx_ll_utils.h ****   *         Kbytes. As an example, 0x040 corresponds to 64 Kbytes.
 194:Drivers/STM32F1xx_HAL_Driver/Inc/stm32f1xx_ll_utils.h ****   * @retval FLASH_SIZE[15:0]: Flash memory size
 195:Drivers/STM32F1xx_HAL_Driver/Inc/stm32f1xx_ll_utils.h ****   */
ARM GAS  /var/folders/m1/3lv6xmzs0mlckxs4mx90nfb40000gn/T//ccNWxiXD.s 			page 8


 196:Drivers/STM32F1xx_HAL_Driver/Inc/stm32f1xx_ll_utils.h **** __STATIC_INLINE uint32_t LL_GetFlashSize(void)
 197:Drivers/STM32F1xx_HAL_Driver/Inc/stm32f1xx_ll_utils.h **** {
 198:Drivers/STM32F1xx_HAL_Driver/Inc/stm32f1xx_ll_utils.h ****   return (uint16_t)(READ_REG(*((uint32_t *)FLASHSIZE_BASE_ADDRESS)));
 199:Drivers/STM32F1xx_HAL_Driver/Inc/stm32f1xx_ll_utils.h **** }
 200:Drivers/STM32F1xx_HAL_Driver/Inc/stm32f1xx_ll_utils.h **** 
 201:Drivers/STM32F1xx_HAL_Driver/Inc/stm32f1xx_ll_utils.h **** 
 202:Drivers/STM32F1xx_HAL_Driver/Inc/stm32f1xx_ll_utils.h **** /**
 203:Drivers/STM32F1xx_HAL_Driver/Inc/stm32f1xx_ll_utils.h ****   * @}
 204:Drivers/STM32F1xx_HAL_Driver/Inc/stm32f1xx_ll_utils.h ****   */
 205:Drivers/STM32F1xx_HAL_Driver/Inc/stm32f1xx_ll_utils.h **** 
 206:Drivers/STM32F1xx_HAL_Driver/Inc/stm32f1xx_ll_utils.h **** /** @defgroup UTILS_LL_EF_DELAY DELAY
 207:Drivers/STM32F1xx_HAL_Driver/Inc/stm32f1xx_ll_utils.h ****   * @{
 208:Drivers/STM32F1xx_HAL_Driver/Inc/stm32f1xx_ll_utils.h ****   */
 209:Drivers/STM32F1xx_HAL_Driver/Inc/stm32f1xx_ll_utils.h **** 
 210:Drivers/STM32F1xx_HAL_Driver/Inc/stm32f1xx_ll_utils.h **** /**
 211:Drivers/STM32F1xx_HAL_Driver/Inc/stm32f1xx_ll_utils.h ****   * @brief  This function configures the Cortex-M SysTick source of the time base.
 212:Drivers/STM32F1xx_HAL_Driver/Inc/stm32f1xx_ll_utils.h ****   * @param  HCLKFrequency HCLK frequency in Hz (can be calculated thanks to RCC helper macro)
 213:Drivers/STM32F1xx_HAL_Driver/Inc/stm32f1xx_ll_utils.h ****   * @note   When a RTOS is used, it is recommended to avoid changing the SysTick
 214:Drivers/STM32F1xx_HAL_Driver/Inc/stm32f1xx_ll_utils.h ****   *         configuration by calling this function, for a delay use rather osDelay RTOS service.
 215:Drivers/STM32F1xx_HAL_Driver/Inc/stm32f1xx_ll_utils.h ****   * @param  Ticks Number of ticks
 216:Drivers/STM32F1xx_HAL_Driver/Inc/stm32f1xx_ll_utils.h ****   * @retval None
 217:Drivers/STM32F1xx_HAL_Driver/Inc/stm32f1xx_ll_utils.h ****   */
 218:Drivers/STM32F1xx_HAL_Driver/Inc/stm32f1xx_ll_utils.h **** __STATIC_INLINE void LL_InitTick(uint32_t HCLKFrequency, uint32_t Ticks)
 219:Drivers/STM32F1xx_HAL_Driver/Inc/stm32f1xx_ll_utils.h **** {
 220:Drivers/STM32F1xx_HAL_Driver/Inc/stm32f1xx_ll_utils.h ****   /* Configure the SysTick to have interrupt in 1ms time base */
 221:Drivers/STM32F1xx_HAL_Driver/Inc/stm32f1xx_ll_utils.h ****   SysTick->LOAD  = (uint32_t)((HCLKFrequency / Ticks) - 1UL);  /* set reload register */
 222:Drivers/STM32F1xx_HAL_Driver/Inc/stm32f1xx_ll_utils.h ****   SysTick->VAL   = 0UL;                                       /* Load the SysTick Counter Value */
  36              		.loc 2 222 0
  37 0000 0021     		movs	r1, #0
 223:Drivers/STM32F1xx_HAL_Driver/Inc/stm32f1xx_ll_utils.h ****   SysTick->CTRL  = SysTick_CTRL_CLKSOURCE_Msk |
  38              		.loc 2 223 0
  39 0002 0522     		movs	r2, #5
  40              	.LBE69:
  41              	.LBE68:
  42              		.loc 1 170 0
  43 0004 10B4     		push	{r4}
  44              	.LCFI0:
  45              		.cfi_def_cfa_offset 4
  46              		.cfi_offset 4, -4
  47              	.LBB72:
  48              	.LBB70:
 221:Drivers/STM32F1xx_HAL_Driver/Inc/stm32f1xx_ll_utils.h ****   SysTick->VAL   = 0UL;                                       /* Load the SysTick Counter Value */
  49              		.loc 2 221 0
  50 0006 054C     		ldr	r4, .L4
  51 0008 054B     		ldr	r3, .L4+4
  52 000a A4FB0040 		umull	r4, r0, r4, r0
  53              	.LVL1:
  54 000e 8009     		lsrs	r0, r0, #6
  55 0010 0138     		subs	r0, r0, #1
  56 0012 5860     		str	r0, [r3, #4]
  57              	.LBE70:
  58              	.LBE72:
 171:Drivers/STM32F1xx_HAL_Driver/Src/stm32f1xx_ll_utils.c ****   /* Use frequency provided in argument */
 172:Drivers/STM32F1xx_HAL_Driver/Src/stm32f1xx_ll_utils.c ****   LL_InitTick(HCLKFrequency, 1000U);
 173:Drivers/STM32F1xx_HAL_Driver/Src/stm32f1xx_ll_utils.c **** }
  59              		.loc 1 173 0
  60 0014 10BC     		pop	{r4}
ARM GAS  /var/folders/m1/3lv6xmzs0mlckxs4mx90nfb40000gn/T//ccNWxiXD.s 			page 9


  61              	.LCFI1:
  62              		.cfi_restore 4
  63              		.cfi_def_cfa_offset 0
  64              	.LBB73:
  65              	.LBB71:
 222:Drivers/STM32F1xx_HAL_Driver/Inc/stm32f1xx_ll_utils.h ****   SysTick->CTRL  = SysTick_CTRL_CLKSOURCE_Msk |
  66              		.loc 2 222 0
  67 0016 9960     		str	r1, [r3, #8]
  68              		.loc 2 223 0
  69 0018 1A60     		str	r2, [r3]
  70              	.LVL2:
  71              	.LBE71:
  72              	.LBE73:
  73              		.loc 1 173 0
  74 001a 7047     		bx	lr
  75              	.L5:
  76              		.align	2
  77              	.L4:
  78 001c D34D6210 		.word	274877907
  79 0020 10E000E0 		.word	-536813552
  80              		.cfi_endproc
  81              	.LFE174:
  83              		.section	.text.LL_mDelay,"ax",%progbits
  84              		.align	1
  85              		.p2align 2,,3
  86              		.global	LL_mDelay
  87              		.syntax unified
  88              		.thumb
  89              		.thumb_func
  90              		.fpu softvfp
  92              	LL_mDelay:
  93              	.LFB175:
 174:Drivers/STM32F1xx_HAL_Driver/Src/stm32f1xx_ll_utils.c **** 
 175:Drivers/STM32F1xx_HAL_Driver/Src/stm32f1xx_ll_utils.c **** /**
 176:Drivers/STM32F1xx_HAL_Driver/Src/stm32f1xx_ll_utils.c ****   * @brief  This function provides accurate delay (in milliseconds) based
 177:Drivers/STM32F1xx_HAL_Driver/Src/stm32f1xx_ll_utils.c ****   *         on SysTick counter flag
 178:Drivers/STM32F1xx_HAL_Driver/Src/stm32f1xx_ll_utils.c ****   * @note   When a RTOS is used, it is recommended to avoid using blocking delay
 179:Drivers/STM32F1xx_HAL_Driver/Src/stm32f1xx_ll_utils.c ****   *         and use rather osDelay service.
 180:Drivers/STM32F1xx_HAL_Driver/Src/stm32f1xx_ll_utils.c ****   * @note   To respect 1ms timebase, user should call @ref LL_Init1msTick function which
 181:Drivers/STM32F1xx_HAL_Driver/Src/stm32f1xx_ll_utils.c ****   *         will configure Systick to 1ms
 182:Drivers/STM32F1xx_HAL_Driver/Src/stm32f1xx_ll_utils.c ****   * @param  Delay specifies the delay time length, in milliseconds.
 183:Drivers/STM32F1xx_HAL_Driver/Src/stm32f1xx_ll_utils.c ****   * @retval None
 184:Drivers/STM32F1xx_HAL_Driver/Src/stm32f1xx_ll_utils.c ****   */
 185:Drivers/STM32F1xx_HAL_Driver/Src/stm32f1xx_ll_utils.c **** void LL_mDelay(uint32_t Delay)
 186:Drivers/STM32F1xx_HAL_Driver/Src/stm32f1xx_ll_utils.c **** {
  94              		.loc 1 186 0
  95              		.cfi_startproc
  96              		@ args = 0, pretend = 0, frame = 8
  97              		@ frame_needed = 0, uses_anonymous_args = 0
  98              		@ link register save eliminated.
  99              	.LVL3:
 187:Drivers/STM32F1xx_HAL_Driver/Src/stm32f1xx_ll_utils.c ****   __IO uint32_t  tmp = SysTick->CTRL;  /* Clear the COUNTFLAG first */
 100              		.loc 1 187 0
 101 0000 074B     		ldr	r3, .L19
 186:Drivers/STM32F1xx_HAL_Driver/Src/stm32f1xx_ll_utils.c ****   __IO uint32_t  tmp = SysTick->CTRL;  /* Clear the COUNTFLAG first */
 102              		.loc 1 186 0
 103 0002 82B0     		sub	sp, sp, #8
ARM GAS  /var/folders/m1/3lv6xmzs0mlckxs4mx90nfb40000gn/T//ccNWxiXD.s 			page 10


 104              	.LCFI2:
 105              		.cfi_def_cfa_offset 8
 106              		.loc 1 187 0
 107 0004 1B68     		ldr	r3, [r3]
 188:Drivers/STM32F1xx_HAL_Driver/Src/stm32f1xx_ll_utils.c ****   /* Add this code to indicate that local variable is not used */
 189:Drivers/STM32F1xx_HAL_Driver/Src/stm32f1xx_ll_utils.c ****   ((void)tmp);
 190:Drivers/STM32F1xx_HAL_Driver/Src/stm32f1xx_ll_utils.c **** 
 191:Drivers/STM32F1xx_HAL_Driver/Src/stm32f1xx_ll_utils.c ****   /* Add a period to guaranty minimum wait */
 192:Drivers/STM32F1xx_HAL_Driver/Src/stm32f1xx_ll_utils.c ****   if (Delay < LL_MAX_DELAY)
 108              		.loc 1 192 0
 109 0006 421C     		adds	r2, r0, #1
 187:Drivers/STM32F1xx_HAL_Driver/Src/stm32f1xx_ll_utils.c ****   /* Add this code to indicate that local variable is not used */
 110              		.loc 1 187 0
 111 0008 0193     		str	r3, [sp, #4]
 189:Drivers/STM32F1xx_HAL_Driver/Src/stm32f1xx_ll_utils.c **** 
 112              		.loc 1 189 0
 113 000a 019B     		ldr	r3, [sp, #4]
 193:Drivers/STM32F1xx_HAL_Driver/Src/stm32f1xx_ll_utils.c ****   {
 194:Drivers/STM32F1xx_HAL_Driver/Src/stm32f1xx_ll_utils.c ****     Delay++;
 195:Drivers/STM32F1xx_HAL_Driver/Src/stm32f1xx_ll_utils.c ****   }
 196:Drivers/STM32F1xx_HAL_Driver/Src/stm32f1xx_ll_utils.c **** 
 197:Drivers/STM32F1xx_HAL_Driver/Src/stm32f1xx_ll_utils.c ****   while (Delay)
 198:Drivers/STM32F1xx_HAL_Driver/Src/stm32f1xx_ll_utils.c ****   {
 199:Drivers/STM32F1xx_HAL_Driver/Src/stm32f1xx_ll_utils.c ****     if ((SysTick->CTRL & SysTick_CTRL_COUNTFLAG_Msk) != 0U)
 114              		.loc 1 199 0
 115 000c 044A     		ldr	r2, .L19
 194:Drivers/STM32F1xx_HAL_Driver/Src/stm32f1xx_ll_utils.c ****   }
 116              		.loc 1 194 0
 117 000e 18BF     		it	ne
 118 0010 0130     		addne	r0, r0, #1
 119              	.LVL4:
 120              	.L9:
 121              		.loc 1 199 0
 122 0012 1368     		ldr	r3, [r2]
 123 0014 DB03     		lsls	r3, r3, #15
 124 0016 FCD5     		bpl	.L9
 125              	.LVL5:
 197:Drivers/STM32F1xx_HAL_Driver/Src/stm32f1xx_ll_utils.c ****   {
 126              		.loc 1 197 0
 127 0018 0138     		subs	r0, r0, #1
 128              	.LVL6:
 129 001a FAD1     		bne	.L9
 200:Drivers/STM32F1xx_HAL_Driver/Src/stm32f1xx_ll_utils.c ****     {
 201:Drivers/STM32F1xx_HAL_Driver/Src/stm32f1xx_ll_utils.c ****       Delay--;
 202:Drivers/STM32F1xx_HAL_Driver/Src/stm32f1xx_ll_utils.c ****     }
 203:Drivers/STM32F1xx_HAL_Driver/Src/stm32f1xx_ll_utils.c ****   }
 204:Drivers/STM32F1xx_HAL_Driver/Src/stm32f1xx_ll_utils.c **** }
 130              		.loc 1 204 0
 131 001c 02B0     		add	sp, sp, #8
 132              	.LCFI3:
 133              		.cfi_def_cfa_offset 0
 134              		@ sp needed
 135 001e 7047     		bx	lr
 136              	.L20:
 137              		.align	2
 138              	.L19:
 139 0020 10E000E0 		.word	-536813552
ARM GAS  /var/folders/m1/3lv6xmzs0mlckxs4mx90nfb40000gn/T//ccNWxiXD.s 			page 11


 140              		.cfi_endproc
 141              	.LFE175:
 143              		.section	.text.LL_SetSystemCoreClock,"ax",%progbits
 144              		.align	1
 145              		.p2align 2,,3
 146              		.global	LL_SetSystemCoreClock
 147              		.syntax unified
 148              		.thumb
 149              		.thumb_func
 150              		.fpu softvfp
 152              	LL_SetSystemCoreClock:
 153              	.LFB176:
 205:Drivers/STM32F1xx_HAL_Driver/Src/stm32f1xx_ll_utils.c **** 
 206:Drivers/STM32F1xx_HAL_Driver/Src/stm32f1xx_ll_utils.c **** /**
 207:Drivers/STM32F1xx_HAL_Driver/Src/stm32f1xx_ll_utils.c ****   * @}
 208:Drivers/STM32F1xx_HAL_Driver/Src/stm32f1xx_ll_utils.c ****   */
 209:Drivers/STM32F1xx_HAL_Driver/Src/stm32f1xx_ll_utils.c **** 
 210:Drivers/STM32F1xx_HAL_Driver/Src/stm32f1xx_ll_utils.c **** /** @addtogroup UTILS_EF_SYSTEM
 211:Drivers/STM32F1xx_HAL_Driver/Src/stm32f1xx_ll_utils.c ****   *  @brief    System Configuration functions
 212:Drivers/STM32F1xx_HAL_Driver/Src/stm32f1xx_ll_utils.c ****   *
 213:Drivers/STM32F1xx_HAL_Driver/Src/stm32f1xx_ll_utils.c ****   @verbatim
 214:Drivers/STM32F1xx_HAL_Driver/Src/stm32f1xx_ll_utils.c ****  ===============================================================================
 215:Drivers/STM32F1xx_HAL_Driver/Src/stm32f1xx_ll_utils.c ****            ##### System Configuration functions #####
 216:Drivers/STM32F1xx_HAL_Driver/Src/stm32f1xx_ll_utils.c ****  ===============================================================================
 217:Drivers/STM32F1xx_HAL_Driver/Src/stm32f1xx_ll_utils.c ****     [..]
 218:Drivers/STM32F1xx_HAL_Driver/Src/stm32f1xx_ll_utils.c ****          System, AHB and APB buses clocks configuration
 219:Drivers/STM32F1xx_HAL_Driver/Src/stm32f1xx_ll_utils.c **** 
 220:Drivers/STM32F1xx_HAL_Driver/Src/stm32f1xx_ll_utils.c ****          (+) The maximum frequency of the SYSCLK, HCLK, PCLK1 and PCLK2 is RCC_MAX_FREQUENCY Hz.
 221:Drivers/STM32F1xx_HAL_Driver/Src/stm32f1xx_ll_utils.c ****   @endverbatim
 222:Drivers/STM32F1xx_HAL_Driver/Src/stm32f1xx_ll_utils.c ****   @internal
 223:Drivers/STM32F1xx_HAL_Driver/Src/stm32f1xx_ll_utils.c ****              Depending on the SYSCLK frequency, the flash latency should be adapted accordingly:
 224:Drivers/STM32F1xx_HAL_Driver/Src/stm32f1xx_ll_utils.c ****              (++) +-----------------------------------------------+
 225:Drivers/STM32F1xx_HAL_Driver/Src/stm32f1xx_ll_utils.c ****              (++) | Latency       | SYSCLK clock frequency (MHz)  |
 226:Drivers/STM32F1xx_HAL_Driver/Src/stm32f1xx_ll_utils.c ****              (++) |---------------|-------------------------------|
 227:Drivers/STM32F1xx_HAL_Driver/Src/stm32f1xx_ll_utils.c ****              (++) |0WS(1CPU cycle)|       0 < SYSCLK <= 24        |
 228:Drivers/STM32F1xx_HAL_Driver/Src/stm32f1xx_ll_utils.c ****              (++) |---------------|-------------------------------|
 229:Drivers/STM32F1xx_HAL_Driver/Src/stm32f1xx_ll_utils.c ****              (++) |1WS(2CPU cycle)|      24 < SYSCLK <= 48        |
 230:Drivers/STM32F1xx_HAL_Driver/Src/stm32f1xx_ll_utils.c ****              (++) |---------------|-------------------------------|
 231:Drivers/STM32F1xx_HAL_Driver/Src/stm32f1xx_ll_utils.c ****              (++) |2WS(3CPU cycle)|      48 < SYSCLK <= 72        |
 232:Drivers/STM32F1xx_HAL_Driver/Src/stm32f1xx_ll_utils.c ****              (++) +-----------------------------------------------+
 233:Drivers/STM32F1xx_HAL_Driver/Src/stm32f1xx_ll_utils.c ****   @endinternal
 234:Drivers/STM32F1xx_HAL_Driver/Src/stm32f1xx_ll_utils.c ****   * @{
 235:Drivers/STM32F1xx_HAL_Driver/Src/stm32f1xx_ll_utils.c ****   */
 236:Drivers/STM32F1xx_HAL_Driver/Src/stm32f1xx_ll_utils.c **** 
 237:Drivers/STM32F1xx_HAL_Driver/Src/stm32f1xx_ll_utils.c **** /**
 238:Drivers/STM32F1xx_HAL_Driver/Src/stm32f1xx_ll_utils.c ****   * @brief  This function sets directly SystemCoreClock CMSIS variable.
 239:Drivers/STM32F1xx_HAL_Driver/Src/stm32f1xx_ll_utils.c ****   * @note   Variable can be calculated also through SystemCoreClockUpdate function.
 240:Drivers/STM32F1xx_HAL_Driver/Src/stm32f1xx_ll_utils.c ****   * @param  HCLKFrequency HCLK frequency in Hz (can be calculated thanks to RCC helper macro)
 241:Drivers/STM32F1xx_HAL_Driver/Src/stm32f1xx_ll_utils.c ****   * @retval None
 242:Drivers/STM32F1xx_HAL_Driver/Src/stm32f1xx_ll_utils.c ****   */
 243:Drivers/STM32F1xx_HAL_Driver/Src/stm32f1xx_ll_utils.c **** void LL_SetSystemCoreClock(uint32_t HCLKFrequency)
 244:Drivers/STM32F1xx_HAL_Driver/Src/stm32f1xx_ll_utils.c **** {
 154              		.loc 1 244 0
 155              		.cfi_startproc
 156              		@ args = 0, pretend = 0, frame = 0
 157              		@ frame_needed = 0, uses_anonymous_args = 0
 158              		@ link register save eliminated.
ARM GAS  /var/folders/m1/3lv6xmzs0mlckxs4mx90nfb40000gn/T//ccNWxiXD.s 			page 12


 159              	.LVL7:
 245:Drivers/STM32F1xx_HAL_Driver/Src/stm32f1xx_ll_utils.c ****   /* HCLK clock frequency */
 246:Drivers/STM32F1xx_HAL_Driver/Src/stm32f1xx_ll_utils.c ****   SystemCoreClock = HCLKFrequency;
 160              		.loc 1 246 0
 161 0000 014B     		ldr	r3, .L22
 162 0002 1860     		str	r0, [r3]
 247:Drivers/STM32F1xx_HAL_Driver/Src/stm32f1xx_ll_utils.c **** }
 163              		.loc 1 247 0
 164 0004 7047     		bx	lr
 165              	.L23:
 166 0006 00BF     		.align	2
 167              	.L22:
 168 0008 00000000 		.word	SystemCoreClock
 169              		.cfi_endproc
 170              	.LFE176:
 172              		.section	.text.LL_PLL_ConfigSystemClock_HSI,"ax",%progbits
 173              		.align	1
 174              		.p2align 2,,3
 175              		.global	LL_PLL_ConfigSystemClock_HSI
 176              		.syntax unified
 177              		.thumb
 178              		.thumb_func
 179              		.fpu softvfp
 181              	LL_PLL_ConfigSystemClock_HSI:
 182              	.LFB177:
 248:Drivers/STM32F1xx_HAL_Driver/Src/stm32f1xx_ll_utils.c **** 
 249:Drivers/STM32F1xx_HAL_Driver/Src/stm32f1xx_ll_utils.c **** /**
 250:Drivers/STM32F1xx_HAL_Driver/Src/stm32f1xx_ll_utils.c ****   * @brief  This function configures system clock with HSI as clock source of the PLL
 251:Drivers/STM32F1xx_HAL_Driver/Src/stm32f1xx_ll_utils.c ****   * @note   The application need to ensure that PLL is disabled.
 252:Drivers/STM32F1xx_HAL_Driver/Src/stm32f1xx_ll_utils.c ****   * @note   Function is based on the following formula:
 253:Drivers/STM32F1xx_HAL_Driver/Src/stm32f1xx_ll_utils.c ****   *         - PLL output frequency = ((HSI frequency / PREDIV) * PLLMUL)
 254:Drivers/STM32F1xx_HAL_Driver/Src/stm32f1xx_ll_utils.c ****   *         - PREDIV: Set to 2 for few devices
 255:Drivers/STM32F1xx_HAL_Driver/Src/stm32f1xx_ll_utils.c ****   *         - PLLMUL: The application software must set correctly the PLL multiplication factor to
 256:Drivers/STM32F1xx_HAL_Driver/Src/stm32f1xx_ll_utils.c ****   *                   not exceed 72MHz
 257:Drivers/STM32F1xx_HAL_Driver/Src/stm32f1xx_ll_utils.c ****   * @note   FLASH latency can be modified through this function.
 258:Drivers/STM32F1xx_HAL_Driver/Src/stm32f1xx_ll_utils.c ****   * @param  UTILS_PLLInitStruct pointer to a @ref LL_UTILS_PLLInitTypeDef structure that contains
 259:Drivers/STM32F1xx_HAL_Driver/Src/stm32f1xx_ll_utils.c ****   *                             the configuration information for the PLL.
 260:Drivers/STM32F1xx_HAL_Driver/Src/stm32f1xx_ll_utils.c ****   * @param  UTILS_ClkInitStruct pointer to a @ref LL_UTILS_ClkInitTypeDef structure that contains
 261:Drivers/STM32F1xx_HAL_Driver/Src/stm32f1xx_ll_utils.c ****   *                             the configuration information for the BUS prescalers.
 262:Drivers/STM32F1xx_HAL_Driver/Src/stm32f1xx_ll_utils.c ****   * @retval An ErrorStatus enumeration value:
 263:Drivers/STM32F1xx_HAL_Driver/Src/stm32f1xx_ll_utils.c ****   *          - SUCCESS: Max frequency configuration done
 264:Drivers/STM32F1xx_HAL_Driver/Src/stm32f1xx_ll_utils.c ****   *          - ERROR: Max frequency configuration not done
 265:Drivers/STM32F1xx_HAL_Driver/Src/stm32f1xx_ll_utils.c ****   */
 266:Drivers/STM32F1xx_HAL_Driver/Src/stm32f1xx_ll_utils.c **** ErrorStatus LL_PLL_ConfigSystemClock_HSI(LL_UTILS_PLLInitTypeDef *UTILS_PLLInitStruct,
 267:Drivers/STM32F1xx_HAL_Driver/Src/stm32f1xx_ll_utils.c ****                                          LL_UTILS_ClkInitTypeDef *UTILS_ClkInitStruct)
 268:Drivers/STM32F1xx_HAL_Driver/Src/stm32f1xx_ll_utils.c **** {
 183              		.loc 1 268 0
 184              		.cfi_startproc
 185              		@ args = 0, pretend = 0, frame = 0
 186              		@ frame_needed = 0, uses_anonymous_args = 0
 187              		@ link register save eliminated.
 188              	.LVL8:
 189              	.LBB124:
 190              	.LBB125:
 191              	.LBB126:
 192              	.LBB127:
 193              		.file 3 "Drivers/STM32F1xx_HAL_Driver/Inc/stm32f1xx_ll_rcc.h"
ARM GAS  /var/folders/m1/3lv6xmzs0mlckxs4mx90nfb40000gn/T//ccNWxiXD.s 			page 13


   1:Drivers/STM32F1xx_HAL_Driver/Inc/stm32f1xx_ll_rcc.h **** /**
   2:Drivers/STM32F1xx_HAL_Driver/Inc/stm32f1xx_ll_rcc.h ****   ******************************************************************************
   3:Drivers/STM32F1xx_HAL_Driver/Inc/stm32f1xx_ll_rcc.h ****   * @file    stm32f1xx_ll_rcc.h
   4:Drivers/STM32F1xx_HAL_Driver/Inc/stm32f1xx_ll_rcc.h ****   * @author  MCD Application Team
   5:Drivers/STM32F1xx_HAL_Driver/Inc/stm32f1xx_ll_rcc.h ****   * @brief   Header file of RCC LL module.
   6:Drivers/STM32F1xx_HAL_Driver/Inc/stm32f1xx_ll_rcc.h ****   ******************************************************************************
   7:Drivers/STM32F1xx_HAL_Driver/Inc/stm32f1xx_ll_rcc.h ****   * @attention
   8:Drivers/STM32F1xx_HAL_Driver/Inc/stm32f1xx_ll_rcc.h ****   *
   9:Drivers/STM32F1xx_HAL_Driver/Inc/stm32f1xx_ll_rcc.h ****   * <h2><center>&copy; Copyright (c) 2016 STMicroelectronics.
  10:Drivers/STM32F1xx_HAL_Driver/Inc/stm32f1xx_ll_rcc.h ****   * All rights reserved.</center></h2>
  11:Drivers/STM32F1xx_HAL_Driver/Inc/stm32f1xx_ll_rcc.h ****   *
  12:Drivers/STM32F1xx_HAL_Driver/Inc/stm32f1xx_ll_rcc.h ****   * This software component is licensed by ST under BSD 3-Clause license,
  13:Drivers/STM32F1xx_HAL_Driver/Inc/stm32f1xx_ll_rcc.h ****   * the "License"; You may not use this file except in compliance with the
  14:Drivers/STM32F1xx_HAL_Driver/Inc/stm32f1xx_ll_rcc.h ****   * License. You may obtain a copy of the License at:
  15:Drivers/STM32F1xx_HAL_Driver/Inc/stm32f1xx_ll_rcc.h ****   *                        opensource.org/licenses/BSD-3-Clause
  16:Drivers/STM32F1xx_HAL_Driver/Inc/stm32f1xx_ll_rcc.h ****   *
  17:Drivers/STM32F1xx_HAL_Driver/Inc/stm32f1xx_ll_rcc.h ****   ******************************************************************************
  18:Drivers/STM32F1xx_HAL_Driver/Inc/stm32f1xx_ll_rcc.h ****   */
  19:Drivers/STM32F1xx_HAL_Driver/Inc/stm32f1xx_ll_rcc.h **** 
  20:Drivers/STM32F1xx_HAL_Driver/Inc/stm32f1xx_ll_rcc.h **** /* Define to prevent recursive inclusion -------------------------------------*/
  21:Drivers/STM32F1xx_HAL_Driver/Inc/stm32f1xx_ll_rcc.h **** #ifndef __STM32F1xx_LL_RCC_H
  22:Drivers/STM32F1xx_HAL_Driver/Inc/stm32f1xx_ll_rcc.h **** #define __STM32F1xx_LL_RCC_H
  23:Drivers/STM32F1xx_HAL_Driver/Inc/stm32f1xx_ll_rcc.h **** 
  24:Drivers/STM32F1xx_HAL_Driver/Inc/stm32f1xx_ll_rcc.h **** #ifdef __cplusplus
  25:Drivers/STM32F1xx_HAL_Driver/Inc/stm32f1xx_ll_rcc.h **** extern "C" {
  26:Drivers/STM32F1xx_HAL_Driver/Inc/stm32f1xx_ll_rcc.h **** #endif
  27:Drivers/STM32F1xx_HAL_Driver/Inc/stm32f1xx_ll_rcc.h **** 
  28:Drivers/STM32F1xx_HAL_Driver/Inc/stm32f1xx_ll_rcc.h **** /* Includes ------------------------------------------------------------------*/
  29:Drivers/STM32F1xx_HAL_Driver/Inc/stm32f1xx_ll_rcc.h **** #include "stm32f1xx.h"
  30:Drivers/STM32F1xx_HAL_Driver/Inc/stm32f1xx_ll_rcc.h **** 
  31:Drivers/STM32F1xx_HAL_Driver/Inc/stm32f1xx_ll_rcc.h **** /** @addtogroup STM32F1xx_LL_Driver
  32:Drivers/STM32F1xx_HAL_Driver/Inc/stm32f1xx_ll_rcc.h ****   * @{
  33:Drivers/STM32F1xx_HAL_Driver/Inc/stm32f1xx_ll_rcc.h ****   */
  34:Drivers/STM32F1xx_HAL_Driver/Inc/stm32f1xx_ll_rcc.h **** 
  35:Drivers/STM32F1xx_HAL_Driver/Inc/stm32f1xx_ll_rcc.h **** #if defined(RCC)
  36:Drivers/STM32F1xx_HAL_Driver/Inc/stm32f1xx_ll_rcc.h **** 
  37:Drivers/STM32F1xx_HAL_Driver/Inc/stm32f1xx_ll_rcc.h **** /** @defgroup RCC_LL RCC
  38:Drivers/STM32F1xx_HAL_Driver/Inc/stm32f1xx_ll_rcc.h ****   * @{
  39:Drivers/STM32F1xx_HAL_Driver/Inc/stm32f1xx_ll_rcc.h ****   */
  40:Drivers/STM32F1xx_HAL_Driver/Inc/stm32f1xx_ll_rcc.h **** 
  41:Drivers/STM32F1xx_HAL_Driver/Inc/stm32f1xx_ll_rcc.h **** /* Private types -------------------------------------------------------------*/
  42:Drivers/STM32F1xx_HAL_Driver/Inc/stm32f1xx_ll_rcc.h **** /* Private variables ---------------------------------------------------------*/
  43:Drivers/STM32F1xx_HAL_Driver/Inc/stm32f1xx_ll_rcc.h **** /* Private constants ---------------------------------------------------------*/
  44:Drivers/STM32F1xx_HAL_Driver/Inc/stm32f1xx_ll_rcc.h **** /* Private macros ------------------------------------------------------------*/
  45:Drivers/STM32F1xx_HAL_Driver/Inc/stm32f1xx_ll_rcc.h **** #if defined(USE_FULL_LL_DRIVER)
  46:Drivers/STM32F1xx_HAL_Driver/Inc/stm32f1xx_ll_rcc.h **** /** @defgroup RCC_LL_Private_Macros RCC Private Macros
  47:Drivers/STM32F1xx_HAL_Driver/Inc/stm32f1xx_ll_rcc.h ****   * @{
  48:Drivers/STM32F1xx_HAL_Driver/Inc/stm32f1xx_ll_rcc.h ****   */
  49:Drivers/STM32F1xx_HAL_Driver/Inc/stm32f1xx_ll_rcc.h **** /**
  50:Drivers/STM32F1xx_HAL_Driver/Inc/stm32f1xx_ll_rcc.h ****   * @}
  51:Drivers/STM32F1xx_HAL_Driver/Inc/stm32f1xx_ll_rcc.h ****   */
  52:Drivers/STM32F1xx_HAL_Driver/Inc/stm32f1xx_ll_rcc.h **** #endif /*USE_FULL_LL_DRIVER*/
  53:Drivers/STM32F1xx_HAL_Driver/Inc/stm32f1xx_ll_rcc.h **** /* Exported types ------------------------------------------------------------*/
  54:Drivers/STM32F1xx_HAL_Driver/Inc/stm32f1xx_ll_rcc.h **** #if defined(USE_FULL_LL_DRIVER)
  55:Drivers/STM32F1xx_HAL_Driver/Inc/stm32f1xx_ll_rcc.h **** /** @defgroup RCC_LL_Exported_Types RCC Exported Types
  56:Drivers/STM32F1xx_HAL_Driver/Inc/stm32f1xx_ll_rcc.h ****   * @{
  57:Drivers/STM32F1xx_HAL_Driver/Inc/stm32f1xx_ll_rcc.h ****   */
ARM GAS  /var/folders/m1/3lv6xmzs0mlckxs4mx90nfb40000gn/T//ccNWxiXD.s 			page 14


  58:Drivers/STM32F1xx_HAL_Driver/Inc/stm32f1xx_ll_rcc.h **** 
  59:Drivers/STM32F1xx_HAL_Driver/Inc/stm32f1xx_ll_rcc.h **** /** @defgroup LL_ES_CLOCK_FREQ Clocks Frequency Structure
  60:Drivers/STM32F1xx_HAL_Driver/Inc/stm32f1xx_ll_rcc.h ****   * @{
  61:Drivers/STM32F1xx_HAL_Driver/Inc/stm32f1xx_ll_rcc.h ****   */
  62:Drivers/STM32F1xx_HAL_Driver/Inc/stm32f1xx_ll_rcc.h **** 
  63:Drivers/STM32F1xx_HAL_Driver/Inc/stm32f1xx_ll_rcc.h **** /**
  64:Drivers/STM32F1xx_HAL_Driver/Inc/stm32f1xx_ll_rcc.h ****   * @brief  RCC Clocks Frequency Structure
  65:Drivers/STM32F1xx_HAL_Driver/Inc/stm32f1xx_ll_rcc.h ****   */
  66:Drivers/STM32F1xx_HAL_Driver/Inc/stm32f1xx_ll_rcc.h **** typedef struct
  67:Drivers/STM32F1xx_HAL_Driver/Inc/stm32f1xx_ll_rcc.h **** {
  68:Drivers/STM32F1xx_HAL_Driver/Inc/stm32f1xx_ll_rcc.h ****   uint32_t SYSCLK_Frequency;        /*!< SYSCLK clock frequency */
  69:Drivers/STM32F1xx_HAL_Driver/Inc/stm32f1xx_ll_rcc.h ****   uint32_t HCLK_Frequency;          /*!< HCLK clock frequency */
  70:Drivers/STM32F1xx_HAL_Driver/Inc/stm32f1xx_ll_rcc.h ****   uint32_t PCLK1_Frequency;         /*!< PCLK1 clock frequency */
  71:Drivers/STM32F1xx_HAL_Driver/Inc/stm32f1xx_ll_rcc.h ****   uint32_t PCLK2_Frequency;         /*!< PCLK2 clock frequency */
  72:Drivers/STM32F1xx_HAL_Driver/Inc/stm32f1xx_ll_rcc.h **** } LL_RCC_ClocksTypeDef;
  73:Drivers/STM32F1xx_HAL_Driver/Inc/stm32f1xx_ll_rcc.h **** 
  74:Drivers/STM32F1xx_HAL_Driver/Inc/stm32f1xx_ll_rcc.h **** /**
  75:Drivers/STM32F1xx_HAL_Driver/Inc/stm32f1xx_ll_rcc.h ****   * @}
  76:Drivers/STM32F1xx_HAL_Driver/Inc/stm32f1xx_ll_rcc.h ****   */
  77:Drivers/STM32F1xx_HAL_Driver/Inc/stm32f1xx_ll_rcc.h **** 
  78:Drivers/STM32F1xx_HAL_Driver/Inc/stm32f1xx_ll_rcc.h **** /**
  79:Drivers/STM32F1xx_HAL_Driver/Inc/stm32f1xx_ll_rcc.h ****   * @}
  80:Drivers/STM32F1xx_HAL_Driver/Inc/stm32f1xx_ll_rcc.h ****   */
  81:Drivers/STM32F1xx_HAL_Driver/Inc/stm32f1xx_ll_rcc.h **** #endif /* USE_FULL_LL_DRIVER */
  82:Drivers/STM32F1xx_HAL_Driver/Inc/stm32f1xx_ll_rcc.h **** 
  83:Drivers/STM32F1xx_HAL_Driver/Inc/stm32f1xx_ll_rcc.h **** /* Exported constants --------------------------------------------------------*/
  84:Drivers/STM32F1xx_HAL_Driver/Inc/stm32f1xx_ll_rcc.h **** /** @defgroup RCC_LL_Exported_Constants RCC Exported Constants
  85:Drivers/STM32F1xx_HAL_Driver/Inc/stm32f1xx_ll_rcc.h ****   * @{
  86:Drivers/STM32F1xx_HAL_Driver/Inc/stm32f1xx_ll_rcc.h ****   */
  87:Drivers/STM32F1xx_HAL_Driver/Inc/stm32f1xx_ll_rcc.h **** 
  88:Drivers/STM32F1xx_HAL_Driver/Inc/stm32f1xx_ll_rcc.h **** /** @defgroup RCC_LL_EC_OSC_VALUES Oscillator Values adaptation
  89:Drivers/STM32F1xx_HAL_Driver/Inc/stm32f1xx_ll_rcc.h ****   * @brief    Defines used to adapt values of different oscillators
  90:Drivers/STM32F1xx_HAL_Driver/Inc/stm32f1xx_ll_rcc.h ****   * @note     These values could be modified in the user environment according to
  91:Drivers/STM32F1xx_HAL_Driver/Inc/stm32f1xx_ll_rcc.h ****   *           HW set-up.
  92:Drivers/STM32F1xx_HAL_Driver/Inc/stm32f1xx_ll_rcc.h ****   * @{
  93:Drivers/STM32F1xx_HAL_Driver/Inc/stm32f1xx_ll_rcc.h ****   */
  94:Drivers/STM32F1xx_HAL_Driver/Inc/stm32f1xx_ll_rcc.h **** #if !defined  (HSE_VALUE)
  95:Drivers/STM32F1xx_HAL_Driver/Inc/stm32f1xx_ll_rcc.h **** #define HSE_VALUE    8000000U  /*!< Value of the HSE oscillator in Hz */
  96:Drivers/STM32F1xx_HAL_Driver/Inc/stm32f1xx_ll_rcc.h **** #endif /* HSE_VALUE */
  97:Drivers/STM32F1xx_HAL_Driver/Inc/stm32f1xx_ll_rcc.h **** 
  98:Drivers/STM32F1xx_HAL_Driver/Inc/stm32f1xx_ll_rcc.h **** #if !defined  (HSI_VALUE)
  99:Drivers/STM32F1xx_HAL_Driver/Inc/stm32f1xx_ll_rcc.h **** #define HSI_VALUE    8000000U  /*!< Value of the HSI oscillator in Hz */
 100:Drivers/STM32F1xx_HAL_Driver/Inc/stm32f1xx_ll_rcc.h **** #endif /* HSI_VALUE */
 101:Drivers/STM32F1xx_HAL_Driver/Inc/stm32f1xx_ll_rcc.h **** 
 102:Drivers/STM32F1xx_HAL_Driver/Inc/stm32f1xx_ll_rcc.h **** #if !defined  (LSE_VALUE)
 103:Drivers/STM32F1xx_HAL_Driver/Inc/stm32f1xx_ll_rcc.h **** #define LSE_VALUE    32768U    /*!< Value of the LSE oscillator in Hz */
 104:Drivers/STM32F1xx_HAL_Driver/Inc/stm32f1xx_ll_rcc.h **** #endif /* LSE_VALUE */
 105:Drivers/STM32F1xx_HAL_Driver/Inc/stm32f1xx_ll_rcc.h **** 
 106:Drivers/STM32F1xx_HAL_Driver/Inc/stm32f1xx_ll_rcc.h **** #if !defined  (LSI_VALUE)
 107:Drivers/STM32F1xx_HAL_Driver/Inc/stm32f1xx_ll_rcc.h **** #define LSI_VALUE    40000U    /*!< Value of the LSI oscillator in Hz */
 108:Drivers/STM32F1xx_HAL_Driver/Inc/stm32f1xx_ll_rcc.h **** #endif /* LSI_VALUE */
 109:Drivers/STM32F1xx_HAL_Driver/Inc/stm32f1xx_ll_rcc.h **** /**
 110:Drivers/STM32F1xx_HAL_Driver/Inc/stm32f1xx_ll_rcc.h ****   * @}
 111:Drivers/STM32F1xx_HAL_Driver/Inc/stm32f1xx_ll_rcc.h ****   */
 112:Drivers/STM32F1xx_HAL_Driver/Inc/stm32f1xx_ll_rcc.h **** 
 113:Drivers/STM32F1xx_HAL_Driver/Inc/stm32f1xx_ll_rcc.h **** /** @defgroup RCC_LL_EC_CLEAR_FLAG Clear Flags Defines
 114:Drivers/STM32F1xx_HAL_Driver/Inc/stm32f1xx_ll_rcc.h ****   * @brief    Flags defines which can be used with LL_RCC_WriteReg function
ARM GAS  /var/folders/m1/3lv6xmzs0mlckxs4mx90nfb40000gn/T//ccNWxiXD.s 			page 15


 115:Drivers/STM32F1xx_HAL_Driver/Inc/stm32f1xx_ll_rcc.h ****   * @{
 116:Drivers/STM32F1xx_HAL_Driver/Inc/stm32f1xx_ll_rcc.h ****   */
 117:Drivers/STM32F1xx_HAL_Driver/Inc/stm32f1xx_ll_rcc.h **** #define LL_RCC_CIR_LSIRDYC                RCC_CIR_LSIRDYC     /*!< LSI Ready Interrupt Clear */
 118:Drivers/STM32F1xx_HAL_Driver/Inc/stm32f1xx_ll_rcc.h **** #define LL_RCC_CIR_LSERDYC                RCC_CIR_LSERDYC     /*!< LSE Ready Interrupt Clear */
 119:Drivers/STM32F1xx_HAL_Driver/Inc/stm32f1xx_ll_rcc.h **** #define LL_RCC_CIR_HSIRDYC                RCC_CIR_HSIRDYC     /*!< HSI Ready Interrupt Clear */
 120:Drivers/STM32F1xx_HAL_Driver/Inc/stm32f1xx_ll_rcc.h **** #define LL_RCC_CIR_HSERDYC                RCC_CIR_HSERDYC     /*!< HSE Ready Interrupt Clear */
 121:Drivers/STM32F1xx_HAL_Driver/Inc/stm32f1xx_ll_rcc.h **** #define LL_RCC_CIR_PLLRDYC                RCC_CIR_PLLRDYC     /*!< PLL Ready Interrupt Clear */
 122:Drivers/STM32F1xx_HAL_Driver/Inc/stm32f1xx_ll_rcc.h **** #define LL_RCC_CIR_PLL3RDYC               RCC_CIR_PLL3RDYC    /*!< PLL3(PLLI2S) Ready Interrupt Cle
 123:Drivers/STM32F1xx_HAL_Driver/Inc/stm32f1xx_ll_rcc.h **** #define LL_RCC_CIR_PLL2RDYC               RCC_CIR_PLL2RDYC    /*!< PLL2 Ready Interrupt Clear */
 124:Drivers/STM32F1xx_HAL_Driver/Inc/stm32f1xx_ll_rcc.h **** #define LL_RCC_CIR_CSSC                   RCC_CIR_CSSC        /*!< Clock Security System Interrupt 
 125:Drivers/STM32F1xx_HAL_Driver/Inc/stm32f1xx_ll_rcc.h **** /**
 126:Drivers/STM32F1xx_HAL_Driver/Inc/stm32f1xx_ll_rcc.h ****   * @}
 127:Drivers/STM32F1xx_HAL_Driver/Inc/stm32f1xx_ll_rcc.h ****   */
 128:Drivers/STM32F1xx_HAL_Driver/Inc/stm32f1xx_ll_rcc.h **** 
 129:Drivers/STM32F1xx_HAL_Driver/Inc/stm32f1xx_ll_rcc.h **** /** @defgroup RCC_LL_EC_GET_FLAG Get Flags Defines
 130:Drivers/STM32F1xx_HAL_Driver/Inc/stm32f1xx_ll_rcc.h ****   * @brief    Flags defines which can be used with LL_RCC_ReadReg function
 131:Drivers/STM32F1xx_HAL_Driver/Inc/stm32f1xx_ll_rcc.h ****   * @{
 132:Drivers/STM32F1xx_HAL_Driver/Inc/stm32f1xx_ll_rcc.h ****   */
 133:Drivers/STM32F1xx_HAL_Driver/Inc/stm32f1xx_ll_rcc.h **** #define LL_RCC_CIR_LSIRDYF                RCC_CIR_LSIRDYF     /*!< LSI Ready Interrupt flag */
 134:Drivers/STM32F1xx_HAL_Driver/Inc/stm32f1xx_ll_rcc.h **** #define LL_RCC_CIR_LSERDYF                RCC_CIR_LSERDYF     /*!< LSE Ready Interrupt flag */
 135:Drivers/STM32F1xx_HAL_Driver/Inc/stm32f1xx_ll_rcc.h **** #define LL_RCC_CIR_HSIRDYF                RCC_CIR_HSIRDYF     /*!< HSI Ready Interrupt flag */
 136:Drivers/STM32F1xx_HAL_Driver/Inc/stm32f1xx_ll_rcc.h **** #define LL_RCC_CIR_HSERDYF                RCC_CIR_HSERDYF     /*!< HSE Ready Interrupt flag */
 137:Drivers/STM32F1xx_HAL_Driver/Inc/stm32f1xx_ll_rcc.h **** #define LL_RCC_CIR_PLLRDYF                RCC_CIR_PLLRDYF     /*!< PLL Ready Interrupt flag */
 138:Drivers/STM32F1xx_HAL_Driver/Inc/stm32f1xx_ll_rcc.h **** #define LL_RCC_CIR_PLL3RDYF               RCC_CIR_PLL3RDYF    /*!< PLL3(PLLI2S) Ready Interrupt fla
 139:Drivers/STM32F1xx_HAL_Driver/Inc/stm32f1xx_ll_rcc.h **** #define LL_RCC_CIR_PLL2RDYF               RCC_CIR_PLL2RDYF    /*!< PLL2 Ready Interrupt flag */
 140:Drivers/STM32F1xx_HAL_Driver/Inc/stm32f1xx_ll_rcc.h **** #define LL_RCC_CIR_CSSF                   RCC_CIR_CSSF        /*!< Clock Security System Interrupt 
 141:Drivers/STM32F1xx_HAL_Driver/Inc/stm32f1xx_ll_rcc.h **** #define LL_RCC_CSR_PINRSTF                RCC_CSR_PINRSTF     /*!< PIN reset flag */
 142:Drivers/STM32F1xx_HAL_Driver/Inc/stm32f1xx_ll_rcc.h **** #define LL_RCC_CSR_PORRSTF                RCC_CSR_PORRSTF     /*!< POR/PDR reset flag */
 143:Drivers/STM32F1xx_HAL_Driver/Inc/stm32f1xx_ll_rcc.h **** #define LL_RCC_CSR_SFTRSTF                RCC_CSR_SFTRSTF     /*!< Software Reset flag */
 144:Drivers/STM32F1xx_HAL_Driver/Inc/stm32f1xx_ll_rcc.h **** #define LL_RCC_CSR_IWDGRSTF               RCC_CSR_IWDGRSTF    /*!< Independent Watchdog reset flag 
 145:Drivers/STM32F1xx_HAL_Driver/Inc/stm32f1xx_ll_rcc.h **** #define LL_RCC_CSR_WWDGRSTF               RCC_CSR_WWDGRSTF    /*!< Window watchdog reset flag */
 146:Drivers/STM32F1xx_HAL_Driver/Inc/stm32f1xx_ll_rcc.h **** #define LL_RCC_CSR_LPWRRSTF               RCC_CSR_LPWRRSTF    /*!< Low-Power reset flag */
 147:Drivers/STM32F1xx_HAL_Driver/Inc/stm32f1xx_ll_rcc.h **** /**
 148:Drivers/STM32F1xx_HAL_Driver/Inc/stm32f1xx_ll_rcc.h ****   * @}
 149:Drivers/STM32F1xx_HAL_Driver/Inc/stm32f1xx_ll_rcc.h ****   */
 150:Drivers/STM32F1xx_HAL_Driver/Inc/stm32f1xx_ll_rcc.h **** 
 151:Drivers/STM32F1xx_HAL_Driver/Inc/stm32f1xx_ll_rcc.h **** /** @defgroup RCC_LL_EC_IT IT Defines
 152:Drivers/STM32F1xx_HAL_Driver/Inc/stm32f1xx_ll_rcc.h ****   * @brief    IT defines which can be used with LL_RCC_ReadReg and  LL_RCC_WriteReg functions
 153:Drivers/STM32F1xx_HAL_Driver/Inc/stm32f1xx_ll_rcc.h ****   * @{
 154:Drivers/STM32F1xx_HAL_Driver/Inc/stm32f1xx_ll_rcc.h ****   */
 155:Drivers/STM32F1xx_HAL_Driver/Inc/stm32f1xx_ll_rcc.h **** #define LL_RCC_CIR_LSIRDYIE               RCC_CIR_LSIRDYIE      /*!< LSI Ready Interrupt Enable */
 156:Drivers/STM32F1xx_HAL_Driver/Inc/stm32f1xx_ll_rcc.h **** #define LL_RCC_CIR_LSERDYIE               RCC_CIR_LSERDYIE      /*!< LSE Ready Interrupt Enable */
 157:Drivers/STM32F1xx_HAL_Driver/Inc/stm32f1xx_ll_rcc.h **** #define LL_RCC_CIR_HSIRDYIE               RCC_CIR_HSIRDYIE      /*!< HSI Ready Interrupt Enable */
 158:Drivers/STM32F1xx_HAL_Driver/Inc/stm32f1xx_ll_rcc.h **** #define LL_RCC_CIR_HSERDYIE               RCC_CIR_HSERDYIE      /*!< HSE Ready Interrupt Enable */
 159:Drivers/STM32F1xx_HAL_Driver/Inc/stm32f1xx_ll_rcc.h **** #define LL_RCC_CIR_PLLRDYIE               RCC_CIR_PLLRDYIE      /*!< PLL Ready Interrupt Enable */
 160:Drivers/STM32F1xx_HAL_Driver/Inc/stm32f1xx_ll_rcc.h **** #define LL_RCC_CIR_PLL3RDYIE              RCC_CIR_PLL3RDYIE     /*!< PLL3(PLLI2S) Ready Interrupt E
 161:Drivers/STM32F1xx_HAL_Driver/Inc/stm32f1xx_ll_rcc.h **** #define LL_RCC_CIR_PLL2RDYIE              RCC_CIR_PLL2RDYIE     /*!< PLL2 Ready Interrupt Enable */
 162:Drivers/STM32F1xx_HAL_Driver/Inc/stm32f1xx_ll_rcc.h **** /**
 163:Drivers/STM32F1xx_HAL_Driver/Inc/stm32f1xx_ll_rcc.h ****   * @}
 164:Drivers/STM32F1xx_HAL_Driver/Inc/stm32f1xx_ll_rcc.h ****   */
 165:Drivers/STM32F1xx_HAL_Driver/Inc/stm32f1xx_ll_rcc.h **** 
 166:Drivers/STM32F1xx_HAL_Driver/Inc/stm32f1xx_ll_rcc.h **** #if defined(RCC_CFGR2_PREDIV2)
 167:Drivers/STM32F1xx_HAL_Driver/Inc/stm32f1xx_ll_rcc.h **** /** @defgroup RCC_LL_EC_HSE_PREDIV2_DIV HSE PREDIV2 Division factor
 168:Drivers/STM32F1xx_HAL_Driver/Inc/stm32f1xx_ll_rcc.h ****   * @{
 169:Drivers/STM32F1xx_HAL_Driver/Inc/stm32f1xx_ll_rcc.h ****   */
 170:Drivers/STM32F1xx_HAL_Driver/Inc/stm32f1xx_ll_rcc.h **** #define LL_RCC_HSE_PREDIV2_DIV_1           RCC_CFGR2_PREDIV2_DIV1   /*!< PREDIV2 input clock not di
 171:Drivers/STM32F1xx_HAL_Driver/Inc/stm32f1xx_ll_rcc.h **** #define LL_RCC_HSE_PREDIV2_DIV_2           RCC_CFGR2_PREDIV2_DIV2   /*!< PREDIV2 input clock divide
ARM GAS  /var/folders/m1/3lv6xmzs0mlckxs4mx90nfb40000gn/T//ccNWxiXD.s 			page 16


 172:Drivers/STM32F1xx_HAL_Driver/Inc/stm32f1xx_ll_rcc.h **** #define LL_RCC_HSE_PREDIV2_DIV_3           RCC_CFGR2_PREDIV2_DIV3   /*!< PREDIV2 input clock divide
 173:Drivers/STM32F1xx_HAL_Driver/Inc/stm32f1xx_ll_rcc.h **** #define LL_RCC_HSE_PREDIV2_DIV_4           RCC_CFGR2_PREDIV2_DIV4   /*!< PREDIV2 input clock divide
 174:Drivers/STM32F1xx_HAL_Driver/Inc/stm32f1xx_ll_rcc.h **** #define LL_RCC_HSE_PREDIV2_DIV_5           RCC_CFGR2_PREDIV2_DIV5   /*!< PREDIV2 input clock divide
 175:Drivers/STM32F1xx_HAL_Driver/Inc/stm32f1xx_ll_rcc.h **** #define LL_RCC_HSE_PREDIV2_DIV_6           RCC_CFGR2_PREDIV2_DIV6   /*!< PREDIV2 input clock divide
 176:Drivers/STM32F1xx_HAL_Driver/Inc/stm32f1xx_ll_rcc.h **** #define LL_RCC_HSE_PREDIV2_DIV_7           RCC_CFGR2_PREDIV2_DIV7   /*!< PREDIV2 input clock divide
 177:Drivers/STM32F1xx_HAL_Driver/Inc/stm32f1xx_ll_rcc.h **** #define LL_RCC_HSE_PREDIV2_DIV_8           RCC_CFGR2_PREDIV2_DIV8   /*!< PREDIV2 input clock divide
 178:Drivers/STM32F1xx_HAL_Driver/Inc/stm32f1xx_ll_rcc.h **** #define LL_RCC_HSE_PREDIV2_DIV_9           RCC_CFGR2_PREDIV2_DIV9   /*!< PREDIV2 input clock divide
 179:Drivers/STM32F1xx_HAL_Driver/Inc/stm32f1xx_ll_rcc.h **** #define LL_RCC_HSE_PREDIV2_DIV_10          RCC_CFGR2_PREDIV2_DIV10  /*!< PREDIV2 input clock divide
 180:Drivers/STM32F1xx_HAL_Driver/Inc/stm32f1xx_ll_rcc.h **** #define LL_RCC_HSE_PREDIV2_DIV_11          RCC_CFGR2_PREDIV2_DIV11  /*!< PREDIV2 input clock divide
 181:Drivers/STM32F1xx_HAL_Driver/Inc/stm32f1xx_ll_rcc.h **** #define LL_RCC_HSE_PREDIV2_DIV_12          RCC_CFGR2_PREDIV2_DIV12  /*!< PREDIV2 input clock divide
 182:Drivers/STM32F1xx_HAL_Driver/Inc/stm32f1xx_ll_rcc.h **** #define LL_RCC_HSE_PREDIV2_DIV_13          RCC_CFGR2_PREDIV2_DIV13  /*!< PREDIV2 input clock divide
 183:Drivers/STM32F1xx_HAL_Driver/Inc/stm32f1xx_ll_rcc.h **** #define LL_RCC_HSE_PREDIV2_DIV_14          RCC_CFGR2_PREDIV2_DIV14  /*!< PREDIV2 input clock divide
 184:Drivers/STM32F1xx_HAL_Driver/Inc/stm32f1xx_ll_rcc.h **** #define LL_RCC_HSE_PREDIV2_DIV_15          RCC_CFGR2_PREDIV2_DIV15  /*!< PREDIV2 input clock divide
 185:Drivers/STM32F1xx_HAL_Driver/Inc/stm32f1xx_ll_rcc.h **** #define LL_RCC_HSE_PREDIV2_DIV_16          RCC_CFGR2_PREDIV2_DIV16  /*!< PREDIV2 input clock divide
 186:Drivers/STM32F1xx_HAL_Driver/Inc/stm32f1xx_ll_rcc.h **** /**
 187:Drivers/STM32F1xx_HAL_Driver/Inc/stm32f1xx_ll_rcc.h ****   * @}
 188:Drivers/STM32F1xx_HAL_Driver/Inc/stm32f1xx_ll_rcc.h ****   */
 189:Drivers/STM32F1xx_HAL_Driver/Inc/stm32f1xx_ll_rcc.h **** 
 190:Drivers/STM32F1xx_HAL_Driver/Inc/stm32f1xx_ll_rcc.h **** #endif /* RCC_CFGR2_PREDIV2 */
 191:Drivers/STM32F1xx_HAL_Driver/Inc/stm32f1xx_ll_rcc.h **** 
 192:Drivers/STM32F1xx_HAL_Driver/Inc/stm32f1xx_ll_rcc.h **** /** @defgroup RCC_LL_EC_SYS_CLKSOURCE  System clock switch
 193:Drivers/STM32F1xx_HAL_Driver/Inc/stm32f1xx_ll_rcc.h ****   * @{
 194:Drivers/STM32F1xx_HAL_Driver/Inc/stm32f1xx_ll_rcc.h ****   */
 195:Drivers/STM32F1xx_HAL_Driver/Inc/stm32f1xx_ll_rcc.h **** #define LL_RCC_SYS_CLKSOURCE_HSI           RCC_CFGR_SW_HSI    /*!< HSI selection as system clock */
 196:Drivers/STM32F1xx_HAL_Driver/Inc/stm32f1xx_ll_rcc.h **** #define LL_RCC_SYS_CLKSOURCE_HSE           RCC_CFGR_SW_HSE    /*!< HSE selection as system clock */
 197:Drivers/STM32F1xx_HAL_Driver/Inc/stm32f1xx_ll_rcc.h **** #define LL_RCC_SYS_CLKSOURCE_PLL           RCC_CFGR_SW_PLL    /*!< PLL selection as system clock */
 198:Drivers/STM32F1xx_HAL_Driver/Inc/stm32f1xx_ll_rcc.h **** /**
 199:Drivers/STM32F1xx_HAL_Driver/Inc/stm32f1xx_ll_rcc.h ****   * @}
 200:Drivers/STM32F1xx_HAL_Driver/Inc/stm32f1xx_ll_rcc.h ****   */
 201:Drivers/STM32F1xx_HAL_Driver/Inc/stm32f1xx_ll_rcc.h **** 
 202:Drivers/STM32F1xx_HAL_Driver/Inc/stm32f1xx_ll_rcc.h **** /** @defgroup RCC_LL_EC_SYS_CLKSOURCE_STATUS  System clock switch status
 203:Drivers/STM32F1xx_HAL_Driver/Inc/stm32f1xx_ll_rcc.h ****   * @{
 204:Drivers/STM32F1xx_HAL_Driver/Inc/stm32f1xx_ll_rcc.h ****   */
 205:Drivers/STM32F1xx_HAL_Driver/Inc/stm32f1xx_ll_rcc.h **** #define LL_RCC_SYS_CLKSOURCE_STATUS_HSI    RCC_CFGR_SWS_HSI   /*!< HSI used as system clock */
 206:Drivers/STM32F1xx_HAL_Driver/Inc/stm32f1xx_ll_rcc.h **** #define LL_RCC_SYS_CLKSOURCE_STATUS_HSE    RCC_CFGR_SWS_HSE   /*!< HSE used as system clock */
 207:Drivers/STM32F1xx_HAL_Driver/Inc/stm32f1xx_ll_rcc.h **** #define LL_RCC_SYS_CLKSOURCE_STATUS_PLL    RCC_CFGR_SWS_PLL   /*!< PLL used as system clock */
 208:Drivers/STM32F1xx_HAL_Driver/Inc/stm32f1xx_ll_rcc.h **** /**
 209:Drivers/STM32F1xx_HAL_Driver/Inc/stm32f1xx_ll_rcc.h ****   * @}
 210:Drivers/STM32F1xx_HAL_Driver/Inc/stm32f1xx_ll_rcc.h ****   */
 211:Drivers/STM32F1xx_HAL_Driver/Inc/stm32f1xx_ll_rcc.h **** 
 212:Drivers/STM32F1xx_HAL_Driver/Inc/stm32f1xx_ll_rcc.h **** /** @defgroup RCC_LL_EC_SYSCLK_DIV  AHB prescaler
 213:Drivers/STM32F1xx_HAL_Driver/Inc/stm32f1xx_ll_rcc.h ****   * @{
 214:Drivers/STM32F1xx_HAL_Driver/Inc/stm32f1xx_ll_rcc.h ****   */
 215:Drivers/STM32F1xx_HAL_Driver/Inc/stm32f1xx_ll_rcc.h **** #define LL_RCC_SYSCLK_DIV_1                RCC_CFGR_HPRE_DIV1   /*!< SYSCLK not divided */
 216:Drivers/STM32F1xx_HAL_Driver/Inc/stm32f1xx_ll_rcc.h **** #define LL_RCC_SYSCLK_DIV_2                RCC_CFGR_HPRE_DIV2   /*!< SYSCLK divided by 2 */
 217:Drivers/STM32F1xx_HAL_Driver/Inc/stm32f1xx_ll_rcc.h **** #define LL_RCC_SYSCLK_DIV_4                RCC_CFGR_HPRE_DIV4   /*!< SYSCLK divided by 4 */
 218:Drivers/STM32F1xx_HAL_Driver/Inc/stm32f1xx_ll_rcc.h **** #define LL_RCC_SYSCLK_DIV_8                RCC_CFGR_HPRE_DIV8   /*!< SYSCLK divided by 8 */
 219:Drivers/STM32F1xx_HAL_Driver/Inc/stm32f1xx_ll_rcc.h **** #define LL_RCC_SYSCLK_DIV_16               RCC_CFGR_HPRE_DIV16  /*!< SYSCLK divided by 16 */
 220:Drivers/STM32F1xx_HAL_Driver/Inc/stm32f1xx_ll_rcc.h **** #define LL_RCC_SYSCLK_DIV_64               RCC_CFGR_HPRE_DIV64  /*!< SYSCLK divided by 64 */
 221:Drivers/STM32F1xx_HAL_Driver/Inc/stm32f1xx_ll_rcc.h **** #define LL_RCC_SYSCLK_DIV_128              RCC_CFGR_HPRE_DIV128 /*!< SYSCLK divided by 128 */
 222:Drivers/STM32F1xx_HAL_Driver/Inc/stm32f1xx_ll_rcc.h **** #define LL_RCC_SYSCLK_DIV_256              RCC_CFGR_HPRE_DIV256 /*!< SYSCLK divided by 256 */
 223:Drivers/STM32F1xx_HAL_Driver/Inc/stm32f1xx_ll_rcc.h **** #define LL_RCC_SYSCLK_DIV_512              RCC_CFGR_HPRE_DIV512 /*!< SYSCLK divided by 512 */
 224:Drivers/STM32F1xx_HAL_Driver/Inc/stm32f1xx_ll_rcc.h **** /**
 225:Drivers/STM32F1xx_HAL_Driver/Inc/stm32f1xx_ll_rcc.h ****   * @}
 226:Drivers/STM32F1xx_HAL_Driver/Inc/stm32f1xx_ll_rcc.h ****   */
 227:Drivers/STM32F1xx_HAL_Driver/Inc/stm32f1xx_ll_rcc.h **** 
 228:Drivers/STM32F1xx_HAL_Driver/Inc/stm32f1xx_ll_rcc.h **** /** @defgroup RCC_LL_EC_APB1_DIV  APB low-speed prescaler (APB1)
ARM GAS  /var/folders/m1/3lv6xmzs0mlckxs4mx90nfb40000gn/T//ccNWxiXD.s 			page 17


 229:Drivers/STM32F1xx_HAL_Driver/Inc/stm32f1xx_ll_rcc.h ****   * @{
 230:Drivers/STM32F1xx_HAL_Driver/Inc/stm32f1xx_ll_rcc.h ****   */
 231:Drivers/STM32F1xx_HAL_Driver/Inc/stm32f1xx_ll_rcc.h **** #define LL_RCC_APB1_DIV_1                  RCC_CFGR_PPRE1_DIV1  /*!< HCLK not divided */
 232:Drivers/STM32F1xx_HAL_Driver/Inc/stm32f1xx_ll_rcc.h **** #define LL_RCC_APB1_DIV_2                  RCC_CFGR_PPRE1_DIV2  /*!< HCLK divided by 2 */
 233:Drivers/STM32F1xx_HAL_Driver/Inc/stm32f1xx_ll_rcc.h **** #define LL_RCC_APB1_DIV_4                  RCC_CFGR_PPRE1_DIV4  /*!< HCLK divided by 4 */
 234:Drivers/STM32F1xx_HAL_Driver/Inc/stm32f1xx_ll_rcc.h **** #define LL_RCC_APB1_DIV_8                  RCC_CFGR_PPRE1_DIV8  /*!< HCLK divided by 8 */
 235:Drivers/STM32F1xx_HAL_Driver/Inc/stm32f1xx_ll_rcc.h **** #define LL_RCC_APB1_DIV_16                 RCC_CFGR_PPRE1_DIV16 /*!< HCLK divided by 16 */
 236:Drivers/STM32F1xx_HAL_Driver/Inc/stm32f1xx_ll_rcc.h **** /**
 237:Drivers/STM32F1xx_HAL_Driver/Inc/stm32f1xx_ll_rcc.h ****   * @}
 238:Drivers/STM32F1xx_HAL_Driver/Inc/stm32f1xx_ll_rcc.h ****   */
 239:Drivers/STM32F1xx_HAL_Driver/Inc/stm32f1xx_ll_rcc.h **** 
 240:Drivers/STM32F1xx_HAL_Driver/Inc/stm32f1xx_ll_rcc.h **** /** @defgroup RCC_LL_EC_APB2_DIV  APB high-speed prescaler (APB2)
 241:Drivers/STM32F1xx_HAL_Driver/Inc/stm32f1xx_ll_rcc.h ****   * @{
 242:Drivers/STM32F1xx_HAL_Driver/Inc/stm32f1xx_ll_rcc.h ****   */
 243:Drivers/STM32F1xx_HAL_Driver/Inc/stm32f1xx_ll_rcc.h **** #define LL_RCC_APB2_DIV_1                  RCC_CFGR_PPRE2_DIV1  /*!< HCLK not divided */
 244:Drivers/STM32F1xx_HAL_Driver/Inc/stm32f1xx_ll_rcc.h **** #define LL_RCC_APB2_DIV_2                  RCC_CFGR_PPRE2_DIV2  /*!< HCLK divided by 2 */
 245:Drivers/STM32F1xx_HAL_Driver/Inc/stm32f1xx_ll_rcc.h **** #define LL_RCC_APB2_DIV_4                  RCC_CFGR_PPRE2_DIV4  /*!< HCLK divided by 4 */
 246:Drivers/STM32F1xx_HAL_Driver/Inc/stm32f1xx_ll_rcc.h **** #define LL_RCC_APB2_DIV_8                  RCC_CFGR_PPRE2_DIV8  /*!< HCLK divided by 8 */
 247:Drivers/STM32F1xx_HAL_Driver/Inc/stm32f1xx_ll_rcc.h **** #define LL_RCC_APB2_DIV_16                 RCC_CFGR_PPRE2_DIV16 /*!< HCLK divided by 16 */
 248:Drivers/STM32F1xx_HAL_Driver/Inc/stm32f1xx_ll_rcc.h **** /**
 249:Drivers/STM32F1xx_HAL_Driver/Inc/stm32f1xx_ll_rcc.h ****   * @}
 250:Drivers/STM32F1xx_HAL_Driver/Inc/stm32f1xx_ll_rcc.h ****   */
 251:Drivers/STM32F1xx_HAL_Driver/Inc/stm32f1xx_ll_rcc.h **** 
 252:Drivers/STM32F1xx_HAL_Driver/Inc/stm32f1xx_ll_rcc.h **** /** @defgroup RCC_LL_EC_MCO1SOURCE  MCO1 SOURCE selection
 253:Drivers/STM32F1xx_HAL_Driver/Inc/stm32f1xx_ll_rcc.h ****   * @{
 254:Drivers/STM32F1xx_HAL_Driver/Inc/stm32f1xx_ll_rcc.h ****   */
 255:Drivers/STM32F1xx_HAL_Driver/Inc/stm32f1xx_ll_rcc.h **** #define LL_RCC_MCO1SOURCE_NOCLOCK          RCC_CFGR_MCO_NOCLOCK      /*!< MCO output disabled, no c
 256:Drivers/STM32F1xx_HAL_Driver/Inc/stm32f1xx_ll_rcc.h **** #define LL_RCC_MCO1SOURCE_SYSCLK           RCC_CFGR_MCO_SYSCLK       /*!< SYSCLK selection as MCO s
 257:Drivers/STM32F1xx_HAL_Driver/Inc/stm32f1xx_ll_rcc.h **** #define LL_RCC_MCO1SOURCE_HSI              RCC_CFGR_MCO_HSI          /*!< HSI selection as MCO sour
 258:Drivers/STM32F1xx_HAL_Driver/Inc/stm32f1xx_ll_rcc.h **** #define LL_RCC_MCO1SOURCE_HSE              RCC_CFGR_MCO_HSE          /*!< HSE selection as MCO sour
 259:Drivers/STM32F1xx_HAL_Driver/Inc/stm32f1xx_ll_rcc.h **** #define LL_RCC_MCO1SOURCE_PLLCLK_DIV_2     RCC_CFGR_MCO_PLLCLK_DIV2  /*!< PLL clock divided by 2*/
 260:Drivers/STM32F1xx_HAL_Driver/Inc/stm32f1xx_ll_rcc.h **** #if defined(RCC_CFGR_MCO_PLL2CLK)
 261:Drivers/STM32F1xx_HAL_Driver/Inc/stm32f1xx_ll_rcc.h **** #define LL_RCC_MCO1SOURCE_PLL2CLK          RCC_CFGR_MCO_PLL2CLK      /*!< PLL2 clock selected as MC
 262:Drivers/STM32F1xx_HAL_Driver/Inc/stm32f1xx_ll_rcc.h **** #endif /* RCC_CFGR_MCO_PLL2CLK */
 263:Drivers/STM32F1xx_HAL_Driver/Inc/stm32f1xx_ll_rcc.h **** #if defined(RCC_CFGR_MCO_PLL3CLK_DIV2)
 264:Drivers/STM32F1xx_HAL_Driver/Inc/stm32f1xx_ll_rcc.h **** #define LL_RCC_MCO1SOURCE_PLLI2SCLK_DIV2   RCC_CFGR_MCO_PLL3CLK_DIV2 /*!< PLLI2S clock divided by 2
 265:Drivers/STM32F1xx_HAL_Driver/Inc/stm32f1xx_ll_rcc.h **** #endif /* RCC_CFGR_MCO_PLL3CLK_DIV2 */
 266:Drivers/STM32F1xx_HAL_Driver/Inc/stm32f1xx_ll_rcc.h **** #if defined(RCC_CFGR_MCO_EXT_HSE)
 267:Drivers/STM32F1xx_HAL_Driver/Inc/stm32f1xx_ll_rcc.h **** #define LL_RCC_MCO1SOURCE_EXT_HSE          RCC_CFGR_MCO_EXT_HSE      /*!< XT1 external 3-25 MHz osc
 268:Drivers/STM32F1xx_HAL_Driver/Inc/stm32f1xx_ll_rcc.h **** #endif /* RCC_CFGR_MCO_EXT_HSE */
 269:Drivers/STM32F1xx_HAL_Driver/Inc/stm32f1xx_ll_rcc.h **** #if defined(RCC_CFGR_MCO_PLL3CLK)
 270:Drivers/STM32F1xx_HAL_Driver/Inc/stm32f1xx_ll_rcc.h **** #define LL_RCC_MCO1SOURCE_PLLI2SCLK        RCC_CFGR_MCO_PLL3CLK      /*!< PLLI2S clock selected as 
 271:Drivers/STM32F1xx_HAL_Driver/Inc/stm32f1xx_ll_rcc.h **** #endif /* RCC_CFGR_MCO_PLL3CLK */
 272:Drivers/STM32F1xx_HAL_Driver/Inc/stm32f1xx_ll_rcc.h **** /**
 273:Drivers/STM32F1xx_HAL_Driver/Inc/stm32f1xx_ll_rcc.h ****   * @}
 274:Drivers/STM32F1xx_HAL_Driver/Inc/stm32f1xx_ll_rcc.h ****   */
 275:Drivers/STM32F1xx_HAL_Driver/Inc/stm32f1xx_ll_rcc.h **** 
 276:Drivers/STM32F1xx_HAL_Driver/Inc/stm32f1xx_ll_rcc.h **** #if defined(USE_FULL_LL_DRIVER)
 277:Drivers/STM32F1xx_HAL_Driver/Inc/stm32f1xx_ll_rcc.h **** /** @defgroup RCC_LL_EC_PERIPH_FREQUENCY Peripheral clock frequency
 278:Drivers/STM32F1xx_HAL_Driver/Inc/stm32f1xx_ll_rcc.h ****   * @{
 279:Drivers/STM32F1xx_HAL_Driver/Inc/stm32f1xx_ll_rcc.h ****   */
 280:Drivers/STM32F1xx_HAL_Driver/Inc/stm32f1xx_ll_rcc.h **** #define LL_RCC_PERIPH_FREQUENCY_NO         0x00000000U      /*!< No clock enabled for the periphera
 281:Drivers/STM32F1xx_HAL_Driver/Inc/stm32f1xx_ll_rcc.h **** #define LL_RCC_PERIPH_FREQUENCY_NA         0xFFFFFFFFU      /*!< Frequency cannot be provided as ex
 282:Drivers/STM32F1xx_HAL_Driver/Inc/stm32f1xx_ll_rcc.h **** /**
 283:Drivers/STM32F1xx_HAL_Driver/Inc/stm32f1xx_ll_rcc.h ****   * @}
 284:Drivers/STM32F1xx_HAL_Driver/Inc/stm32f1xx_ll_rcc.h ****   */
 285:Drivers/STM32F1xx_HAL_Driver/Inc/stm32f1xx_ll_rcc.h **** #endif /* USE_FULL_LL_DRIVER */
ARM GAS  /var/folders/m1/3lv6xmzs0mlckxs4mx90nfb40000gn/T//ccNWxiXD.s 			page 18


 286:Drivers/STM32F1xx_HAL_Driver/Inc/stm32f1xx_ll_rcc.h **** 
 287:Drivers/STM32F1xx_HAL_Driver/Inc/stm32f1xx_ll_rcc.h **** #if defined(RCC_CFGR2_I2S2SRC)
 288:Drivers/STM32F1xx_HAL_Driver/Inc/stm32f1xx_ll_rcc.h **** /** @defgroup RCC_LL_EC_I2S2CLKSOURCE Peripheral I2S clock source selection
 289:Drivers/STM32F1xx_HAL_Driver/Inc/stm32f1xx_ll_rcc.h ****   * @{
 290:Drivers/STM32F1xx_HAL_Driver/Inc/stm32f1xx_ll_rcc.h ****   */
 291:Drivers/STM32F1xx_HAL_Driver/Inc/stm32f1xx_ll_rcc.h **** #define LL_RCC_I2S2_CLKSOURCE_SYSCLK        RCC_CFGR2_I2S2SRC                                      
 292:Drivers/STM32F1xx_HAL_Driver/Inc/stm32f1xx_ll_rcc.h **** #define LL_RCC_I2S2_CLKSOURCE_PLLI2S_VCO    (uint32_t)(RCC_CFGR2_I2S2SRC | (RCC_CFGR2_I2S2SRC >> 16
 293:Drivers/STM32F1xx_HAL_Driver/Inc/stm32f1xx_ll_rcc.h **** #define LL_RCC_I2S3_CLKSOURCE_SYSCLK        RCC_CFGR2_I2S3SRC                                      
 294:Drivers/STM32F1xx_HAL_Driver/Inc/stm32f1xx_ll_rcc.h **** #define LL_RCC_I2S3_CLKSOURCE_PLLI2S_VCO    (uint32_t)(RCC_CFGR2_I2S3SRC | (RCC_CFGR2_I2S3SRC >> 16
 295:Drivers/STM32F1xx_HAL_Driver/Inc/stm32f1xx_ll_rcc.h **** /**
 296:Drivers/STM32F1xx_HAL_Driver/Inc/stm32f1xx_ll_rcc.h ****   * @}
 297:Drivers/STM32F1xx_HAL_Driver/Inc/stm32f1xx_ll_rcc.h ****   */
 298:Drivers/STM32F1xx_HAL_Driver/Inc/stm32f1xx_ll_rcc.h **** #endif /* RCC_CFGR2_I2S2SRC */
 299:Drivers/STM32F1xx_HAL_Driver/Inc/stm32f1xx_ll_rcc.h **** 
 300:Drivers/STM32F1xx_HAL_Driver/Inc/stm32f1xx_ll_rcc.h **** #if defined(USB_OTG_FS) || defined(USB)
 301:Drivers/STM32F1xx_HAL_Driver/Inc/stm32f1xx_ll_rcc.h **** /** @defgroup RCC_LL_EC_USB_CLKSOURCE Peripheral USB clock source selection
 302:Drivers/STM32F1xx_HAL_Driver/Inc/stm32f1xx_ll_rcc.h ****   * @{
 303:Drivers/STM32F1xx_HAL_Driver/Inc/stm32f1xx_ll_rcc.h ****   */
 304:Drivers/STM32F1xx_HAL_Driver/Inc/stm32f1xx_ll_rcc.h **** #if defined(RCC_CFGR_USBPRE)
 305:Drivers/STM32F1xx_HAL_Driver/Inc/stm32f1xx_ll_rcc.h **** #define LL_RCC_USB_CLKSOURCE_PLL             RCC_CFGR_USBPRE        /*!< PLL clock is not divided *
 306:Drivers/STM32F1xx_HAL_Driver/Inc/stm32f1xx_ll_rcc.h **** #define LL_RCC_USB_CLKSOURCE_PLL_DIV_1_5     0x00000000U            /*!< PLL clock is divided by 1.
 307:Drivers/STM32F1xx_HAL_Driver/Inc/stm32f1xx_ll_rcc.h **** #endif /*RCC_CFGR_USBPRE*/
 308:Drivers/STM32F1xx_HAL_Driver/Inc/stm32f1xx_ll_rcc.h **** #if defined(RCC_CFGR_OTGFSPRE)
 309:Drivers/STM32F1xx_HAL_Driver/Inc/stm32f1xx_ll_rcc.h **** #define LL_RCC_USB_CLKSOURCE_PLL_DIV_2       RCC_CFGR_OTGFSPRE      /*!< PLL clock is divided by 2 
 310:Drivers/STM32F1xx_HAL_Driver/Inc/stm32f1xx_ll_rcc.h **** #define LL_RCC_USB_CLKSOURCE_PLL_DIV_3       0x00000000U            /*!< PLL clock is divided by 3 
 311:Drivers/STM32F1xx_HAL_Driver/Inc/stm32f1xx_ll_rcc.h **** #endif /*RCC_CFGR_OTGFSPRE*/
 312:Drivers/STM32F1xx_HAL_Driver/Inc/stm32f1xx_ll_rcc.h **** /**
 313:Drivers/STM32F1xx_HAL_Driver/Inc/stm32f1xx_ll_rcc.h ****   * @}
 314:Drivers/STM32F1xx_HAL_Driver/Inc/stm32f1xx_ll_rcc.h ****   */
 315:Drivers/STM32F1xx_HAL_Driver/Inc/stm32f1xx_ll_rcc.h **** #endif /* USB_OTG_FS || USB */
 316:Drivers/STM32F1xx_HAL_Driver/Inc/stm32f1xx_ll_rcc.h **** 
 317:Drivers/STM32F1xx_HAL_Driver/Inc/stm32f1xx_ll_rcc.h **** /** @defgroup RCC_LL_EC_ADC_CLKSOURCE_PCLK2 Peripheral ADC clock source selection
 318:Drivers/STM32F1xx_HAL_Driver/Inc/stm32f1xx_ll_rcc.h ****   * @{
 319:Drivers/STM32F1xx_HAL_Driver/Inc/stm32f1xx_ll_rcc.h ****   */
 320:Drivers/STM32F1xx_HAL_Driver/Inc/stm32f1xx_ll_rcc.h **** #define LL_RCC_ADC_CLKSRC_PCLK2_DIV_2    RCC_CFGR_ADCPRE_DIV2 /*ADC prescaler PCLK2 divided by 2*/
 321:Drivers/STM32F1xx_HAL_Driver/Inc/stm32f1xx_ll_rcc.h **** #define LL_RCC_ADC_CLKSRC_PCLK2_DIV_4    RCC_CFGR_ADCPRE_DIV4 /*ADC prescaler PCLK2 divided by 4*/
 322:Drivers/STM32F1xx_HAL_Driver/Inc/stm32f1xx_ll_rcc.h **** #define LL_RCC_ADC_CLKSRC_PCLK2_DIV_6    RCC_CFGR_ADCPRE_DIV6 /*ADC prescaler PCLK2 divided by 6*/
 323:Drivers/STM32F1xx_HAL_Driver/Inc/stm32f1xx_ll_rcc.h **** #define LL_RCC_ADC_CLKSRC_PCLK2_DIV_8    RCC_CFGR_ADCPRE_DIV8 /*ADC prescaler PCLK2 divided by 8*/
 324:Drivers/STM32F1xx_HAL_Driver/Inc/stm32f1xx_ll_rcc.h **** /**
 325:Drivers/STM32F1xx_HAL_Driver/Inc/stm32f1xx_ll_rcc.h ****   * @}
 326:Drivers/STM32F1xx_HAL_Driver/Inc/stm32f1xx_ll_rcc.h ****   */
 327:Drivers/STM32F1xx_HAL_Driver/Inc/stm32f1xx_ll_rcc.h **** 
 328:Drivers/STM32F1xx_HAL_Driver/Inc/stm32f1xx_ll_rcc.h **** #if defined(RCC_CFGR2_I2S2SRC)
 329:Drivers/STM32F1xx_HAL_Driver/Inc/stm32f1xx_ll_rcc.h **** /** @defgroup RCC_LL_EC_I2S2 Peripheral I2S get clock source
 330:Drivers/STM32F1xx_HAL_Driver/Inc/stm32f1xx_ll_rcc.h ****   * @{
 331:Drivers/STM32F1xx_HAL_Driver/Inc/stm32f1xx_ll_rcc.h ****   */
 332:Drivers/STM32F1xx_HAL_Driver/Inc/stm32f1xx_ll_rcc.h **** #define LL_RCC_I2S2_CLKSOURCE              RCC_CFGR2_I2S2SRC       /*!< I2S2 Clock source selection
 333:Drivers/STM32F1xx_HAL_Driver/Inc/stm32f1xx_ll_rcc.h **** #define LL_RCC_I2S3_CLKSOURCE              RCC_CFGR2_I2S3SRC       /*!< I2S3 Clock source selection
 334:Drivers/STM32F1xx_HAL_Driver/Inc/stm32f1xx_ll_rcc.h **** /**
 335:Drivers/STM32F1xx_HAL_Driver/Inc/stm32f1xx_ll_rcc.h ****   * @}
 336:Drivers/STM32F1xx_HAL_Driver/Inc/stm32f1xx_ll_rcc.h ****   */
 337:Drivers/STM32F1xx_HAL_Driver/Inc/stm32f1xx_ll_rcc.h **** 
 338:Drivers/STM32F1xx_HAL_Driver/Inc/stm32f1xx_ll_rcc.h **** #endif /* RCC_CFGR2_I2S2SRC */
 339:Drivers/STM32F1xx_HAL_Driver/Inc/stm32f1xx_ll_rcc.h **** 
 340:Drivers/STM32F1xx_HAL_Driver/Inc/stm32f1xx_ll_rcc.h **** #if defined(USB_OTG_FS) || defined(USB)
 341:Drivers/STM32F1xx_HAL_Driver/Inc/stm32f1xx_ll_rcc.h **** /** @defgroup RCC_LL_EC_USB Peripheral USB get clock source
 342:Drivers/STM32F1xx_HAL_Driver/Inc/stm32f1xx_ll_rcc.h ****   * @{
ARM GAS  /var/folders/m1/3lv6xmzs0mlckxs4mx90nfb40000gn/T//ccNWxiXD.s 			page 19


 343:Drivers/STM32F1xx_HAL_Driver/Inc/stm32f1xx_ll_rcc.h ****   */
 344:Drivers/STM32F1xx_HAL_Driver/Inc/stm32f1xx_ll_rcc.h **** #define LL_RCC_USB_CLKSOURCE               0x00400000U     /*!< USB Clock source selection */
 345:Drivers/STM32F1xx_HAL_Driver/Inc/stm32f1xx_ll_rcc.h **** /**
 346:Drivers/STM32F1xx_HAL_Driver/Inc/stm32f1xx_ll_rcc.h ****   * @}
 347:Drivers/STM32F1xx_HAL_Driver/Inc/stm32f1xx_ll_rcc.h ****   */
 348:Drivers/STM32F1xx_HAL_Driver/Inc/stm32f1xx_ll_rcc.h **** 
 349:Drivers/STM32F1xx_HAL_Driver/Inc/stm32f1xx_ll_rcc.h **** #endif /* USB_OTG_FS || USB */
 350:Drivers/STM32F1xx_HAL_Driver/Inc/stm32f1xx_ll_rcc.h **** 
 351:Drivers/STM32F1xx_HAL_Driver/Inc/stm32f1xx_ll_rcc.h **** /** @defgroup RCC_LL_EC_ADC Peripheral ADC get clock source
 352:Drivers/STM32F1xx_HAL_Driver/Inc/stm32f1xx_ll_rcc.h ****   * @{
 353:Drivers/STM32F1xx_HAL_Driver/Inc/stm32f1xx_ll_rcc.h ****   */
 354:Drivers/STM32F1xx_HAL_Driver/Inc/stm32f1xx_ll_rcc.h **** #define LL_RCC_ADC_CLKSOURCE               RCC_CFGR_ADCPRE /*!< ADC Clock source selection */
 355:Drivers/STM32F1xx_HAL_Driver/Inc/stm32f1xx_ll_rcc.h **** /**
 356:Drivers/STM32F1xx_HAL_Driver/Inc/stm32f1xx_ll_rcc.h ****   * @}
 357:Drivers/STM32F1xx_HAL_Driver/Inc/stm32f1xx_ll_rcc.h ****   */
 358:Drivers/STM32F1xx_HAL_Driver/Inc/stm32f1xx_ll_rcc.h **** 
 359:Drivers/STM32F1xx_HAL_Driver/Inc/stm32f1xx_ll_rcc.h **** /** @defgroup RCC_LL_EC_RTC_CLKSOURCE  RTC clock source selection
 360:Drivers/STM32F1xx_HAL_Driver/Inc/stm32f1xx_ll_rcc.h ****   * @{
 361:Drivers/STM32F1xx_HAL_Driver/Inc/stm32f1xx_ll_rcc.h ****   */
 362:Drivers/STM32F1xx_HAL_Driver/Inc/stm32f1xx_ll_rcc.h **** #define LL_RCC_RTC_CLKSOURCE_NONE          0x00000000U             /*!< No clock used as RTC clock 
 363:Drivers/STM32F1xx_HAL_Driver/Inc/stm32f1xx_ll_rcc.h **** #define LL_RCC_RTC_CLKSOURCE_LSE           RCC_BDCR_RTCSEL_0       /*!< LSE oscillator clock used a
 364:Drivers/STM32F1xx_HAL_Driver/Inc/stm32f1xx_ll_rcc.h **** #define LL_RCC_RTC_CLKSOURCE_LSI           RCC_BDCR_RTCSEL_1       /*!< LSI oscillator clock used a
 365:Drivers/STM32F1xx_HAL_Driver/Inc/stm32f1xx_ll_rcc.h **** #define LL_RCC_RTC_CLKSOURCE_HSE_DIV128    RCC_BDCR_RTCSEL         /*!< HSE oscillator clock divide
 366:Drivers/STM32F1xx_HAL_Driver/Inc/stm32f1xx_ll_rcc.h **** /**
 367:Drivers/STM32F1xx_HAL_Driver/Inc/stm32f1xx_ll_rcc.h ****   * @}
 368:Drivers/STM32F1xx_HAL_Driver/Inc/stm32f1xx_ll_rcc.h ****   */
 369:Drivers/STM32F1xx_HAL_Driver/Inc/stm32f1xx_ll_rcc.h **** 
 370:Drivers/STM32F1xx_HAL_Driver/Inc/stm32f1xx_ll_rcc.h **** /** @defgroup RCC_LL_EC_PLL_MUL PLL Multiplicator factor
 371:Drivers/STM32F1xx_HAL_Driver/Inc/stm32f1xx_ll_rcc.h ****   * @{
 372:Drivers/STM32F1xx_HAL_Driver/Inc/stm32f1xx_ll_rcc.h ****   */
 373:Drivers/STM32F1xx_HAL_Driver/Inc/stm32f1xx_ll_rcc.h **** #if defined(RCC_CFGR_PLLMULL2)
 374:Drivers/STM32F1xx_HAL_Driver/Inc/stm32f1xx_ll_rcc.h **** #define LL_RCC_PLL_MUL_2                   RCC_CFGR_PLLMULL2  /*!< PLL input clock*2 */
 375:Drivers/STM32F1xx_HAL_Driver/Inc/stm32f1xx_ll_rcc.h **** #endif /*RCC_CFGR_PLLMULL2*/
 376:Drivers/STM32F1xx_HAL_Driver/Inc/stm32f1xx_ll_rcc.h **** #if defined(RCC_CFGR_PLLMULL3)
 377:Drivers/STM32F1xx_HAL_Driver/Inc/stm32f1xx_ll_rcc.h **** #define LL_RCC_PLL_MUL_3                   RCC_CFGR_PLLMULL3  /*!< PLL input clock*3 */
 378:Drivers/STM32F1xx_HAL_Driver/Inc/stm32f1xx_ll_rcc.h **** #endif /*RCC_CFGR_PLLMULL3*/
 379:Drivers/STM32F1xx_HAL_Driver/Inc/stm32f1xx_ll_rcc.h **** #define LL_RCC_PLL_MUL_4                   RCC_CFGR_PLLMULL4  /*!< PLL input clock*4 */
 380:Drivers/STM32F1xx_HAL_Driver/Inc/stm32f1xx_ll_rcc.h **** #define LL_RCC_PLL_MUL_5                   RCC_CFGR_PLLMULL5  /*!< PLL input clock*5 */
 381:Drivers/STM32F1xx_HAL_Driver/Inc/stm32f1xx_ll_rcc.h **** #define LL_RCC_PLL_MUL_6                   RCC_CFGR_PLLMULL6  /*!< PLL input clock*6 */
 382:Drivers/STM32F1xx_HAL_Driver/Inc/stm32f1xx_ll_rcc.h **** #define LL_RCC_PLL_MUL_7                   RCC_CFGR_PLLMULL7  /*!< PLL input clock*7 */
 383:Drivers/STM32F1xx_HAL_Driver/Inc/stm32f1xx_ll_rcc.h **** #define LL_RCC_PLL_MUL_8                   RCC_CFGR_PLLMULL8  /*!< PLL input clock*8 */
 384:Drivers/STM32F1xx_HAL_Driver/Inc/stm32f1xx_ll_rcc.h **** #define LL_RCC_PLL_MUL_9                   RCC_CFGR_PLLMULL9  /*!< PLL input clock*9 */
 385:Drivers/STM32F1xx_HAL_Driver/Inc/stm32f1xx_ll_rcc.h **** #if defined(RCC_CFGR_PLLMULL6_5)
 386:Drivers/STM32F1xx_HAL_Driver/Inc/stm32f1xx_ll_rcc.h **** #define LL_RCC_PLL_MUL_6_5                 RCC_CFGR_PLLMULL6_5 /*!< PLL input clock*6 */
 387:Drivers/STM32F1xx_HAL_Driver/Inc/stm32f1xx_ll_rcc.h **** #else
 388:Drivers/STM32F1xx_HAL_Driver/Inc/stm32f1xx_ll_rcc.h **** #define LL_RCC_PLL_MUL_10                  RCC_CFGR_PLLMULL10  /*!< PLL input clock*10 */
 389:Drivers/STM32F1xx_HAL_Driver/Inc/stm32f1xx_ll_rcc.h **** #define LL_RCC_PLL_MUL_11                  RCC_CFGR_PLLMULL11  /*!< PLL input clock*11 */
 390:Drivers/STM32F1xx_HAL_Driver/Inc/stm32f1xx_ll_rcc.h **** #define LL_RCC_PLL_MUL_12                  RCC_CFGR_PLLMULL12  /*!< PLL input clock*12 */
 391:Drivers/STM32F1xx_HAL_Driver/Inc/stm32f1xx_ll_rcc.h **** #define LL_RCC_PLL_MUL_13                  RCC_CFGR_PLLMULL13  /*!< PLL input clock*13 */
 392:Drivers/STM32F1xx_HAL_Driver/Inc/stm32f1xx_ll_rcc.h **** #define LL_RCC_PLL_MUL_14                  RCC_CFGR_PLLMULL14  /*!< PLL input clock*14 */
 393:Drivers/STM32F1xx_HAL_Driver/Inc/stm32f1xx_ll_rcc.h **** #define LL_RCC_PLL_MUL_15                  RCC_CFGR_PLLMULL15  /*!< PLL input clock*15 */
 394:Drivers/STM32F1xx_HAL_Driver/Inc/stm32f1xx_ll_rcc.h **** #define LL_RCC_PLL_MUL_16                  RCC_CFGR_PLLMULL16  /*!< PLL input clock*16 */
 395:Drivers/STM32F1xx_HAL_Driver/Inc/stm32f1xx_ll_rcc.h **** #endif /*RCC_CFGR_PLLMULL6_5*/
 396:Drivers/STM32F1xx_HAL_Driver/Inc/stm32f1xx_ll_rcc.h **** /**
 397:Drivers/STM32F1xx_HAL_Driver/Inc/stm32f1xx_ll_rcc.h ****   * @}
 398:Drivers/STM32F1xx_HAL_Driver/Inc/stm32f1xx_ll_rcc.h ****   */
 399:Drivers/STM32F1xx_HAL_Driver/Inc/stm32f1xx_ll_rcc.h **** 
ARM GAS  /var/folders/m1/3lv6xmzs0mlckxs4mx90nfb40000gn/T//ccNWxiXD.s 			page 20


 400:Drivers/STM32F1xx_HAL_Driver/Inc/stm32f1xx_ll_rcc.h **** /** @defgroup RCC_LL_EC_PLLSOURCE PLL SOURCE
 401:Drivers/STM32F1xx_HAL_Driver/Inc/stm32f1xx_ll_rcc.h ****   * @{
 402:Drivers/STM32F1xx_HAL_Driver/Inc/stm32f1xx_ll_rcc.h ****   */
 403:Drivers/STM32F1xx_HAL_Driver/Inc/stm32f1xx_ll_rcc.h **** #define LL_RCC_PLLSOURCE_HSI_DIV_2         0x00000000U                                    /*!< HSI 
 404:Drivers/STM32F1xx_HAL_Driver/Inc/stm32f1xx_ll_rcc.h **** #define LL_RCC_PLLSOURCE_HSE               RCC_CFGR_PLLSRC                                /*!< HSE/
 405:Drivers/STM32F1xx_HAL_Driver/Inc/stm32f1xx_ll_rcc.h **** #if defined(RCC_CFGR2_PREDIV1SRC)
 406:Drivers/STM32F1xx_HAL_Driver/Inc/stm32f1xx_ll_rcc.h **** #define LL_RCC_PLLSOURCE_PLL2              (RCC_CFGR_PLLSRC | RCC_CFGR2_PREDIV1SRC << 4U) /*!< PLL2
 407:Drivers/STM32F1xx_HAL_Driver/Inc/stm32f1xx_ll_rcc.h **** #endif /*RCC_CFGR2_PREDIV1SRC*/
 408:Drivers/STM32F1xx_HAL_Driver/Inc/stm32f1xx_ll_rcc.h **** 
 409:Drivers/STM32F1xx_HAL_Driver/Inc/stm32f1xx_ll_rcc.h **** #if defined(RCC_CFGR2_PREDIV1)
 410:Drivers/STM32F1xx_HAL_Driver/Inc/stm32f1xx_ll_rcc.h **** #define LL_RCC_PLLSOURCE_HSE_DIV_1         (RCC_CFGR_PLLSRC | RCC_CFGR2_PREDIV1_DIV1)    /*!< HSE/1
 411:Drivers/STM32F1xx_HAL_Driver/Inc/stm32f1xx_ll_rcc.h **** #define LL_RCC_PLLSOURCE_HSE_DIV_2         (RCC_CFGR_PLLSRC | RCC_CFGR2_PREDIV1_DIV2)    /*!< HSE/2
 412:Drivers/STM32F1xx_HAL_Driver/Inc/stm32f1xx_ll_rcc.h **** #define LL_RCC_PLLSOURCE_HSE_DIV_3         (RCC_CFGR_PLLSRC | RCC_CFGR2_PREDIV1_DIV3)    /*!< HSE/3
 413:Drivers/STM32F1xx_HAL_Driver/Inc/stm32f1xx_ll_rcc.h **** #define LL_RCC_PLLSOURCE_HSE_DIV_4         (RCC_CFGR_PLLSRC | RCC_CFGR2_PREDIV1_DIV4)    /*!< HSE/4
 414:Drivers/STM32F1xx_HAL_Driver/Inc/stm32f1xx_ll_rcc.h **** #define LL_RCC_PLLSOURCE_HSE_DIV_5         (RCC_CFGR_PLLSRC | RCC_CFGR2_PREDIV1_DIV5)    /*!< HSE/5
 415:Drivers/STM32F1xx_HAL_Driver/Inc/stm32f1xx_ll_rcc.h **** #define LL_RCC_PLLSOURCE_HSE_DIV_6         (RCC_CFGR_PLLSRC | RCC_CFGR2_PREDIV1_DIV6)    /*!< HSE/6
 416:Drivers/STM32F1xx_HAL_Driver/Inc/stm32f1xx_ll_rcc.h **** #define LL_RCC_PLLSOURCE_HSE_DIV_7         (RCC_CFGR_PLLSRC | RCC_CFGR2_PREDIV1_DIV7)    /*!< HSE/7
 417:Drivers/STM32F1xx_HAL_Driver/Inc/stm32f1xx_ll_rcc.h **** #define LL_RCC_PLLSOURCE_HSE_DIV_8         (RCC_CFGR_PLLSRC | RCC_CFGR2_PREDIV1_DIV8)    /*!< HSE/8
 418:Drivers/STM32F1xx_HAL_Driver/Inc/stm32f1xx_ll_rcc.h **** #define LL_RCC_PLLSOURCE_HSE_DIV_9         (RCC_CFGR_PLLSRC | RCC_CFGR2_PREDIV1_DIV9)    /*!< HSE/9
 419:Drivers/STM32F1xx_HAL_Driver/Inc/stm32f1xx_ll_rcc.h **** #define LL_RCC_PLLSOURCE_HSE_DIV_10        (RCC_CFGR_PLLSRC | RCC_CFGR2_PREDIV1_DIV10)   /*!< HSE/1
 420:Drivers/STM32F1xx_HAL_Driver/Inc/stm32f1xx_ll_rcc.h **** #define LL_RCC_PLLSOURCE_HSE_DIV_11        (RCC_CFGR_PLLSRC | RCC_CFGR2_PREDIV1_DIV11)   /*!< HSE/1
 421:Drivers/STM32F1xx_HAL_Driver/Inc/stm32f1xx_ll_rcc.h **** #define LL_RCC_PLLSOURCE_HSE_DIV_12        (RCC_CFGR_PLLSRC | RCC_CFGR2_PREDIV1_DIV12)   /*!< HSE/1
 422:Drivers/STM32F1xx_HAL_Driver/Inc/stm32f1xx_ll_rcc.h **** #define LL_RCC_PLLSOURCE_HSE_DIV_13        (RCC_CFGR_PLLSRC | RCC_CFGR2_PREDIV1_DIV13)   /*!< HSE/1
 423:Drivers/STM32F1xx_HAL_Driver/Inc/stm32f1xx_ll_rcc.h **** #define LL_RCC_PLLSOURCE_HSE_DIV_14        (RCC_CFGR_PLLSRC | RCC_CFGR2_PREDIV1_DIV14)   /*!< HSE/1
 424:Drivers/STM32F1xx_HAL_Driver/Inc/stm32f1xx_ll_rcc.h **** #define LL_RCC_PLLSOURCE_HSE_DIV_15        (RCC_CFGR_PLLSRC | RCC_CFGR2_PREDIV1_DIV15)   /*!< HSE/1
 425:Drivers/STM32F1xx_HAL_Driver/Inc/stm32f1xx_ll_rcc.h **** #define LL_RCC_PLLSOURCE_HSE_DIV_16        (RCC_CFGR_PLLSRC | RCC_CFGR2_PREDIV1_DIV16)   /*!< HSE/1
 426:Drivers/STM32F1xx_HAL_Driver/Inc/stm32f1xx_ll_rcc.h **** #if defined(RCC_CFGR2_PREDIV1SRC)
 427:Drivers/STM32F1xx_HAL_Driver/Inc/stm32f1xx_ll_rcc.h **** #define LL_RCC_PLLSOURCE_PLL2_DIV_1        (RCC_CFGR_PLLSRC | RCC_CFGR2_PREDIV1_DIV1 | RCC_CFGR2_PR
 428:Drivers/STM32F1xx_HAL_Driver/Inc/stm32f1xx_ll_rcc.h **** #define LL_RCC_PLLSOURCE_PLL2_DIV_2        (RCC_CFGR_PLLSRC | RCC_CFGR2_PREDIV1_DIV2 | RCC_CFGR2_PR
 429:Drivers/STM32F1xx_HAL_Driver/Inc/stm32f1xx_ll_rcc.h **** #define LL_RCC_PLLSOURCE_PLL2_DIV_3        (RCC_CFGR_PLLSRC | RCC_CFGR2_PREDIV1_DIV3 | RCC_CFGR2_PR
 430:Drivers/STM32F1xx_HAL_Driver/Inc/stm32f1xx_ll_rcc.h **** #define LL_RCC_PLLSOURCE_PLL2_DIV_4        (RCC_CFGR_PLLSRC | RCC_CFGR2_PREDIV1_DIV4 | RCC_CFGR2_PR
 431:Drivers/STM32F1xx_HAL_Driver/Inc/stm32f1xx_ll_rcc.h **** #define LL_RCC_PLLSOURCE_PLL2_DIV_5        (RCC_CFGR_PLLSRC | RCC_CFGR2_PREDIV1_DIV5 | RCC_CFGR2_PR
 432:Drivers/STM32F1xx_HAL_Driver/Inc/stm32f1xx_ll_rcc.h **** #define LL_RCC_PLLSOURCE_PLL2_DIV_6        (RCC_CFGR_PLLSRC | RCC_CFGR2_PREDIV1_DIV6 | RCC_CFGR2_PR
 433:Drivers/STM32F1xx_HAL_Driver/Inc/stm32f1xx_ll_rcc.h **** #define LL_RCC_PLLSOURCE_PLL2_DIV_7        (RCC_CFGR_PLLSRC | RCC_CFGR2_PREDIV1_DIV7 | RCC_CFGR2_PR
 434:Drivers/STM32F1xx_HAL_Driver/Inc/stm32f1xx_ll_rcc.h **** #define LL_RCC_PLLSOURCE_PLL2_DIV_8        (RCC_CFGR_PLLSRC | RCC_CFGR2_PREDIV1_DIV8 | RCC_CFGR2_PR
 435:Drivers/STM32F1xx_HAL_Driver/Inc/stm32f1xx_ll_rcc.h **** #define LL_RCC_PLLSOURCE_PLL2_DIV_9        (RCC_CFGR_PLLSRC | RCC_CFGR2_PREDIV1_DIV9 | RCC_CFGR2_PR
 436:Drivers/STM32F1xx_HAL_Driver/Inc/stm32f1xx_ll_rcc.h **** #define LL_RCC_PLLSOURCE_PLL2_DIV_10       (RCC_CFGR_PLLSRC | RCC_CFGR2_PREDIV1_DIV10 | RCC_CFGR2_P
 437:Drivers/STM32F1xx_HAL_Driver/Inc/stm32f1xx_ll_rcc.h **** #define LL_RCC_PLLSOURCE_PLL2_DIV_11       (RCC_CFGR_PLLSRC | RCC_CFGR2_PREDIV1_DIV11 | RCC_CFGR2_P
 438:Drivers/STM32F1xx_HAL_Driver/Inc/stm32f1xx_ll_rcc.h **** #define LL_RCC_PLLSOURCE_PLL2_DIV_12       (RCC_CFGR_PLLSRC | RCC_CFGR2_PREDIV1_DIV12 | RCC_CFGR2_P
 439:Drivers/STM32F1xx_HAL_Driver/Inc/stm32f1xx_ll_rcc.h **** #define LL_RCC_PLLSOURCE_PLL2_DIV_13       (RCC_CFGR_PLLSRC | RCC_CFGR2_PREDIV1_DIV13 | RCC_CFGR2_P
 440:Drivers/STM32F1xx_HAL_Driver/Inc/stm32f1xx_ll_rcc.h **** #define LL_RCC_PLLSOURCE_PLL2_DIV_14       (RCC_CFGR_PLLSRC | RCC_CFGR2_PREDIV1_DIV14 | RCC_CFGR2_P
 441:Drivers/STM32F1xx_HAL_Driver/Inc/stm32f1xx_ll_rcc.h **** #define LL_RCC_PLLSOURCE_PLL2_DIV_15       (RCC_CFGR_PLLSRC | RCC_CFGR2_PREDIV1_DIV15 | RCC_CFGR2_P
 442:Drivers/STM32F1xx_HAL_Driver/Inc/stm32f1xx_ll_rcc.h **** #define LL_RCC_PLLSOURCE_PLL2_DIV_16       (RCC_CFGR_PLLSRC | RCC_CFGR2_PREDIV1_DIV16 | RCC_CFGR2_P
 443:Drivers/STM32F1xx_HAL_Driver/Inc/stm32f1xx_ll_rcc.h **** #endif /*RCC_CFGR2_PREDIV1SRC*/
 444:Drivers/STM32F1xx_HAL_Driver/Inc/stm32f1xx_ll_rcc.h **** #else
 445:Drivers/STM32F1xx_HAL_Driver/Inc/stm32f1xx_ll_rcc.h **** #define LL_RCC_PLLSOURCE_HSE_DIV_1         (RCC_CFGR_PLLSRC | 0x00000000U)               /*!< HSE/1
 446:Drivers/STM32F1xx_HAL_Driver/Inc/stm32f1xx_ll_rcc.h **** #define LL_RCC_PLLSOURCE_HSE_DIV_2         (RCC_CFGR_PLLSRC | RCC_CFGR_PLLXTPRE)         /*!< HSE/2
 447:Drivers/STM32F1xx_HAL_Driver/Inc/stm32f1xx_ll_rcc.h **** #endif /*RCC_CFGR2_PREDIV1*/
 448:Drivers/STM32F1xx_HAL_Driver/Inc/stm32f1xx_ll_rcc.h **** /**
 449:Drivers/STM32F1xx_HAL_Driver/Inc/stm32f1xx_ll_rcc.h ****   * @}
 450:Drivers/STM32F1xx_HAL_Driver/Inc/stm32f1xx_ll_rcc.h ****   */
 451:Drivers/STM32F1xx_HAL_Driver/Inc/stm32f1xx_ll_rcc.h **** 
 452:Drivers/STM32F1xx_HAL_Driver/Inc/stm32f1xx_ll_rcc.h **** /** @defgroup RCC_LL_EC_PREDIV_DIV PREDIV Division factor
 453:Drivers/STM32F1xx_HAL_Driver/Inc/stm32f1xx_ll_rcc.h ****   * @{
 454:Drivers/STM32F1xx_HAL_Driver/Inc/stm32f1xx_ll_rcc.h ****   */
 455:Drivers/STM32F1xx_HAL_Driver/Inc/stm32f1xx_ll_rcc.h **** #if defined(RCC_CFGR2_PREDIV1)
 456:Drivers/STM32F1xx_HAL_Driver/Inc/stm32f1xx_ll_rcc.h **** #define LL_RCC_PREDIV_DIV_1                RCC_CFGR2_PREDIV1_DIV1   /*!< PREDIV1 input clock not di
ARM GAS  /var/folders/m1/3lv6xmzs0mlckxs4mx90nfb40000gn/T//ccNWxiXD.s 			page 21


 457:Drivers/STM32F1xx_HAL_Driver/Inc/stm32f1xx_ll_rcc.h **** #define LL_RCC_PREDIV_DIV_2                RCC_CFGR2_PREDIV1_DIV2   /*!< PREDIV1 input clock divide
 458:Drivers/STM32F1xx_HAL_Driver/Inc/stm32f1xx_ll_rcc.h **** #define LL_RCC_PREDIV_DIV_3                RCC_CFGR2_PREDIV1_DIV3   /*!< PREDIV1 input clock divide
 459:Drivers/STM32F1xx_HAL_Driver/Inc/stm32f1xx_ll_rcc.h **** #define LL_RCC_PREDIV_DIV_4                RCC_CFGR2_PREDIV1_DIV4   /*!< PREDIV1 input clock divide
 460:Drivers/STM32F1xx_HAL_Driver/Inc/stm32f1xx_ll_rcc.h **** #define LL_RCC_PREDIV_DIV_5                RCC_CFGR2_PREDIV1_DIV5   /*!< PREDIV1 input clock divide
 461:Drivers/STM32F1xx_HAL_Driver/Inc/stm32f1xx_ll_rcc.h **** #define LL_RCC_PREDIV_DIV_6                RCC_CFGR2_PREDIV1_DIV6   /*!< PREDIV1 input clock divide
 462:Drivers/STM32F1xx_HAL_Driver/Inc/stm32f1xx_ll_rcc.h **** #define LL_RCC_PREDIV_DIV_7                RCC_CFGR2_PREDIV1_DIV7   /*!< PREDIV1 input clock divide
 463:Drivers/STM32F1xx_HAL_Driver/Inc/stm32f1xx_ll_rcc.h **** #define LL_RCC_PREDIV_DIV_8                RCC_CFGR2_PREDIV1_DIV8   /*!< PREDIV1 input clock divide
 464:Drivers/STM32F1xx_HAL_Driver/Inc/stm32f1xx_ll_rcc.h **** #define LL_RCC_PREDIV_DIV_9                RCC_CFGR2_PREDIV1_DIV9   /*!< PREDIV1 input clock divide
 465:Drivers/STM32F1xx_HAL_Driver/Inc/stm32f1xx_ll_rcc.h **** #define LL_RCC_PREDIV_DIV_10               RCC_CFGR2_PREDIV1_DIV10  /*!< PREDIV1 input clock divide
 466:Drivers/STM32F1xx_HAL_Driver/Inc/stm32f1xx_ll_rcc.h **** #define LL_RCC_PREDIV_DIV_11               RCC_CFGR2_PREDIV1_DIV11  /*!< PREDIV1 input clock divide
 467:Drivers/STM32F1xx_HAL_Driver/Inc/stm32f1xx_ll_rcc.h **** #define LL_RCC_PREDIV_DIV_12               RCC_CFGR2_PREDIV1_DIV12  /*!< PREDIV1 input clock divide
 468:Drivers/STM32F1xx_HAL_Driver/Inc/stm32f1xx_ll_rcc.h **** #define LL_RCC_PREDIV_DIV_13               RCC_CFGR2_PREDIV1_DIV13  /*!< PREDIV1 input clock divide
 469:Drivers/STM32F1xx_HAL_Driver/Inc/stm32f1xx_ll_rcc.h **** #define LL_RCC_PREDIV_DIV_14               RCC_CFGR2_PREDIV1_DIV14  /*!< PREDIV1 input clock divide
 470:Drivers/STM32F1xx_HAL_Driver/Inc/stm32f1xx_ll_rcc.h **** #define LL_RCC_PREDIV_DIV_15               RCC_CFGR2_PREDIV1_DIV15  /*!< PREDIV1 input clock divide
 471:Drivers/STM32F1xx_HAL_Driver/Inc/stm32f1xx_ll_rcc.h **** #define LL_RCC_PREDIV_DIV_16               RCC_CFGR2_PREDIV1_DIV16  /*!< PREDIV1 input clock divide
 472:Drivers/STM32F1xx_HAL_Driver/Inc/stm32f1xx_ll_rcc.h **** #else
 473:Drivers/STM32F1xx_HAL_Driver/Inc/stm32f1xx_ll_rcc.h **** #define LL_RCC_PREDIV_DIV_1                0x00000000U              /*!< HSE divider clock clock no
 474:Drivers/STM32F1xx_HAL_Driver/Inc/stm32f1xx_ll_rcc.h **** #define LL_RCC_PREDIV_DIV_2                RCC_CFGR_PLLXTPRE        /*!< HSE divider clock divided 
 475:Drivers/STM32F1xx_HAL_Driver/Inc/stm32f1xx_ll_rcc.h **** #endif /*RCC_CFGR2_PREDIV1*/
 476:Drivers/STM32F1xx_HAL_Driver/Inc/stm32f1xx_ll_rcc.h **** /**
 477:Drivers/STM32F1xx_HAL_Driver/Inc/stm32f1xx_ll_rcc.h ****   * @}
 478:Drivers/STM32F1xx_HAL_Driver/Inc/stm32f1xx_ll_rcc.h ****   */
 479:Drivers/STM32F1xx_HAL_Driver/Inc/stm32f1xx_ll_rcc.h **** 
 480:Drivers/STM32F1xx_HAL_Driver/Inc/stm32f1xx_ll_rcc.h **** #if defined(RCC_PLLI2S_SUPPORT)
 481:Drivers/STM32F1xx_HAL_Driver/Inc/stm32f1xx_ll_rcc.h **** /** @defgroup RCC_LL_EC_PLLI2S_MUL PLLI2S MUL
 482:Drivers/STM32F1xx_HAL_Driver/Inc/stm32f1xx_ll_rcc.h ****   * @{
 483:Drivers/STM32F1xx_HAL_Driver/Inc/stm32f1xx_ll_rcc.h ****   */
 484:Drivers/STM32F1xx_HAL_Driver/Inc/stm32f1xx_ll_rcc.h **** #define LL_RCC_PLLI2S_MUL_8                RCC_CFGR2_PLL3MUL8   /*!< PLLI2S input clock * 8 */
 485:Drivers/STM32F1xx_HAL_Driver/Inc/stm32f1xx_ll_rcc.h **** #define LL_RCC_PLLI2S_MUL_9                RCC_CFGR2_PLL3MUL9   /*!< PLLI2S input clock * 9 */
 486:Drivers/STM32F1xx_HAL_Driver/Inc/stm32f1xx_ll_rcc.h **** #define LL_RCC_PLLI2S_MUL_10               RCC_CFGR2_PLL3MUL10  /*!< PLLI2S input clock * 10 */
 487:Drivers/STM32F1xx_HAL_Driver/Inc/stm32f1xx_ll_rcc.h **** #define LL_RCC_PLLI2S_MUL_11               RCC_CFGR2_PLL3MUL11  /*!< PLLI2S input clock * 11 */
 488:Drivers/STM32F1xx_HAL_Driver/Inc/stm32f1xx_ll_rcc.h **** #define LL_RCC_PLLI2S_MUL_12               RCC_CFGR2_PLL3MUL12  /*!< PLLI2S input clock * 12 */
 489:Drivers/STM32F1xx_HAL_Driver/Inc/stm32f1xx_ll_rcc.h **** #define LL_RCC_PLLI2S_MUL_13               RCC_CFGR2_PLL3MUL13  /*!< PLLI2S input clock * 13 */
 490:Drivers/STM32F1xx_HAL_Driver/Inc/stm32f1xx_ll_rcc.h **** #define LL_RCC_PLLI2S_MUL_14               RCC_CFGR2_PLL3MUL14  /*!< PLLI2S input clock * 14 */
 491:Drivers/STM32F1xx_HAL_Driver/Inc/stm32f1xx_ll_rcc.h **** #define LL_RCC_PLLI2S_MUL_16               RCC_CFGR2_PLL3MUL16  /*!< PLLI2S input clock * 16 */
 492:Drivers/STM32F1xx_HAL_Driver/Inc/stm32f1xx_ll_rcc.h **** #define LL_RCC_PLLI2S_MUL_20               RCC_CFGR2_PLL3MUL20  /*!< PLLI2S input clock * 20 */
 493:Drivers/STM32F1xx_HAL_Driver/Inc/stm32f1xx_ll_rcc.h **** /**
 494:Drivers/STM32F1xx_HAL_Driver/Inc/stm32f1xx_ll_rcc.h ****   * @}
 495:Drivers/STM32F1xx_HAL_Driver/Inc/stm32f1xx_ll_rcc.h ****   */
 496:Drivers/STM32F1xx_HAL_Driver/Inc/stm32f1xx_ll_rcc.h **** 
 497:Drivers/STM32F1xx_HAL_Driver/Inc/stm32f1xx_ll_rcc.h **** #endif /* RCC_PLLI2S_SUPPORT */
 498:Drivers/STM32F1xx_HAL_Driver/Inc/stm32f1xx_ll_rcc.h **** 
 499:Drivers/STM32F1xx_HAL_Driver/Inc/stm32f1xx_ll_rcc.h **** #if defined(RCC_PLL2_SUPPORT)
 500:Drivers/STM32F1xx_HAL_Driver/Inc/stm32f1xx_ll_rcc.h **** /** @defgroup RCC_LL_EC_PLL2_MUL PLL2 MUL
 501:Drivers/STM32F1xx_HAL_Driver/Inc/stm32f1xx_ll_rcc.h ****   * @{
 502:Drivers/STM32F1xx_HAL_Driver/Inc/stm32f1xx_ll_rcc.h ****   */
 503:Drivers/STM32F1xx_HAL_Driver/Inc/stm32f1xx_ll_rcc.h **** #define LL_RCC_PLL2_MUL_8                  RCC_CFGR2_PLL2MUL8   /*!< PLL2 input clock * 8 */
 504:Drivers/STM32F1xx_HAL_Driver/Inc/stm32f1xx_ll_rcc.h **** #define LL_RCC_PLL2_MUL_9                  RCC_CFGR2_PLL2MUL9   /*!< PLL2 input clock * 9 */
 505:Drivers/STM32F1xx_HAL_Driver/Inc/stm32f1xx_ll_rcc.h **** #define LL_RCC_PLL2_MUL_10                 RCC_CFGR2_PLL2MUL10  /*!< PLL2 input clock * 10 */
 506:Drivers/STM32F1xx_HAL_Driver/Inc/stm32f1xx_ll_rcc.h **** #define LL_RCC_PLL2_MUL_11                 RCC_CFGR2_PLL2MUL11  /*!< PLL2 input clock * 11 */
 507:Drivers/STM32F1xx_HAL_Driver/Inc/stm32f1xx_ll_rcc.h **** #define LL_RCC_PLL2_MUL_12                 RCC_CFGR2_PLL2MUL12  /*!< PLL2 input clock * 12 */
 508:Drivers/STM32F1xx_HAL_Driver/Inc/stm32f1xx_ll_rcc.h **** #define LL_RCC_PLL2_MUL_13                 RCC_CFGR2_PLL2MUL13  /*!< PLL2 input clock * 13 */
 509:Drivers/STM32F1xx_HAL_Driver/Inc/stm32f1xx_ll_rcc.h **** #define LL_RCC_PLL2_MUL_14                 RCC_CFGR2_PLL2MUL14  /*!< PLL2 input clock * 14 */
 510:Drivers/STM32F1xx_HAL_Driver/Inc/stm32f1xx_ll_rcc.h **** #define LL_RCC_PLL2_MUL_16                 RCC_CFGR2_PLL2MUL16  /*!< PLL2 input clock * 16 */
 511:Drivers/STM32F1xx_HAL_Driver/Inc/stm32f1xx_ll_rcc.h **** #define LL_RCC_PLL2_MUL_20                 RCC_CFGR2_PLL2MUL20  /*!< PLL2 input clock * 20 */
 512:Drivers/STM32F1xx_HAL_Driver/Inc/stm32f1xx_ll_rcc.h **** /**
 513:Drivers/STM32F1xx_HAL_Driver/Inc/stm32f1xx_ll_rcc.h ****   * @}
ARM GAS  /var/folders/m1/3lv6xmzs0mlckxs4mx90nfb40000gn/T//ccNWxiXD.s 			page 22


 514:Drivers/STM32F1xx_HAL_Driver/Inc/stm32f1xx_ll_rcc.h ****   */
 515:Drivers/STM32F1xx_HAL_Driver/Inc/stm32f1xx_ll_rcc.h **** 
 516:Drivers/STM32F1xx_HAL_Driver/Inc/stm32f1xx_ll_rcc.h **** #endif /* RCC_PLL2_SUPPORT */
 517:Drivers/STM32F1xx_HAL_Driver/Inc/stm32f1xx_ll_rcc.h **** 
 518:Drivers/STM32F1xx_HAL_Driver/Inc/stm32f1xx_ll_rcc.h **** /**
 519:Drivers/STM32F1xx_HAL_Driver/Inc/stm32f1xx_ll_rcc.h ****   * @}
 520:Drivers/STM32F1xx_HAL_Driver/Inc/stm32f1xx_ll_rcc.h ****   */
 521:Drivers/STM32F1xx_HAL_Driver/Inc/stm32f1xx_ll_rcc.h **** 
 522:Drivers/STM32F1xx_HAL_Driver/Inc/stm32f1xx_ll_rcc.h **** /* Exported macro ------------------------------------------------------------*/
 523:Drivers/STM32F1xx_HAL_Driver/Inc/stm32f1xx_ll_rcc.h **** /** @defgroup RCC_LL_Exported_Macros RCC Exported Macros
 524:Drivers/STM32F1xx_HAL_Driver/Inc/stm32f1xx_ll_rcc.h ****   * @{
 525:Drivers/STM32F1xx_HAL_Driver/Inc/stm32f1xx_ll_rcc.h ****   */
 526:Drivers/STM32F1xx_HAL_Driver/Inc/stm32f1xx_ll_rcc.h **** 
 527:Drivers/STM32F1xx_HAL_Driver/Inc/stm32f1xx_ll_rcc.h **** /** @defgroup RCC_LL_EM_WRITE_READ Common Write and read registers Macros
 528:Drivers/STM32F1xx_HAL_Driver/Inc/stm32f1xx_ll_rcc.h ****   * @{
 529:Drivers/STM32F1xx_HAL_Driver/Inc/stm32f1xx_ll_rcc.h ****   */
 530:Drivers/STM32F1xx_HAL_Driver/Inc/stm32f1xx_ll_rcc.h **** 
 531:Drivers/STM32F1xx_HAL_Driver/Inc/stm32f1xx_ll_rcc.h **** /**
 532:Drivers/STM32F1xx_HAL_Driver/Inc/stm32f1xx_ll_rcc.h ****   * @brief  Write a value in RCC register
 533:Drivers/STM32F1xx_HAL_Driver/Inc/stm32f1xx_ll_rcc.h ****   * @param  __REG__ Register to be written
 534:Drivers/STM32F1xx_HAL_Driver/Inc/stm32f1xx_ll_rcc.h ****   * @param  __VALUE__ Value to be written in the register
 535:Drivers/STM32F1xx_HAL_Driver/Inc/stm32f1xx_ll_rcc.h ****   * @retval None
 536:Drivers/STM32F1xx_HAL_Driver/Inc/stm32f1xx_ll_rcc.h ****   */
 537:Drivers/STM32F1xx_HAL_Driver/Inc/stm32f1xx_ll_rcc.h **** #define LL_RCC_WriteReg(__REG__, __VALUE__) WRITE_REG(RCC->__REG__, (__VALUE__))
 538:Drivers/STM32F1xx_HAL_Driver/Inc/stm32f1xx_ll_rcc.h **** 
 539:Drivers/STM32F1xx_HAL_Driver/Inc/stm32f1xx_ll_rcc.h **** /**
 540:Drivers/STM32F1xx_HAL_Driver/Inc/stm32f1xx_ll_rcc.h ****   * @brief  Read a value in RCC register
 541:Drivers/STM32F1xx_HAL_Driver/Inc/stm32f1xx_ll_rcc.h ****   * @param  __REG__ Register to be read
 542:Drivers/STM32F1xx_HAL_Driver/Inc/stm32f1xx_ll_rcc.h ****   * @retval Register value
 543:Drivers/STM32F1xx_HAL_Driver/Inc/stm32f1xx_ll_rcc.h ****   */
 544:Drivers/STM32F1xx_HAL_Driver/Inc/stm32f1xx_ll_rcc.h **** #define LL_RCC_ReadReg(__REG__) READ_REG(RCC->__REG__)
 545:Drivers/STM32F1xx_HAL_Driver/Inc/stm32f1xx_ll_rcc.h **** /**
 546:Drivers/STM32F1xx_HAL_Driver/Inc/stm32f1xx_ll_rcc.h ****   * @}
 547:Drivers/STM32F1xx_HAL_Driver/Inc/stm32f1xx_ll_rcc.h ****   */
 548:Drivers/STM32F1xx_HAL_Driver/Inc/stm32f1xx_ll_rcc.h **** 
 549:Drivers/STM32F1xx_HAL_Driver/Inc/stm32f1xx_ll_rcc.h **** /** @defgroup RCC_LL_EM_CALC_FREQ Calculate frequencies
 550:Drivers/STM32F1xx_HAL_Driver/Inc/stm32f1xx_ll_rcc.h ****   * @{
 551:Drivers/STM32F1xx_HAL_Driver/Inc/stm32f1xx_ll_rcc.h ****   */
 552:Drivers/STM32F1xx_HAL_Driver/Inc/stm32f1xx_ll_rcc.h **** 
 553:Drivers/STM32F1xx_HAL_Driver/Inc/stm32f1xx_ll_rcc.h **** #if defined(RCC_CFGR_PLLMULL6_5)
 554:Drivers/STM32F1xx_HAL_Driver/Inc/stm32f1xx_ll_rcc.h **** /**
 555:Drivers/STM32F1xx_HAL_Driver/Inc/stm32f1xx_ll_rcc.h ****   * @brief  Helper macro to calculate the PLLCLK frequency
 556:Drivers/STM32F1xx_HAL_Driver/Inc/stm32f1xx_ll_rcc.h ****   * @note ex: @ref __LL_RCC_CALC_PLLCLK_FREQ (HSE_VALUE / (@ref LL_RCC_PLL_GetPrediv () + 1), @ref 
 557:Drivers/STM32F1xx_HAL_Driver/Inc/stm32f1xx_ll_rcc.h ****   * @param  __INPUTFREQ__ PLL Input frequency (based on HSE div Prediv1 / HSI div 2 / PLL2 div Pred
 558:Drivers/STM32F1xx_HAL_Driver/Inc/stm32f1xx_ll_rcc.h ****   * @param  __PLLMUL__: This parameter can be one of the following values:
 559:Drivers/STM32F1xx_HAL_Driver/Inc/stm32f1xx_ll_rcc.h ****   *         @arg @ref LL_RCC_PLL_MUL_4
 560:Drivers/STM32F1xx_HAL_Driver/Inc/stm32f1xx_ll_rcc.h ****   *         @arg @ref LL_RCC_PLL_MUL_5
 561:Drivers/STM32F1xx_HAL_Driver/Inc/stm32f1xx_ll_rcc.h ****   *         @arg @ref LL_RCC_PLL_MUL_6
 562:Drivers/STM32F1xx_HAL_Driver/Inc/stm32f1xx_ll_rcc.h ****   *         @arg @ref LL_RCC_PLL_MUL_7
 563:Drivers/STM32F1xx_HAL_Driver/Inc/stm32f1xx_ll_rcc.h ****   *         @arg @ref LL_RCC_PLL_MUL_8
 564:Drivers/STM32F1xx_HAL_Driver/Inc/stm32f1xx_ll_rcc.h ****   *         @arg @ref LL_RCC_PLL_MUL_9
 565:Drivers/STM32F1xx_HAL_Driver/Inc/stm32f1xx_ll_rcc.h ****   *         @arg @ref LL_RCC_PLL_MUL_6_5
 566:Drivers/STM32F1xx_HAL_Driver/Inc/stm32f1xx_ll_rcc.h ****   * @retval PLL clock frequency (in Hz)
 567:Drivers/STM32F1xx_HAL_Driver/Inc/stm32f1xx_ll_rcc.h ****   */
 568:Drivers/STM32F1xx_HAL_Driver/Inc/stm32f1xx_ll_rcc.h **** #define __LL_RCC_CALC_PLLCLK_FREQ(__INPUTFREQ__, __PLLMUL__) \
 569:Drivers/STM32F1xx_HAL_Driver/Inc/stm32f1xx_ll_rcc.h ****           (((__PLLMUL__) != RCC_CFGR_PLLMULL6_5) ? \
 570:Drivers/STM32F1xx_HAL_Driver/Inc/stm32f1xx_ll_rcc.h ****               ((__INPUTFREQ__) * ((((__PLLMUL__) & RCC_CFGR_PLLMULL) >> RCC_CFGR_PLLMULL_Pos) + 2U)
ARM GAS  /var/folders/m1/3lv6xmzs0mlckxs4mx90nfb40000gn/T//ccNWxiXD.s 			page 23


 571:Drivers/STM32F1xx_HAL_Driver/Inc/stm32f1xx_ll_rcc.h ****               (((__INPUTFREQ__) * 13U) / 2U))
 572:Drivers/STM32F1xx_HAL_Driver/Inc/stm32f1xx_ll_rcc.h **** 
 573:Drivers/STM32F1xx_HAL_Driver/Inc/stm32f1xx_ll_rcc.h **** #else
 574:Drivers/STM32F1xx_HAL_Driver/Inc/stm32f1xx_ll_rcc.h **** /**
 575:Drivers/STM32F1xx_HAL_Driver/Inc/stm32f1xx_ll_rcc.h ****   * @brief  Helper macro to calculate the PLLCLK frequency
 576:Drivers/STM32F1xx_HAL_Driver/Inc/stm32f1xx_ll_rcc.h ****   * @note ex: @ref __LL_RCC_CALC_PLLCLK_FREQ (HSE_VALUE / (@ref LL_RCC_PLL_GetPrediv () + 1), @ref 
 577:Drivers/STM32F1xx_HAL_Driver/Inc/stm32f1xx_ll_rcc.h ****   * @param  __INPUTFREQ__ PLL Input frequency (based on HSE div Prediv1 or div 2 / HSI div 2)
 578:Drivers/STM32F1xx_HAL_Driver/Inc/stm32f1xx_ll_rcc.h ****   * @param  __PLLMUL__: This parameter can be one of the following values:
 579:Drivers/STM32F1xx_HAL_Driver/Inc/stm32f1xx_ll_rcc.h ****   *         @arg @ref LL_RCC_PLL_MUL_2
 580:Drivers/STM32F1xx_HAL_Driver/Inc/stm32f1xx_ll_rcc.h ****   *         @arg @ref LL_RCC_PLL_MUL_3
 581:Drivers/STM32F1xx_HAL_Driver/Inc/stm32f1xx_ll_rcc.h ****   *         @arg @ref LL_RCC_PLL_MUL_4
 582:Drivers/STM32F1xx_HAL_Driver/Inc/stm32f1xx_ll_rcc.h ****   *         @arg @ref LL_RCC_PLL_MUL_5
 583:Drivers/STM32F1xx_HAL_Driver/Inc/stm32f1xx_ll_rcc.h ****   *         @arg @ref LL_RCC_PLL_MUL_6
 584:Drivers/STM32F1xx_HAL_Driver/Inc/stm32f1xx_ll_rcc.h ****   *         @arg @ref LL_RCC_PLL_MUL_7
 585:Drivers/STM32F1xx_HAL_Driver/Inc/stm32f1xx_ll_rcc.h ****   *         @arg @ref LL_RCC_PLL_MUL_8
 586:Drivers/STM32F1xx_HAL_Driver/Inc/stm32f1xx_ll_rcc.h ****   *         @arg @ref LL_RCC_PLL_MUL_9
 587:Drivers/STM32F1xx_HAL_Driver/Inc/stm32f1xx_ll_rcc.h ****   *         @arg @ref LL_RCC_PLL_MUL_10
 588:Drivers/STM32F1xx_HAL_Driver/Inc/stm32f1xx_ll_rcc.h ****   *         @arg @ref LL_RCC_PLL_MUL_11
 589:Drivers/STM32F1xx_HAL_Driver/Inc/stm32f1xx_ll_rcc.h ****   *         @arg @ref LL_RCC_PLL_MUL_12
 590:Drivers/STM32F1xx_HAL_Driver/Inc/stm32f1xx_ll_rcc.h ****   *         @arg @ref LL_RCC_PLL_MUL_13
 591:Drivers/STM32F1xx_HAL_Driver/Inc/stm32f1xx_ll_rcc.h ****   *         @arg @ref LL_RCC_PLL_MUL_14
 592:Drivers/STM32F1xx_HAL_Driver/Inc/stm32f1xx_ll_rcc.h ****   *         @arg @ref LL_RCC_PLL_MUL_15
 593:Drivers/STM32F1xx_HAL_Driver/Inc/stm32f1xx_ll_rcc.h ****   *         @arg @ref LL_RCC_PLL_MUL_16
 594:Drivers/STM32F1xx_HAL_Driver/Inc/stm32f1xx_ll_rcc.h ****   * @retval PLL clock frequency (in Hz)
 595:Drivers/STM32F1xx_HAL_Driver/Inc/stm32f1xx_ll_rcc.h ****   */
 596:Drivers/STM32F1xx_HAL_Driver/Inc/stm32f1xx_ll_rcc.h **** #define __LL_RCC_CALC_PLLCLK_FREQ(__INPUTFREQ__, __PLLMUL__) ((__INPUTFREQ__) * (((__PLLMUL__) >> R
 597:Drivers/STM32F1xx_HAL_Driver/Inc/stm32f1xx_ll_rcc.h **** #endif /* RCC_CFGR_PLLMULL6_5 */
 598:Drivers/STM32F1xx_HAL_Driver/Inc/stm32f1xx_ll_rcc.h **** 
 599:Drivers/STM32F1xx_HAL_Driver/Inc/stm32f1xx_ll_rcc.h **** #if defined(RCC_PLLI2S_SUPPORT)
 600:Drivers/STM32F1xx_HAL_Driver/Inc/stm32f1xx_ll_rcc.h **** /**
 601:Drivers/STM32F1xx_HAL_Driver/Inc/stm32f1xx_ll_rcc.h ****   * @brief  Helper macro to calculate the PLLI2S frequency
 602:Drivers/STM32F1xx_HAL_Driver/Inc/stm32f1xx_ll_rcc.h ****   * @note ex: @ref __LL_RCC_CALC_PLLI2SCLK_FREQ (HSE_VALUE, @ref LL_RCC_PLLI2S_GetMultiplicator (),
 603:Drivers/STM32F1xx_HAL_Driver/Inc/stm32f1xx_ll_rcc.h ****   * @param  __INPUTFREQ__ PLLI2S Input frequency (based on HSE value)
 604:Drivers/STM32F1xx_HAL_Driver/Inc/stm32f1xx_ll_rcc.h ****   * @param  __PLLI2SMUL__: This parameter can be one of the following values:
 605:Drivers/STM32F1xx_HAL_Driver/Inc/stm32f1xx_ll_rcc.h ****   *         @arg @ref LL_RCC_PLLI2S_MUL_8
 606:Drivers/STM32F1xx_HAL_Driver/Inc/stm32f1xx_ll_rcc.h ****   *         @arg @ref LL_RCC_PLLI2S_MUL_9
 607:Drivers/STM32F1xx_HAL_Driver/Inc/stm32f1xx_ll_rcc.h ****   *         @arg @ref LL_RCC_PLLI2S_MUL_10
 608:Drivers/STM32F1xx_HAL_Driver/Inc/stm32f1xx_ll_rcc.h ****   *         @arg @ref LL_RCC_PLLI2S_MUL_11
 609:Drivers/STM32F1xx_HAL_Driver/Inc/stm32f1xx_ll_rcc.h ****   *         @arg @ref LL_RCC_PLLI2S_MUL_12
 610:Drivers/STM32F1xx_HAL_Driver/Inc/stm32f1xx_ll_rcc.h ****   *         @arg @ref LL_RCC_PLLI2S_MUL_13
 611:Drivers/STM32F1xx_HAL_Driver/Inc/stm32f1xx_ll_rcc.h ****   *         @arg @ref LL_RCC_PLLI2S_MUL_14
 612:Drivers/STM32F1xx_HAL_Driver/Inc/stm32f1xx_ll_rcc.h ****   *         @arg @ref LL_RCC_PLLI2S_MUL_16
 613:Drivers/STM32F1xx_HAL_Driver/Inc/stm32f1xx_ll_rcc.h ****   *         @arg @ref LL_RCC_PLLI2S_MUL_20
 614:Drivers/STM32F1xx_HAL_Driver/Inc/stm32f1xx_ll_rcc.h ****   * @param  __PLLI2SDIV__: This parameter can be one of the following values:
 615:Drivers/STM32F1xx_HAL_Driver/Inc/stm32f1xx_ll_rcc.h ****   *         @arg @ref LL_RCC_HSE_PREDIV2_DIV_1
 616:Drivers/STM32F1xx_HAL_Driver/Inc/stm32f1xx_ll_rcc.h ****   *         @arg @ref LL_RCC_HSE_PREDIV2_DIV_2
 617:Drivers/STM32F1xx_HAL_Driver/Inc/stm32f1xx_ll_rcc.h ****   *         @arg @ref LL_RCC_HSE_PREDIV2_DIV_3
 618:Drivers/STM32F1xx_HAL_Driver/Inc/stm32f1xx_ll_rcc.h ****   *         @arg @ref LL_RCC_HSE_PREDIV2_DIV_4
 619:Drivers/STM32F1xx_HAL_Driver/Inc/stm32f1xx_ll_rcc.h ****   *         @arg @ref LL_RCC_HSE_PREDIV2_DIV_5
 620:Drivers/STM32F1xx_HAL_Driver/Inc/stm32f1xx_ll_rcc.h ****   *         @arg @ref LL_RCC_HSE_PREDIV2_DIV_6
 621:Drivers/STM32F1xx_HAL_Driver/Inc/stm32f1xx_ll_rcc.h ****   *         @arg @ref LL_RCC_HSE_PREDIV2_DIV_7
 622:Drivers/STM32F1xx_HAL_Driver/Inc/stm32f1xx_ll_rcc.h ****   *         @arg @ref LL_RCC_HSE_PREDIV2_DIV_8
 623:Drivers/STM32F1xx_HAL_Driver/Inc/stm32f1xx_ll_rcc.h ****   *         @arg @ref LL_RCC_HSE_PREDIV2_DIV_9
 624:Drivers/STM32F1xx_HAL_Driver/Inc/stm32f1xx_ll_rcc.h ****   *         @arg @ref LL_RCC_HSE_PREDIV2_DIV_10
 625:Drivers/STM32F1xx_HAL_Driver/Inc/stm32f1xx_ll_rcc.h ****   *         @arg @ref LL_RCC_HSE_PREDIV2_DIV_11
 626:Drivers/STM32F1xx_HAL_Driver/Inc/stm32f1xx_ll_rcc.h ****   *         @arg @ref LL_RCC_HSE_PREDIV2_DIV_12
 627:Drivers/STM32F1xx_HAL_Driver/Inc/stm32f1xx_ll_rcc.h ****   *         @arg @ref LL_RCC_HSE_PREDIV2_DIV_13
ARM GAS  /var/folders/m1/3lv6xmzs0mlckxs4mx90nfb40000gn/T//ccNWxiXD.s 			page 24


 628:Drivers/STM32F1xx_HAL_Driver/Inc/stm32f1xx_ll_rcc.h ****   *         @arg @ref LL_RCC_HSE_PREDIV2_DIV_14
 629:Drivers/STM32F1xx_HAL_Driver/Inc/stm32f1xx_ll_rcc.h ****   *         @arg @ref LL_RCC_HSE_PREDIV2_DIV_15
 630:Drivers/STM32F1xx_HAL_Driver/Inc/stm32f1xx_ll_rcc.h ****   *         @arg @ref LL_RCC_HSE_PREDIV2_DIV_16
 631:Drivers/STM32F1xx_HAL_Driver/Inc/stm32f1xx_ll_rcc.h ****   * @retval PLLI2S clock frequency (in Hz)
 632:Drivers/STM32F1xx_HAL_Driver/Inc/stm32f1xx_ll_rcc.h ****   */
 633:Drivers/STM32F1xx_HAL_Driver/Inc/stm32f1xx_ll_rcc.h **** #define __LL_RCC_CALC_PLLI2SCLK_FREQ(__INPUTFREQ__, __PLLI2SMUL__, __PLLI2SDIV__) (((__INPUTFREQ__)
 634:Drivers/STM32F1xx_HAL_Driver/Inc/stm32f1xx_ll_rcc.h **** #endif /* RCC_PLLI2S_SUPPORT */
 635:Drivers/STM32F1xx_HAL_Driver/Inc/stm32f1xx_ll_rcc.h **** 
 636:Drivers/STM32F1xx_HAL_Driver/Inc/stm32f1xx_ll_rcc.h **** #if defined(RCC_PLL2_SUPPORT)
 637:Drivers/STM32F1xx_HAL_Driver/Inc/stm32f1xx_ll_rcc.h **** /**
 638:Drivers/STM32F1xx_HAL_Driver/Inc/stm32f1xx_ll_rcc.h ****   * @brief  Helper macro to calculate the PLL2 frequency
 639:Drivers/STM32F1xx_HAL_Driver/Inc/stm32f1xx_ll_rcc.h ****   * @note ex: @ref __LL_RCC_CALC_PLL2CLK_FREQ (HSE_VALUE, @ref LL_RCC_PLL2_GetMultiplicator (), @re
 640:Drivers/STM32F1xx_HAL_Driver/Inc/stm32f1xx_ll_rcc.h ****   * @param  __INPUTFREQ__ PLL2 Input frequency (based on HSE value)
 641:Drivers/STM32F1xx_HAL_Driver/Inc/stm32f1xx_ll_rcc.h ****   * @param  __PLL2MUL__: This parameter can be one of the following values:
 642:Drivers/STM32F1xx_HAL_Driver/Inc/stm32f1xx_ll_rcc.h ****   *         @arg @ref LL_RCC_PLL2_MUL_8
 643:Drivers/STM32F1xx_HAL_Driver/Inc/stm32f1xx_ll_rcc.h ****   *         @arg @ref LL_RCC_PLL2_MUL_9
 644:Drivers/STM32F1xx_HAL_Driver/Inc/stm32f1xx_ll_rcc.h ****   *         @arg @ref LL_RCC_PLL2_MUL_10
 645:Drivers/STM32F1xx_HAL_Driver/Inc/stm32f1xx_ll_rcc.h ****   *         @arg @ref LL_RCC_PLL2_MUL_11
 646:Drivers/STM32F1xx_HAL_Driver/Inc/stm32f1xx_ll_rcc.h ****   *         @arg @ref LL_RCC_PLL2_MUL_12
 647:Drivers/STM32F1xx_HAL_Driver/Inc/stm32f1xx_ll_rcc.h ****   *         @arg @ref LL_RCC_PLL2_MUL_13
 648:Drivers/STM32F1xx_HAL_Driver/Inc/stm32f1xx_ll_rcc.h ****   *         @arg @ref LL_RCC_PLL2_MUL_14
 649:Drivers/STM32F1xx_HAL_Driver/Inc/stm32f1xx_ll_rcc.h ****   *         @arg @ref LL_RCC_PLL2_MUL_16
 650:Drivers/STM32F1xx_HAL_Driver/Inc/stm32f1xx_ll_rcc.h ****   *         @arg @ref LL_RCC_PLL2_MUL_20
 651:Drivers/STM32F1xx_HAL_Driver/Inc/stm32f1xx_ll_rcc.h ****   * @param  __PLL2DIV__: This parameter can be one of the following values:
 652:Drivers/STM32F1xx_HAL_Driver/Inc/stm32f1xx_ll_rcc.h ****   *         @arg @ref LL_RCC_HSE_PREDIV2_DIV_1
 653:Drivers/STM32F1xx_HAL_Driver/Inc/stm32f1xx_ll_rcc.h ****   *         @arg @ref LL_RCC_HSE_PREDIV2_DIV_2
 654:Drivers/STM32F1xx_HAL_Driver/Inc/stm32f1xx_ll_rcc.h ****   *         @arg @ref LL_RCC_HSE_PREDIV2_DIV_3
 655:Drivers/STM32F1xx_HAL_Driver/Inc/stm32f1xx_ll_rcc.h ****   *         @arg @ref LL_RCC_HSE_PREDIV2_DIV_4
 656:Drivers/STM32F1xx_HAL_Driver/Inc/stm32f1xx_ll_rcc.h ****   *         @arg @ref LL_RCC_HSE_PREDIV2_DIV_5
 657:Drivers/STM32F1xx_HAL_Driver/Inc/stm32f1xx_ll_rcc.h ****   *         @arg @ref LL_RCC_HSE_PREDIV2_DIV_6
 658:Drivers/STM32F1xx_HAL_Driver/Inc/stm32f1xx_ll_rcc.h ****   *         @arg @ref LL_RCC_HSE_PREDIV2_DIV_7
 659:Drivers/STM32F1xx_HAL_Driver/Inc/stm32f1xx_ll_rcc.h ****   *         @arg @ref LL_RCC_HSE_PREDIV2_DIV_8
 660:Drivers/STM32F1xx_HAL_Driver/Inc/stm32f1xx_ll_rcc.h ****   *         @arg @ref LL_RCC_HSE_PREDIV2_DIV_9
 661:Drivers/STM32F1xx_HAL_Driver/Inc/stm32f1xx_ll_rcc.h ****   *         @arg @ref LL_RCC_HSE_PREDIV2_DIV_10
 662:Drivers/STM32F1xx_HAL_Driver/Inc/stm32f1xx_ll_rcc.h ****   *         @arg @ref LL_RCC_HSE_PREDIV2_DIV_11
 663:Drivers/STM32F1xx_HAL_Driver/Inc/stm32f1xx_ll_rcc.h ****   *         @arg @ref LL_RCC_HSE_PREDIV2_DIV_12
 664:Drivers/STM32F1xx_HAL_Driver/Inc/stm32f1xx_ll_rcc.h ****   *         @arg @ref LL_RCC_HSE_PREDIV2_DIV_13
 665:Drivers/STM32F1xx_HAL_Driver/Inc/stm32f1xx_ll_rcc.h ****   *         @arg @ref LL_RCC_HSE_PREDIV2_DIV_14
 666:Drivers/STM32F1xx_HAL_Driver/Inc/stm32f1xx_ll_rcc.h ****   *         @arg @ref LL_RCC_HSE_PREDIV2_DIV_15
 667:Drivers/STM32F1xx_HAL_Driver/Inc/stm32f1xx_ll_rcc.h ****   *         @arg @ref LL_RCC_HSE_PREDIV2_DIV_16
 668:Drivers/STM32F1xx_HAL_Driver/Inc/stm32f1xx_ll_rcc.h ****   * @retval PLL2 clock frequency (in Hz)
 669:Drivers/STM32F1xx_HAL_Driver/Inc/stm32f1xx_ll_rcc.h ****   */
 670:Drivers/STM32F1xx_HAL_Driver/Inc/stm32f1xx_ll_rcc.h **** #define __LL_RCC_CALC_PLL2CLK_FREQ(__INPUTFREQ__, __PLL2MUL__, __PLL2DIV__) (((__INPUTFREQ__) * (((
 671:Drivers/STM32F1xx_HAL_Driver/Inc/stm32f1xx_ll_rcc.h **** #endif /* RCC_PLL2_SUPPORT */
 672:Drivers/STM32F1xx_HAL_Driver/Inc/stm32f1xx_ll_rcc.h **** 
 673:Drivers/STM32F1xx_HAL_Driver/Inc/stm32f1xx_ll_rcc.h **** /**
 674:Drivers/STM32F1xx_HAL_Driver/Inc/stm32f1xx_ll_rcc.h ****   * @brief  Helper macro to calculate the HCLK frequency
 675:Drivers/STM32F1xx_HAL_Driver/Inc/stm32f1xx_ll_rcc.h ****   * @note: __AHBPRESCALER__ be retrieved by @ref LL_RCC_GetAHBPrescaler
 676:Drivers/STM32F1xx_HAL_Driver/Inc/stm32f1xx_ll_rcc.h ****   *        ex: __LL_RCC_CALC_HCLK_FREQ(LL_RCC_GetAHBPrescaler())
 677:Drivers/STM32F1xx_HAL_Driver/Inc/stm32f1xx_ll_rcc.h ****   * @param  __SYSCLKFREQ__ SYSCLK frequency (based on HSE/HSI/PLLCLK)
 678:Drivers/STM32F1xx_HAL_Driver/Inc/stm32f1xx_ll_rcc.h ****   * @param  __AHBPRESCALER__: This parameter can be one of the following values:
 679:Drivers/STM32F1xx_HAL_Driver/Inc/stm32f1xx_ll_rcc.h ****   *         @arg @ref LL_RCC_SYSCLK_DIV_1
 680:Drivers/STM32F1xx_HAL_Driver/Inc/stm32f1xx_ll_rcc.h ****   *         @arg @ref LL_RCC_SYSCLK_DIV_2
 681:Drivers/STM32F1xx_HAL_Driver/Inc/stm32f1xx_ll_rcc.h ****   *         @arg @ref LL_RCC_SYSCLK_DIV_4
 682:Drivers/STM32F1xx_HAL_Driver/Inc/stm32f1xx_ll_rcc.h ****   *         @arg @ref LL_RCC_SYSCLK_DIV_8
 683:Drivers/STM32F1xx_HAL_Driver/Inc/stm32f1xx_ll_rcc.h ****   *         @arg @ref LL_RCC_SYSCLK_DIV_16
 684:Drivers/STM32F1xx_HAL_Driver/Inc/stm32f1xx_ll_rcc.h ****   *         @arg @ref LL_RCC_SYSCLK_DIV_64
ARM GAS  /var/folders/m1/3lv6xmzs0mlckxs4mx90nfb40000gn/T//ccNWxiXD.s 			page 25


 685:Drivers/STM32F1xx_HAL_Driver/Inc/stm32f1xx_ll_rcc.h ****   *         @arg @ref LL_RCC_SYSCLK_DIV_128
 686:Drivers/STM32F1xx_HAL_Driver/Inc/stm32f1xx_ll_rcc.h ****   *         @arg @ref LL_RCC_SYSCLK_DIV_256
 687:Drivers/STM32F1xx_HAL_Driver/Inc/stm32f1xx_ll_rcc.h ****   *         @arg @ref LL_RCC_SYSCLK_DIV_512
 688:Drivers/STM32F1xx_HAL_Driver/Inc/stm32f1xx_ll_rcc.h ****   * @retval HCLK clock frequency (in Hz)
 689:Drivers/STM32F1xx_HAL_Driver/Inc/stm32f1xx_ll_rcc.h ****   */
 690:Drivers/STM32F1xx_HAL_Driver/Inc/stm32f1xx_ll_rcc.h **** #define __LL_RCC_CALC_HCLK_FREQ(__SYSCLKFREQ__, __AHBPRESCALER__) ((__SYSCLKFREQ__) >> AHBPrescTabl
 691:Drivers/STM32F1xx_HAL_Driver/Inc/stm32f1xx_ll_rcc.h **** 
 692:Drivers/STM32F1xx_HAL_Driver/Inc/stm32f1xx_ll_rcc.h **** /**
 693:Drivers/STM32F1xx_HAL_Driver/Inc/stm32f1xx_ll_rcc.h ****   * @brief  Helper macro to calculate the PCLK1 frequency (ABP1)
 694:Drivers/STM32F1xx_HAL_Driver/Inc/stm32f1xx_ll_rcc.h ****   * @note: __APB1PRESCALER__ be retrieved by @ref LL_RCC_GetAPB1Prescaler
 695:Drivers/STM32F1xx_HAL_Driver/Inc/stm32f1xx_ll_rcc.h ****   *        ex: __LL_RCC_CALC_PCLK1_FREQ(LL_RCC_GetAPB1Prescaler())
 696:Drivers/STM32F1xx_HAL_Driver/Inc/stm32f1xx_ll_rcc.h ****   * @param  __HCLKFREQ__ HCLK frequency
 697:Drivers/STM32F1xx_HAL_Driver/Inc/stm32f1xx_ll_rcc.h ****   * @param  __APB1PRESCALER__: This parameter can be one of the following values:
 698:Drivers/STM32F1xx_HAL_Driver/Inc/stm32f1xx_ll_rcc.h ****   *         @arg @ref LL_RCC_APB1_DIV_1
 699:Drivers/STM32F1xx_HAL_Driver/Inc/stm32f1xx_ll_rcc.h ****   *         @arg @ref LL_RCC_APB1_DIV_2
 700:Drivers/STM32F1xx_HAL_Driver/Inc/stm32f1xx_ll_rcc.h ****   *         @arg @ref LL_RCC_APB1_DIV_4
 701:Drivers/STM32F1xx_HAL_Driver/Inc/stm32f1xx_ll_rcc.h ****   *         @arg @ref LL_RCC_APB1_DIV_8
 702:Drivers/STM32F1xx_HAL_Driver/Inc/stm32f1xx_ll_rcc.h ****   *         @arg @ref LL_RCC_APB1_DIV_16
 703:Drivers/STM32F1xx_HAL_Driver/Inc/stm32f1xx_ll_rcc.h ****   * @retval PCLK1 clock frequency (in Hz)
 704:Drivers/STM32F1xx_HAL_Driver/Inc/stm32f1xx_ll_rcc.h ****   */
 705:Drivers/STM32F1xx_HAL_Driver/Inc/stm32f1xx_ll_rcc.h **** #define __LL_RCC_CALC_PCLK1_FREQ(__HCLKFREQ__, __APB1PRESCALER__) ((__HCLKFREQ__) >> APBPrescTable[
 706:Drivers/STM32F1xx_HAL_Driver/Inc/stm32f1xx_ll_rcc.h **** 
 707:Drivers/STM32F1xx_HAL_Driver/Inc/stm32f1xx_ll_rcc.h **** /**
 708:Drivers/STM32F1xx_HAL_Driver/Inc/stm32f1xx_ll_rcc.h ****   * @brief  Helper macro to calculate the PCLK2 frequency (ABP2)
 709:Drivers/STM32F1xx_HAL_Driver/Inc/stm32f1xx_ll_rcc.h ****   * @note: __APB2PRESCALER__ be retrieved by @ref LL_RCC_GetAPB2Prescaler
 710:Drivers/STM32F1xx_HAL_Driver/Inc/stm32f1xx_ll_rcc.h ****   *        ex: __LL_RCC_CALC_PCLK2_FREQ(LL_RCC_GetAPB2Prescaler())
 711:Drivers/STM32F1xx_HAL_Driver/Inc/stm32f1xx_ll_rcc.h ****   * @param  __HCLKFREQ__ HCLK frequency
 712:Drivers/STM32F1xx_HAL_Driver/Inc/stm32f1xx_ll_rcc.h ****   * @param  __APB2PRESCALER__: This parameter can be one of the following values:
 713:Drivers/STM32F1xx_HAL_Driver/Inc/stm32f1xx_ll_rcc.h ****   *         @arg @ref LL_RCC_APB2_DIV_1
 714:Drivers/STM32F1xx_HAL_Driver/Inc/stm32f1xx_ll_rcc.h ****   *         @arg @ref LL_RCC_APB2_DIV_2
 715:Drivers/STM32F1xx_HAL_Driver/Inc/stm32f1xx_ll_rcc.h ****   *         @arg @ref LL_RCC_APB2_DIV_4
 716:Drivers/STM32F1xx_HAL_Driver/Inc/stm32f1xx_ll_rcc.h ****   *         @arg @ref LL_RCC_APB2_DIV_8
 717:Drivers/STM32F1xx_HAL_Driver/Inc/stm32f1xx_ll_rcc.h ****   *         @arg @ref LL_RCC_APB2_DIV_16
 718:Drivers/STM32F1xx_HAL_Driver/Inc/stm32f1xx_ll_rcc.h ****   * @retval PCLK2 clock frequency (in Hz)
 719:Drivers/STM32F1xx_HAL_Driver/Inc/stm32f1xx_ll_rcc.h ****   */
 720:Drivers/STM32F1xx_HAL_Driver/Inc/stm32f1xx_ll_rcc.h **** #define __LL_RCC_CALC_PCLK2_FREQ(__HCLKFREQ__, __APB2PRESCALER__) ((__HCLKFREQ__) >> APBPrescTable[
 721:Drivers/STM32F1xx_HAL_Driver/Inc/stm32f1xx_ll_rcc.h **** 
 722:Drivers/STM32F1xx_HAL_Driver/Inc/stm32f1xx_ll_rcc.h **** /**
 723:Drivers/STM32F1xx_HAL_Driver/Inc/stm32f1xx_ll_rcc.h ****   * @}
 724:Drivers/STM32F1xx_HAL_Driver/Inc/stm32f1xx_ll_rcc.h ****   */
 725:Drivers/STM32F1xx_HAL_Driver/Inc/stm32f1xx_ll_rcc.h **** 
 726:Drivers/STM32F1xx_HAL_Driver/Inc/stm32f1xx_ll_rcc.h **** /**
 727:Drivers/STM32F1xx_HAL_Driver/Inc/stm32f1xx_ll_rcc.h ****   * @}
 728:Drivers/STM32F1xx_HAL_Driver/Inc/stm32f1xx_ll_rcc.h ****   */
 729:Drivers/STM32F1xx_HAL_Driver/Inc/stm32f1xx_ll_rcc.h **** 
 730:Drivers/STM32F1xx_HAL_Driver/Inc/stm32f1xx_ll_rcc.h **** /* Exported functions --------------------------------------------------------*/
 731:Drivers/STM32F1xx_HAL_Driver/Inc/stm32f1xx_ll_rcc.h **** /** @defgroup RCC_LL_Exported_Functions RCC Exported Functions
 732:Drivers/STM32F1xx_HAL_Driver/Inc/stm32f1xx_ll_rcc.h ****   * @{
 733:Drivers/STM32F1xx_HAL_Driver/Inc/stm32f1xx_ll_rcc.h ****   */
 734:Drivers/STM32F1xx_HAL_Driver/Inc/stm32f1xx_ll_rcc.h **** 
 735:Drivers/STM32F1xx_HAL_Driver/Inc/stm32f1xx_ll_rcc.h **** /** @defgroup RCC_LL_EF_HSE HSE
 736:Drivers/STM32F1xx_HAL_Driver/Inc/stm32f1xx_ll_rcc.h ****   * @{
 737:Drivers/STM32F1xx_HAL_Driver/Inc/stm32f1xx_ll_rcc.h ****   */
 738:Drivers/STM32F1xx_HAL_Driver/Inc/stm32f1xx_ll_rcc.h **** 
 739:Drivers/STM32F1xx_HAL_Driver/Inc/stm32f1xx_ll_rcc.h **** /**
 740:Drivers/STM32F1xx_HAL_Driver/Inc/stm32f1xx_ll_rcc.h ****   * @brief  Enable the Clock Security System.
 741:Drivers/STM32F1xx_HAL_Driver/Inc/stm32f1xx_ll_rcc.h ****   * @rmtoll CR           CSSON         LL_RCC_HSE_EnableCSS
ARM GAS  /var/folders/m1/3lv6xmzs0mlckxs4mx90nfb40000gn/T//ccNWxiXD.s 			page 26


 742:Drivers/STM32F1xx_HAL_Driver/Inc/stm32f1xx_ll_rcc.h ****   * @retval None
 743:Drivers/STM32F1xx_HAL_Driver/Inc/stm32f1xx_ll_rcc.h ****   */
 744:Drivers/STM32F1xx_HAL_Driver/Inc/stm32f1xx_ll_rcc.h **** __STATIC_INLINE void LL_RCC_HSE_EnableCSS(void)
 745:Drivers/STM32F1xx_HAL_Driver/Inc/stm32f1xx_ll_rcc.h **** {
 746:Drivers/STM32F1xx_HAL_Driver/Inc/stm32f1xx_ll_rcc.h ****   SET_BIT(RCC->CR, RCC_CR_CSSON);
 747:Drivers/STM32F1xx_HAL_Driver/Inc/stm32f1xx_ll_rcc.h **** }
 748:Drivers/STM32F1xx_HAL_Driver/Inc/stm32f1xx_ll_rcc.h **** 
 749:Drivers/STM32F1xx_HAL_Driver/Inc/stm32f1xx_ll_rcc.h **** /**
 750:Drivers/STM32F1xx_HAL_Driver/Inc/stm32f1xx_ll_rcc.h ****   * @brief  Enable HSE external oscillator (HSE Bypass)
 751:Drivers/STM32F1xx_HAL_Driver/Inc/stm32f1xx_ll_rcc.h ****   * @rmtoll CR           HSEBYP        LL_RCC_HSE_EnableBypass
 752:Drivers/STM32F1xx_HAL_Driver/Inc/stm32f1xx_ll_rcc.h ****   * @retval None
 753:Drivers/STM32F1xx_HAL_Driver/Inc/stm32f1xx_ll_rcc.h ****   */
 754:Drivers/STM32F1xx_HAL_Driver/Inc/stm32f1xx_ll_rcc.h **** __STATIC_INLINE void LL_RCC_HSE_EnableBypass(void)
 755:Drivers/STM32F1xx_HAL_Driver/Inc/stm32f1xx_ll_rcc.h **** {
 756:Drivers/STM32F1xx_HAL_Driver/Inc/stm32f1xx_ll_rcc.h ****   SET_BIT(RCC->CR, RCC_CR_HSEBYP);
 757:Drivers/STM32F1xx_HAL_Driver/Inc/stm32f1xx_ll_rcc.h **** }
 758:Drivers/STM32F1xx_HAL_Driver/Inc/stm32f1xx_ll_rcc.h **** 
 759:Drivers/STM32F1xx_HAL_Driver/Inc/stm32f1xx_ll_rcc.h **** /**
 760:Drivers/STM32F1xx_HAL_Driver/Inc/stm32f1xx_ll_rcc.h ****   * @brief  Disable HSE external oscillator (HSE Bypass)
 761:Drivers/STM32F1xx_HAL_Driver/Inc/stm32f1xx_ll_rcc.h ****   * @rmtoll CR           HSEBYP        LL_RCC_HSE_DisableBypass
 762:Drivers/STM32F1xx_HAL_Driver/Inc/stm32f1xx_ll_rcc.h ****   * @retval None
 763:Drivers/STM32F1xx_HAL_Driver/Inc/stm32f1xx_ll_rcc.h ****   */
 764:Drivers/STM32F1xx_HAL_Driver/Inc/stm32f1xx_ll_rcc.h **** __STATIC_INLINE void LL_RCC_HSE_DisableBypass(void)
 765:Drivers/STM32F1xx_HAL_Driver/Inc/stm32f1xx_ll_rcc.h **** {
 766:Drivers/STM32F1xx_HAL_Driver/Inc/stm32f1xx_ll_rcc.h ****   CLEAR_BIT(RCC->CR, RCC_CR_HSEBYP);
 767:Drivers/STM32F1xx_HAL_Driver/Inc/stm32f1xx_ll_rcc.h **** }
 768:Drivers/STM32F1xx_HAL_Driver/Inc/stm32f1xx_ll_rcc.h **** 
 769:Drivers/STM32F1xx_HAL_Driver/Inc/stm32f1xx_ll_rcc.h **** /**
 770:Drivers/STM32F1xx_HAL_Driver/Inc/stm32f1xx_ll_rcc.h ****   * @brief  Enable HSE crystal oscillator (HSE ON)
 771:Drivers/STM32F1xx_HAL_Driver/Inc/stm32f1xx_ll_rcc.h ****   * @rmtoll CR           HSEON         LL_RCC_HSE_Enable
 772:Drivers/STM32F1xx_HAL_Driver/Inc/stm32f1xx_ll_rcc.h ****   * @retval None
 773:Drivers/STM32F1xx_HAL_Driver/Inc/stm32f1xx_ll_rcc.h ****   */
 774:Drivers/STM32F1xx_HAL_Driver/Inc/stm32f1xx_ll_rcc.h **** __STATIC_INLINE void LL_RCC_HSE_Enable(void)
 775:Drivers/STM32F1xx_HAL_Driver/Inc/stm32f1xx_ll_rcc.h **** {
 776:Drivers/STM32F1xx_HAL_Driver/Inc/stm32f1xx_ll_rcc.h ****   SET_BIT(RCC->CR, RCC_CR_HSEON);
 777:Drivers/STM32F1xx_HAL_Driver/Inc/stm32f1xx_ll_rcc.h **** }
 778:Drivers/STM32F1xx_HAL_Driver/Inc/stm32f1xx_ll_rcc.h **** 
 779:Drivers/STM32F1xx_HAL_Driver/Inc/stm32f1xx_ll_rcc.h **** /**
 780:Drivers/STM32F1xx_HAL_Driver/Inc/stm32f1xx_ll_rcc.h ****   * @brief  Disable HSE crystal oscillator (HSE ON)
 781:Drivers/STM32F1xx_HAL_Driver/Inc/stm32f1xx_ll_rcc.h ****   * @rmtoll CR           HSEON         LL_RCC_HSE_Disable
 782:Drivers/STM32F1xx_HAL_Driver/Inc/stm32f1xx_ll_rcc.h ****   * @retval None
 783:Drivers/STM32F1xx_HAL_Driver/Inc/stm32f1xx_ll_rcc.h ****   */
 784:Drivers/STM32F1xx_HAL_Driver/Inc/stm32f1xx_ll_rcc.h **** __STATIC_INLINE void LL_RCC_HSE_Disable(void)
 785:Drivers/STM32F1xx_HAL_Driver/Inc/stm32f1xx_ll_rcc.h **** {
 786:Drivers/STM32F1xx_HAL_Driver/Inc/stm32f1xx_ll_rcc.h ****   CLEAR_BIT(RCC->CR, RCC_CR_HSEON);
 787:Drivers/STM32F1xx_HAL_Driver/Inc/stm32f1xx_ll_rcc.h **** }
 788:Drivers/STM32F1xx_HAL_Driver/Inc/stm32f1xx_ll_rcc.h **** 
 789:Drivers/STM32F1xx_HAL_Driver/Inc/stm32f1xx_ll_rcc.h **** /**
 790:Drivers/STM32F1xx_HAL_Driver/Inc/stm32f1xx_ll_rcc.h ****   * @brief  Check if HSE oscillator Ready
 791:Drivers/STM32F1xx_HAL_Driver/Inc/stm32f1xx_ll_rcc.h ****   * @rmtoll CR           HSERDY        LL_RCC_HSE_IsReady
 792:Drivers/STM32F1xx_HAL_Driver/Inc/stm32f1xx_ll_rcc.h ****   * @retval State of bit (1 or 0).
 793:Drivers/STM32F1xx_HAL_Driver/Inc/stm32f1xx_ll_rcc.h ****   */
 794:Drivers/STM32F1xx_HAL_Driver/Inc/stm32f1xx_ll_rcc.h **** __STATIC_INLINE uint32_t LL_RCC_HSE_IsReady(void)
 795:Drivers/STM32F1xx_HAL_Driver/Inc/stm32f1xx_ll_rcc.h **** {
 796:Drivers/STM32F1xx_HAL_Driver/Inc/stm32f1xx_ll_rcc.h ****   return (READ_BIT(RCC->CR, RCC_CR_HSERDY) == (RCC_CR_HSERDY));
 797:Drivers/STM32F1xx_HAL_Driver/Inc/stm32f1xx_ll_rcc.h **** }
 798:Drivers/STM32F1xx_HAL_Driver/Inc/stm32f1xx_ll_rcc.h **** 
ARM GAS  /var/folders/m1/3lv6xmzs0mlckxs4mx90nfb40000gn/T//ccNWxiXD.s 			page 27


 799:Drivers/STM32F1xx_HAL_Driver/Inc/stm32f1xx_ll_rcc.h **** #if defined(RCC_CFGR2_PREDIV2)
 800:Drivers/STM32F1xx_HAL_Driver/Inc/stm32f1xx_ll_rcc.h **** /**
 801:Drivers/STM32F1xx_HAL_Driver/Inc/stm32f1xx_ll_rcc.h ****   * @brief  Get PREDIV2 division factor
 802:Drivers/STM32F1xx_HAL_Driver/Inc/stm32f1xx_ll_rcc.h ****   * @rmtoll CFGR2        PREDIV2       LL_RCC_HSE_GetPrediv2
 803:Drivers/STM32F1xx_HAL_Driver/Inc/stm32f1xx_ll_rcc.h ****   * @retval Returned value can be one of the following values:
 804:Drivers/STM32F1xx_HAL_Driver/Inc/stm32f1xx_ll_rcc.h ****   *         @arg @ref LL_RCC_HSE_PREDIV2_DIV_1
 805:Drivers/STM32F1xx_HAL_Driver/Inc/stm32f1xx_ll_rcc.h ****   *         @arg @ref LL_RCC_HSE_PREDIV2_DIV_2
 806:Drivers/STM32F1xx_HAL_Driver/Inc/stm32f1xx_ll_rcc.h ****   *         @arg @ref LL_RCC_HSE_PREDIV2_DIV_3
 807:Drivers/STM32F1xx_HAL_Driver/Inc/stm32f1xx_ll_rcc.h ****   *         @arg @ref LL_RCC_HSE_PREDIV2_DIV_4
 808:Drivers/STM32F1xx_HAL_Driver/Inc/stm32f1xx_ll_rcc.h ****   *         @arg @ref LL_RCC_HSE_PREDIV2_DIV_5
 809:Drivers/STM32F1xx_HAL_Driver/Inc/stm32f1xx_ll_rcc.h ****   *         @arg @ref LL_RCC_HSE_PREDIV2_DIV_6
 810:Drivers/STM32F1xx_HAL_Driver/Inc/stm32f1xx_ll_rcc.h ****   *         @arg @ref LL_RCC_HSE_PREDIV2_DIV_7
 811:Drivers/STM32F1xx_HAL_Driver/Inc/stm32f1xx_ll_rcc.h ****   *         @arg @ref LL_RCC_HSE_PREDIV2_DIV_8
 812:Drivers/STM32F1xx_HAL_Driver/Inc/stm32f1xx_ll_rcc.h ****   *         @arg @ref LL_RCC_HSE_PREDIV2_DIV_9
 813:Drivers/STM32F1xx_HAL_Driver/Inc/stm32f1xx_ll_rcc.h ****   *         @arg @ref LL_RCC_HSE_PREDIV2_DIV_10
 814:Drivers/STM32F1xx_HAL_Driver/Inc/stm32f1xx_ll_rcc.h ****   *         @arg @ref LL_RCC_HSE_PREDIV2_DIV_11
 815:Drivers/STM32F1xx_HAL_Driver/Inc/stm32f1xx_ll_rcc.h ****   *         @arg @ref LL_RCC_HSE_PREDIV2_DIV_12
 816:Drivers/STM32F1xx_HAL_Driver/Inc/stm32f1xx_ll_rcc.h ****   *         @arg @ref LL_RCC_HSE_PREDIV2_DIV_13
 817:Drivers/STM32F1xx_HAL_Driver/Inc/stm32f1xx_ll_rcc.h ****   *         @arg @ref LL_RCC_HSE_PREDIV2_DIV_14
 818:Drivers/STM32F1xx_HAL_Driver/Inc/stm32f1xx_ll_rcc.h ****   *         @arg @ref LL_RCC_HSE_PREDIV2_DIV_15
 819:Drivers/STM32F1xx_HAL_Driver/Inc/stm32f1xx_ll_rcc.h ****   *         @arg @ref LL_RCC_HSE_PREDIV2_DIV_16
 820:Drivers/STM32F1xx_HAL_Driver/Inc/stm32f1xx_ll_rcc.h ****   */
 821:Drivers/STM32F1xx_HAL_Driver/Inc/stm32f1xx_ll_rcc.h **** __STATIC_INLINE uint32_t LL_RCC_HSE_GetPrediv2(void)
 822:Drivers/STM32F1xx_HAL_Driver/Inc/stm32f1xx_ll_rcc.h **** {
 823:Drivers/STM32F1xx_HAL_Driver/Inc/stm32f1xx_ll_rcc.h ****   return (uint32_t)(READ_BIT(RCC->CFGR2, RCC_CFGR2_PREDIV2));
 824:Drivers/STM32F1xx_HAL_Driver/Inc/stm32f1xx_ll_rcc.h **** }
 825:Drivers/STM32F1xx_HAL_Driver/Inc/stm32f1xx_ll_rcc.h **** #endif /* RCC_CFGR2_PREDIV2 */
 826:Drivers/STM32F1xx_HAL_Driver/Inc/stm32f1xx_ll_rcc.h **** 
 827:Drivers/STM32F1xx_HAL_Driver/Inc/stm32f1xx_ll_rcc.h **** /**
 828:Drivers/STM32F1xx_HAL_Driver/Inc/stm32f1xx_ll_rcc.h ****   * @}
 829:Drivers/STM32F1xx_HAL_Driver/Inc/stm32f1xx_ll_rcc.h ****   */
 830:Drivers/STM32F1xx_HAL_Driver/Inc/stm32f1xx_ll_rcc.h **** 
 831:Drivers/STM32F1xx_HAL_Driver/Inc/stm32f1xx_ll_rcc.h **** /** @defgroup RCC_LL_EF_HSI HSI
 832:Drivers/STM32F1xx_HAL_Driver/Inc/stm32f1xx_ll_rcc.h ****   * @{
 833:Drivers/STM32F1xx_HAL_Driver/Inc/stm32f1xx_ll_rcc.h ****   */
 834:Drivers/STM32F1xx_HAL_Driver/Inc/stm32f1xx_ll_rcc.h **** 
 835:Drivers/STM32F1xx_HAL_Driver/Inc/stm32f1xx_ll_rcc.h **** /**
 836:Drivers/STM32F1xx_HAL_Driver/Inc/stm32f1xx_ll_rcc.h ****   * @brief  Enable HSI oscillator
 837:Drivers/STM32F1xx_HAL_Driver/Inc/stm32f1xx_ll_rcc.h ****   * @rmtoll CR           HSION         LL_RCC_HSI_Enable
 838:Drivers/STM32F1xx_HAL_Driver/Inc/stm32f1xx_ll_rcc.h ****   * @retval None
 839:Drivers/STM32F1xx_HAL_Driver/Inc/stm32f1xx_ll_rcc.h ****   */
 840:Drivers/STM32F1xx_HAL_Driver/Inc/stm32f1xx_ll_rcc.h **** __STATIC_INLINE void LL_RCC_HSI_Enable(void)
 841:Drivers/STM32F1xx_HAL_Driver/Inc/stm32f1xx_ll_rcc.h **** {
 842:Drivers/STM32F1xx_HAL_Driver/Inc/stm32f1xx_ll_rcc.h ****   SET_BIT(RCC->CR, RCC_CR_HSION);
 843:Drivers/STM32F1xx_HAL_Driver/Inc/stm32f1xx_ll_rcc.h **** }
 844:Drivers/STM32F1xx_HAL_Driver/Inc/stm32f1xx_ll_rcc.h **** 
 845:Drivers/STM32F1xx_HAL_Driver/Inc/stm32f1xx_ll_rcc.h **** /**
 846:Drivers/STM32F1xx_HAL_Driver/Inc/stm32f1xx_ll_rcc.h ****   * @brief  Disable HSI oscillator
 847:Drivers/STM32F1xx_HAL_Driver/Inc/stm32f1xx_ll_rcc.h ****   * @rmtoll CR           HSION         LL_RCC_HSI_Disable
 848:Drivers/STM32F1xx_HAL_Driver/Inc/stm32f1xx_ll_rcc.h ****   * @retval None
 849:Drivers/STM32F1xx_HAL_Driver/Inc/stm32f1xx_ll_rcc.h ****   */
 850:Drivers/STM32F1xx_HAL_Driver/Inc/stm32f1xx_ll_rcc.h **** __STATIC_INLINE void LL_RCC_HSI_Disable(void)
 851:Drivers/STM32F1xx_HAL_Driver/Inc/stm32f1xx_ll_rcc.h **** {
 852:Drivers/STM32F1xx_HAL_Driver/Inc/stm32f1xx_ll_rcc.h ****   CLEAR_BIT(RCC->CR, RCC_CR_HSION);
 853:Drivers/STM32F1xx_HAL_Driver/Inc/stm32f1xx_ll_rcc.h **** }
 854:Drivers/STM32F1xx_HAL_Driver/Inc/stm32f1xx_ll_rcc.h **** 
 855:Drivers/STM32F1xx_HAL_Driver/Inc/stm32f1xx_ll_rcc.h **** /**
ARM GAS  /var/folders/m1/3lv6xmzs0mlckxs4mx90nfb40000gn/T//ccNWxiXD.s 			page 28


 856:Drivers/STM32F1xx_HAL_Driver/Inc/stm32f1xx_ll_rcc.h ****   * @brief  Check if HSI clock is ready
 857:Drivers/STM32F1xx_HAL_Driver/Inc/stm32f1xx_ll_rcc.h ****   * @rmtoll CR           HSIRDY        LL_RCC_HSI_IsReady
 858:Drivers/STM32F1xx_HAL_Driver/Inc/stm32f1xx_ll_rcc.h ****   * @retval State of bit (1 or 0).
 859:Drivers/STM32F1xx_HAL_Driver/Inc/stm32f1xx_ll_rcc.h ****   */
 860:Drivers/STM32F1xx_HAL_Driver/Inc/stm32f1xx_ll_rcc.h **** __STATIC_INLINE uint32_t LL_RCC_HSI_IsReady(void)
 861:Drivers/STM32F1xx_HAL_Driver/Inc/stm32f1xx_ll_rcc.h **** {
 862:Drivers/STM32F1xx_HAL_Driver/Inc/stm32f1xx_ll_rcc.h ****   return (READ_BIT(RCC->CR, RCC_CR_HSIRDY) == (RCC_CR_HSIRDY));
 863:Drivers/STM32F1xx_HAL_Driver/Inc/stm32f1xx_ll_rcc.h **** }
 864:Drivers/STM32F1xx_HAL_Driver/Inc/stm32f1xx_ll_rcc.h **** 
 865:Drivers/STM32F1xx_HAL_Driver/Inc/stm32f1xx_ll_rcc.h **** /**
 866:Drivers/STM32F1xx_HAL_Driver/Inc/stm32f1xx_ll_rcc.h ****   * @brief  Get HSI Calibration value
 867:Drivers/STM32F1xx_HAL_Driver/Inc/stm32f1xx_ll_rcc.h ****   * @note When HSITRIM is written, HSICAL is updated with the sum of
 868:Drivers/STM32F1xx_HAL_Driver/Inc/stm32f1xx_ll_rcc.h ****   *       HSITRIM and the factory trim value
 869:Drivers/STM32F1xx_HAL_Driver/Inc/stm32f1xx_ll_rcc.h ****   * @rmtoll CR        HSICAL        LL_RCC_HSI_GetCalibration
 870:Drivers/STM32F1xx_HAL_Driver/Inc/stm32f1xx_ll_rcc.h ****   * @retval Between Min_Data = 0x00 and Max_Data = 0xFF
 871:Drivers/STM32F1xx_HAL_Driver/Inc/stm32f1xx_ll_rcc.h ****   */
 872:Drivers/STM32F1xx_HAL_Driver/Inc/stm32f1xx_ll_rcc.h **** __STATIC_INLINE uint32_t LL_RCC_HSI_GetCalibration(void)
 873:Drivers/STM32F1xx_HAL_Driver/Inc/stm32f1xx_ll_rcc.h **** {
 874:Drivers/STM32F1xx_HAL_Driver/Inc/stm32f1xx_ll_rcc.h ****   return (uint32_t)(READ_BIT(RCC->CR, RCC_CR_HSICAL) >> RCC_CR_HSICAL_Pos);
 875:Drivers/STM32F1xx_HAL_Driver/Inc/stm32f1xx_ll_rcc.h **** }
 876:Drivers/STM32F1xx_HAL_Driver/Inc/stm32f1xx_ll_rcc.h **** 
 877:Drivers/STM32F1xx_HAL_Driver/Inc/stm32f1xx_ll_rcc.h **** /**
 878:Drivers/STM32F1xx_HAL_Driver/Inc/stm32f1xx_ll_rcc.h ****   * @brief  Set HSI Calibration trimming
 879:Drivers/STM32F1xx_HAL_Driver/Inc/stm32f1xx_ll_rcc.h ****   * @note user-programmable trimming value that is added to the HSICAL
 880:Drivers/STM32F1xx_HAL_Driver/Inc/stm32f1xx_ll_rcc.h ****   * @note Default value is 16, which, when added to the HSICAL value,
 881:Drivers/STM32F1xx_HAL_Driver/Inc/stm32f1xx_ll_rcc.h ****   *       should trim the HSI to 16 MHz +/- 1 %
 882:Drivers/STM32F1xx_HAL_Driver/Inc/stm32f1xx_ll_rcc.h ****   * @rmtoll CR        HSITRIM       LL_RCC_HSI_SetCalibTrimming
 883:Drivers/STM32F1xx_HAL_Driver/Inc/stm32f1xx_ll_rcc.h ****   * @param  Value between Min_Data = 0x00 and Max_Data = 0x1F
 884:Drivers/STM32F1xx_HAL_Driver/Inc/stm32f1xx_ll_rcc.h ****   * @retval None
 885:Drivers/STM32F1xx_HAL_Driver/Inc/stm32f1xx_ll_rcc.h ****   */
 886:Drivers/STM32F1xx_HAL_Driver/Inc/stm32f1xx_ll_rcc.h **** __STATIC_INLINE void LL_RCC_HSI_SetCalibTrimming(uint32_t Value)
 887:Drivers/STM32F1xx_HAL_Driver/Inc/stm32f1xx_ll_rcc.h **** {
 888:Drivers/STM32F1xx_HAL_Driver/Inc/stm32f1xx_ll_rcc.h ****   MODIFY_REG(RCC->CR, RCC_CR_HSITRIM, Value << RCC_CR_HSITRIM_Pos);
 889:Drivers/STM32F1xx_HAL_Driver/Inc/stm32f1xx_ll_rcc.h **** }
 890:Drivers/STM32F1xx_HAL_Driver/Inc/stm32f1xx_ll_rcc.h **** 
 891:Drivers/STM32F1xx_HAL_Driver/Inc/stm32f1xx_ll_rcc.h **** /**
 892:Drivers/STM32F1xx_HAL_Driver/Inc/stm32f1xx_ll_rcc.h ****   * @brief  Get HSI Calibration trimming
 893:Drivers/STM32F1xx_HAL_Driver/Inc/stm32f1xx_ll_rcc.h ****   * @rmtoll CR        HSITRIM       LL_RCC_HSI_GetCalibTrimming
 894:Drivers/STM32F1xx_HAL_Driver/Inc/stm32f1xx_ll_rcc.h ****   * @retval Between Min_Data = 0x00 and Max_Data = 0x1F
 895:Drivers/STM32F1xx_HAL_Driver/Inc/stm32f1xx_ll_rcc.h ****   */
 896:Drivers/STM32F1xx_HAL_Driver/Inc/stm32f1xx_ll_rcc.h **** __STATIC_INLINE uint32_t LL_RCC_HSI_GetCalibTrimming(void)
 897:Drivers/STM32F1xx_HAL_Driver/Inc/stm32f1xx_ll_rcc.h **** {
 898:Drivers/STM32F1xx_HAL_Driver/Inc/stm32f1xx_ll_rcc.h ****   return (uint32_t)(READ_BIT(RCC->CR, RCC_CR_HSITRIM) >> RCC_CR_HSITRIM_Pos);
 899:Drivers/STM32F1xx_HAL_Driver/Inc/stm32f1xx_ll_rcc.h **** }
 900:Drivers/STM32F1xx_HAL_Driver/Inc/stm32f1xx_ll_rcc.h **** 
 901:Drivers/STM32F1xx_HAL_Driver/Inc/stm32f1xx_ll_rcc.h **** /**
 902:Drivers/STM32F1xx_HAL_Driver/Inc/stm32f1xx_ll_rcc.h ****   * @}
 903:Drivers/STM32F1xx_HAL_Driver/Inc/stm32f1xx_ll_rcc.h ****   */
 904:Drivers/STM32F1xx_HAL_Driver/Inc/stm32f1xx_ll_rcc.h **** 
 905:Drivers/STM32F1xx_HAL_Driver/Inc/stm32f1xx_ll_rcc.h **** /** @defgroup RCC_LL_EF_LSE LSE
 906:Drivers/STM32F1xx_HAL_Driver/Inc/stm32f1xx_ll_rcc.h ****   * @{
 907:Drivers/STM32F1xx_HAL_Driver/Inc/stm32f1xx_ll_rcc.h ****   */
 908:Drivers/STM32F1xx_HAL_Driver/Inc/stm32f1xx_ll_rcc.h **** 
 909:Drivers/STM32F1xx_HAL_Driver/Inc/stm32f1xx_ll_rcc.h **** /**
 910:Drivers/STM32F1xx_HAL_Driver/Inc/stm32f1xx_ll_rcc.h ****   * @brief  Enable  Low Speed External (LSE) crystal.
 911:Drivers/STM32F1xx_HAL_Driver/Inc/stm32f1xx_ll_rcc.h ****   * @rmtoll BDCR         LSEON         LL_RCC_LSE_Enable
 912:Drivers/STM32F1xx_HAL_Driver/Inc/stm32f1xx_ll_rcc.h ****   * @retval None
ARM GAS  /var/folders/m1/3lv6xmzs0mlckxs4mx90nfb40000gn/T//ccNWxiXD.s 			page 29


 913:Drivers/STM32F1xx_HAL_Driver/Inc/stm32f1xx_ll_rcc.h ****   */
 914:Drivers/STM32F1xx_HAL_Driver/Inc/stm32f1xx_ll_rcc.h **** __STATIC_INLINE void LL_RCC_LSE_Enable(void)
 915:Drivers/STM32F1xx_HAL_Driver/Inc/stm32f1xx_ll_rcc.h **** {
 916:Drivers/STM32F1xx_HAL_Driver/Inc/stm32f1xx_ll_rcc.h ****   SET_BIT(RCC->BDCR, RCC_BDCR_LSEON);
 917:Drivers/STM32F1xx_HAL_Driver/Inc/stm32f1xx_ll_rcc.h **** }
 918:Drivers/STM32F1xx_HAL_Driver/Inc/stm32f1xx_ll_rcc.h **** 
 919:Drivers/STM32F1xx_HAL_Driver/Inc/stm32f1xx_ll_rcc.h **** /**
 920:Drivers/STM32F1xx_HAL_Driver/Inc/stm32f1xx_ll_rcc.h ****   * @brief  Disable  Low Speed External (LSE) crystal.
 921:Drivers/STM32F1xx_HAL_Driver/Inc/stm32f1xx_ll_rcc.h ****   * @rmtoll BDCR         LSEON         LL_RCC_LSE_Disable
 922:Drivers/STM32F1xx_HAL_Driver/Inc/stm32f1xx_ll_rcc.h ****   * @retval None
 923:Drivers/STM32F1xx_HAL_Driver/Inc/stm32f1xx_ll_rcc.h ****   */
 924:Drivers/STM32F1xx_HAL_Driver/Inc/stm32f1xx_ll_rcc.h **** __STATIC_INLINE void LL_RCC_LSE_Disable(void)
 925:Drivers/STM32F1xx_HAL_Driver/Inc/stm32f1xx_ll_rcc.h **** {
 926:Drivers/STM32F1xx_HAL_Driver/Inc/stm32f1xx_ll_rcc.h ****   CLEAR_BIT(RCC->BDCR, RCC_BDCR_LSEON);
 927:Drivers/STM32F1xx_HAL_Driver/Inc/stm32f1xx_ll_rcc.h **** }
 928:Drivers/STM32F1xx_HAL_Driver/Inc/stm32f1xx_ll_rcc.h **** 
 929:Drivers/STM32F1xx_HAL_Driver/Inc/stm32f1xx_ll_rcc.h **** /**
 930:Drivers/STM32F1xx_HAL_Driver/Inc/stm32f1xx_ll_rcc.h ****   * @brief  Enable external clock source (LSE bypass).
 931:Drivers/STM32F1xx_HAL_Driver/Inc/stm32f1xx_ll_rcc.h ****   * @rmtoll BDCR         LSEBYP        LL_RCC_LSE_EnableBypass
 932:Drivers/STM32F1xx_HAL_Driver/Inc/stm32f1xx_ll_rcc.h ****   * @retval None
 933:Drivers/STM32F1xx_HAL_Driver/Inc/stm32f1xx_ll_rcc.h ****   */
 934:Drivers/STM32F1xx_HAL_Driver/Inc/stm32f1xx_ll_rcc.h **** __STATIC_INLINE void LL_RCC_LSE_EnableBypass(void)
 935:Drivers/STM32F1xx_HAL_Driver/Inc/stm32f1xx_ll_rcc.h **** {
 936:Drivers/STM32F1xx_HAL_Driver/Inc/stm32f1xx_ll_rcc.h ****   SET_BIT(RCC->BDCR, RCC_BDCR_LSEBYP);
 937:Drivers/STM32F1xx_HAL_Driver/Inc/stm32f1xx_ll_rcc.h **** }
 938:Drivers/STM32F1xx_HAL_Driver/Inc/stm32f1xx_ll_rcc.h **** 
 939:Drivers/STM32F1xx_HAL_Driver/Inc/stm32f1xx_ll_rcc.h **** /**
 940:Drivers/STM32F1xx_HAL_Driver/Inc/stm32f1xx_ll_rcc.h ****   * @brief  Disable external clock source (LSE bypass).
 941:Drivers/STM32F1xx_HAL_Driver/Inc/stm32f1xx_ll_rcc.h ****   * @rmtoll BDCR         LSEBYP        LL_RCC_LSE_DisableBypass
 942:Drivers/STM32F1xx_HAL_Driver/Inc/stm32f1xx_ll_rcc.h ****   * @retval None
 943:Drivers/STM32F1xx_HAL_Driver/Inc/stm32f1xx_ll_rcc.h ****   */
 944:Drivers/STM32F1xx_HAL_Driver/Inc/stm32f1xx_ll_rcc.h **** __STATIC_INLINE void LL_RCC_LSE_DisableBypass(void)
 945:Drivers/STM32F1xx_HAL_Driver/Inc/stm32f1xx_ll_rcc.h **** {
 946:Drivers/STM32F1xx_HAL_Driver/Inc/stm32f1xx_ll_rcc.h ****   CLEAR_BIT(RCC->BDCR, RCC_BDCR_LSEBYP);
 947:Drivers/STM32F1xx_HAL_Driver/Inc/stm32f1xx_ll_rcc.h **** }
 948:Drivers/STM32F1xx_HAL_Driver/Inc/stm32f1xx_ll_rcc.h **** 
 949:Drivers/STM32F1xx_HAL_Driver/Inc/stm32f1xx_ll_rcc.h **** /**
 950:Drivers/STM32F1xx_HAL_Driver/Inc/stm32f1xx_ll_rcc.h ****   * @brief  Check if LSE oscillator Ready
 951:Drivers/STM32F1xx_HAL_Driver/Inc/stm32f1xx_ll_rcc.h ****   * @rmtoll BDCR         LSERDY        LL_RCC_LSE_IsReady
 952:Drivers/STM32F1xx_HAL_Driver/Inc/stm32f1xx_ll_rcc.h ****   * @retval State of bit (1 or 0).
 953:Drivers/STM32F1xx_HAL_Driver/Inc/stm32f1xx_ll_rcc.h ****   */
 954:Drivers/STM32F1xx_HAL_Driver/Inc/stm32f1xx_ll_rcc.h **** __STATIC_INLINE uint32_t LL_RCC_LSE_IsReady(void)
 955:Drivers/STM32F1xx_HAL_Driver/Inc/stm32f1xx_ll_rcc.h **** {
 956:Drivers/STM32F1xx_HAL_Driver/Inc/stm32f1xx_ll_rcc.h ****   return (READ_BIT(RCC->BDCR, RCC_BDCR_LSERDY) == (RCC_BDCR_LSERDY));
 957:Drivers/STM32F1xx_HAL_Driver/Inc/stm32f1xx_ll_rcc.h **** }
 958:Drivers/STM32F1xx_HAL_Driver/Inc/stm32f1xx_ll_rcc.h **** 
 959:Drivers/STM32F1xx_HAL_Driver/Inc/stm32f1xx_ll_rcc.h **** /**
 960:Drivers/STM32F1xx_HAL_Driver/Inc/stm32f1xx_ll_rcc.h ****   * @}
 961:Drivers/STM32F1xx_HAL_Driver/Inc/stm32f1xx_ll_rcc.h ****   */
 962:Drivers/STM32F1xx_HAL_Driver/Inc/stm32f1xx_ll_rcc.h **** 
 963:Drivers/STM32F1xx_HAL_Driver/Inc/stm32f1xx_ll_rcc.h **** /** @defgroup RCC_LL_EF_LSI LSI
 964:Drivers/STM32F1xx_HAL_Driver/Inc/stm32f1xx_ll_rcc.h ****   * @{
 965:Drivers/STM32F1xx_HAL_Driver/Inc/stm32f1xx_ll_rcc.h ****   */
 966:Drivers/STM32F1xx_HAL_Driver/Inc/stm32f1xx_ll_rcc.h **** 
 967:Drivers/STM32F1xx_HAL_Driver/Inc/stm32f1xx_ll_rcc.h **** /**
 968:Drivers/STM32F1xx_HAL_Driver/Inc/stm32f1xx_ll_rcc.h ****   * @brief  Enable LSI Oscillator
 969:Drivers/STM32F1xx_HAL_Driver/Inc/stm32f1xx_ll_rcc.h ****   * @rmtoll CSR          LSION         LL_RCC_LSI_Enable
ARM GAS  /var/folders/m1/3lv6xmzs0mlckxs4mx90nfb40000gn/T//ccNWxiXD.s 			page 30


 970:Drivers/STM32F1xx_HAL_Driver/Inc/stm32f1xx_ll_rcc.h ****   * @retval None
 971:Drivers/STM32F1xx_HAL_Driver/Inc/stm32f1xx_ll_rcc.h ****   */
 972:Drivers/STM32F1xx_HAL_Driver/Inc/stm32f1xx_ll_rcc.h **** __STATIC_INLINE void LL_RCC_LSI_Enable(void)
 973:Drivers/STM32F1xx_HAL_Driver/Inc/stm32f1xx_ll_rcc.h **** {
 974:Drivers/STM32F1xx_HAL_Driver/Inc/stm32f1xx_ll_rcc.h ****   SET_BIT(RCC->CSR, RCC_CSR_LSION);
 975:Drivers/STM32F1xx_HAL_Driver/Inc/stm32f1xx_ll_rcc.h **** }
 976:Drivers/STM32F1xx_HAL_Driver/Inc/stm32f1xx_ll_rcc.h **** 
 977:Drivers/STM32F1xx_HAL_Driver/Inc/stm32f1xx_ll_rcc.h **** /**
 978:Drivers/STM32F1xx_HAL_Driver/Inc/stm32f1xx_ll_rcc.h ****   * @brief  Disable LSI Oscillator
 979:Drivers/STM32F1xx_HAL_Driver/Inc/stm32f1xx_ll_rcc.h ****   * @rmtoll CSR          LSION         LL_RCC_LSI_Disable
 980:Drivers/STM32F1xx_HAL_Driver/Inc/stm32f1xx_ll_rcc.h ****   * @retval None
 981:Drivers/STM32F1xx_HAL_Driver/Inc/stm32f1xx_ll_rcc.h ****   */
 982:Drivers/STM32F1xx_HAL_Driver/Inc/stm32f1xx_ll_rcc.h **** __STATIC_INLINE void LL_RCC_LSI_Disable(void)
 983:Drivers/STM32F1xx_HAL_Driver/Inc/stm32f1xx_ll_rcc.h **** {
 984:Drivers/STM32F1xx_HAL_Driver/Inc/stm32f1xx_ll_rcc.h ****   CLEAR_BIT(RCC->CSR, RCC_CSR_LSION);
 985:Drivers/STM32F1xx_HAL_Driver/Inc/stm32f1xx_ll_rcc.h **** }
 986:Drivers/STM32F1xx_HAL_Driver/Inc/stm32f1xx_ll_rcc.h **** 
 987:Drivers/STM32F1xx_HAL_Driver/Inc/stm32f1xx_ll_rcc.h **** /**
 988:Drivers/STM32F1xx_HAL_Driver/Inc/stm32f1xx_ll_rcc.h ****   * @brief  Check if LSI is Ready
 989:Drivers/STM32F1xx_HAL_Driver/Inc/stm32f1xx_ll_rcc.h ****   * @rmtoll CSR          LSIRDY        LL_RCC_LSI_IsReady
 990:Drivers/STM32F1xx_HAL_Driver/Inc/stm32f1xx_ll_rcc.h ****   * @retval State of bit (1 or 0).
 991:Drivers/STM32F1xx_HAL_Driver/Inc/stm32f1xx_ll_rcc.h ****   */
 992:Drivers/STM32F1xx_HAL_Driver/Inc/stm32f1xx_ll_rcc.h **** __STATIC_INLINE uint32_t LL_RCC_LSI_IsReady(void)
 993:Drivers/STM32F1xx_HAL_Driver/Inc/stm32f1xx_ll_rcc.h **** {
 994:Drivers/STM32F1xx_HAL_Driver/Inc/stm32f1xx_ll_rcc.h ****   return (READ_BIT(RCC->CSR, RCC_CSR_LSIRDY) == (RCC_CSR_LSIRDY));
 995:Drivers/STM32F1xx_HAL_Driver/Inc/stm32f1xx_ll_rcc.h **** }
 996:Drivers/STM32F1xx_HAL_Driver/Inc/stm32f1xx_ll_rcc.h **** 
 997:Drivers/STM32F1xx_HAL_Driver/Inc/stm32f1xx_ll_rcc.h **** /**
 998:Drivers/STM32F1xx_HAL_Driver/Inc/stm32f1xx_ll_rcc.h ****   * @}
 999:Drivers/STM32F1xx_HAL_Driver/Inc/stm32f1xx_ll_rcc.h ****   */
1000:Drivers/STM32F1xx_HAL_Driver/Inc/stm32f1xx_ll_rcc.h **** 
1001:Drivers/STM32F1xx_HAL_Driver/Inc/stm32f1xx_ll_rcc.h **** /** @defgroup RCC_LL_EF_System System
1002:Drivers/STM32F1xx_HAL_Driver/Inc/stm32f1xx_ll_rcc.h ****   * @{
1003:Drivers/STM32F1xx_HAL_Driver/Inc/stm32f1xx_ll_rcc.h ****   */
1004:Drivers/STM32F1xx_HAL_Driver/Inc/stm32f1xx_ll_rcc.h **** 
1005:Drivers/STM32F1xx_HAL_Driver/Inc/stm32f1xx_ll_rcc.h **** /**
1006:Drivers/STM32F1xx_HAL_Driver/Inc/stm32f1xx_ll_rcc.h ****   * @brief  Configure the system clock source
1007:Drivers/STM32F1xx_HAL_Driver/Inc/stm32f1xx_ll_rcc.h ****   * @rmtoll CFGR         SW            LL_RCC_SetSysClkSource
1008:Drivers/STM32F1xx_HAL_Driver/Inc/stm32f1xx_ll_rcc.h ****   * @param  Source This parameter can be one of the following values:
1009:Drivers/STM32F1xx_HAL_Driver/Inc/stm32f1xx_ll_rcc.h ****   *         @arg @ref LL_RCC_SYS_CLKSOURCE_HSI
1010:Drivers/STM32F1xx_HAL_Driver/Inc/stm32f1xx_ll_rcc.h ****   *         @arg @ref LL_RCC_SYS_CLKSOURCE_HSE
1011:Drivers/STM32F1xx_HAL_Driver/Inc/stm32f1xx_ll_rcc.h ****   *         @arg @ref LL_RCC_SYS_CLKSOURCE_PLL
1012:Drivers/STM32F1xx_HAL_Driver/Inc/stm32f1xx_ll_rcc.h ****   * @retval None
1013:Drivers/STM32F1xx_HAL_Driver/Inc/stm32f1xx_ll_rcc.h ****   */
1014:Drivers/STM32F1xx_HAL_Driver/Inc/stm32f1xx_ll_rcc.h **** __STATIC_INLINE void LL_RCC_SetSysClkSource(uint32_t Source)
1015:Drivers/STM32F1xx_HAL_Driver/Inc/stm32f1xx_ll_rcc.h **** {
1016:Drivers/STM32F1xx_HAL_Driver/Inc/stm32f1xx_ll_rcc.h ****   MODIFY_REG(RCC->CFGR, RCC_CFGR_SW, Source);
1017:Drivers/STM32F1xx_HAL_Driver/Inc/stm32f1xx_ll_rcc.h **** }
1018:Drivers/STM32F1xx_HAL_Driver/Inc/stm32f1xx_ll_rcc.h **** 
1019:Drivers/STM32F1xx_HAL_Driver/Inc/stm32f1xx_ll_rcc.h **** /**
1020:Drivers/STM32F1xx_HAL_Driver/Inc/stm32f1xx_ll_rcc.h ****   * @brief  Get the system clock source
1021:Drivers/STM32F1xx_HAL_Driver/Inc/stm32f1xx_ll_rcc.h ****   * @rmtoll CFGR         SWS           LL_RCC_GetSysClkSource
1022:Drivers/STM32F1xx_HAL_Driver/Inc/stm32f1xx_ll_rcc.h ****   * @retval Returned value can be one of the following values:
1023:Drivers/STM32F1xx_HAL_Driver/Inc/stm32f1xx_ll_rcc.h ****   *         @arg @ref LL_RCC_SYS_CLKSOURCE_STATUS_HSI
1024:Drivers/STM32F1xx_HAL_Driver/Inc/stm32f1xx_ll_rcc.h ****   *         @arg @ref LL_RCC_SYS_CLKSOURCE_STATUS_HSE
1025:Drivers/STM32F1xx_HAL_Driver/Inc/stm32f1xx_ll_rcc.h ****   *         @arg @ref LL_RCC_SYS_CLKSOURCE_STATUS_PLL
1026:Drivers/STM32F1xx_HAL_Driver/Inc/stm32f1xx_ll_rcc.h ****   */
ARM GAS  /var/folders/m1/3lv6xmzs0mlckxs4mx90nfb40000gn/T//ccNWxiXD.s 			page 31


1027:Drivers/STM32F1xx_HAL_Driver/Inc/stm32f1xx_ll_rcc.h **** __STATIC_INLINE uint32_t LL_RCC_GetSysClkSource(void)
1028:Drivers/STM32F1xx_HAL_Driver/Inc/stm32f1xx_ll_rcc.h **** {
1029:Drivers/STM32F1xx_HAL_Driver/Inc/stm32f1xx_ll_rcc.h ****   return (uint32_t)(READ_BIT(RCC->CFGR, RCC_CFGR_SWS));
1030:Drivers/STM32F1xx_HAL_Driver/Inc/stm32f1xx_ll_rcc.h **** }
1031:Drivers/STM32F1xx_HAL_Driver/Inc/stm32f1xx_ll_rcc.h **** 
1032:Drivers/STM32F1xx_HAL_Driver/Inc/stm32f1xx_ll_rcc.h **** /**
1033:Drivers/STM32F1xx_HAL_Driver/Inc/stm32f1xx_ll_rcc.h ****   * @brief  Set AHB prescaler
1034:Drivers/STM32F1xx_HAL_Driver/Inc/stm32f1xx_ll_rcc.h ****   * @rmtoll CFGR         HPRE          LL_RCC_SetAHBPrescaler
1035:Drivers/STM32F1xx_HAL_Driver/Inc/stm32f1xx_ll_rcc.h ****   * @param  Prescaler This parameter can be one of the following values:
1036:Drivers/STM32F1xx_HAL_Driver/Inc/stm32f1xx_ll_rcc.h ****   *         @arg @ref LL_RCC_SYSCLK_DIV_1
1037:Drivers/STM32F1xx_HAL_Driver/Inc/stm32f1xx_ll_rcc.h ****   *         @arg @ref LL_RCC_SYSCLK_DIV_2
1038:Drivers/STM32F1xx_HAL_Driver/Inc/stm32f1xx_ll_rcc.h ****   *         @arg @ref LL_RCC_SYSCLK_DIV_4
1039:Drivers/STM32F1xx_HAL_Driver/Inc/stm32f1xx_ll_rcc.h ****   *         @arg @ref LL_RCC_SYSCLK_DIV_8
1040:Drivers/STM32F1xx_HAL_Driver/Inc/stm32f1xx_ll_rcc.h ****   *         @arg @ref LL_RCC_SYSCLK_DIV_16
1041:Drivers/STM32F1xx_HAL_Driver/Inc/stm32f1xx_ll_rcc.h ****   *         @arg @ref LL_RCC_SYSCLK_DIV_64
1042:Drivers/STM32F1xx_HAL_Driver/Inc/stm32f1xx_ll_rcc.h ****   *         @arg @ref LL_RCC_SYSCLK_DIV_128
1043:Drivers/STM32F1xx_HAL_Driver/Inc/stm32f1xx_ll_rcc.h ****   *         @arg @ref LL_RCC_SYSCLK_DIV_256
1044:Drivers/STM32F1xx_HAL_Driver/Inc/stm32f1xx_ll_rcc.h ****   *         @arg @ref LL_RCC_SYSCLK_DIV_512
1045:Drivers/STM32F1xx_HAL_Driver/Inc/stm32f1xx_ll_rcc.h ****   * @retval None
1046:Drivers/STM32F1xx_HAL_Driver/Inc/stm32f1xx_ll_rcc.h ****   */
1047:Drivers/STM32F1xx_HAL_Driver/Inc/stm32f1xx_ll_rcc.h **** __STATIC_INLINE void LL_RCC_SetAHBPrescaler(uint32_t Prescaler)
1048:Drivers/STM32F1xx_HAL_Driver/Inc/stm32f1xx_ll_rcc.h **** {
1049:Drivers/STM32F1xx_HAL_Driver/Inc/stm32f1xx_ll_rcc.h ****   MODIFY_REG(RCC->CFGR, RCC_CFGR_HPRE, Prescaler);
1050:Drivers/STM32F1xx_HAL_Driver/Inc/stm32f1xx_ll_rcc.h **** }
1051:Drivers/STM32F1xx_HAL_Driver/Inc/stm32f1xx_ll_rcc.h **** 
1052:Drivers/STM32F1xx_HAL_Driver/Inc/stm32f1xx_ll_rcc.h **** /**
1053:Drivers/STM32F1xx_HAL_Driver/Inc/stm32f1xx_ll_rcc.h ****   * @brief  Set APB1 prescaler
1054:Drivers/STM32F1xx_HAL_Driver/Inc/stm32f1xx_ll_rcc.h ****   * @rmtoll CFGR         PPRE1         LL_RCC_SetAPB1Prescaler
1055:Drivers/STM32F1xx_HAL_Driver/Inc/stm32f1xx_ll_rcc.h ****   * @param  Prescaler This parameter can be one of the following values:
1056:Drivers/STM32F1xx_HAL_Driver/Inc/stm32f1xx_ll_rcc.h ****   *         @arg @ref LL_RCC_APB1_DIV_1
1057:Drivers/STM32F1xx_HAL_Driver/Inc/stm32f1xx_ll_rcc.h ****   *         @arg @ref LL_RCC_APB1_DIV_2
1058:Drivers/STM32F1xx_HAL_Driver/Inc/stm32f1xx_ll_rcc.h ****   *         @arg @ref LL_RCC_APB1_DIV_4
1059:Drivers/STM32F1xx_HAL_Driver/Inc/stm32f1xx_ll_rcc.h ****   *         @arg @ref LL_RCC_APB1_DIV_8
1060:Drivers/STM32F1xx_HAL_Driver/Inc/stm32f1xx_ll_rcc.h ****   *         @arg @ref LL_RCC_APB1_DIV_16
1061:Drivers/STM32F1xx_HAL_Driver/Inc/stm32f1xx_ll_rcc.h ****   * @retval None
1062:Drivers/STM32F1xx_HAL_Driver/Inc/stm32f1xx_ll_rcc.h ****   */
1063:Drivers/STM32F1xx_HAL_Driver/Inc/stm32f1xx_ll_rcc.h **** __STATIC_INLINE void LL_RCC_SetAPB1Prescaler(uint32_t Prescaler)
1064:Drivers/STM32F1xx_HAL_Driver/Inc/stm32f1xx_ll_rcc.h **** {
1065:Drivers/STM32F1xx_HAL_Driver/Inc/stm32f1xx_ll_rcc.h ****   MODIFY_REG(RCC->CFGR, RCC_CFGR_PPRE1, Prescaler);
1066:Drivers/STM32F1xx_HAL_Driver/Inc/stm32f1xx_ll_rcc.h **** }
1067:Drivers/STM32F1xx_HAL_Driver/Inc/stm32f1xx_ll_rcc.h **** 
1068:Drivers/STM32F1xx_HAL_Driver/Inc/stm32f1xx_ll_rcc.h **** /**
1069:Drivers/STM32F1xx_HAL_Driver/Inc/stm32f1xx_ll_rcc.h ****   * @brief  Set APB2 prescaler
1070:Drivers/STM32F1xx_HAL_Driver/Inc/stm32f1xx_ll_rcc.h ****   * @rmtoll CFGR         PPRE2         LL_RCC_SetAPB2Prescaler
1071:Drivers/STM32F1xx_HAL_Driver/Inc/stm32f1xx_ll_rcc.h ****   * @param  Prescaler This parameter can be one of the following values:
1072:Drivers/STM32F1xx_HAL_Driver/Inc/stm32f1xx_ll_rcc.h ****   *         @arg @ref LL_RCC_APB2_DIV_1
1073:Drivers/STM32F1xx_HAL_Driver/Inc/stm32f1xx_ll_rcc.h ****   *         @arg @ref LL_RCC_APB2_DIV_2
1074:Drivers/STM32F1xx_HAL_Driver/Inc/stm32f1xx_ll_rcc.h ****   *         @arg @ref LL_RCC_APB2_DIV_4
1075:Drivers/STM32F1xx_HAL_Driver/Inc/stm32f1xx_ll_rcc.h ****   *         @arg @ref LL_RCC_APB2_DIV_8
1076:Drivers/STM32F1xx_HAL_Driver/Inc/stm32f1xx_ll_rcc.h ****   *         @arg @ref LL_RCC_APB2_DIV_16
1077:Drivers/STM32F1xx_HAL_Driver/Inc/stm32f1xx_ll_rcc.h ****   * @retval None
1078:Drivers/STM32F1xx_HAL_Driver/Inc/stm32f1xx_ll_rcc.h ****   */
1079:Drivers/STM32F1xx_HAL_Driver/Inc/stm32f1xx_ll_rcc.h **** __STATIC_INLINE void LL_RCC_SetAPB2Prescaler(uint32_t Prescaler)
1080:Drivers/STM32F1xx_HAL_Driver/Inc/stm32f1xx_ll_rcc.h **** {
1081:Drivers/STM32F1xx_HAL_Driver/Inc/stm32f1xx_ll_rcc.h ****   MODIFY_REG(RCC->CFGR, RCC_CFGR_PPRE2, Prescaler);
1082:Drivers/STM32F1xx_HAL_Driver/Inc/stm32f1xx_ll_rcc.h **** }
1083:Drivers/STM32F1xx_HAL_Driver/Inc/stm32f1xx_ll_rcc.h **** 
ARM GAS  /var/folders/m1/3lv6xmzs0mlckxs4mx90nfb40000gn/T//ccNWxiXD.s 			page 32


1084:Drivers/STM32F1xx_HAL_Driver/Inc/stm32f1xx_ll_rcc.h **** /**
1085:Drivers/STM32F1xx_HAL_Driver/Inc/stm32f1xx_ll_rcc.h ****   * @brief  Get AHB prescaler
1086:Drivers/STM32F1xx_HAL_Driver/Inc/stm32f1xx_ll_rcc.h ****   * @rmtoll CFGR         HPRE          LL_RCC_GetAHBPrescaler
1087:Drivers/STM32F1xx_HAL_Driver/Inc/stm32f1xx_ll_rcc.h ****   * @retval Returned value can be one of the following values:
1088:Drivers/STM32F1xx_HAL_Driver/Inc/stm32f1xx_ll_rcc.h ****   *         @arg @ref LL_RCC_SYSCLK_DIV_1
1089:Drivers/STM32F1xx_HAL_Driver/Inc/stm32f1xx_ll_rcc.h ****   *         @arg @ref LL_RCC_SYSCLK_DIV_2
1090:Drivers/STM32F1xx_HAL_Driver/Inc/stm32f1xx_ll_rcc.h ****   *         @arg @ref LL_RCC_SYSCLK_DIV_4
1091:Drivers/STM32F1xx_HAL_Driver/Inc/stm32f1xx_ll_rcc.h ****   *         @arg @ref LL_RCC_SYSCLK_DIV_8
1092:Drivers/STM32F1xx_HAL_Driver/Inc/stm32f1xx_ll_rcc.h ****   *         @arg @ref LL_RCC_SYSCLK_DIV_16
1093:Drivers/STM32F1xx_HAL_Driver/Inc/stm32f1xx_ll_rcc.h ****   *         @arg @ref LL_RCC_SYSCLK_DIV_64
1094:Drivers/STM32F1xx_HAL_Driver/Inc/stm32f1xx_ll_rcc.h ****   *         @arg @ref LL_RCC_SYSCLK_DIV_128
1095:Drivers/STM32F1xx_HAL_Driver/Inc/stm32f1xx_ll_rcc.h ****   *         @arg @ref LL_RCC_SYSCLK_DIV_256
1096:Drivers/STM32F1xx_HAL_Driver/Inc/stm32f1xx_ll_rcc.h ****   *         @arg @ref LL_RCC_SYSCLK_DIV_512
1097:Drivers/STM32F1xx_HAL_Driver/Inc/stm32f1xx_ll_rcc.h ****   */
1098:Drivers/STM32F1xx_HAL_Driver/Inc/stm32f1xx_ll_rcc.h **** __STATIC_INLINE uint32_t LL_RCC_GetAHBPrescaler(void)
1099:Drivers/STM32F1xx_HAL_Driver/Inc/stm32f1xx_ll_rcc.h **** {
1100:Drivers/STM32F1xx_HAL_Driver/Inc/stm32f1xx_ll_rcc.h ****   return (uint32_t)(READ_BIT(RCC->CFGR, RCC_CFGR_HPRE));
1101:Drivers/STM32F1xx_HAL_Driver/Inc/stm32f1xx_ll_rcc.h **** }
1102:Drivers/STM32F1xx_HAL_Driver/Inc/stm32f1xx_ll_rcc.h **** 
1103:Drivers/STM32F1xx_HAL_Driver/Inc/stm32f1xx_ll_rcc.h **** /**
1104:Drivers/STM32F1xx_HAL_Driver/Inc/stm32f1xx_ll_rcc.h ****   * @brief  Get APB1 prescaler
1105:Drivers/STM32F1xx_HAL_Driver/Inc/stm32f1xx_ll_rcc.h ****   * @rmtoll CFGR         PPRE1         LL_RCC_GetAPB1Prescaler
1106:Drivers/STM32F1xx_HAL_Driver/Inc/stm32f1xx_ll_rcc.h ****   * @retval Returned value can be one of the following values:
1107:Drivers/STM32F1xx_HAL_Driver/Inc/stm32f1xx_ll_rcc.h ****   *         @arg @ref LL_RCC_APB1_DIV_1
1108:Drivers/STM32F1xx_HAL_Driver/Inc/stm32f1xx_ll_rcc.h ****   *         @arg @ref LL_RCC_APB1_DIV_2
1109:Drivers/STM32F1xx_HAL_Driver/Inc/stm32f1xx_ll_rcc.h ****   *         @arg @ref LL_RCC_APB1_DIV_4
1110:Drivers/STM32F1xx_HAL_Driver/Inc/stm32f1xx_ll_rcc.h ****   *         @arg @ref LL_RCC_APB1_DIV_8
1111:Drivers/STM32F1xx_HAL_Driver/Inc/stm32f1xx_ll_rcc.h ****   *         @arg @ref LL_RCC_APB1_DIV_16
1112:Drivers/STM32F1xx_HAL_Driver/Inc/stm32f1xx_ll_rcc.h ****   */
1113:Drivers/STM32F1xx_HAL_Driver/Inc/stm32f1xx_ll_rcc.h **** __STATIC_INLINE uint32_t LL_RCC_GetAPB1Prescaler(void)
1114:Drivers/STM32F1xx_HAL_Driver/Inc/stm32f1xx_ll_rcc.h **** {
1115:Drivers/STM32F1xx_HAL_Driver/Inc/stm32f1xx_ll_rcc.h ****   return (uint32_t)(READ_BIT(RCC->CFGR, RCC_CFGR_PPRE1));
1116:Drivers/STM32F1xx_HAL_Driver/Inc/stm32f1xx_ll_rcc.h **** }
1117:Drivers/STM32F1xx_HAL_Driver/Inc/stm32f1xx_ll_rcc.h **** 
1118:Drivers/STM32F1xx_HAL_Driver/Inc/stm32f1xx_ll_rcc.h **** /**
1119:Drivers/STM32F1xx_HAL_Driver/Inc/stm32f1xx_ll_rcc.h ****   * @brief  Get APB2 prescaler
1120:Drivers/STM32F1xx_HAL_Driver/Inc/stm32f1xx_ll_rcc.h ****   * @rmtoll CFGR         PPRE2         LL_RCC_GetAPB2Prescaler
1121:Drivers/STM32F1xx_HAL_Driver/Inc/stm32f1xx_ll_rcc.h ****   * @retval Returned value can be one of the following values:
1122:Drivers/STM32F1xx_HAL_Driver/Inc/stm32f1xx_ll_rcc.h ****   *         @arg @ref LL_RCC_APB2_DIV_1
1123:Drivers/STM32F1xx_HAL_Driver/Inc/stm32f1xx_ll_rcc.h ****   *         @arg @ref LL_RCC_APB2_DIV_2
1124:Drivers/STM32F1xx_HAL_Driver/Inc/stm32f1xx_ll_rcc.h ****   *         @arg @ref LL_RCC_APB2_DIV_4
1125:Drivers/STM32F1xx_HAL_Driver/Inc/stm32f1xx_ll_rcc.h ****   *         @arg @ref LL_RCC_APB2_DIV_8
1126:Drivers/STM32F1xx_HAL_Driver/Inc/stm32f1xx_ll_rcc.h ****   *         @arg @ref LL_RCC_APB2_DIV_16
1127:Drivers/STM32F1xx_HAL_Driver/Inc/stm32f1xx_ll_rcc.h ****   */
1128:Drivers/STM32F1xx_HAL_Driver/Inc/stm32f1xx_ll_rcc.h **** __STATIC_INLINE uint32_t LL_RCC_GetAPB2Prescaler(void)
1129:Drivers/STM32F1xx_HAL_Driver/Inc/stm32f1xx_ll_rcc.h **** {
1130:Drivers/STM32F1xx_HAL_Driver/Inc/stm32f1xx_ll_rcc.h ****   return (uint32_t)(READ_BIT(RCC->CFGR, RCC_CFGR_PPRE2));
1131:Drivers/STM32F1xx_HAL_Driver/Inc/stm32f1xx_ll_rcc.h **** }
1132:Drivers/STM32F1xx_HAL_Driver/Inc/stm32f1xx_ll_rcc.h **** 
1133:Drivers/STM32F1xx_HAL_Driver/Inc/stm32f1xx_ll_rcc.h **** /**
1134:Drivers/STM32F1xx_HAL_Driver/Inc/stm32f1xx_ll_rcc.h ****   * @}
1135:Drivers/STM32F1xx_HAL_Driver/Inc/stm32f1xx_ll_rcc.h ****   */
1136:Drivers/STM32F1xx_HAL_Driver/Inc/stm32f1xx_ll_rcc.h **** 
1137:Drivers/STM32F1xx_HAL_Driver/Inc/stm32f1xx_ll_rcc.h **** /** @defgroup RCC_LL_EF_MCO MCO
1138:Drivers/STM32F1xx_HAL_Driver/Inc/stm32f1xx_ll_rcc.h ****   * @{
1139:Drivers/STM32F1xx_HAL_Driver/Inc/stm32f1xx_ll_rcc.h ****   */
1140:Drivers/STM32F1xx_HAL_Driver/Inc/stm32f1xx_ll_rcc.h **** 
ARM GAS  /var/folders/m1/3lv6xmzs0mlckxs4mx90nfb40000gn/T//ccNWxiXD.s 			page 33


1141:Drivers/STM32F1xx_HAL_Driver/Inc/stm32f1xx_ll_rcc.h **** /**
1142:Drivers/STM32F1xx_HAL_Driver/Inc/stm32f1xx_ll_rcc.h ****   * @brief  Configure MCOx
1143:Drivers/STM32F1xx_HAL_Driver/Inc/stm32f1xx_ll_rcc.h ****   * @rmtoll CFGR         MCO           LL_RCC_ConfigMCO
1144:Drivers/STM32F1xx_HAL_Driver/Inc/stm32f1xx_ll_rcc.h ****   * @param  MCOxSource This parameter can be one of the following values:
1145:Drivers/STM32F1xx_HAL_Driver/Inc/stm32f1xx_ll_rcc.h ****   *         @arg @ref LL_RCC_MCO1SOURCE_NOCLOCK
1146:Drivers/STM32F1xx_HAL_Driver/Inc/stm32f1xx_ll_rcc.h ****   *         @arg @ref LL_RCC_MCO1SOURCE_SYSCLK
1147:Drivers/STM32F1xx_HAL_Driver/Inc/stm32f1xx_ll_rcc.h ****   *         @arg @ref LL_RCC_MCO1SOURCE_HSI
1148:Drivers/STM32F1xx_HAL_Driver/Inc/stm32f1xx_ll_rcc.h ****   *         @arg @ref LL_RCC_MCO1SOURCE_HSE
1149:Drivers/STM32F1xx_HAL_Driver/Inc/stm32f1xx_ll_rcc.h ****   *         @arg @ref LL_RCC_MCO1SOURCE_PLLCLK_DIV_2
1150:Drivers/STM32F1xx_HAL_Driver/Inc/stm32f1xx_ll_rcc.h ****   *         @arg @ref LL_RCC_MCO1SOURCE_PLL2CLK (*)
1151:Drivers/STM32F1xx_HAL_Driver/Inc/stm32f1xx_ll_rcc.h ****   *         @arg @ref LL_RCC_MCO1SOURCE_PLLI2SCLK_DIV2 (*)
1152:Drivers/STM32F1xx_HAL_Driver/Inc/stm32f1xx_ll_rcc.h ****   *         @arg @ref LL_RCC_MCO1SOURCE_EXT_HSE (*)
1153:Drivers/STM32F1xx_HAL_Driver/Inc/stm32f1xx_ll_rcc.h ****   *         @arg @ref LL_RCC_MCO1SOURCE_PLLI2SCLK (*)
1154:Drivers/STM32F1xx_HAL_Driver/Inc/stm32f1xx_ll_rcc.h ****   *
1155:Drivers/STM32F1xx_HAL_Driver/Inc/stm32f1xx_ll_rcc.h ****   *         (*) value not defined in all devices
1156:Drivers/STM32F1xx_HAL_Driver/Inc/stm32f1xx_ll_rcc.h ****   * @retval None
1157:Drivers/STM32F1xx_HAL_Driver/Inc/stm32f1xx_ll_rcc.h ****   */
1158:Drivers/STM32F1xx_HAL_Driver/Inc/stm32f1xx_ll_rcc.h **** __STATIC_INLINE void LL_RCC_ConfigMCO(uint32_t MCOxSource)
1159:Drivers/STM32F1xx_HAL_Driver/Inc/stm32f1xx_ll_rcc.h **** {
1160:Drivers/STM32F1xx_HAL_Driver/Inc/stm32f1xx_ll_rcc.h ****   MODIFY_REG(RCC->CFGR, RCC_CFGR_MCOSEL, MCOxSource);
1161:Drivers/STM32F1xx_HAL_Driver/Inc/stm32f1xx_ll_rcc.h **** }
1162:Drivers/STM32F1xx_HAL_Driver/Inc/stm32f1xx_ll_rcc.h **** 
1163:Drivers/STM32F1xx_HAL_Driver/Inc/stm32f1xx_ll_rcc.h **** /**
1164:Drivers/STM32F1xx_HAL_Driver/Inc/stm32f1xx_ll_rcc.h ****   * @}
1165:Drivers/STM32F1xx_HAL_Driver/Inc/stm32f1xx_ll_rcc.h ****   */
1166:Drivers/STM32F1xx_HAL_Driver/Inc/stm32f1xx_ll_rcc.h **** 
1167:Drivers/STM32F1xx_HAL_Driver/Inc/stm32f1xx_ll_rcc.h **** /** @defgroup RCC_LL_EF_Peripheral_Clock_Source Peripheral Clock Source
1168:Drivers/STM32F1xx_HAL_Driver/Inc/stm32f1xx_ll_rcc.h ****   * @{
1169:Drivers/STM32F1xx_HAL_Driver/Inc/stm32f1xx_ll_rcc.h ****   */
1170:Drivers/STM32F1xx_HAL_Driver/Inc/stm32f1xx_ll_rcc.h **** 
1171:Drivers/STM32F1xx_HAL_Driver/Inc/stm32f1xx_ll_rcc.h **** #if defined(RCC_CFGR2_I2S2SRC)
1172:Drivers/STM32F1xx_HAL_Driver/Inc/stm32f1xx_ll_rcc.h **** /**
1173:Drivers/STM32F1xx_HAL_Driver/Inc/stm32f1xx_ll_rcc.h ****   * @brief  Configure I2Sx clock source
1174:Drivers/STM32F1xx_HAL_Driver/Inc/stm32f1xx_ll_rcc.h ****   * @rmtoll CFGR2        I2S2SRC       LL_RCC_SetI2SClockSource\n
1175:Drivers/STM32F1xx_HAL_Driver/Inc/stm32f1xx_ll_rcc.h ****   *         CFGR2        I2S3SRC       LL_RCC_SetI2SClockSource
1176:Drivers/STM32F1xx_HAL_Driver/Inc/stm32f1xx_ll_rcc.h ****   * @param  I2SxSource This parameter can be one of the following values:
1177:Drivers/STM32F1xx_HAL_Driver/Inc/stm32f1xx_ll_rcc.h ****   *         @arg @ref LL_RCC_I2S2_CLKSOURCE_SYSCLK
1178:Drivers/STM32F1xx_HAL_Driver/Inc/stm32f1xx_ll_rcc.h ****   *         @arg @ref LL_RCC_I2S2_CLKSOURCE_PLLI2S_VCO
1179:Drivers/STM32F1xx_HAL_Driver/Inc/stm32f1xx_ll_rcc.h ****   *         @arg @ref LL_RCC_I2S3_CLKSOURCE_SYSCLK
1180:Drivers/STM32F1xx_HAL_Driver/Inc/stm32f1xx_ll_rcc.h ****   *         @arg @ref LL_RCC_I2S3_CLKSOURCE_PLLI2S_VCO
1181:Drivers/STM32F1xx_HAL_Driver/Inc/stm32f1xx_ll_rcc.h ****   * @retval None
1182:Drivers/STM32F1xx_HAL_Driver/Inc/stm32f1xx_ll_rcc.h ****   */
1183:Drivers/STM32F1xx_HAL_Driver/Inc/stm32f1xx_ll_rcc.h **** __STATIC_INLINE void LL_RCC_SetI2SClockSource(uint32_t I2SxSource)
1184:Drivers/STM32F1xx_HAL_Driver/Inc/stm32f1xx_ll_rcc.h **** {
1185:Drivers/STM32F1xx_HAL_Driver/Inc/stm32f1xx_ll_rcc.h ****   MODIFY_REG(RCC->CFGR2, (I2SxSource & 0xFFFF0000U), (I2SxSource << 16U));
1186:Drivers/STM32F1xx_HAL_Driver/Inc/stm32f1xx_ll_rcc.h **** }
1187:Drivers/STM32F1xx_HAL_Driver/Inc/stm32f1xx_ll_rcc.h **** #endif /* RCC_CFGR2_I2S2SRC */
1188:Drivers/STM32F1xx_HAL_Driver/Inc/stm32f1xx_ll_rcc.h **** 
1189:Drivers/STM32F1xx_HAL_Driver/Inc/stm32f1xx_ll_rcc.h **** #if defined(USB_OTG_FS) || defined(USB)
1190:Drivers/STM32F1xx_HAL_Driver/Inc/stm32f1xx_ll_rcc.h **** /**
1191:Drivers/STM32F1xx_HAL_Driver/Inc/stm32f1xx_ll_rcc.h ****   * @brief  Configure USB clock source
1192:Drivers/STM32F1xx_HAL_Driver/Inc/stm32f1xx_ll_rcc.h ****   * @rmtoll CFGR         OTGFSPRE      LL_RCC_SetUSBClockSource\n
1193:Drivers/STM32F1xx_HAL_Driver/Inc/stm32f1xx_ll_rcc.h ****   *         CFGR         USBPRE        LL_RCC_SetUSBClockSource
1194:Drivers/STM32F1xx_HAL_Driver/Inc/stm32f1xx_ll_rcc.h ****   * @param  USBxSource This parameter can be one of the following values:
1195:Drivers/STM32F1xx_HAL_Driver/Inc/stm32f1xx_ll_rcc.h ****   *         @arg @ref LL_RCC_USB_CLKSOURCE_PLL (*)
1196:Drivers/STM32F1xx_HAL_Driver/Inc/stm32f1xx_ll_rcc.h ****   *         @arg @ref LL_RCC_USB_CLKSOURCE_PLL_DIV_1_5 (*)
1197:Drivers/STM32F1xx_HAL_Driver/Inc/stm32f1xx_ll_rcc.h ****   *         @arg @ref LL_RCC_USB_CLKSOURCE_PLL_DIV_2 (*)
ARM GAS  /var/folders/m1/3lv6xmzs0mlckxs4mx90nfb40000gn/T//ccNWxiXD.s 			page 34


1198:Drivers/STM32F1xx_HAL_Driver/Inc/stm32f1xx_ll_rcc.h ****   *         @arg @ref LL_RCC_USB_CLKSOURCE_PLL_DIV_3 (*)
1199:Drivers/STM32F1xx_HAL_Driver/Inc/stm32f1xx_ll_rcc.h ****   *
1200:Drivers/STM32F1xx_HAL_Driver/Inc/stm32f1xx_ll_rcc.h ****   *         (*) value not defined in all devices
1201:Drivers/STM32F1xx_HAL_Driver/Inc/stm32f1xx_ll_rcc.h ****   * @retval None
1202:Drivers/STM32F1xx_HAL_Driver/Inc/stm32f1xx_ll_rcc.h ****   */
1203:Drivers/STM32F1xx_HAL_Driver/Inc/stm32f1xx_ll_rcc.h **** __STATIC_INLINE void LL_RCC_SetUSBClockSource(uint32_t USBxSource)
1204:Drivers/STM32F1xx_HAL_Driver/Inc/stm32f1xx_ll_rcc.h **** {
1205:Drivers/STM32F1xx_HAL_Driver/Inc/stm32f1xx_ll_rcc.h **** #if defined(RCC_CFGR_USBPRE)
1206:Drivers/STM32F1xx_HAL_Driver/Inc/stm32f1xx_ll_rcc.h ****   MODIFY_REG(RCC->CFGR, RCC_CFGR_USBPRE, USBxSource);
1207:Drivers/STM32F1xx_HAL_Driver/Inc/stm32f1xx_ll_rcc.h **** #else /*RCC_CFGR_OTGFSPRE*/
1208:Drivers/STM32F1xx_HAL_Driver/Inc/stm32f1xx_ll_rcc.h ****   MODIFY_REG(RCC->CFGR, RCC_CFGR_OTGFSPRE, USBxSource);
1209:Drivers/STM32F1xx_HAL_Driver/Inc/stm32f1xx_ll_rcc.h **** #endif /*RCC_CFGR_USBPRE*/
1210:Drivers/STM32F1xx_HAL_Driver/Inc/stm32f1xx_ll_rcc.h **** }
1211:Drivers/STM32F1xx_HAL_Driver/Inc/stm32f1xx_ll_rcc.h **** #endif /* USB_OTG_FS || USB */
1212:Drivers/STM32F1xx_HAL_Driver/Inc/stm32f1xx_ll_rcc.h **** 
1213:Drivers/STM32F1xx_HAL_Driver/Inc/stm32f1xx_ll_rcc.h **** /**
1214:Drivers/STM32F1xx_HAL_Driver/Inc/stm32f1xx_ll_rcc.h ****   * @brief  Configure ADC clock source
1215:Drivers/STM32F1xx_HAL_Driver/Inc/stm32f1xx_ll_rcc.h ****   * @rmtoll CFGR         ADCPRE        LL_RCC_SetADCClockSource
1216:Drivers/STM32F1xx_HAL_Driver/Inc/stm32f1xx_ll_rcc.h ****   * @param  ADCxSource This parameter can be one of the following values:
1217:Drivers/STM32F1xx_HAL_Driver/Inc/stm32f1xx_ll_rcc.h ****   *         @arg @ref LL_RCC_ADC_CLKSRC_PCLK2_DIV_2
1218:Drivers/STM32F1xx_HAL_Driver/Inc/stm32f1xx_ll_rcc.h ****   *         @arg @ref LL_RCC_ADC_CLKSRC_PCLK2_DIV_4
1219:Drivers/STM32F1xx_HAL_Driver/Inc/stm32f1xx_ll_rcc.h ****   *         @arg @ref LL_RCC_ADC_CLKSRC_PCLK2_DIV_6
1220:Drivers/STM32F1xx_HAL_Driver/Inc/stm32f1xx_ll_rcc.h ****   *         @arg @ref LL_RCC_ADC_CLKSRC_PCLK2_DIV_8
1221:Drivers/STM32F1xx_HAL_Driver/Inc/stm32f1xx_ll_rcc.h ****   * @retval None
1222:Drivers/STM32F1xx_HAL_Driver/Inc/stm32f1xx_ll_rcc.h ****   */
1223:Drivers/STM32F1xx_HAL_Driver/Inc/stm32f1xx_ll_rcc.h **** __STATIC_INLINE void LL_RCC_SetADCClockSource(uint32_t ADCxSource)
1224:Drivers/STM32F1xx_HAL_Driver/Inc/stm32f1xx_ll_rcc.h **** {
1225:Drivers/STM32F1xx_HAL_Driver/Inc/stm32f1xx_ll_rcc.h ****   MODIFY_REG(RCC->CFGR, RCC_CFGR_ADCPRE, ADCxSource);
1226:Drivers/STM32F1xx_HAL_Driver/Inc/stm32f1xx_ll_rcc.h **** }
1227:Drivers/STM32F1xx_HAL_Driver/Inc/stm32f1xx_ll_rcc.h **** 
1228:Drivers/STM32F1xx_HAL_Driver/Inc/stm32f1xx_ll_rcc.h **** #if defined(RCC_CFGR2_I2S2SRC)
1229:Drivers/STM32F1xx_HAL_Driver/Inc/stm32f1xx_ll_rcc.h **** /**
1230:Drivers/STM32F1xx_HAL_Driver/Inc/stm32f1xx_ll_rcc.h ****   * @brief  Get I2Sx clock source
1231:Drivers/STM32F1xx_HAL_Driver/Inc/stm32f1xx_ll_rcc.h ****   * @rmtoll CFGR2        I2S2SRC       LL_RCC_GetI2SClockSource\n
1232:Drivers/STM32F1xx_HAL_Driver/Inc/stm32f1xx_ll_rcc.h ****   *         CFGR2        I2S3SRC       LL_RCC_GetI2SClockSource
1233:Drivers/STM32F1xx_HAL_Driver/Inc/stm32f1xx_ll_rcc.h ****   * @param  I2Sx This parameter can be one of the following values:
1234:Drivers/STM32F1xx_HAL_Driver/Inc/stm32f1xx_ll_rcc.h ****   *         @arg @ref LL_RCC_I2S2_CLKSOURCE
1235:Drivers/STM32F1xx_HAL_Driver/Inc/stm32f1xx_ll_rcc.h ****   *         @arg @ref LL_RCC_I2S3_CLKSOURCE
1236:Drivers/STM32F1xx_HAL_Driver/Inc/stm32f1xx_ll_rcc.h ****   * @retval Returned value can be one of the following values:
1237:Drivers/STM32F1xx_HAL_Driver/Inc/stm32f1xx_ll_rcc.h ****   *         @arg @ref LL_RCC_I2S2_CLKSOURCE_SYSCLK
1238:Drivers/STM32F1xx_HAL_Driver/Inc/stm32f1xx_ll_rcc.h ****   *         @arg @ref LL_RCC_I2S2_CLKSOURCE_PLLI2S_VCO
1239:Drivers/STM32F1xx_HAL_Driver/Inc/stm32f1xx_ll_rcc.h ****   *         @arg @ref LL_RCC_I2S3_CLKSOURCE_SYSCLK
1240:Drivers/STM32F1xx_HAL_Driver/Inc/stm32f1xx_ll_rcc.h ****   *         @arg @ref LL_RCC_I2S3_CLKSOURCE_PLLI2S_VCO
1241:Drivers/STM32F1xx_HAL_Driver/Inc/stm32f1xx_ll_rcc.h ****   */
1242:Drivers/STM32F1xx_HAL_Driver/Inc/stm32f1xx_ll_rcc.h **** __STATIC_INLINE uint32_t LL_RCC_GetI2SClockSource(uint32_t I2Sx)
1243:Drivers/STM32F1xx_HAL_Driver/Inc/stm32f1xx_ll_rcc.h **** {
1244:Drivers/STM32F1xx_HAL_Driver/Inc/stm32f1xx_ll_rcc.h ****   return (uint32_t)(READ_BIT(RCC->CFGR2, I2Sx) >> 16U | I2Sx);
1245:Drivers/STM32F1xx_HAL_Driver/Inc/stm32f1xx_ll_rcc.h **** }
1246:Drivers/STM32F1xx_HAL_Driver/Inc/stm32f1xx_ll_rcc.h **** #endif /* RCC_CFGR2_I2S2SRC */
1247:Drivers/STM32F1xx_HAL_Driver/Inc/stm32f1xx_ll_rcc.h **** 
1248:Drivers/STM32F1xx_HAL_Driver/Inc/stm32f1xx_ll_rcc.h **** #if defined(USB_OTG_FS) || defined(USB)
1249:Drivers/STM32F1xx_HAL_Driver/Inc/stm32f1xx_ll_rcc.h **** /**
1250:Drivers/STM32F1xx_HAL_Driver/Inc/stm32f1xx_ll_rcc.h ****   * @brief  Get USBx clock source
1251:Drivers/STM32F1xx_HAL_Driver/Inc/stm32f1xx_ll_rcc.h ****   * @rmtoll CFGR         OTGFSPRE      LL_RCC_GetUSBClockSource\n
1252:Drivers/STM32F1xx_HAL_Driver/Inc/stm32f1xx_ll_rcc.h ****   *         CFGR         USBPRE        LL_RCC_GetUSBClockSource
1253:Drivers/STM32F1xx_HAL_Driver/Inc/stm32f1xx_ll_rcc.h ****   * @param  USBx This parameter can be one of the following values:
1254:Drivers/STM32F1xx_HAL_Driver/Inc/stm32f1xx_ll_rcc.h ****   *         @arg @ref LL_RCC_USB_CLKSOURCE
ARM GAS  /var/folders/m1/3lv6xmzs0mlckxs4mx90nfb40000gn/T//ccNWxiXD.s 			page 35


1255:Drivers/STM32F1xx_HAL_Driver/Inc/stm32f1xx_ll_rcc.h ****   * @retval Returned value can be one of the following values:
1256:Drivers/STM32F1xx_HAL_Driver/Inc/stm32f1xx_ll_rcc.h ****   *         @arg @ref LL_RCC_USB_CLKSOURCE_PLL (*)
1257:Drivers/STM32F1xx_HAL_Driver/Inc/stm32f1xx_ll_rcc.h ****   *         @arg @ref LL_RCC_USB_CLKSOURCE_PLL_DIV_1_5 (*)
1258:Drivers/STM32F1xx_HAL_Driver/Inc/stm32f1xx_ll_rcc.h ****   *         @arg @ref LL_RCC_USB_CLKSOURCE_PLL_DIV_2 (*)
1259:Drivers/STM32F1xx_HAL_Driver/Inc/stm32f1xx_ll_rcc.h ****   *         @arg @ref LL_RCC_USB_CLKSOURCE_PLL_DIV_3 (*)
1260:Drivers/STM32F1xx_HAL_Driver/Inc/stm32f1xx_ll_rcc.h ****   *
1261:Drivers/STM32F1xx_HAL_Driver/Inc/stm32f1xx_ll_rcc.h ****   *         (*) value not defined in all devices
1262:Drivers/STM32F1xx_HAL_Driver/Inc/stm32f1xx_ll_rcc.h ****   */
1263:Drivers/STM32F1xx_HAL_Driver/Inc/stm32f1xx_ll_rcc.h **** __STATIC_INLINE uint32_t LL_RCC_GetUSBClockSource(uint32_t USBx)
1264:Drivers/STM32F1xx_HAL_Driver/Inc/stm32f1xx_ll_rcc.h **** {
1265:Drivers/STM32F1xx_HAL_Driver/Inc/stm32f1xx_ll_rcc.h ****   return (uint32_t)(READ_BIT(RCC->CFGR, USBx));
1266:Drivers/STM32F1xx_HAL_Driver/Inc/stm32f1xx_ll_rcc.h **** }
1267:Drivers/STM32F1xx_HAL_Driver/Inc/stm32f1xx_ll_rcc.h **** #endif /* USB_OTG_FS || USB */
1268:Drivers/STM32F1xx_HAL_Driver/Inc/stm32f1xx_ll_rcc.h **** 
1269:Drivers/STM32F1xx_HAL_Driver/Inc/stm32f1xx_ll_rcc.h **** /**
1270:Drivers/STM32F1xx_HAL_Driver/Inc/stm32f1xx_ll_rcc.h ****   * @brief  Get ADCx clock source
1271:Drivers/STM32F1xx_HAL_Driver/Inc/stm32f1xx_ll_rcc.h ****   * @rmtoll CFGR         ADCPRE        LL_RCC_GetADCClockSource
1272:Drivers/STM32F1xx_HAL_Driver/Inc/stm32f1xx_ll_rcc.h ****   * @param  ADCx This parameter can be one of the following values:
1273:Drivers/STM32F1xx_HAL_Driver/Inc/stm32f1xx_ll_rcc.h ****   *         @arg @ref LL_RCC_ADC_CLKSOURCE
1274:Drivers/STM32F1xx_HAL_Driver/Inc/stm32f1xx_ll_rcc.h ****   * @retval Returned value can be one of the following values:
1275:Drivers/STM32F1xx_HAL_Driver/Inc/stm32f1xx_ll_rcc.h ****   *         @arg @ref LL_RCC_ADC_CLKSRC_PCLK2_DIV_2
1276:Drivers/STM32F1xx_HAL_Driver/Inc/stm32f1xx_ll_rcc.h ****   *         @arg @ref LL_RCC_ADC_CLKSRC_PCLK2_DIV_4
1277:Drivers/STM32F1xx_HAL_Driver/Inc/stm32f1xx_ll_rcc.h ****   *         @arg @ref LL_RCC_ADC_CLKSRC_PCLK2_DIV_6
1278:Drivers/STM32F1xx_HAL_Driver/Inc/stm32f1xx_ll_rcc.h ****   *         @arg @ref LL_RCC_ADC_CLKSRC_PCLK2_DIV_8
1279:Drivers/STM32F1xx_HAL_Driver/Inc/stm32f1xx_ll_rcc.h ****   */
1280:Drivers/STM32F1xx_HAL_Driver/Inc/stm32f1xx_ll_rcc.h **** __STATIC_INLINE uint32_t LL_RCC_GetADCClockSource(uint32_t ADCx)
1281:Drivers/STM32F1xx_HAL_Driver/Inc/stm32f1xx_ll_rcc.h **** {
1282:Drivers/STM32F1xx_HAL_Driver/Inc/stm32f1xx_ll_rcc.h ****   return (uint32_t)(READ_BIT(RCC->CFGR, ADCx));
1283:Drivers/STM32F1xx_HAL_Driver/Inc/stm32f1xx_ll_rcc.h **** }
1284:Drivers/STM32F1xx_HAL_Driver/Inc/stm32f1xx_ll_rcc.h **** 
1285:Drivers/STM32F1xx_HAL_Driver/Inc/stm32f1xx_ll_rcc.h **** /**
1286:Drivers/STM32F1xx_HAL_Driver/Inc/stm32f1xx_ll_rcc.h ****   * @}
1287:Drivers/STM32F1xx_HAL_Driver/Inc/stm32f1xx_ll_rcc.h ****   */
1288:Drivers/STM32F1xx_HAL_Driver/Inc/stm32f1xx_ll_rcc.h **** 
1289:Drivers/STM32F1xx_HAL_Driver/Inc/stm32f1xx_ll_rcc.h **** /** @defgroup RCC_LL_EF_RTC RTC
1290:Drivers/STM32F1xx_HAL_Driver/Inc/stm32f1xx_ll_rcc.h ****   * @{
1291:Drivers/STM32F1xx_HAL_Driver/Inc/stm32f1xx_ll_rcc.h ****   */
1292:Drivers/STM32F1xx_HAL_Driver/Inc/stm32f1xx_ll_rcc.h **** 
1293:Drivers/STM32F1xx_HAL_Driver/Inc/stm32f1xx_ll_rcc.h **** /**
1294:Drivers/STM32F1xx_HAL_Driver/Inc/stm32f1xx_ll_rcc.h ****   * @brief  Set RTC Clock Source
1295:Drivers/STM32F1xx_HAL_Driver/Inc/stm32f1xx_ll_rcc.h ****   * @note Once the RTC clock source has been selected, it cannot be changed any more unless
1296:Drivers/STM32F1xx_HAL_Driver/Inc/stm32f1xx_ll_rcc.h ****   *       the Backup domain is reset. The BDRST bit can be used to reset them.
1297:Drivers/STM32F1xx_HAL_Driver/Inc/stm32f1xx_ll_rcc.h ****   * @rmtoll BDCR         RTCSEL        LL_RCC_SetRTCClockSource
1298:Drivers/STM32F1xx_HAL_Driver/Inc/stm32f1xx_ll_rcc.h ****   * @param  Source This parameter can be one of the following values:
1299:Drivers/STM32F1xx_HAL_Driver/Inc/stm32f1xx_ll_rcc.h ****   *         @arg @ref LL_RCC_RTC_CLKSOURCE_NONE
1300:Drivers/STM32F1xx_HAL_Driver/Inc/stm32f1xx_ll_rcc.h ****   *         @arg @ref LL_RCC_RTC_CLKSOURCE_LSE
1301:Drivers/STM32F1xx_HAL_Driver/Inc/stm32f1xx_ll_rcc.h ****   *         @arg @ref LL_RCC_RTC_CLKSOURCE_LSI
1302:Drivers/STM32F1xx_HAL_Driver/Inc/stm32f1xx_ll_rcc.h ****   *         @arg @ref LL_RCC_RTC_CLKSOURCE_HSE_DIV128
1303:Drivers/STM32F1xx_HAL_Driver/Inc/stm32f1xx_ll_rcc.h ****   * @retval None
1304:Drivers/STM32F1xx_HAL_Driver/Inc/stm32f1xx_ll_rcc.h ****   */
1305:Drivers/STM32F1xx_HAL_Driver/Inc/stm32f1xx_ll_rcc.h **** __STATIC_INLINE void LL_RCC_SetRTCClockSource(uint32_t Source)
1306:Drivers/STM32F1xx_HAL_Driver/Inc/stm32f1xx_ll_rcc.h **** {
1307:Drivers/STM32F1xx_HAL_Driver/Inc/stm32f1xx_ll_rcc.h ****   MODIFY_REG(RCC->BDCR, RCC_BDCR_RTCSEL, Source);
1308:Drivers/STM32F1xx_HAL_Driver/Inc/stm32f1xx_ll_rcc.h **** }
1309:Drivers/STM32F1xx_HAL_Driver/Inc/stm32f1xx_ll_rcc.h **** 
1310:Drivers/STM32F1xx_HAL_Driver/Inc/stm32f1xx_ll_rcc.h **** /**
1311:Drivers/STM32F1xx_HAL_Driver/Inc/stm32f1xx_ll_rcc.h ****   * @brief  Get RTC Clock Source
ARM GAS  /var/folders/m1/3lv6xmzs0mlckxs4mx90nfb40000gn/T//ccNWxiXD.s 			page 36


1312:Drivers/STM32F1xx_HAL_Driver/Inc/stm32f1xx_ll_rcc.h ****   * @rmtoll BDCR         RTCSEL        LL_RCC_GetRTCClockSource
1313:Drivers/STM32F1xx_HAL_Driver/Inc/stm32f1xx_ll_rcc.h ****   * @retval Returned value can be one of the following values:
1314:Drivers/STM32F1xx_HAL_Driver/Inc/stm32f1xx_ll_rcc.h ****   *         @arg @ref LL_RCC_RTC_CLKSOURCE_NONE
1315:Drivers/STM32F1xx_HAL_Driver/Inc/stm32f1xx_ll_rcc.h ****   *         @arg @ref LL_RCC_RTC_CLKSOURCE_LSE
1316:Drivers/STM32F1xx_HAL_Driver/Inc/stm32f1xx_ll_rcc.h ****   *         @arg @ref LL_RCC_RTC_CLKSOURCE_LSI
1317:Drivers/STM32F1xx_HAL_Driver/Inc/stm32f1xx_ll_rcc.h ****   *         @arg @ref LL_RCC_RTC_CLKSOURCE_HSE_DIV128
1318:Drivers/STM32F1xx_HAL_Driver/Inc/stm32f1xx_ll_rcc.h ****   */
1319:Drivers/STM32F1xx_HAL_Driver/Inc/stm32f1xx_ll_rcc.h **** __STATIC_INLINE uint32_t LL_RCC_GetRTCClockSource(void)
1320:Drivers/STM32F1xx_HAL_Driver/Inc/stm32f1xx_ll_rcc.h **** {
1321:Drivers/STM32F1xx_HAL_Driver/Inc/stm32f1xx_ll_rcc.h ****   return (uint32_t)(READ_BIT(RCC->BDCR, RCC_BDCR_RTCSEL));
1322:Drivers/STM32F1xx_HAL_Driver/Inc/stm32f1xx_ll_rcc.h **** }
1323:Drivers/STM32F1xx_HAL_Driver/Inc/stm32f1xx_ll_rcc.h **** 
1324:Drivers/STM32F1xx_HAL_Driver/Inc/stm32f1xx_ll_rcc.h **** /**
1325:Drivers/STM32F1xx_HAL_Driver/Inc/stm32f1xx_ll_rcc.h ****   * @brief  Enable RTC
1326:Drivers/STM32F1xx_HAL_Driver/Inc/stm32f1xx_ll_rcc.h ****   * @rmtoll BDCR         RTCEN         LL_RCC_EnableRTC
1327:Drivers/STM32F1xx_HAL_Driver/Inc/stm32f1xx_ll_rcc.h ****   * @retval None
1328:Drivers/STM32F1xx_HAL_Driver/Inc/stm32f1xx_ll_rcc.h ****   */
1329:Drivers/STM32F1xx_HAL_Driver/Inc/stm32f1xx_ll_rcc.h **** __STATIC_INLINE void LL_RCC_EnableRTC(void)
1330:Drivers/STM32F1xx_HAL_Driver/Inc/stm32f1xx_ll_rcc.h **** {
1331:Drivers/STM32F1xx_HAL_Driver/Inc/stm32f1xx_ll_rcc.h ****   SET_BIT(RCC->BDCR, RCC_BDCR_RTCEN);
1332:Drivers/STM32F1xx_HAL_Driver/Inc/stm32f1xx_ll_rcc.h **** }
1333:Drivers/STM32F1xx_HAL_Driver/Inc/stm32f1xx_ll_rcc.h **** 
1334:Drivers/STM32F1xx_HAL_Driver/Inc/stm32f1xx_ll_rcc.h **** /**
1335:Drivers/STM32F1xx_HAL_Driver/Inc/stm32f1xx_ll_rcc.h ****   * @brief  Disable RTC
1336:Drivers/STM32F1xx_HAL_Driver/Inc/stm32f1xx_ll_rcc.h ****   * @rmtoll BDCR         RTCEN         LL_RCC_DisableRTC
1337:Drivers/STM32F1xx_HAL_Driver/Inc/stm32f1xx_ll_rcc.h ****   * @retval None
1338:Drivers/STM32F1xx_HAL_Driver/Inc/stm32f1xx_ll_rcc.h ****   */
1339:Drivers/STM32F1xx_HAL_Driver/Inc/stm32f1xx_ll_rcc.h **** __STATIC_INLINE void LL_RCC_DisableRTC(void)
1340:Drivers/STM32F1xx_HAL_Driver/Inc/stm32f1xx_ll_rcc.h **** {
1341:Drivers/STM32F1xx_HAL_Driver/Inc/stm32f1xx_ll_rcc.h ****   CLEAR_BIT(RCC->BDCR, RCC_BDCR_RTCEN);
1342:Drivers/STM32F1xx_HAL_Driver/Inc/stm32f1xx_ll_rcc.h **** }
1343:Drivers/STM32F1xx_HAL_Driver/Inc/stm32f1xx_ll_rcc.h **** 
1344:Drivers/STM32F1xx_HAL_Driver/Inc/stm32f1xx_ll_rcc.h **** /**
1345:Drivers/STM32F1xx_HAL_Driver/Inc/stm32f1xx_ll_rcc.h ****   * @brief  Check if RTC has been enabled or not
1346:Drivers/STM32F1xx_HAL_Driver/Inc/stm32f1xx_ll_rcc.h ****   * @rmtoll BDCR         RTCEN         LL_RCC_IsEnabledRTC
1347:Drivers/STM32F1xx_HAL_Driver/Inc/stm32f1xx_ll_rcc.h ****   * @retval State of bit (1 or 0).
1348:Drivers/STM32F1xx_HAL_Driver/Inc/stm32f1xx_ll_rcc.h ****   */
1349:Drivers/STM32F1xx_HAL_Driver/Inc/stm32f1xx_ll_rcc.h **** __STATIC_INLINE uint32_t LL_RCC_IsEnabledRTC(void)
1350:Drivers/STM32F1xx_HAL_Driver/Inc/stm32f1xx_ll_rcc.h **** {
1351:Drivers/STM32F1xx_HAL_Driver/Inc/stm32f1xx_ll_rcc.h ****   return (READ_BIT(RCC->BDCR, RCC_BDCR_RTCEN) == (RCC_BDCR_RTCEN));
1352:Drivers/STM32F1xx_HAL_Driver/Inc/stm32f1xx_ll_rcc.h **** }
1353:Drivers/STM32F1xx_HAL_Driver/Inc/stm32f1xx_ll_rcc.h **** 
1354:Drivers/STM32F1xx_HAL_Driver/Inc/stm32f1xx_ll_rcc.h **** /**
1355:Drivers/STM32F1xx_HAL_Driver/Inc/stm32f1xx_ll_rcc.h ****   * @brief  Force the Backup domain reset
1356:Drivers/STM32F1xx_HAL_Driver/Inc/stm32f1xx_ll_rcc.h ****   * @rmtoll BDCR         BDRST         LL_RCC_ForceBackupDomainReset
1357:Drivers/STM32F1xx_HAL_Driver/Inc/stm32f1xx_ll_rcc.h ****   * @retval None
1358:Drivers/STM32F1xx_HAL_Driver/Inc/stm32f1xx_ll_rcc.h ****   */
1359:Drivers/STM32F1xx_HAL_Driver/Inc/stm32f1xx_ll_rcc.h **** __STATIC_INLINE void LL_RCC_ForceBackupDomainReset(void)
1360:Drivers/STM32F1xx_HAL_Driver/Inc/stm32f1xx_ll_rcc.h **** {
1361:Drivers/STM32F1xx_HAL_Driver/Inc/stm32f1xx_ll_rcc.h ****   SET_BIT(RCC->BDCR, RCC_BDCR_BDRST);
1362:Drivers/STM32F1xx_HAL_Driver/Inc/stm32f1xx_ll_rcc.h **** }
1363:Drivers/STM32F1xx_HAL_Driver/Inc/stm32f1xx_ll_rcc.h **** 
1364:Drivers/STM32F1xx_HAL_Driver/Inc/stm32f1xx_ll_rcc.h **** /**
1365:Drivers/STM32F1xx_HAL_Driver/Inc/stm32f1xx_ll_rcc.h ****   * @brief  Release the Backup domain reset
1366:Drivers/STM32F1xx_HAL_Driver/Inc/stm32f1xx_ll_rcc.h ****   * @rmtoll BDCR         BDRST         LL_RCC_ReleaseBackupDomainReset
1367:Drivers/STM32F1xx_HAL_Driver/Inc/stm32f1xx_ll_rcc.h ****   * @retval None
1368:Drivers/STM32F1xx_HAL_Driver/Inc/stm32f1xx_ll_rcc.h ****   */
ARM GAS  /var/folders/m1/3lv6xmzs0mlckxs4mx90nfb40000gn/T//ccNWxiXD.s 			page 37


1369:Drivers/STM32F1xx_HAL_Driver/Inc/stm32f1xx_ll_rcc.h **** __STATIC_INLINE void LL_RCC_ReleaseBackupDomainReset(void)
1370:Drivers/STM32F1xx_HAL_Driver/Inc/stm32f1xx_ll_rcc.h **** {
1371:Drivers/STM32F1xx_HAL_Driver/Inc/stm32f1xx_ll_rcc.h ****   CLEAR_BIT(RCC->BDCR, RCC_BDCR_BDRST);
1372:Drivers/STM32F1xx_HAL_Driver/Inc/stm32f1xx_ll_rcc.h **** }
1373:Drivers/STM32F1xx_HAL_Driver/Inc/stm32f1xx_ll_rcc.h **** 
1374:Drivers/STM32F1xx_HAL_Driver/Inc/stm32f1xx_ll_rcc.h **** /**
1375:Drivers/STM32F1xx_HAL_Driver/Inc/stm32f1xx_ll_rcc.h ****   * @}
1376:Drivers/STM32F1xx_HAL_Driver/Inc/stm32f1xx_ll_rcc.h ****   */
1377:Drivers/STM32F1xx_HAL_Driver/Inc/stm32f1xx_ll_rcc.h **** 
1378:Drivers/STM32F1xx_HAL_Driver/Inc/stm32f1xx_ll_rcc.h **** /** @defgroup RCC_LL_EF_PLL PLL
1379:Drivers/STM32F1xx_HAL_Driver/Inc/stm32f1xx_ll_rcc.h ****   * @{
1380:Drivers/STM32F1xx_HAL_Driver/Inc/stm32f1xx_ll_rcc.h ****   */
1381:Drivers/STM32F1xx_HAL_Driver/Inc/stm32f1xx_ll_rcc.h **** 
1382:Drivers/STM32F1xx_HAL_Driver/Inc/stm32f1xx_ll_rcc.h **** /**
1383:Drivers/STM32F1xx_HAL_Driver/Inc/stm32f1xx_ll_rcc.h ****   * @brief  Enable PLL
1384:Drivers/STM32F1xx_HAL_Driver/Inc/stm32f1xx_ll_rcc.h ****   * @rmtoll CR           PLLON         LL_RCC_PLL_Enable
1385:Drivers/STM32F1xx_HAL_Driver/Inc/stm32f1xx_ll_rcc.h ****   * @retval None
1386:Drivers/STM32F1xx_HAL_Driver/Inc/stm32f1xx_ll_rcc.h ****   */
1387:Drivers/STM32F1xx_HAL_Driver/Inc/stm32f1xx_ll_rcc.h **** __STATIC_INLINE void LL_RCC_PLL_Enable(void)
1388:Drivers/STM32F1xx_HAL_Driver/Inc/stm32f1xx_ll_rcc.h **** {
1389:Drivers/STM32F1xx_HAL_Driver/Inc/stm32f1xx_ll_rcc.h ****   SET_BIT(RCC->CR, RCC_CR_PLLON);
1390:Drivers/STM32F1xx_HAL_Driver/Inc/stm32f1xx_ll_rcc.h **** }
1391:Drivers/STM32F1xx_HAL_Driver/Inc/stm32f1xx_ll_rcc.h **** 
1392:Drivers/STM32F1xx_HAL_Driver/Inc/stm32f1xx_ll_rcc.h **** /**
1393:Drivers/STM32F1xx_HAL_Driver/Inc/stm32f1xx_ll_rcc.h ****   * @brief  Disable PLL
1394:Drivers/STM32F1xx_HAL_Driver/Inc/stm32f1xx_ll_rcc.h ****   * @note Cannot be disabled if the PLL clock is used as the system clock
1395:Drivers/STM32F1xx_HAL_Driver/Inc/stm32f1xx_ll_rcc.h ****   * @rmtoll CR           PLLON         LL_RCC_PLL_Disable
1396:Drivers/STM32F1xx_HAL_Driver/Inc/stm32f1xx_ll_rcc.h ****   * @retval None
1397:Drivers/STM32F1xx_HAL_Driver/Inc/stm32f1xx_ll_rcc.h ****   */
1398:Drivers/STM32F1xx_HAL_Driver/Inc/stm32f1xx_ll_rcc.h **** __STATIC_INLINE void LL_RCC_PLL_Disable(void)
1399:Drivers/STM32F1xx_HAL_Driver/Inc/stm32f1xx_ll_rcc.h **** {
1400:Drivers/STM32F1xx_HAL_Driver/Inc/stm32f1xx_ll_rcc.h ****   CLEAR_BIT(RCC->CR, RCC_CR_PLLON);
1401:Drivers/STM32F1xx_HAL_Driver/Inc/stm32f1xx_ll_rcc.h **** }
1402:Drivers/STM32F1xx_HAL_Driver/Inc/stm32f1xx_ll_rcc.h **** 
1403:Drivers/STM32F1xx_HAL_Driver/Inc/stm32f1xx_ll_rcc.h **** /**
1404:Drivers/STM32F1xx_HAL_Driver/Inc/stm32f1xx_ll_rcc.h ****   * @brief  Check if PLL Ready
1405:Drivers/STM32F1xx_HAL_Driver/Inc/stm32f1xx_ll_rcc.h ****   * @rmtoll CR           PLLRDY        LL_RCC_PLL_IsReady
1406:Drivers/STM32F1xx_HAL_Driver/Inc/stm32f1xx_ll_rcc.h ****   * @retval State of bit (1 or 0).
1407:Drivers/STM32F1xx_HAL_Driver/Inc/stm32f1xx_ll_rcc.h ****   */
1408:Drivers/STM32F1xx_HAL_Driver/Inc/stm32f1xx_ll_rcc.h **** __STATIC_INLINE uint32_t LL_RCC_PLL_IsReady(void)
1409:Drivers/STM32F1xx_HAL_Driver/Inc/stm32f1xx_ll_rcc.h **** {
1410:Drivers/STM32F1xx_HAL_Driver/Inc/stm32f1xx_ll_rcc.h ****   return (READ_BIT(RCC->CR, RCC_CR_PLLRDY) == (RCC_CR_PLLRDY));
 194              		.loc 3 1410 0
 195 0000 484B     		ldr	r3, .L56
 196 0002 1A68     		ldr	r2, [r3]
 197              	.LBE127:
 198              	.LBE126:
 269:Drivers/STM32F1xx_HAL_Driver/Src/stm32f1xx_ll_utils.c ****   ErrorStatus status = SUCCESS;
 270:Drivers/STM32F1xx_HAL_Driver/Src/stm32f1xx_ll_utils.c ****   uint32_t pllfreq = 0U;
 271:Drivers/STM32F1xx_HAL_Driver/Src/stm32f1xx_ll_utils.c **** 
 272:Drivers/STM32F1xx_HAL_Driver/Src/stm32f1xx_ll_utils.c ****   /* Check if one of the PLL is enabled */
 273:Drivers/STM32F1xx_HAL_Driver/Src/stm32f1xx_ll_utils.c ****   if (UTILS_PLL_IsBusy() == SUCCESS)
 274:Drivers/STM32F1xx_HAL_Driver/Src/stm32f1xx_ll_utils.c ****   {
 275:Drivers/STM32F1xx_HAL_Driver/Src/stm32f1xx_ll_utils.c **** #if defined(RCC_PLLSRC_PREDIV1_SUPPORT)
 276:Drivers/STM32F1xx_HAL_Driver/Src/stm32f1xx_ll_utils.c ****     /* Check PREDIV value */
 277:Drivers/STM32F1xx_HAL_Driver/Src/stm32f1xx_ll_utils.c ****     assert_param(IS_LL_UTILS_PREDIV_VALUE(UTILS_PLLInitStruct->PLLDiv));
 278:Drivers/STM32F1xx_HAL_Driver/Src/stm32f1xx_ll_utils.c **** #else
ARM GAS  /var/folders/m1/3lv6xmzs0mlckxs4mx90nfb40000gn/T//ccNWxiXD.s 			page 38


 279:Drivers/STM32F1xx_HAL_Driver/Src/stm32f1xx_ll_utils.c ****     /* Force PREDIV value to 2 */
 280:Drivers/STM32F1xx_HAL_Driver/Src/stm32f1xx_ll_utils.c ****     UTILS_PLLInitStruct->Prediv = LL_RCC_PREDIV_DIV_2;
 281:Drivers/STM32F1xx_HAL_Driver/Src/stm32f1xx_ll_utils.c **** #endif /*RCC_PLLSRC_PREDIV1_SUPPORT*/
 282:Drivers/STM32F1xx_HAL_Driver/Src/stm32f1xx_ll_utils.c ****     /* Calculate the new PLL output frequency */
 283:Drivers/STM32F1xx_HAL_Driver/Src/stm32f1xx_ll_utils.c ****     pllfreq = UTILS_GetPLLOutputFrequency(HSI_VALUE, UTILS_PLLInitStruct);
 284:Drivers/STM32F1xx_HAL_Driver/Src/stm32f1xx_ll_utils.c **** 
 285:Drivers/STM32F1xx_HAL_Driver/Src/stm32f1xx_ll_utils.c ****     /* Enable HSI if not enabled */
 286:Drivers/STM32F1xx_HAL_Driver/Src/stm32f1xx_ll_utils.c ****     if (LL_RCC_HSI_IsReady() != 1U)
 287:Drivers/STM32F1xx_HAL_Driver/Src/stm32f1xx_ll_utils.c ****     {
 288:Drivers/STM32F1xx_HAL_Driver/Src/stm32f1xx_ll_utils.c ****       LL_RCC_HSI_Enable();
 289:Drivers/STM32F1xx_HAL_Driver/Src/stm32f1xx_ll_utils.c ****       while (LL_RCC_HSI_IsReady() != 1U)
 290:Drivers/STM32F1xx_HAL_Driver/Src/stm32f1xx_ll_utils.c ****       {
 291:Drivers/STM32F1xx_HAL_Driver/Src/stm32f1xx_ll_utils.c ****         /* Wait for HSI ready */
 292:Drivers/STM32F1xx_HAL_Driver/Src/stm32f1xx_ll_utils.c ****       }
 293:Drivers/STM32F1xx_HAL_Driver/Src/stm32f1xx_ll_utils.c ****     }
 294:Drivers/STM32F1xx_HAL_Driver/Src/stm32f1xx_ll_utils.c **** 
 295:Drivers/STM32F1xx_HAL_Driver/Src/stm32f1xx_ll_utils.c ****     /* Configure PLL */
 296:Drivers/STM32F1xx_HAL_Driver/Src/stm32f1xx_ll_utils.c ****     LL_RCC_PLL_ConfigDomain_SYS(LL_RCC_PLLSOURCE_HSI_DIV_2, UTILS_PLLInitStruct->PLLMul);
 297:Drivers/STM32F1xx_HAL_Driver/Src/stm32f1xx_ll_utils.c **** 
 298:Drivers/STM32F1xx_HAL_Driver/Src/stm32f1xx_ll_utils.c ****     /* Enable PLL and switch system clock to PLL */
 299:Drivers/STM32F1xx_HAL_Driver/Src/stm32f1xx_ll_utils.c ****     status = UTILS_EnablePLLAndSwitchSystem(pllfreq, UTILS_ClkInitStruct);
 300:Drivers/STM32F1xx_HAL_Driver/Src/stm32f1xx_ll_utils.c ****   }
 301:Drivers/STM32F1xx_HAL_Driver/Src/stm32f1xx_ll_utils.c ****   else
 302:Drivers/STM32F1xx_HAL_Driver/Src/stm32f1xx_ll_utils.c ****   {
 303:Drivers/STM32F1xx_HAL_Driver/Src/stm32f1xx_ll_utils.c ****     /* Current PLL configuration cannot be modified */
 304:Drivers/STM32F1xx_HAL_Driver/Src/stm32f1xx_ll_utils.c ****     status = ERROR;
 305:Drivers/STM32F1xx_HAL_Driver/Src/stm32f1xx_ll_utils.c ****   }
 306:Drivers/STM32F1xx_HAL_Driver/Src/stm32f1xx_ll_utils.c **** 
 307:Drivers/STM32F1xx_HAL_Driver/Src/stm32f1xx_ll_utils.c ****   return status;
 308:Drivers/STM32F1xx_HAL_Driver/Src/stm32f1xx_ll_utils.c **** }
 309:Drivers/STM32F1xx_HAL_Driver/Src/stm32f1xx_ll_utils.c **** 
 310:Drivers/STM32F1xx_HAL_Driver/Src/stm32f1xx_ll_utils.c **** /**
 311:Drivers/STM32F1xx_HAL_Driver/Src/stm32f1xx_ll_utils.c ****   * @brief  This function configures system clock with HSE as clock source of the PLL
 312:Drivers/STM32F1xx_HAL_Driver/Src/stm32f1xx_ll_utils.c ****   * @note   The application need to ensure that PLL is disabled.
 313:Drivers/STM32F1xx_HAL_Driver/Src/stm32f1xx_ll_utils.c ****   * @note   Function is based on the following formula:
 314:Drivers/STM32F1xx_HAL_Driver/Src/stm32f1xx_ll_utils.c ****   *         - PLL output frequency = ((HSI frequency / PREDIV) * PLLMUL)
 315:Drivers/STM32F1xx_HAL_Driver/Src/stm32f1xx_ll_utils.c ****   *         - PREDIV: Set to 2 for few devices
 316:Drivers/STM32F1xx_HAL_Driver/Src/stm32f1xx_ll_utils.c ****   *         - PLLMUL: The application software must set correctly the PLL multiplication factor to
 317:Drivers/STM32F1xx_HAL_Driver/Src/stm32f1xx_ll_utils.c ****   *                   not exceed @ref UTILS_PLL_OUTPUT_MAX
 318:Drivers/STM32F1xx_HAL_Driver/Src/stm32f1xx_ll_utils.c ****   * @note   FLASH latency can be modified through this function.
 319:Drivers/STM32F1xx_HAL_Driver/Src/stm32f1xx_ll_utils.c ****   * @param  HSEFrequency Value between Min_Data = RCC_HSE_MIN and Max_Data = RCC_HSE_MAX
 320:Drivers/STM32F1xx_HAL_Driver/Src/stm32f1xx_ll_utils.c ****   * @param  HSEBypass This parameter can be one of the following values:
 321:Drivers/STM32F1xx_HAL_Driver/Src/stm32f1xx_ll_utils.c ****   *         @arg @ref LL_UTILS_HSEBYPASS_ON
 322:Drivers/STM32F1xx_HAL_Driver/Src/stm32f1xx_ll_utils.c ****   *         @arg @ref LL_UTILS_HSEBYPASS_OFF
 323:Drivers/STM32F1xx_HAL_Driver/Src/stm32f1xx_ll_utils.c ****   * @param  UTILS_PLLInitStruct pointer to a @ref LL_UTILS_PLLInitTypeDef structure that contains
 324:Drivers/STM32F1xx_HAL_Driver/Src/stm32f1xx_ll_utils.c ****   *                             the configuration information for the PLL.
 325:Drivers/STM32F1xx_HAL_Driver/Src/stm32f1xx_ll_utils.c ****   * @param  UTILS_ClkInitStruct pointer to a @ref LL_UTILS_ClkInitTypeDef structure that contains
 326:Drivers/STM32F1xx_HAL_Driver/Src/stm32f1xx_ll_utils.c ****   *                             the configuration information for the BUS prescalers.
 327:Drivers/STM32F1xx_HAL_Driver/Src/stm32f1xx_ll_utils.c ****   * @retval An ErrorStatus enumeration value:
 328:Drivers/STM32F1xx_HAL_Driver/Src/stm32f1xx_ll_utils.c ****   *          - SUCCESS: Max frequency configuration done
 329:Drivers/STM32F1xx_HAL_Driver/Src/stm32f1xx_ll_utils.c ****   *          - ERROR: Max frequency configuration not done
 330:Drivers/STM32F1xx_HAL_Driver/Src/stm32f1xx_ll_utils.c ****   */
 331:Drivers/STM32F1xx_HAL_Driver/Src/stm32f1xx_ll_utils.c **** ErrorStatus LL_PLL_ConfigSystemClock_HSE(uint32_t HSEFrequency, uint32_t HSEBypass,
 332:Drivers/STM32F1xx_HAL_Driver/Src/stm32f1xx_ll_utils.c ****                                          LL_UTILS_PLLInitTypeDef *UTILS_PLLInitStruct, LL_UTILS_Clk
 333:Drivers/STM32F1xx_HAL_Driver/Src/stm32f1xx_ll_utils.c **** {
 334:Drivers/STM32F1xx_HAL_Driver/Src/stm32f1xx_ll_utils.c ****   ErrorStatus status = SUCCESS;
 335:Drivers/STM32F1xx_HAL_Driver/Src/stm32f1xx_ll_utils.c ****   uint32_t pllfreq = 0U;
ARM GAS  /var/folders/m1/3lv6xmzs0mlckxs4mx90nfb40000gn/T//ccNWxiXD.s 			page 39


 336:Drivers/STM32F1xx_HAL_Driver/Src/stm32f1xx_ll_utils.c **** 
 337:Drivers/STM32F1xx_HAL_Driver/Src/stm32f1xx_ll_utils.c ****   /* Check the parameters */
 338:Drivers/STM32F1xx_HAL_Driver/Src/stm32f1xx_ll_utils.c ****   assert_param(IS_LL_UTILS_HSE_FREQUENCY(HSEFrequency));
 339:Drivers/STM32F1xx_HAL_Driver/Src/stm32f1xx_ll_utils.c ****   assert_param(IS_LL_UTILS_HSE_BYPASS(HSEBypass));
 340:Drivers/STM32F1xx_HAL_Driver/Src/stm32f1xx_ll_utils.c **** 
 341:Drivers/STM32F1xx_HAL_Driver/Src/stm32f1xx_ll_utils.c ****   /* Check if one of the PLL is enabled */
 342:Drivers/STM32F1xx_HAL_Driver/Src/stm32f1xx_ll_utils.c ****   if (UTILS_PLL_IsBusy() == SUCCESS)
 343:Drivers/STM32F1xx_HAL_Driver/Src/stm32f1xx_ll_utils.c ****   {
 344:Drivers/STM32F1xx_HAL_Driver/Src/stm32f1xx_ll_utils.c ****     assert_param(IS_LL_UTILS_PREDIV_VALUE(UTILS_PLLInitStruct->Prediv));
 345:Drivers/STM32F1xx_HAL_Driver/Src/stm32f1xx_ll_utils.c **** 
 346:Drivers/STM32F1xx_HAL_Driver/Src/stm32f1xx_ll_utils.c ****     /* Calculate the new PLL output frequency */
 347:Drivers/STM32F1xx_HAL_Driver/Src/stm32f1xx_ll_utils.c ****     pllfreq = UTILS_GetPLLOutputFrequency(HSEFrequency, UTILS_PLLInitStruct);
 348:Drivers/STM32F1xx_HAL_Driver/Src/stm32f1xx_ll_utils.c **** 
 349:Drivers/STM32F1xx_HAL_Driver/Src/stm32f1xx_ll_utils.c ****     /* Enable HSE if not enabled */
 350:Drivers/STM32F1xx_HAL_Driver/Src/stm32f1xx_ll_utils.c ****     if (LL_RCC_HSE_IsReady() != 1U)
 351:Drivers/STM32F1xx_HAL_Driver/Src/stm32f1xx_ll_utils.c ****     {
 352:Drivers/STM32F1xx_HAL_Driver/Src/stm32f1xx_ll_utils.c ****       /* Check if need to enable HSE bypass feature or not */
 353:Drivers/STM32F1xx_HAL_Driver/Src/stm32f1xx_ll_utils.c ****       if (HSEBypass == LL_UTILS_HSEBYPASS_ON)
 354:Drivers/STM32F1xx_HAL_Driver/Src/stm32f1xx_ll_utils.c ****       {
 355:Drivers/STM32F1xx_HAL_Driver/Src/stm32f1xx_ll_utils.c ****         LL_RCC_HSE_EnableBypass();
 356:Drivers/STM32F1xx_HAL_Driver/Src/stm32f1xx_ll_utils.c ****       }
 357:Drivers/STM32F1xx_HAL_Driver/Src/stm32f1xx_ll_utils.c ****       else
 358:Drivers/STM32F1xx_HAL_Driver/Src/stm32f1xx_ll_utils.c ****       {
 359:Drivers/STM32F1xx_HAL_Driver/Src/stm32f1xx_ll_utils.c ****         LL_RCC_HSE_DisableBypass();
 360:Drivers/STM32F1xx_HAL_Driver/Src/stm32f1xx_ll_utils.c ****       }
 361:Drivers/STM32F1xx_HAL_Driver/Src/stm32f1xx_ll_utils.c **** 
 362:Drivers/STM32F1xx_HAL_Driver/Src/stm32f1xx_ll_utils.c ****       /* Enable HSE */
 363:Drivers/STM32F1xx_HAL_Driver/Src/stm32f1xx_ll_utils.c ****       LL_RCC_HSE_Enable();
 364:Drivers/STM32F1xx_HAL_Driver/Src/stm32f1xx_ll_utils.c ****       while (LL_RCC_HSE_IsReady() != 1U)
 365:Drivers/STM32F1xx_HAL_Driver/Src/stm32f1xx_ll_utils.c ****       {
 366:Drivers/STM32F1xx_HAL_Driver/Src/stm32f1xx_ll_utils.c ****         /* Wait for HSE ready */
 367:Drivers/STM32F1xx_HAL_Driver/Src/stm32f1xx_ll_utils.c ****       }
 368:Drivers/STM32F1xx_HAL_Driver/Src/stm32f1xx_ll_utils.c ****     }
 369:Drivers/STM32F1xx_HAL_Driver/Src/stm32f1xx_ll_utils.c **** 
 370:Drivers/STM32F1xx_HAL_Driver/Src/stm32f1xx_ll_utils.c ****     /* Configure PLL */
 371:Drivers/STM32F1xx_HAL_Driver/Src/stm32f1xx_ll_utils.c ****     LL_RCC_PLL_ConfigDomain_SYS((RCC_CFGR_PLLSRC | UTILS_PLLInitStruct->Prediv), UTILS_PLLInitStruc
 372:Drivers/STM32F1xx_HAL_Driver/Src/stm32f1xx_ll_utils.c **** 
 373:Drivers/STM32F1xx_HAL_Driver/Src/stm32f1xx_ll_utils.c ****     /* Enable PLL and switch system clock to PLL */
 374:Drivers/STM32F1xx_HAL_Driver/Src/stm32f1xx_ll_utils.c ****     status = UTILS_EnablePLLAndSwitchSystem(pllfreq, UTILS_ClkInitStruct);
 375:Drivers/STM32F1xx_HAL_Driver/Src/stm32f1xx_ll_utils.c ****   }
 376:Drivers/STM32F1xx_HAL_Driver/Src/stm32f1xx_ll_utils.c ****   else
 377:Drivers/STM32F1xx_HAL_Driver/Src/stm32f1xx_ll_utils.c ****   {
 378:Drivers/STM32F1xx_HAL_Driver/Src/stm32f1xx_ll_utils.c ****     /* Current PLL configuration cannot be modified */
 379:Drivers/STM32F1xx_HAL_Driver/Src/stm32f1xx_ll_utils.c ****     status = ERROR;
 380:Drivers/STM32F1xx_HAL_Driver/Src/stm32f1xx_ll_utils.c ****   }
 381:Drivers/STM32F1xx_HAL_Driver/Src/stm32f1xx_ll_utils.c **** 
 382:Drivers/STM32F1xx_HAL_Driver/Src/stm32f1xx_ll_utils.c ****   return status;
 383:Drivers/STM32F1xx_HAL_Driver/Src/stm32f1xx_ll_utils.c **** }
 384:Drivers/STM32F1xx_HAL_Driver/Src/stm32f1xx_ll_utils.c **** 
 385:Drivers/STM32F1xx_HAL_Driver/Src/stm32f1xx_ll_utils.c **** /**
 386:Drivers/STM32F1xx_HAL_Driver/Src/stm32f1xx_ll_utils.c ****   * @}
 387:Drivers/STM32F1xx_HAL_Driver/Src/stm32f1xx_ll_utils.c ****   */
 388:Drivers/STM32F1xx_HAL_Driver/Src/stm32f1xx_ll_utils.c **** 
 389:Drivers/STM32F1xx_HAL_Driver/Src/stm32f1xx_ll_utils.c **** /**
 390:Drivers/STM32F1xx_HAL_Driver/Src/stm32f1xx_ll_utils.c ****   * @}
 391:Drivers/STM32F1xx_HAL_Driver/Src/stm32f1xx_ll_utils.c ****   */
 392:Drivers/STM32F1xx_HAL_Driver/Src/stm32f1xx_ll_utils.c **** 
ARM GAS  /var/folders/m1/3lv6xmzs0mlckxs4mx90nfb40000gn/T//ccNWxiXD.s 			page 40


 393:Drivers/STM32F1xx_HAL_Driver/Src/stm32f1xx_ll_utils.c **** /** @addtogroup UTILS_LL_Private_Functions
 394:Drivers/STM32F1xx_HAL_Driver/Src/stm32f1xx_ll_utils.c ****   * @{
 395:Drivers/STM32F1xx_HAL_Driver/Src/stm32f1xx_ll_utils.c ****   */
 396:Drivers/STM32F1xx_HAL_Driver/Src/stm32f1xx_ll_utils.c **** /**
 397:Drivers/STM32F1xx_HAL_Driver/Src/stm32f1xx_ll_utils.c ****   * @brief  Update number of Flash wait states in line with new frequency and current
 398:Drivers/STM32F1xx_HAL_Driver/Src/stm32f1xx_ll_utils.c ****             voltage range.
 399:Drivers/STM32F1xx_HAL_Driver/Src/stm32f1xx_ll_utils.c ****   * @param  Frequency  SYSCLK frequency
 400:Drivers/STM32F1xx_HAL_Driver/Src/stm32f1xx_ll_utils.c ****   * @retval An ErrorStatus enumeration value:
 401:Drivers/STM32F1xx_HAL_Driver/Src/stm32f1xx_ll_utils.c ****   *          - SUCCESS: Latency has been modified
 402:Drivers/STM32F1xx_HAL_Driver/Src/stm32f1xx_ll_utils.c ****   *          - ERROR: Latency cannot be modified
 403:Drivers/STM32F1xx_HAL_Driver/Src/stm32f1xx_ll_utils.c ****   */
 404:Drivers/STM32F1xx_HAL_Driver/Src/stm32f1xx_ll_utils.c **** #if defined(FLASH_ACR_LATENCY)
 405:Drivers/STM32F1xx_HAL_Driver/Src/stm32f1xx_ll_utils.c **** static ErrorStatus UTILS_SetFlashLatency(uint32_t Frequency)
 406:Drivers/STM32F1xx_HAL_Driver/Src/stm32f1xx_ll_utils.c **** {
 407:Drivers/STM32F1xx_HAL_Driver/Src/stm32f1xx_ll_utils.c ****   ErrorStatus status = SUCCESS;
 408:Drivers/STM32F1xx_HAL_Driver/Src/stm32f1xx_ll_utils.c **** 
 409:Drivers/STM32F1xx_HAL_Driver/Src/stm32f1xx_ll_utils.c ****   uint32_t latency = LL_FLASH_LATENCY_0;  /* default value 0WS */
 410:Drivers/STM32F1xx_HAL_Driver/Src/stm32f1xx_ll_utils.c **** 
 411:Drivers/STM32F1xx_HAL_Driver/Src/stm32f1xx_ll_utils.c ****   /* Frequency cannot be equal to 0 */
 412:Drivers/STM32F1xx_HAL_Driver/Src/stm32f1xx_ll_utils.c ****   if (Frequency == 0U)
 413:Drivers/STM32F1xx_HAL_Driver/Src/stm32f1xx_ll_utils.c ****   {
 414:Drivers/STM32F1xx_HAL_Driver/Src/stm32f1xx_ll_utils.c ****     status = ERROR;
 415:Drivers/STM32F1xx_HAL_Driver/Src/stm32f1xx_ll_utils.c ****   }
 416:Drivers/STM32F1xx_HAL_Driver/Src/stm32f1xx_ll_utils.c ****   else
 417:Drivers/STM32F1xx_HAL_Driver/Src/stm32f1xx_ll_utils.c ****   {
 418:Drivers/STM32F1xx_HAL_Driver/Src/stm32f1xx_ll_utils.c ****     if (Frequency > UTILS_LATENCY2_FREQ)
 419:Drivers/STM32F1xx_HAL_Driver/Src/stm32f1xx_ll_utils.c ****     {
 420:Drivers/STM32F1xx_HAL_Driver/Src/stm32f1xx_ll_utils.c ****       /* 48 < SYSCLK <= 72 => 2WS (3 CPU cycles) */
 421:Drivers/STM32F1xx_HAL_Driver/Src/stm32f1xx_ll_utils.c ****       latency = LL_FLASH_LATENCY_2;
 422:Drivers/STM32F1xx_HAL_Driver/Src/stm32f1xx_ll_utils.c ****     }
 423:Drivers/STM32F1xx_HAL_Driver/Src/stm32f1xx_ll_utils.c ****     else
 424:Drivers/STM32F1xx_HAL_Driver/Src/stm32f1xx_ll_utils.c ****     {
 425:Drivers/STM32F1xx_HAL_Driver/Src/stm32f1xx_ll_utils.c ****       if (Frequency > UTILS_LATENCY1_FREQ)
 426:Drivers/STM32F1xx_HAL_Driver/Src/stm32f1xx_ll_utils.c ****       {
 427:Drivers/STM32F1xx_HAL_Driver/Src/stm32f1xx_ll_utils.c ****         /* 24 < SYSCLK <= 48 => 1WS (2 CPU cycles) */
 428:Drivers/STM32F1xx_HAL_Driver/Src/stm32f1xx_ll_utils.c ****         latency = LL_FLASH_LATENCY_1;
 429:Drivers/STM32F1xx_HAL_Driver/Src/stm32f1xx_ll_utils.c ****       }
 430:Drivers/STM32F1xx_HAL_Driver/Src/stm32f1xx_ll_utils.c ****       /* else SYSCLK < 24MHz default LL_FLASH_LATENCY_0 0WS */
 431:Drivers/STM32F1xx_HAL_Driver/Src/stm32f1xx_ll_utils.c ****     }
 432:Drivers/STM32F1xx_HAL_Driver/Src/stm32f1xx_ll_utils.c **** 
 433:Drivers/STM32F1xx_HAL_Driver/Src/stm32f1xx_ll_utils.c ****     LL_FLASH_SetLatency(latency);
 434:Drivers/STM32F1xx_HAL_Driver/Src/stm32f1xx_ll_utils.c **** 
 435:Drivers/STM32F1xx_HAL_Driver/Src/stm32f1xx_ll_utils.c ****     /* Check that the new number of wait states is taken into account to access the Flash
 436:Drivers/STM32F1xx_HAL_Driver/Src/stm32f1xx_ll_utils.c ****        memory by reading the FLASH_ACR register */
 437:Drivers/STM32F1xx_HAL_Driver/Src/stm32f1xx_ll_utils.c ****     if (LL_FLASH_GetLatency() != latency)
 438:Drivers/STM32F1xx_HAL_Driver/Src/stm32f1xx_ll_utils.c ****     {
 439:Drivers/STM32F1xx_HAL_Driver/Src/stm32f1xx_ll_utils.c ****       status = ERROR;
 440:Drivers/STM32F1xx_HAL_Driver/Src/stm32f1xx_ll_utils.c ****     }
 441:Drivers/STM32F1xx_HAL_Driver/Src/stm32f1xx_ll_utils.c ****   }
 442:Drivers/STM32F1xx_HAL_Driver/Src/stm32f1xx_ll_utils.c ****   return status;
 443:Drivers/STM32F1xx_HAL_Driver/Src/stm32f1xx_ll_utils.c **** }
 444:Drivers/STM32F1xx_HAL_Driver/Src/stm32f1xx_ll_utils.c **** #endif /* FLASH_ACR_LATENCY */
 445:Drivers/STM32F1xx_HAL_Driver/Src/stm32f1xx_ll_utils.c **** 
 446:Drivers/STM32F1xx_HAL_Driver/Src/stm32f1xx_ll_utils.c **** /**
 447:Drivers/STM32F1xx_HAL_Driver/Src/stm32f1xx_ll_utils.c ****   * @brief  Function to check that PLL can be modified
 448:Drivers/STM32F1xx_HAL_Driver/Src/stm32f1xx_ll_utils.c ****   * @param  PLL_InputFrequency  PLL input frequency (in Hz)
 449:Drivers/STM32F1xx_HAL_Driver/Src/stm32f1xx_ll_utils.c ****   * @param  UTILS_PLLInitStruct pointer to a @ref LL_UTILS_PLLInitTypeDef structure that contains
ARM GAS  /var/folders/m1/3lv6xmzs0mlckxs4mx90nfb40000gn/T//ccNWxiXD.s 			page 41


 450:Drivers/STM32F1xx_HAL_Driver/Src/stm32f1xx_ll_utils.c ****   *                             the configuration information for the PLL.
 451:Drivers/STM32F1xx_HAL_Driver/Src/stm32f1xx_ll_utils.c ****   * @retval PLL output frequency (in Hz)
 452:Drivers/STM32F1xx_HAL_Driver/Src/stm32f1xx_ll_utils.c ****   */
 453:Drivers/STM32F1xx_HAL_Driver/Src/stm32f1xx_ll_utils.c **** static uint32_t UTILS_GetPLLOutputFrequency(uint32_t PLL_InputFrequency, LL_UTILS_PLLInitTypeDef *U
 454:Drivers/STM32F1xx_HAL_Driver/Src/stm32f1xx_ll_utils.c **** {
 455:Drivers/STM32F1xx_HAL_Driver/Src/stm32f1xx_ll_utils.c ****   uint32_t pllfreq = 0U;
 456:Drivers/STM32F1xx_HAL_Driver/Src/stm32f1xx_ll_utils.c **** 
 457:Drivers/STM32F1xx_HAL_Driver/Src/stm32f1xx_ll_utils.c ****   /* Check the parameters */
 458:Drivers/STM32F1xx_HAL_Driver/Src/stm32f1xx_ll_utils.c ****   assert_param(IS_LL_UTILS_PLLMUL_VALUE(UTILS_PLLInitStruct->PLLMul));
 459:Drivers/STM32F1xx_HAL_Driver/Src/stm32f1xx_ll_utils.c **** 
 460:Drivers/STM32F1xx_HAL_Driver/Src/stm32f1xx_ll_utils.c ****   /* Check different PLL parameters according to RM                          */
 461:Drivers/STM32F1xx_HAL_Driver/Src/stm32f1xx_ll_utils.c **** #if defined (RCC_CFGR2_PREDIV1)
 462:Drivers/STM32F1xx_HAL_Driver/Src/stm32f1xx_ll_utils.c ****   pllfreq = __LL_RCC_CALC_PLLCLK_FREQ(PLL_InputFrequency / (UTILS_PLLInitStruct->Prediv + 1U), UTIL
 463:Drivers/STM32F1xx_HAL_Driver/Src/stm32f1xx_ll_utils.c **** #else
 464:Drivers/STM32F1xx_HAL_Driver/Src/stm32f1xx_ll_utils.c ****   pllfreq = __LL_RCC_CALC_PLLCLK_FREQ(PLL_InputFrequency / ((UTILS_PLLInitStruct->Prediv >> RCC_CFG
 465:Drivers/STM32F1xx_HAL_Driver/Src/stm32f1xx_ll_utils.c **** #endif /*RCC_CFGR2_PREDIV1SRC*/
 466:Drivers/STM32F1xx_HAL_Driver/Src/stm32f1xx_ll_utils.c ****   assert_param(IS_LL_UTILS_PLL_FREQUENCY(pllfreq));
 467:Drivers/STM32F1xx_HAL_Driver/Src/stm32f1xx_ll_utils.c **** 
 468:Drivers/STM32F1xx_HAL_Driver/Src/stm32f1xx_ll_utils.c ****   return pllfreq;
 469:Drivers/STM32F1xx_HAL_Driver/Src/stm32f1xx_ll_utils.c **** }
 470:Drivers/STM32F1xx_HAL_Driver/Src/stm32f1xx_ll_utils.c **** 
 471:Drivers/STM32F1xx_HAL_Driver/Src/stm32f1xx_ll_utils.c **** /**
 472:Drivers/STM32F1xx_HAL_Driver/Src/stm32f1xx_ll_utils.c ****   * @brief  Function to check that PLL can be modified
 473:Drivers/STM32F1xx_HAL_Driver/Src/stm32f1xx_ll_utils.c ****   * @retval An ErrorStatus enumeration value:
 474:Drivers/STM32F1xx_HAL_Driver/Src/stm32f1xx_ll_utils.c ****   *          - SUCCESS: PLL modification can be done
 475:Drivers/STM32F1xx_HAL_Driver/Src/stm32f1xx_ll_utils.c ****   *          - ERROR: PLL is busy
 476:Drivers/STM32F1xx_HAL_Driver/Src/stm32f1xx_ll_utils.c ****   */
 477:Drivers/STM32F1xx_HAL_Driver/Src/stm32f1xx_ll_utils.c **** static ErrorStatus UTILS_PLL_IsBusy(void)
 478:Drivers/STM32F1xx_HAL_Driver/Src/stm32f1xx_ll_utils.c **** {
 479:Drivers/STM32F1xx_HAL_Driver/Src/stm32f1xx_ll_utils.c ****   ErrorStatus status = SUCCESS;
 480:Drivers/STM32F1xx_HAL_Driver/Src/stm32f1xx_ll_utils.c **** 
 481:Drivers/STM32F1xx_HAL_Driver/Src/stm32f1xx_ll_utils.c ****   /* Check if PLL is busy*/
 482:Drivers/STM32F1xx_HAL_Driver/Src/stm32f1xx_ll_utils.c ****   if (LL_RCC_PLL_IsReady() != 0U)
 199              		.loc 1 482 0
 200 0004 9201     		lsls	r2, r2, #6
 201 0006 53D4     		bmi	.L54
 202              	.LVL9:
 203              	.LBE125:
 204              	.LBE124:
 280:Drivers/STM32F1xx_HAL_Driver/Src/stm32f1xx_ll_utils.c **** #endif /*RCC_PLLSRC_PREDIV1_SUPPORT*/
 205              		.loc 1 280 0
 206 0008 4FF40032 		mov	r2, #131072
 268:Drivers/STM32F1xx_HAL_Driver/Src/stm32f1xx_ll_utils.c ****   ErrorStatus status = SUCCESS;
 207              		.loc 1 268 0
 208 000c F0B4     		push	{r4, r5, r6, r7}
 209              	.LCFI4:
 210              		.cfi_def_cfa_offset 16
 211              		.cfi_offset 4, -16
 212              		.cfi_offset 5, -12
 213              		.cfi_offset 6, -8
 214              		.cfi_offset 7, -4
 215              	.LBB128:
 216              	.LBB129:
 464:Drivers/STM32F1xx_HAL_Driver/Src/stm32f1xx_ll_utils.c **** #endif /*RCC_CFGR2_PREDIV1SRC*/
 217              		.loc 1 464 0
 218 000e 0568     		ldr	r5, [r0]
 219              	.LBE129:
ARM GAS  /var/folders/m1/3lv6xmzs0mlckxs4mx90nfb40000gn/T//ccNWxiXD.s 			page 42


 220              	.LBE128:
 280:Drivers/STM32F1xx_HAL_Driver/Src/stm32f1xx_ll_utils.c **** #endif /*RCC_PLLSRC_PREDIV1_SUPPORT*/
 221              		.loc 1 280 0
 222 0010 4260     		str	r2, [r0, #4]
 223              	.LVL10:
 224              	.LBB132:
 225              	.LBB133:
 862:Drivers/STM32F1xx_HAL_Driver/Inc/stm32f1xx_ll_rcc.h **** }
 226              		.loc 3 862 0
 227 0012 1868     		ldr	r0, [r3]
 228              	.LVL11:
 229              	.LBE133:
 230              	.LBE132:
 231              	.LBB134:
 232              	.LBB130:
 464:Drivers/STM32F1xx_HAL_Driver/Src/stm32f1xx_ll_utils.c **** #endif /*RCC_CFGR2_PREDIV1SRC*/
 233              		.loc 1 464 0
 234 0014 AA0C     		lsrs	r2, r5, #18
 235 0016 444C     		ldr	r4, .L56+4
 236 0018 0232     		adds	r2, r2, #2
 237              	.LBE130:
 238              	.LBE134:
 286:Drivers/STM32F1xx_HAL_Driver/Src/stm32f1xx_ll_utils.c ****     {
 239              		.loc 1 286 0
 240 001a 8607     		lsls	r6, r0, #30
 241              	.LBB135:
 242              	.LBB131:
 464:Drivers/STM32F1xx_HAL_Driver/Src/stm32f1xx_ll_utils.c **** #endif /*RCC_CFGR2_PREDIV1SRC*/
 243              		.loc 1 464 0
 244 001c 04FB02F4 		mul	r4, r4, r2
 245              	.LVL12:
 246              	.LBE131:
 247              	.LBE135:
 286:Drivers/STM32F1xx_HAL_Driver/Src/stm32f1xx_ll_utils.c ****     {
 248              		.loc 1 286 0
 249 0020 07D4     		bmi	.L27
 250              	.LBB136:
 251              	.LBB137:
 862:Drivers/STM32F1xx_HAL_Driver/Inc/stm32f1xx_ll_rcc.h **** }
 252              		.loc 3 862 0
 253 0022 1A46     		mov	r2, r3
 254              	.LBE137:
 255              	.LBE136:
 256              	.LBB139:
 257              	.LBB140:
 842:Drivers/STM32F1xx_HAL_Driver/Inc/stm32f1xx_ll_rcc.h **** }
 258              		.loc 3 842 0
 259 0024 1868     		ldr	r0, [r3]
 260 0026 40F00100 		orr	r0, r0, #1
 261 002a 1860     		str	r0, [r3]
 262              	.L28:
 263              	.LBE140:
 264              	.LBE139:
 265              	.LBB141:
 266              	.LBB138:
 862:Drivers/STM32F1xx_HAL_Driver/Inc/stm32f1xx_ll_rcc.h **** }
 267              		.loc 3 862 0 discriminator 1
ARM GAS  /var/folders/m1/3lv6xmzs0mlckxs4mx90nfb40000gn/T//ccNWxiXD.s 			page 43


 268 002c 1368     		ldr	r3, [r2]
 269              	.LBE138:
 270              	.LBE141:
 289:Drivers/STM32F1xx_HAL_Driver/Src/stm32f1xx_ll_utils.c ****       {
 271              		.loc 1 289 0 discriminator 1
 272 002e 9807     		lsls	r0, r3, #30
 273 0030 FCD5     		bpl	.L28
 274              	.L27:
 275              	.LVL13:
 276              	.LBB142:
 277              	.LBB143:
1411:Drivers/STM32F1xx_HAL_Driver/Inc/stm32f1xx_ll_rcc.h **** }
1412:Drivers/STM32F1xx_HAL_Driver/Inc/stm32f1xx_ll_rcc.h **** 
1413:Drivers/STM32F1xx_HAL_Driver/Inc/stm32f1xx_ll_rcc.h **** /**
1414:Drivers/STM32F1xx_HAL_Driver/Inc/stm32f1xx_ll_rcc.h ****   * @brief  Configure PLL used for SYSCLK Domain
1415:Drivers/STM32F1xx_HAL_Driver/Inc/stm32f1xx_ll_rcc.h ****   * @rmtoll CFGR         PLLSRC        LL_RCC_PLL_ConfigDomain_SYS\n
1416:Drivers/STM32F1xx_HAL_Driver/Inc/stm32f1xx_ll_rcc.h ****   *         CFGR         PLLXTPRE      LL_RCC_PLL_ConfigDomain_SYS\n
1417:Drivers/STM32F1xx_HAL_Driver/Inc/stm32f1xx_ll_rcc.h ****   *         CFGR         PLLMULL       LL_RCC_PLL_ConfigDomain_SYS\n
1418:Drivers/STM32F1xx_HAL_Driver/Inc/stm32f1xx_ll_rcc.h ****   *         CFGR2        PREDIV1       LL_RCC_PLL_ConfigDomain_SYS\n
1419:Drivers/STM32F1xx_HAL_Driver/Inc/stm32f1xx_ll_rcc.h ****   *         CFGR2        PREDIV1SRC    LL_RCC_PLL_ConfigDomain_SYS
1420:Drivers/STM32F1xx_HAL_Driver/Inc/stm32f1xx_ll_rcc.h ****   * @param  Source This parameter can be one of the following values:
1421:Drivers/STM32F1xx_HAL_Driver/Inc/stm32f1xx_ll_rcc.h ****   *         @arg @ref LL_RCC_PLLSOURCE_HSI_DIV_2
1422:Drivers/STM32F1xx_HAL_Driver/Inc/stm32f1xx_ll_rcc.h ****   *         @arg @ref LL_RCC_PLLSOURCE_HSE_DIV_1
1423:Drivers/STM32F1xx_HAL_Driver/Inc/stm32f1xx_ll_rcc.h ****   *         @arg @ref LL_RCC_PLLSOURCE_HSE_DIV_2 (*)
1424:Drivers/STM32F1xx_HAL_Driver/Inc/stm32f1xx_ll_rcc.h ****   *         @arg @ref LL_RCC_PLLSOURCE_HSE_DIV_3 (*)
1425:Drivers/STM32F1xx_HAL_Driver/Inc/stm32f1xx_ll_rcc.h ****   *         @arg @ref LL_RCC_PLLSOURCE_HSE_DIV_4 (*)
1426:Drivers/STM32F1xx_HAL_Driver/Inc/stm32f1xx_ll_rcc.h ****   *         @arg @ref LL_RCC_PLLSOURCE_HSE_DIV_5 (*)
1427:Drivers/STM32F1xx_HAL_Driver/Inc/stm32f1xx_ll_rcc.h ****   *         @arg @ref LL_RCC_PLLSOURCE_HSE_DIV_6 (*)
1428:Drivers/STM32F1xx_HAL_Driver/Inc/stm32f1xx_ll_rcc.h ****   *         @arg @ref LL_RCC_PLLSOURCE_HSE_DIV_7 (*)
1429:Drivers/STM32F1xx_HAL_Driver/Inc/stm32f1xx_ll_rcc.h ****   *         @arg @ref LL_RCC_PLLSOURCE_HSE_DIV_8 (*)
1430:Drivers/STM32F1xx_HAL_Driver/Inc/stm32f1xx_ll_rcc.h ****   *         @arg @ref LL_RCC_PLLSOURCE_HSE_DIV_9 (*)
1431:Drivers/STM32F1xx_HAL_Driver/Inc/stm32f1xx_ll_rcc.h ****   *         @arg @ref LL_RCC_PLLSOURCE_HSE_DIV_10 (*)
1432:Drivers/STM32F1xx_HAL_Driver/Inc/stm32f1xx_ll_rcc.h ****   *         @arg @ref LL_RCC_PLLSOURCE_HSE_DIV_11 (*)
1433:Drivers/STM32F1xx_HAL_Driver/Inc/stm32f1xx_ll_rcc.h ****   *         @arg @ref LL_RCC_PLLSOURCE_HSE_DIV_12 (*)
1434:Drivers/STM32F1xx_HAL_Driver/Inc/stm32f1xx_ll_rcc.h ****   *         @arg @ref LL_RCC_PLLSOURCE_HSE_DIV_13 (*)
1435:Drivers/STM32F1xx_HAL_Driver/Inc/stm32f1xx_ll_rcc.h ****   *         @arg @ref LL_RCC_PLLSOURCE_HSE_DIV_14 (*)
1436:Drivers/STM32F1xx_HAL_Driver/Inc/stm32f1xx_ll_rcc.h ****   *         @arg @ref LL_RCC_PLLSOURCE_HSE_DIV_15 (*)
1437:Drivers/STM32F1xx_HAL_Driver/Inc/stm32f1xx_ll_rcc.h ****   *         @arg @ref LL_RCC_PLLSOURCE_HSE_DIV_16 (*)
1438:Drivers/STM32F1xx_HAL_Driver/Inc/stm32f1xx_ll_rcc.h ****   *         @arg @ref LL_RCC_PLLSOURCE_PLL2_DIV_1 (*)
1439:Drivers/STM32F1xx_HAL_Driver/Inc/stm32f1xx_ll_rcc.h ****   *         @arg @ref LL_RCC_PLLSOURCE_PLL2_DIV_2 (*)
1440:Drivers/STM32F1xx_HAL_Driver/Inc/stm32f1xx_ll_rcc.h ****   *         @arg @ref LL_RCC_PLLSOURCE_PLL2_DIV_3 (*)
1441:Drivers/STM32F1xx_HAL_Driver/Inc/stm32f1xx_ll_rcc.h ****   *         @arg @ref LL_RCC_PLLSOURCE_PLL2_DIV_4 (*)
1442:Drivers/STM32F1xx_HAL_Driver/Inc/stm32f1xx_ll_rcc.h ****   *         @arg @ref LL_RCC_PLLSOURCE_PLL2_DIV_5 (*)
1443:Drivers/STM32F1xx_HAL_Driver/Inc/stm32f1xx_ll_rcc.h ****   *         @arg @ref LL_RCC_PLLSOURCE_PLL2_DIV_6 (*)
1444:Drivers/STM32F1xx_HAL_Driver/Inc/stm32f1xx_ll_rcc.h ****   *         @arg @ref LL_RCC_PLLSOURCE_PLL2_DIV_7 (*)
1445:Drivers/STM32F1xx_HAL_Driver/Inc/stm32f1xx_ll_rcc.h ****   *         @arg @ref LL_RCC_PLLSOURCE_PLL2_DIV_8 (*)
1446:Drivers/STM32F1xx_HAL_Driver/Inc/stm32f1xx_ll_rcc.h ****   *         @arg @ref LL_RCC_PLLSOURCE_PLL2_DIV_9 (*)
1447:Drivers/STM32F1xx_HAL_Driver/Inc/stm32f1xx_ll_rcc.h ****   *         @arg @ref LL_RCC_PLLSOURCE_PLL2_DIV_10 (*)
1448:Drivers/STM32F1xx_HAL_Driver/Inc/stm32f1xx_ll_rcc.h ****   *         @arg @ref LL_RCC_PLLSOURCE_PLL2_DIV_11 (*)
1449:Drivers/STM32F1xx_HAL_Driver/Inc/stm32f1xx_ll_rcc.h ****   *         @arg @ref LL_RCC_PLLSOURCE_PLL2_DIV_12 (*)
1450:Drivers/STM32F1xx_HAL_Driver/Inc/stm32f1xx_ll_rcc.h ****   *         @arg @ref LL_RCC_PLLSOURCE_PLL2_DIV_13 (*)
1451:Drivers/STM32F1xx_HAL_Driver/Inc/stm32f1xx_ll_rcc.h ****   *         @arg @ref LL_RCC_PLLSOURCE_PLL2_DIV_14 (*)
1452:Drivers/STM32F1xx_HAL_Driver/Inc/stm32f1xx_ll_rcc.h ****   *         @arg @ref LL_RCC_PLLSOURCE_PLL2_DIV_15 (*)
1453:Drivers/STM32F1xx_HAL_Driver/Inc/stm32f1xx_ll_rcc.h ****   *         @arg @ref LL_RCC_PLLSOURCE_PLL2_DIV_16 (*)
1454:Drivers/STM32F1xx_HAL_Driver/Inc/stm32f1xx_ll_rcc.h ****   *
1455:Drivers/STM32F1xx_HAL_Driver/Inc/stm32f1xx_ll_rcc.h ****   *         (*) value not defined in all devices
1456:Drivers/STM32F1xx_HAL_Driver/Inc/stm32f1xx_ll_rcc.h ****   * @param  PLLMul This parameter can be one of the following values:
ARM GAS  /var/folders/m1/3lv6xmzs0mlckxs4mx90nfb40000gn/T//ccNWxiXD.s 			page 44


1457:Drivers/STM32F1xx_HAL_Driver/Inc/stm32f1xx_ll_rcc.h ****   *         @arg @ref LL_RCC_PLL_MUL_2 (*)
1458:Drivers/STM32F1xx_HAL_Driver/Inc/stm32f1xx_ll_rcc.h ****   *         @arg @ref LL_RCC_PLL_MUL_3 (*)
1459:Drivers/STM32F1xx_HAL_Driver/Inc/stm32f1xx_ll_rcc.h ****   *         @arg @ref LL_RCC_PLL_MUL_4
1460:Drivers/STM32F1xx_HAL_Driver/Inc/stm32f1xx_ll_rcc.h ****   *         @arg @ref LL_RCC_PLL_MUL_5
1461:Drivers/STM32F1xx_HAL_Driver/Inc/stm32f1xx_ll_rcc.h ****   *         @arg @ref LL_RCC_PLL_MUL_6
1462:Drivers/STM32F1xx_HAL_Driver/Inc/stm32f1xx_ll_rcc.h ****   *         @arg @ref LL_RCC_PLL_MUL_7
1463:Drivers/STM32F1xx_HAL_Driver/Inc/stm32f1xx_ll_rcc.h ****   *         @arg @ref LL_RCC_PLL_MUL_8
1464:Drivers/STM32F1xx_HAL_Driver/Inc/stm32f1xx_ll_rcc.h ****   *         @arg @ref LL_RCC_PLL_MUL_9
1465:Drivers/STM32F1xx_HAL_Driver/Inc/stm32f1xx_ll_rcc.h ****   *         @arg @ref LL_RCC_PLL_MUL_6_5 (*)
1466:Drivers/STM32F1xx_HAL_Driver/Inc/stm32f1xx_ll_rcc.h ****   *         @arg @ref LL_RCC_PLL_MUL_10 (*)
1467:Drivers/STM32F1xx_HAL_Driver/Inc/stm32f1xx_ll_rcc.h ****   *         @arg @ref LL_RCC_PLL_MUL_11 (*)
1468:Drivers/STM32F1xx_HAL_Driver/Inc/stm32f1xx_ll_rcc.h ****   *         @arg @ref LL_RCC_PLL_MUL_12 (*)
1469:Drivers/STM32F1xx_HAL_Driver/Inc/stm32f1xx_ll_rcc.h ****   *         @arg @ref LL_RCC_PLL_MUL_13 (*)
1470:Drivers/STM32F1xx_HAL_Driver/Inc/stm32f1xx_ll_rcc.h ****   *         @arg @ref LL_RCC_PLL_MUL_14 (*)
1471:Drivers/STM32F1xx_HAL_Driver/Inc/stm32f1xx_ll_rcc.h ****   *         @arg @ref LL_RCC_PLL_MUL_15 (*)
1472:Drivers/STM32F1xx_HAL_Driver/Inc/stm32f1xx_ll_rcc.h ****   *         @arg @ref LL_RCC_PLL_MUL_16 (*)
1473:Drivers/STM32F1xx_HAL_Driver/Inc/stm32f1xx_ll_rcc.h ****   *
1474:Drivers/STM32F1xx_HAL_Driver/Inc/stm32f1xx_ll_rcc.h ****   *         (*) value not defined in all devices
1475:Drivers/STM32F1xx_HAL_Driver/Inc/stm32f1xx_ll_rcc.h ****   * @retval None
1476:Drivers/STM32F1xx_HAL_Driver/Inc/stm32f1xx_ll_rcc.h ****   */
1477:Drivers/STM32F1xx_HAL_Driver/Inc/stm32f1xx_ll_rcc.h **** __STATIC_INLINE void LL_RCC_PLL_ConfigDomain_SYS(uint32_t Source, uint32_t PLLMul)
1478:Drivers/STM32F1xx_HAL_Driver/Inc/stm32f1xx_ll_rcc.h **** {
1479:Drivers/STM32F1xx_HAL_Driver/Inc/stm32f1xx_ll_rcc.h ****   MODIFY_REG(RCC->CFGR, RCC_CFGR_PLLSRC | RCC_CFGR_PLLXTPRE | RCC_CFGR_PLLMULL,
 278              		.loc 3 1479 0
 279 0032 3C4A     		ldr	r2, .L56
 280              	.LBE143:
 281              	.LBE142:
 282              	.LBB146:
 283              	.LBB147:
 483:Drivers/STM32F1xx_HAL_Driver/Src/stm32f1xx_ll_utils.c ****   {
 484:Drivers/STM32F1xx_HAL_Driver/Src/stm32f1xx_ll_utils.c ****     /* PLL configuration cannot be modified */
 485:Drivers/STM32F1xx_HAL_Driver/Src/stm32f1xx_ll_utils.c ****     status = ERROR;
 486:Drivers/STM32F1xx_HAL_Driver/Src/stm32f1xx_ll_utils.c ****   }
 487:Drivers/STM32F1xx_HAL_Driver/Src/stm32f1xx_ll_utils.c **** #if defined(RCC_PLL2_SUPPORT)
 488:Drivers/STM32F1xx_HAL_Driver/Src/stm32f1xx_ll_utils.c ****   /* Check if PLL2 is busy*/
 489:Drivers/STM32F1xx_HAL_Driver/Src/stm32f1xx_ll_utils.c ****   if (LL_RCC_PLL2_IsReady() != 0U)
 490:Drivers/STM32F1xx_HAL_Driver/Src/stm32f1xx_ll_utils.c ****   {
 491:Drivers/STM32F1xx_HAL_Driver/Src/stm32f1xx_ll_utils.c ****     /* PLL2 configuration cannot be modified */
 492:Drivers/STM32F1xx_HAL_Driver/Src/stm32f1xx_ll_utils.c ****     status = ERROR;
 493:Drivers/STM32F1xx_HAL_Driver/Src/stm32f1xx_ll_utils.c ****   }
 494:Drivers/STM32F1xx_HAL_Driver/Src/stm32f1xx_ll_utils.c **** #endif /* RCC_PLL2_SUPPORT */
 495:Drivers/STM32F1xx_HAL_Driver/Src/stm32f1xx_ll_utils.c **** 
 496:Drivers/STM32F1xx_HAL_Driver/Src/stm32f1xx_ll_utils.c **** #if defined(RCC_PLLI2S_SUPPORT)
 497:Drivers/STM32F1xx_HAL_Driver/Src/stm32f1xx_ll_utils.c ****   /* Check if PLLI2S  is busy*/
 498:Drivers/STM32F1xx_HAL_Driver/Src/stm32f1xx_ll_utils.c ****   if (LL_RCC_PLLI2S_IsReady() != 0U)
 499:Drivers/STM32F1xx_HAL_Driver/Src/stm32f1xx_ll_utils.c ****   {
 500:Drivers/STM32F1xx_HAL_Driver/Src/stm32f1xx_ll_utils.c ****     /* PLLI2S configuration cannot be modified */
 501:Drivers/STM32F1xx_HAL_Driver/Src/stm32f1xx_ll_utils.c ****     status = ERROR;
 502:Drivers/STM32F1xx_HAL_Driver/Src/stm32f1xx_ll_utils.c ****   }
 503:Drivers/STM32F1xx_HAL_Driver/Src/stm32f1xx_ll_utils.c **** #endif /* RCC_PLLI2S_SUPPORT */
 504:Drivers/STM32F1xx_HAL_Driver/Src/stm32f1xx_ll_utils.c **** 
 505:Drivers/STM32F1xx_HAL_Driver/Src/stm32f1xx_ll_utils.c ****   return status;
 506:Drivers/STM32F1xx_HAL_Driver/Src/stm32f1xx_ll_utils.c **** }
 507:Drivers/STM32F1xx_HAL_Driver/Src/stm32f1xx_ll_utils.c **** 
 508:Drivers/STM32F1xx_HAL_Driver/Src/stm32f1xx_ll_utils.c **** /**
 509:Drivers/STM32F1xx_HAL_Driver/Src/stm32f1xx_ll_utils.c ****   * @brief  Function to enable PLL and switch system clock to PLL
 510:Drivers/STM32F1xx_HAL_Driver/Src/stm32f1xx_ll_utils.c ****   * @param  SYSCLK_Frequency SYSCLK frequency
ARM GAS  /var/folders/m1/3lv6xmzs0mlckxs4mx90nfb40000gn/T//ccNWxiXD.s 			page 45


 511:Drivers/STM32F1xx_HAL_Driver/Src/stm32f1xx_ll_utils.c ****   * @param  UTILS_ClkInitStruct pointer to a @ref LL_UTILS_ClkInitTypeDef structure that contains
 512:Drivers/STM32F1xx_HAL_Driver/Src/stm32f1xx_ll_utils.c ****   *                             the configuration information for the BUS prescalers.
 513:Drivers/STM32F1xx_HAL_Driver/Src/stm32f1xx_ll_utils.c ****   * @retval An ErrorStatus enumeration value:
 514:Drivers/STM32F1xx_HAL_Driver/Src/stm32f1xx_ll_utils.c ****   *          - SUCCESS: No problem to switch system to PLL
 515:Drivers/STM32F1xx_HAL_Driver/Src/stm32f1xx_ll_utils.c ****   *          - ERROR: Problem to switch system to PLL
 516:Drivers/STM32F1xx_HAL_Driver/Src/stm32f1xx_ll_utils.c ****   */
 517:Drivers/STM32F1xx_HAL_Driver/Src/stm32f1xx_ll_utils.c **** static ErrorStatus UTILS_EnablePLLAndSwitchSystem(uint32_t SYSCLK_Frequency, LL_UTILS_ClkInitTypeDe
 518:Drivers/STM32F1xx_HAL_Driver/Src/stm32f1xx_ll_utils.c **** {
 519:Drivers/STM32F1xx_HAL_Driver/Src/stm32f1xx_ll_utils.c ****   ErrorStatus status = SUCCESS;
 520:Drivers/STM32F1xx_HAL_Driver/Src/stm32f1xx_ll_utils.c **** #if defined(FLASH_ACR_LATENCY)
 521:Drivers/STM32F1xx_HAL_Driver/Src/stm32f1xx_ll_utils.c ****   uint32_t sysclk_frequency_current = 0U;
 522:Drivers/STM32F1xx_HAL_Driver/Src/stm32f1xx_ll_utils.c **** #endif /* FLASH_ACR_LATENCY */
 523:Drivers/STM32F1xx_HAL_Driver/Src/stm32f1xx_ll_utils.c **** 
 524:Drivers/STM32F1xx_HAL_Driver/Src/stm32f1xx_ll_utils.c ****   assert_param(IS_LL_UTILS_SYSCLK_DIV(UTILS_ClkInitStruct->AHBCLKDivider));
 525:Drivers/STM32F1xx_HAL_Driver/Src/stm32f1xx_ll_utils.c ****   assert_param(IS_LL_UTILS_APB1_DIV(UTILS_ClkInitStruct->APB1CLKDivider));
 526:Drivers/STM32F1xx_HAL_Driver/Src/stm32f1xx_ll_utils.c ****   assert_param(IS_LL_UTILS_APB2_DIV(UTILS_ClkInitStruct->APB2CLKDivider));
 527:Drivers/STM32F1xx_HAL_Driver/Src/stm32f1xx_ll_utils.c **** 
 528:Drivers/STM32F1xx_HAL_Driver/Src/stm32f1xx_ll_utils.c **** #if defined(FLASH_ACR_LATENCY)
 529:Drivers/STM32F1xx_HAL_Driver/Src/stm32f1xx_ll_utils.c ****   /* Calculate current SYSCLK frequency */
 530:Drivers/STM32F1xx_HAL_Driver/Src/stm32f1xx_ll_utils.c ****   sysclk_frequency_current = (SystemCoreClock << AHBPrescTable[LL_RCC_GetAHBPrescaler() >> RCC_CFGR
 284              		.loc 1 530 0
 285 0034 3D4E     		ldr	r6, .L56+8
 286              	.LBE147:
 287              	.LBE146:
 288              	.LBB210:
 289              	.LBB144:
 290              		.loc 3 1479 0
 291 0036 5368     		ldr	r3, [r2, #4]
 292              	.LBE144:
 293              	.LBE210:
 294              	.LBB211:
 295              	.LBB206:
 296              		.loc 1 530 0
 297 0038 3D4F     		ldr	r7, .L56+12
 298              	.LBE206:
 299              	.LBE211:
 300              	.LBB212:
 301              	.LBB145:
 302              		.loc 3 1479 0
 303 003a 23F47C13 		bic	r3, r3, #4128768
 304 003e 2B43     		orrs	r3, r3, r5
 305 0040 5360     		str	r3, [r2, #4]
 306              	.LVL14:
 307              	.LBE145:
 308              	.LBE212:
 309              	.LBB213:
 310              	.LBB207:
 311              	.LBB148:
 312              	.LBB149:
1100:Drivers/STM32F1xx_HAL_Driver/Inc/stm32f1xx_ll_rcc.h **** }
 313              		.loc 3 1100 0
 314 0042 5368     		ldr	r3, [r2, #4]
 315              	.LBE149:
 316              	.LBE148:
 317              		.loc 1 530 0
 318 0044 3D68     		ldr	r5, [r7]
 319 0046 C3F30313 		ubfx	r3, r3, #4, #4
ARM GAS  /var/folders/m1/3lv6xmzs0mlckxs4mx90nfb40000gn/T//ccNWxiXD.s 			page 46


 320 004a F35C     		ldrb	r3, [r6, r3]	@ zero_extendqisi2
 321 004c 9D40     		lsls	r5, r5, r3
 322              	.LVL15:
 531:Drivers/STM32F1xx_HAL_Driver/Src/stm32f1xx_ll_utils.c **** #endif /* FLASH_ACR_LATENCY */
 532:Drivers/STM32F1xx_HAL_Driver/Src/stm32f1xx_ll_utils.c **** 
 533:Drivers/STM32F1xx_HAL_Driver/Src/stm32f1xx_ll_utils.c ****   /* Increasing the number of wait states because of higher CPU frequency */
 534:Drivers/STM32F1xx_HAL_Driver/Src/stm32f1xx_ll_utils.c **** #if defined (FLASH_ACR_LATENCY)
 535:Drivers/STM32F1xx_HAL_Driver/Src/stm32f1xx_ll_utils.c ****   if (sysclk_frequency_current < SYSCLK_Frequency)
 323              		.loc 1 535 0
 324 004e AC42     		cmp	r4, r5
 325 0050 30D8     		bhi	.L55
 326              	.L29:
 327              	.LBB150:
 328              	.LBB151:
1389:Drivers/STM32F1xx_HAL_Driver/Inc/stm32f1xx_ll_rcc.h **** }
 329              		.loc 3 1389 0
 330 0052 344B     		ldr	r3, .L56
 331              	.LBE151:
 332              	.LBE150:
 333              	.LBB153:
 334              	.LBB154:
1410:Drivers/STM32F1xx_HAL_Driver/Inc/stm32f1xx_ll_rcc.h **** }
 335              		.loc 3 1410 0
 336 0054 1846     		mov	r0, r3
 337              	.LBE154:
 338              	.LBE153:
 339              	.LBB156:
 340              	.LBB152:
1389:Drivers/STM32F1xx_HAL_Driver/Inc/stm32f1xx_ll_rcc.h **** }
 341              		.loc 3 1389 0
 342 0056 1A68     		ldr	r2, [r3]
 343 0058 42F08072 		orr	r2, r2, #16777216
 344 005c 1A60     		str	r2, [r3]
 345              	.L34:
 346              	.LBE152:
 347              	.LBE156:
 348              	.LBB157:
 349              	.LBB155:
1410:Drivers/STM32F1xx_HAL_Driver/Inc/stm32f1xx_ll_rcc.h **** }
 350              		.loc 3 1410 0
 351 005e 0368     		ldr	r3, [r0]
 352              	.LBE155:
 353              	.LBE157:
 536:Drivers/STM32F1xx_HAL_Driver/Src/stm32f1xx_ll_utils.c ****   {
 537:Drivers/STM32F1xx_HAL_Driver/Src/stm32f1xx_ll_utils.c ****     /* Set FLASH latency to highest latency */
 538:Drivers/STM32F1xx_HAL_Driver/Src/stm32f1xx_ll_utils.c ****     status = UTILS_SetFlashLatency(SYSCLK_Frequency);
 539:Drivers/STM32F1xx_HAL_Driver/Src/stm32f1xx_ll_utils.c ****   }
 540:Drivers/STM32F1xx_HAL_Driver/Src/stm32f1xx_ll_utils.c **** #endif /* FLASH_ACR_LATENCY */
 541:Drivers/STM32F1xx_HAL_Driver/Src/stm32f1xx_ll_utils.c **** 
 542:Drivers/STM32F1xx_HAL_Driver/Src/stm32f1xx_ll_utils.c ****   /* Update system clock configuration */
 543:Drivers/STM32F1xx_HAL_Driver/Src/stm32f1xx_ll_utils.c ****   if (status == SUCCESS)
 544:Drivers/STM32F1xx_HAL_Driver/Src/stm32f1xx_ll_utils.c ****   {
 545:Drivers/STM32F1xx_HAL_Driver/Src/stm32f1xx_ll_utils.c **** #if defined(RCC_PLL2_SUPPORT)
 546:Drivers/STM32F1xx_HAL_Driver/Src/stm32f1xx_ll_utils.c ****     if (LL_RCC_PLL_GetMainSource() != LL_RCC_PLLSOURCE_HSI_DIV_2)
 547:Drivers/STM32F1xx_HAL_Driver/Src/stm32f1xx_ll_utils.c ****     {
 548:Drivers/STM32F1xx_HAL_Driver/Src/stm32f1xx_ll_utils.c ****       /* Enable PLL2 */
 549:Drivers/STM32F1xx_HAL_Driver/Src/stm32f1xx_ll_utils.c ****       LL_RCC_PLL2_Enable();
ARM GAS  /var/folders/m1/3lv6xmzs0mlckxs4mx90nfb40000gn/T//ccNWxiXD.s 			page 47


 550:Drivers/STM32F1xx_HAL_Driver/Src/stm32f1xx_ll_utils.c ****       while (LL_RCC_PLL2_IsReady() != 1U)
 551:Drivers/STM32F1xx_HAL_Driver/Src/stm32f1xx_ll_utils.c ****       {
 552:Drivers/STM32F1xx_HAL_Driver/Src/stm32f1xx_ll_utils.c ****         /* Wait for PLL2 ready */
 553:Drivers/STM32F1xx_HAL_Driver/Src/stm32f1xx_ll_utils.c ****       }
 554:Drivers/STM32F1xx_HAL_Driver/Src/stm32f1xx_ll_utils.c ****     }
 555:Drivers/STM32F1xx_HAL_Driver/Src/stm32f1xx_ll_utils.c **** #endif /* RCC_PLL2_SUPPORT */
 556:Drivers/STM32F1xx_HAL_Driver/Src/stm32f1xx_ll_utils.c ****     /* Enable PLL */
 557:Drivers/STM32F1xx_HAL_Driver/Src/stm32f1xx_ll_utils.c ****     LL_RCC_PLL_Enable();
 558:Drivers/STM32F1xx_HAL_Driver/Src/stm32f1xx_ll_utils.c ****     while (LL_RCC_PLL_IsReady() != 1U)
 354              		.loc 1 558 0
 355 0060 9B01     		lsls	r3, r3, #6
 356 0062 FCD5     		bpl	.L34
 357              	.LBB158:
 358              	.LBB159:
1049:Drivers/STM32F1xx_HAL_Driver/Inc/stm32f1xx_ll_rcc.h **** }
 359              		.loc 3 1049 0
 360 0064 4368     		ldr	r3, [r0, #4]
 361              	.LBE159:
 362              	.LBE158:
 559:Drivers/STM32F1xx_HAL_Driver/Src/stm32f1xx_ll_utils.c ****     {
 560:Drivers/STM32F1xx_HAL_Driver/Src/stm32f1xx_ll_utils.c ****       /* Wait for PLL ready */
 561:Drivers/STM32F1xx_HAL_Driver/Src/stm32f1xx_ll_utils.c ****     }
 562:Drivers/STM32F1xx_HAL_Driver/Src/stm32f1xx_ll_utils.c **** 
 563:Drivers/STM32F1xx_HAL_Driver/Src/stm32f1xx_ll_utils.c ****     /* Sysclk activation on the main PLL */
 564:Drivers/STM32F1xx_HAL_Driver/Src/stm32f1xx_ll_utils.c ****     LL_RCC_SetAHBPrescaler(UTILS_ClkInitStruct->AHBCLKDivider);
 363              		.loc 1 564 0
 364 0066 D1F800C0 		ldr	ip, [r1]
 365              	.LVL16:
 366              	.LBB161:
 367              	.LBB160:
1049:Drivers/STM32F1xx_HAL_Driver/Inc/stm32f1xx_ll_rcc.h **** }
 368              		.loc 3 1049 0
 369 006a 23F0F003 		bic	r3, r3, #240
 370 006e 43EA0C03 		orr	r3, r3, ip
 371 0072 4360     		str	r3, [r0, #4]
 372              	.LVL17:
 373              	.LBE160:
 374              	.LBE161:
 375              	.LBB162:
 376              	.LBB163:
1016:Drivers/STM32F1xx_HAL_Driver/Inc/stm32f1xx_ll_rcc.h **** }
 377              		.loc 3 1016 0
 378 0074 4368     		ldr	r3, [r0, #4]
 379              	.LBE163:
 380              	.LBE162:
 381              	.LBB165:
 382              	.LBB166:
1029:Drivers/STM32F1xx_HAL_Driver/Inc/stm32f1xx_ll_rcc.h **** }
 383              		.loc 3 1029 0
 384 0076 2B4A     		ldr	r2, .L56
 385              	.LBE166:
 386              	.LBE165:
 387              	.LBB168:
 388              	.LBB164:
1016:Drivers/STM32F1xx_HAL_Driver/Inc/stm32f1xx_ll_rcc.h **** }
 389              		.loc 3 1016 0
 390 0078 23F00303 		bic	r3, r3, #3
ARM GAS  /var/folders/m1/3lv6xmzs0mlckxs4mx90nfb40000gn/T//ccNWxiXD.s 			page 48


 391 007c 43F00203 		orr	r3, r3, #2
 392 0080 4360     		str	r3, [r0, #4]
 393              	.L35:
 394              	.LBE164:
 395              	.LBE168:
 396              	.LBB169:
 397              	.LBB167:
1029:Drivers/STM32F1xx_HAL_Driver/Inc/stm32f1xx_ll_rcc.h **** }
 398              		.loc 3 1029 0
 399 0082 5368     		ldr	r3, [r2, #4]
 400 0084 03F00C03 		and	r3, r3, #12
 401              	.LBE167:
 402              	.LBE169:
 565:Drivers/STM32F1xx_HAL_Driver/Src/stm32f1xx_ll_utils.c ****     LL_RCC_SetSysClkSource(LL_RCC_SYS_CLKSOURCE_PLL);
 566:Drivers/STM32F1xx_HAL_Driver/Src/stm32f1xx_ll_utils.c ****     while (LL_RCC_GetSysClkSource() != LL_RCC_SYS_CLKSOURCE_STATUS_PLL)
 403              		.loc 1 566 0
 404 0088 082B     		cmp	r3, #8
 405 008a FAD1     		bne	.L35
 406              	.LVL18:
 407              	.LBB170:
 408              	.LBB171:
1065:Drivers/STM32F1xx_HAL_Driver/Inc/stm32f1xx_ll_rcc.h **** }
 409              		.loc 3 1065 0
 410 008c 5368     		ldr	r3, [r2, #4]
 411 008e 4868     		ldr	r0, [r1, #4]
 412 0090 23F4E063 		bic	r3, r3, #1792
 413 0094 0343     		orrs	r3, r3, r0
 414 0096 5360     		str	r3, [r2, #4]
 415              	.LVL19:
 416              	.LBE171:
 417              	.LBE170:
 418              	.LBB172:
 419              	.LBB173:
1081:Drivers/STM32F1xx_HAL_Driver/Inc/stm32f1xx_ll_rcc.h **** }
 420              		.loc 3 1081 0
 421 0098 5368     		ldr	r3, [r2, #4]
 422 009a 8868     		ldr	r0, [r1, #8]
 423 009c 23F46053 		bic	r3, r3, #14336
 424 00a0 0343     		orrs	r3, r3, r0
 425              	.LBE173:
 426              	.LBE172:
 567:Drivers/STM32F1xx_HAL_Driver/Src/stm32f1xx_ll_utils.c ****     {
 568:Drivers/STM32F1xx_HAL_Driver/Src/stm32f1xx_ll_utils.c ****       /* Wait for system clock switch to PLL */
 569:Drivers/STM32F1xx_HAL_Driver/Src/stm32f1xx_ll_utils.c ****     }
 570:Drivers/STM32F1xx_HAL_Driver/Src/stm32f1xx_ll_utils.c **** 
 571:Drivers/STM32F1xx_HAL_Driver/Src/stm32f1xx_ll_utils.c ****     /* Set APB1 & APB2 prescaler*/
 572:Drivers/STM32F1xx_HAL_Driver/Src/stm32f1xx_ll_utils.c ****     LL_RCC_SetAPB1Prescaler(UTILS_ClkInitStruct->APB1CLKDivider);
 573:Drivers/STM32F1xx_HAL_Driver/Src/stm32f1xx_ll_utils.c ****     LL_RCC_SetAPB2Prescaler(UTILS_ClkInitStruct->APB2CLKDivider);
 574:Drivers/STM32F1xx_HAL_Driver/Src/stm32f1xx_ll_utils.c ****   }
 575:Drivers/STM32F1xx_HAL_Driver/Src/stm32f1xx_ll_utils.c **** 
 576:Drivers/STM32F1xx_HAL_Driver/Src/stm32f1xx_ll_utils.c ****   /* Decreasing the number of wait states because of lower CPU frequency */
 577:Drivers/STM32F1xx_HAL_Driver/Src/stm32f1xx_ll_utils.c **** #if defined (FLASH_ACR_LATENCY)
 578:Drivers/STM32F1xx_HAL_Driver/Src/stm32f1xx_ll_utils.c ****   if (sysclk_frequency_current > SYSCLK_Frequency)
 427              		.loc 1 578 0
 428 00a2 AC42     		cmp	r4, r5
 429              	.LBB175:
 430              	.LBB174:
ARM GAS  /var/folders/m1/3lv6xmzs0mlckxs4mx90nfb40000gn/T//ccNWxiXD.s 			page 49


1081:Drivers/STM32F1xx_HAL_Driver/Inc/stm32f1xx_ll_rcc.h **** }
 431              		.loc 3 1081 0
 432 00a4 5360     		str	r3, [r2, #4]
 433              	.LVL20:
 434              	.LBE174:
 435              	.LBE175:
 436              		.loc 1 578 0
 437 00a6 2FD2     		bcs	.L36
 438              	.LVL21:
 439              	.LBB176:
 440              	.LBB177:
 412:Drivers/STM32F1xx_HAL_Driver/Src/stm32f1xx_ll_utils.c ****   {
