ARM GAS  /var/folders/m1/3lv6xmzs0mlckxs4mx90nfb40000gn/T//ccOxfUMW.s 			page 1


   1              		.cpu cortex-m3
   2              		.eabi_attribute 20, 1
   3              		.eabi_attribute 21, 1
   4              		.eabi_attribute 23, 3
   5              		.eabi_attribute 24, 1
   6              		.eabi_attribute 25, 1
   7              		.eabi_attribute 26, 1
   8              		.eabi_attribute 30, 2
   9              		.eabi_attribute 34, 1
  10              		.eabi_attribute 18, 4
  11              		.file	"system.c"
  12              		.text
  13              	.Ltext0:
  14              		.cfi_sections	.debug_frame
  15              		.section	.text.system_init,"ax",%progbits
  16              		.align	1
  17              		.p2align 2,,3
  18              		.global	system_init
  19              		.syntax unified
  20              		.thumb
  21              		.thumb_func
  22              		.fpu softvfp
  24              	system_init:
  25              	.LFB703:
  26              		.file 1 "grbl/system.c"
   1:grbl/system.c **** /*
   2:grbl/system.c ****   system.c - Handles system level commands and real-time processes
   3:grbl/system.c ****   Part of Grbl
   4:grbl/system.c **** 
   5:grbl/system.c ****   Copyright (c) 2014-2016 Sungeun K. Jeon for Gnea Research LLC
   6:grbl/system.c ****   Copyright (c) 2018-2019 Thomas Truong
   7:grbl/system.c **** 
   8:grbl/system.c ****   Grbl is free software: you can redistribute it and/or modify
   9:grbl/system.c ****   it under the terms of the GNU General Public License as published by
  10:grbl/system.c ****   the Free Software Foundation, either version 3 of the License, or
  11:grbl/system.c ****   (at your option) any later version.
  12:grbl/system.c **** 
  13:grbl/system.c ****   Grbl is distributed in the hope that it will be useful,
  14:grbl/system.c ****   but WITHOUT ANY WARRANTY; without even the implied warranty of
  15:grbl/system.c ****   MERCHANTABILITY or FITNESS FOR A PARTICULAR PURPOSE.  See the
  16:grbl/system.c ****   GNU General Public License for more details.
  17:grbl/system.c **** 
  18:grbl/system.c ****   You should have received a copy of the GNU General Public License
  19:grbl/system.c ****   along with Grbl.  If not, see <http://www.gnu.org/licenses/>.
  20:grbl/system.c **** */
  21:grbl/system.c **** 
  22:grbl/system.c **** #include "grbl.h"
  23:grbl/system.c **** 
  24:grbl/system.c **** void system_init()
  25:grbl/system.c **** {
  27              		.loc 1 25 0
  28              		.cfi_startproc
  29              		@ args = 0, pretend = 0, frame = 0
  30              		@ frame_needed = 0, uses_anonymous_args = 0
  31              		@ link register save eliminated.
  26:grbl/system.c **** }
  32              		.loc 1 26 0
ARM GAS  /var/folders/m1/3lv6xmzs0mlckxs4mx90nfb40000gn/T//ccOxfUMW.s 			page 2


  33 0000 7047     		bx	lr
  34              		.cfi_endproc
  35              	.LFE703:
  37 0002 00BF     		.section	.text.system_control_get_state,"ax",%progbits
  38              		.align	1
  39              		.p2align 2,,3
  40              		.global	system_control_get_state
  41              		.syntax unified
  42              		.thumb
  43              		.thumb_func
  44              		.fpu softvfp
  46              	system_control_get_state:
  47              	.LFB704:
  27:grbl/system.c **** 
  28:grbl/system.c **** 
  29:grbl/system.c **** // Returns control pin state as a uint8 bitfield. Each bit indicates the input pin state, where
  30:grbl/system.c **** // triggered is 1 and not triggered is 0. Invert mask is applied. Bitfield organization is
  31:grbl/system.c **** // defined by the CONTROL_PIN_INDEX in the header file.
  32:grbl/system.c **** uint8_t system_control_get_state()
  33:grbl/system.c **** {
  48              		.loc 1 33 0
  49              		.cfi_startproc
  50              		@ args = 0, pretend = 0, frame = 0
  51              		@ frame_needed = 0, uses_anonymous_args = 0
  52              		@ link register save eliminated.
  53              	.LVL0:
  54              	.LBB50:
  55              	.LBB51:
  56              		.file 2 "Drivers/STM32F1xx_HAL_Driver/Inc/stm32f1xx_ll_gpio.h"
   1:Drivers/STM32F1xx_HAL_Driver/Inc/stm32f1xx_ll_gpio.h **** /**
   2:Drivers/STM32F1xx_HAL_Driver/Inc/stm32f1xx_ll_gpio.h ****   ******************************************************************************
   3:Drivers/STM32F1xx_HAL_Driver/Inc/stm32f1xx_ll_gpio.h ****   * @file    stm32f1xx_ll_gpio.h
   4:Drivers/STM32F1xx_HAL_Driver/Inc/stm32f1xx_ll_gpio.h ****   * @author  MCD Application Team
   5:Drivers/STM32F1xx_HAL_Driver/Inc/stm32f1xx_ll_gpio.h ****   * @brief   Header file of GPIO LL module.
   6:Drivers/STM32F1xx_HAL_Driver/Inc/stm32f1xx_ll_gpio.h ****   ******************************************************************************
   7:Drivers/STM32F1xx_HAL_Driver/Inc/stm32f1xx_ll_gpio.h ****   * @attention
   8:Drivers/STM32F1xx_HAL_Driver/Inc/stm32f1xx_ll_gpio.h ****   *
   9:Drivers/STM32F1xx_HAL_Driver/Inc/stm32f1xx_ll_gpio.h ****   * <h2><center>&copy; Copyright (c) 2016 STMicroelectronics.
  10:Drivers/STM32F1xx_HAL_Driver/Inc/stm32f1xx_ll_gpio.h ****   * All rights reserved.</center></h2>
  11:Drivers/STM32F1xx_HAL_Driver/Inc/stm32f1xx_ll_gpio.h ****   *
  12:Drivers/STM32F1xx_HAL_Driver/Inc/stm32f1xx_ll_gpio.h ****   * This software component is licensed by ST under BSD 3-Clause license,
  13:Drivers/STM32F1xx_HAL_Driver/Inc/stm32f1xx_ll_gpio.h ****   * the "License"; You may not use this file except in compliance with the
  14:Drivers/STM32F1xx_HAL_Driver/Inc/stm32f1xx_ll_gpio.h ****   * License. You may obtain a copy of the License at:
  15:Drivers/STM32F1xx_HAL_Driver/Inc/stm32f1xx_ll_gpio.h ****   *                        opensource.org/licenses/BSD-3-Clause
  16:Drivers/STM32F1xx_HAL_Driver/Inc/stm32f1xx_ll_gpio.h ****   *
  17:Drivers/STM32F1xx_HAL_Driver/Inc/stm32f1xx_ll_gpio.h ****   ******************************************************************************
  18:Drivers/STM32F1xx_HAL_Driver/Inc/stm32f1xx_ll_gpio.h ****   */
  19:Drivers/STM32F1xx_HAL_Driver/Inc/stm32f1xx_ll_gpio.h **** 
  20:Drivers/STM32F1xx_HAL_Driver/Inc/stm32f1xx_ll_gpio.h **** /* Define to prevent recursive inclusion -------------------------------------*/
  21:Drivers/STM32F1xx_HAL_Driver/Inc/stm32f1xx_ll_gpio.h **** #ifndef STM32F1xx_LL_GPIO_H
  22:Drivers/STM32F1xx_HAL_Driver/Inc/stm32f1xx_ll_gpio.h **** #define STM32F1xx_LL_GPIO_H
  23:Drivers/STM32F1xx_HAL_Driver/Inc/stm32f1xx_ll_gpio.h **** 
  24:Drivers/STM32F1xx_HAL_Driver/Inc/stm32f1xx_ll_gpio.h **** #ifdef __cplusplus
  25:Drivers/STM32F1xx_HAL_Driver/Inc/stm32f1xx_ll_gpio.h **** extern "C" {
  26:Drivers/STM32F1xx_HAL_Driver/Inc/stm32f1xx_ll_gpio.h **** #endif
  27:Drivers/STM32F1xx_HAL_Driver/Inc/stm32f1xx_ll_gpio.h **** 
  28:Drivers/STM32F1xx_HAL_Driver/Inc/stm32f1xx_ll_gpio.h **** /* Includes ------------------------------------------------------------------*/
ARM GAS  /var/folders/m1/3lv6xmzs0mlckxs4mx90nfb40000gn/T//ccOxfUMW.s 			page 3


  29:Drivers/STM32F1xx_HAL_Driver/Inc/stm32f1xx_ll_gpio.h **** #include "stm32f1xx.h"
  30:Drivers/STM32F1xx_HAL_Driver/Inc/stm32f1xx_ll_gpio.h **** 
  31:Drivers/STM32F1xx_HAL_Driver/Inc/stm32f1xx_ll_gpio.h **** /** @addtogroup STM32F1xx_LL_Driver
  32:Drivers/STM32F1xx_HAL_Driver/Inc/stm32f1xx_ll_gpio.h ****   * @{
  33:Drivers/STM32F1xx_HAL_Driver/Inc/stm32f1xx_ll_gpio.h ****   */
  34:Drivers/STM32F1xx_HAL_Driver/Inc/stm32f1xx_ll_gpio.h **** 
  35:Drivers/STM32F1xx_HAL_Driver/Inc/stm32f1xx_ll_gpio.h **** #if defined (GPIOA) || defined (GPIOB) || defined (GPIOC) || defined (GPIOD) || defined (GPIOE) || 
  36:Drivers/STM32F1xx_HAL_Driver/Inc/stm32f1xx_ll_gpio.h **** 
  37:Drivers/STM32F1xx_HAL_Driver/Inc/stm32f1xx_ll_gpio.h **** /** @defgroup GPIO_LL GPIO
  38:Drivers/STM32F1xx_HAL_Driver/Inc/stm32f1xx_ll_gpio.h ****   * @{
  39:Drivers/STM32F1xx_HAL_Driver/Inc/stm32f1xx_ll_gpio.h ****   */
  40:Drivers/STM32F1xx_HAL_Driver/Inc/stm32f1xx_ll_gpio.h **** 
  41:Drivers/STM32F1xx_HAL_Driver/Inc/stm32f1xx_ll_gpio.h **** /* Private types -------------------------------------------------------------*/
  42:Drivers/STM32F1xx_HAL_Driver/Inc/stm32f1xx_ll_gpio.h **** /* Private variables ---------------------------------------------------------*/
  43:Drivers/STM32F1xx_HAL_Driver/Inc/stm32f1xx_ll_gpio.h **** /* Private constants ---------------------------------------------------------*/
  44:Drivers/STM32F1xx_HAL_Driver/Inc/stm32f1xx_ll_gpio.h **** 
  45:Drivers/STM32F1xx_HAL_Driver/Inc/stm32f1xx_ll_gpio.h **** /** @defgroup GPIO_LL_Private_Constants GPIO Private Constants
  46:Drivers/STM32F1xx_HAL_Driver/Inc/stm32f1xx_ll_gpio.h ****   * @{
  47:Drivers/STM32F1xx_HAL_Driver/Inc/stm32f1xx_ll_gpio.h ****   */
  48:Drivers/STM32F1xx_HAL_Driver/Inc/stm32f1xx_ll_gpio.h **** /* Defines used for Pin Mask Initialization */
  49:Drivers/STM32F1xx_HAL_Driver/Inc/stm32f1xx_ll_gpio.h **** #define GPIO_PIN_MASK_POS   8U
  50:Drivers/STM32F1xx_HAL_Driver/Inc/stm32f1xx_ll_gpio.h **** #define GPIO_PIN_NB         16U
  51:Drivers/STM32F1xx_HAL_Driver/Inc/stm32f1xx_ll_gpio.h **** /**
  52:Drivers/STM32F1xx_HAL_Driver/Inc/stm32f1xx_ll_gpio.h ****   * @}
  53:Drivers/STM32F1xx_HAL_Driver/Inc/stm32f1xx_ll_gpio.h ****   */
  54:Drivers/STM32F1xx_HAL_Driver/Inc/stm32f1xx_ll_gpio.h **** 
  55:Drivers/STM32F1xx_HAL_Driver/Inc/stm32f1xx_ll_gpio.h **** /* Private macros ------------------------------------------------------------*/
  56:Drivers/STM32F1xx_HAL_Driver/Inc/stm32f1xx_ll_gpio.h **** #if defined(USE_FULL_LL_DRIVER)
  57:Drivers/STM32F1xx_HAL_Driver/Inc/stm32f1xx_ll_gpio.h **** /** @defgroup GPIO_LL_Private_Macros GPIO Private Macros
  58:Drivers/STM32F1xx_HAL_Driver/Inc/stm32f1xx_ll_gpio.h ****   * @{
  59:Drivers/STM32F1xx_HAL_Driver/Inc/stm32f1xx_ll_gpio.h ****   */
  60:Drivers/STM32F1xx_HAL_Driver/Inc/stm32f1xx_ll_gpio.h **** 
  61:Drivers/STM32F1xx_HAL_Driver/Inc/stm32f1xx_ll_gpio.h **** /**
  62:Drivers/STM32F1xx_HAL_Driver/Inc/stm32f1xx_ll_gpio.h ****   * @}
  63:Drivers/STM32F1xx_HAL_Driver/Inc/stm32f1xx_ll_gpio.h ****   */
  64:Drivers/STM32F1xx_HAL_Driver/Inc/stm32f1xx_ll_gpio.h **** #endif /*USE_FULL_LL_DRIVER*/
  65:Drivers/STM32F1xx_HAL_Driver/Inc/stm32f1xx_ll_gpio.h **** 
  66:Drivers/STM32F1xx_HAL_Driver/Inc/stm32f1xx_ll_gpio.h **** /* Exported types ------------------------------------------------------------*/
  67:Drivers/STM32F1xx_HAL_Driver/Inc/stm32f1xx_ll_gpio.h **** #if defined(USE_FULL_LL_DRIVER)
  68:Drivers/STM32F1xx_HAL_Driver/Inc/stm32f1xx_ll_gpio.h **** /** @defgroup GPIO_LL_ES_INIT GPIO Exported Init structures
  69:Drivers/STM32F1xx_HAL_Driver/Inc/stm32f1xx_ll_gpio.h ****   * @{
  70:Drivers/STM32F1xx_HAL_Driver/Inc/stm32f1xx_ll_gpio.h ****   */
  71:Drivers/STM32F1xx_HAL_Driver/Inc/stm32f1xx_ll_gpio.h **** 
  72:Drivers/STM32F1xx_HAL_Driver/Inc/stm32f1xx_ll_gpio.h **** /**
  73:Drivers/STM32F1xx_HAL_Driver/Inc/stm32f1xx_ll_gpio.h ****   * @brief LL GPIO Init Structure definition
  74:Drivers/STM32F1xx_HAL_Driver/Inc/stm32f1xx_ll_gpio.h ****   */
  75:Drivers/STM32F1xx_HAL_Driver/Inc/stm32f1xx_ll_gpio.h **** typedef struct
  76:Drivers/STM32F1xx_HAL_Driver/Inc/stm32f1xx_ll_gpio.h **** {
  77:Drivers/STM32F1xx_HAL_Driver/Inc/stm32f1xx_ll_gpio.h ****   uint32_t Pin;          /*!< Specifies the GPIO pins to be configured.
  78:Drivers/STM32F1xx_HAL_Driver/Inc/stm32f1xx_ll_gpio.h ****                               This parameter can be any value of @ref GPIO_LL_EC_PIN */
  79:Drivers/STM32F1xx_HAL_Driver/Inc/stm32f1xx_ll_gpio.h **** 
  80:Drivers/STM32F1xx_HAL_Driver/Inc/stm32f1xx_ll_gpio.h ****   uint32_t Mode;         /*!< Specifies the operating mode for the selected pins.
  81:Drivers/STM32F1xx_HAL_Driver/Inc/stm32f1xx_ll_gpio.h ****                               This parameter can be a value of @ref GPIO_LL_EC_MODE.
  82:Drivers/STM32F1xx_HAL_Driver/Inc/stm32f1xx_ll_gpio.h **** 
  83:Drivers/STM32F1xx_HAL_Driver/Inc/stm32f1xx_ll_gpio.h ****                               GPIO HW configuration can be modified afterwards using unitary functi
  84:Drivers/STM32F1xx_HAL_Driver/Inc/stm32f1xx_ll_gpio.h **** 
  85:Drivers/STM32F1xx_HAL_Driver/Inc/stm32f1xx_ll_gpio.h ****   uint32_t Speed;        /*!< Specifies the speed for the selected pins.
ARM GAS  /var/folders/m1/3lv6xmzs0mlckxs4mx90nfb40000gn/T//ccOxfUMW.s 			page 4


  86:Drivers/STM32F1xx_HAL_Driver/Inc/stm32f1xx_ll_gpio.h ****                               This parameter can be a value of @ref GPIO_LL_EC_SPEED.
  87:Drivers/STM32F1xx_HAL_Driver/Inc/stm32f1xx_ll_gpio.h **** 
  88:Drivers/STM32F1xx_HAL_Driver/Inc/stm32f1xx_ll_gpio.h ****                               GPIO HW configuration can be modified afterwards using unitary functi
  89:Drivers/STM32F1xx_HAL_Driver/Inc/stm32f1xx_ll_gpio.h **** 
  90:Drivers/STM32F1xx_HAL_Driver/Inc/stm32f1xx_ll_gpio.h ****   uint32_t OutputType;   /*!< Specifies the operating output type for the selected pins.
  91:Drivers/STM32F1xx_HAL_Driver/Inc/stm32f1xx_ll_gpio.h ****                               This parameter can be a value of @ref GPIO_LL_EC_OUTPUT.
  92:Drivers/STM32F1xx_HAL_Driver/Inc/stm32f1xx_ll_gpio.h **** 
  93:Drivers/STM32F1xx_HAL_Driver/Inc/stm32f1xx_ll_gpio.h ****                               GPIO HW configuration can be modified afterwards using unitary functi
  94:Drivers/STM32F1xx_HAL_Driver/Inc/stm32f1xx_ll_gpio.h **** 
  95:Drivers/STM32F1xx_HAL_Driver/Inc/stm32f1xx_ll_gpio.h ****   uint32_t Pull;         /*!< Specifies the operating Pull-up/Pull down for the selected pins.
  96:Drivers/STM32F1xx_HAL_Driver/Inc/stm32f1xx_ll_gpio.h ****                               This parameter can be a value of @ref GPIO_LL_EC_PULL.
  97:Drivers/STM32F1xx_HAL_Driver/Inc/stm32f1xx_ll_gpio.h **** 
  98:Drivers/STM32F1xx_HAL_Driver/Inc/stm32f1xx_ll_gpio.h ****                               GPIO HW configuration can be modified afterwards using unitary functi
  99:Drivers/STM32F1xx_HAL_Driver/Inc/stm32f1xx_ll_gpio.h **** } LL_GPIO_InitTypeDef;
 100:Drivers/STM32F1xx_HAL_Driver/Inc/stm32f1xx_ll_gpio.h **** 
 101:Drivers/STM32F1xx_HAL_Driver/Inc/stm32f1xx_ll_gpio.h **** /**
 102:Drivers/STM32F1xx_HAL_Driver/Inc/stm32f1xx_ll_gpio.h ****   * @}
 103:Drivers/STM32F1xx_HAL_Driver/Inc/stm32f1xx_ll_gpio.h ****   */
 104:Drivers/STM32F1xx_HAL_Driver/Inc/stm32f1xx_ll_gpio.h **** #endif /* USE_FULL_LL_DRIVER */
 105:Drivers/STM32F1xx_HAL_Driver/Inc/stm32f1xx_ll_gpio.h **** 
 106:Drivers/STM32F1xx_HAL_Driver/Inc/stm32f1xx_ll_gpio.h **** /* Exported constants --------------------------------------------------------*/
 107:Drivers/STM32F1xx_HAL_Driver/Inc/stm32f1xx_ll_gpio.h **** /** @defgroup GPIO_LL_Exported_Constants GPIO Exported Constants
 108:Drivers/STM32F1xx_HAL_Driver/Inc/stm32f1xx_ll_gpio.h ****   * @{
 109:Drivers/STM32F1xx_HAL_Driver/Inc/stm32f1xx_ll_gpio.h ****   */
 110:Drivers/STM32F1xx_HAL_Driver/Inc/stm32f1xx_ll_gpio.h **** 
 111:Drivers/STM32F1xx_HAL_Driver/Inc/stm32f1xx_ll_gpio.h **** /** @defgroup GPIO_LL_EC_PIN PIN
 112:Drivers/STM32F1xx_HAL_Driver/Inc/stm32f1xx_ll_gpio.h ****   * @{
 113:Drivers/STM32F1xx_HAL_Driver/Inc/stm32f1xx_ll_gpio.h ****   */
 114:Drivers/STM32F1xx_HAL_Driver/Inc/stm32f1xx_ll_gpio.h **** #define LL_GPIO_PIN_0                    ((GPIO_BSRR_BS0  << GPIO_PIN_MASK_POS) | 0x00000001U)  /*!
 115:Drivers/STM32F1xx_HAL_Driver/Inc/stm32f1xx_ll_gpio.h **** #define LL_GPIO_PIN_1                    ((GPIO_BSRR_BS1  << GPIO_PIN_MASK_POS) | 0x00000002U)  /*!
 116:Drivers/STM32F1xx_HAL_Driver/Inc/stm32f1xx_ll_gpio.h **** #define LL_GPIO_PIN_2                    ((GPIO_BSRR_BS2  << GPIO_PIN_MASK_POS) | 0x00000004U)  /*!
 117:Drivers/STM32F1xx_HAL_Driver/Inc/stm32f1xx_ll_gpio.h **** #define LL_GPIO_PIN_3                    ((GPIO_BSRR_BS3  << GPIO_PIN_MASK_POS) | 0x00000008U)  /*!
 118:Drivers/STM32F1xx_HAL_Driver/Inc/stm32f1xx_ll_gpio.h **** #define LL_GPIO_PIN_4                    ((GPIO_BSRR_BS4  << GPIO_PIN_MASK_POS) | 0x00000010U)  /*!
 119:Drivers/STM32F1xx_HAL_Driver/Inc/stm32f1xx_ll_gpio.h **** #define LL_GPIO_PIN_5                    ((GPIO_BSRR_BS5  << GPIO_PIN_MASK_POS) | 0x00000020U)  /*!
 120:Drivers/STM32F1xx_HAL_Driver/Inc/stm32f1xx_ll_gpio.h **** #define LL_GPIO_PIN_6                    ((GPIO_BSRR_BS6  << GPIO_PIN_MASK_POS) | 0x00000040U)  /*!
 121:Drivers/STM32F1xx_HAL_Driver/Inc/stm32f1xx_ll_gpio.h **** #define LL_GPIO_PIN_7                    ((GPIO_BSRR_BS7  << GPIO_PIN_MASK_POS) | 0x00000080U)  /*!
 122:Drivers/STM32F1xx_HAL_Driver/Inc/stm32f1xx_ll_gpio.h **** #define LL_GPIO_PIN_8                    ((GPIO_BSRR_BS8  << GPIO_PIN_MASK_POS) | 0x04000001U)  /*!
 123:Drivers/STM32F1xx_HAL_Driver/Inc/stm32f1xx_ll_gpio.h **** #define LL_GPIO_PIN_9                    ((GPIO_BSRR_BS9  << GPIO_PIN_MASK_POS) | 0x04000002U)  /*!
 124:Drivers/STM32F1xx_HAL_Driver/Inc/stm32f1xx_ll_gpio.h **** #define LL_GPIO_PIN_10                   ((GPIO_BSRR_BS10 << GPIO_PIN_MASK_POS) | 0x04000004U)  /*!
 125:Drivers/STM32F1xx_HAL_Driver/Inc/stm32f1xx_ll_gpio.h **** #define LL_GPIO_PIN_11                   ((GPIO_BSRR_BS11 << GPIO_PIN_MASK_POS) | 0x04000008U)  /*!
 126:Drivers/STM32F1xx_HAL_Driver/Inc/stm32f1xx_ll_gpio.h **** #define LL_GPIO_PIN_12                   ((GPIO_BSRR_BS12 << GPIO_PIN_MASK_POS) | 0x04000010U)  /*!
 127:Drivers/STM32F1xx_HAL_Driver/Inc/stm32f1xx_ll_gpio.h **** #define LL_GPIO_PIN_13                   ((GPIO_BSRR_BS13 << GPIO_PIN_MASK_POS) | 0x04000020U)  /*!
 128:Drivers/STM32F1xx_HAL_Driver/Inc/stm32f1xx_ll_gpio.h **** #define LL_GPIO_PIN_14                   ((GPIO_BSRR_BS14 << GPIO_PIN_MASK_POS) | 0x04000040U)  /*!
 129:Drivers/STM32F1xx_HAL_Driver/Inc/stm32f1xx_ll_gpio.h **** #define LL_GPIO_PIN_15                   ((GPIO_BSRR_BS15 << GPIO_PIN_MASK_POS) | 0x04000080U)  /*!
 130:Drivers/STM32F1xx_HAL_Driver/Inc/stm32f1xx_ll_gpio.h **** #define LL_GPIO_PIN_ALL                  (LL_GPIO_PIN_0  | LL_GPIO_PIN_1  | LL_GPIO_PIN_2  | \
 131:Drivers/STM32F1xx_HAL_Driver/Inc/stm32f1xx_ll_gpio.h ****                                           LL_GPIO_PIN_3  | LL_GPIO_PIN_4  | LL_GPIO_PIN_5  | \
 132:Drivers/STM32F1xx_HAL_Driver/Inc/stm32f1xx_ll_gpio.h ****                                           LL_GPIO_PIN_6  | LL_GPIO_PIN_7  | LL_GPIO_PIN_8  | \
 133:Drivers/STM32F1xx_HAL_Driver/Inc/stm32f1xx_ll_gpio.h ****                                           LL_GPIO_PIN_9  | LL_GPIO_PIN_10 | LL_GPIO_PIN_11 | \
 134:Drivers/STM32F1xx_HAL_Driver/Inc/stm32f1xx_ll_gpio.h ****                                           LL_GPIO_PIN_12 | LL_GPIO_PIN_13 | LL_GPIO_PIN_14 | \
 135:Drivers/STM32F1xx_HAL_Driver/Inc/stm32f1xx_ll_gpio.h ****                                           LL_GPIO_PIN_15)                                      /*!<
 136:Drivers/STM32F1xx_HAL_Driver/Inc/stm32f1xx_ll_gpio.h **** /**
 137:Drivers/STM32F1xx_HAL_Driver/Inc/stm32f1xx_ll_gpio.h ****   * @}
 138:Drivers/STM32F1xx_HAL_Driver/Inc/stm32f1xx_ll_gpio.h ****   */
 139:Drivers/STM32F1xx_HAL_Driver/Inc/stm32f1xx_ll_gpio.h **** 
 140:Drivers/STM32F1xx_HAL_Driver/Inc/stm32f1xx_ll_gpio.h **** /** @defgroup GPIO_LL_EC_MODE Mode
 141:Drivers/STM32F1xx_HAL_Driver/Inc/stm32f1xx_ll_gpio.h ****   * @{
 142:Drivers/STM32F1xx_HAL_Driver/Inc/stm32f1xx_ll_gpio.h ****   */
ARM GAS  /var/folders/m1/3lv6xmzs0mlckxs4mx90nfb40000gn/T//ccOxfUMW.s 			page 5


 143:Drivers/STM32F1xx_HAL_Driver/Inc/stm32f1xx_ll_gpio.h **** #define LL_GPIO_MODE_ANALOG              0x00000000U       /*!< Select analog mode */
 144:Drivers/STM32F1xx_HAL_Driver/Inc/stm32f1xx_ll_gpio.h **** #define LL_GPIO_MODE_FLOATING            GPIO_CRL_CNF0_0   /*!< Select floating mode */
 145:Drivers/STM32F1xx_HAL_Driver/Inc/stm32f1xx_ll_gpio.h **** #define LL_GPIO_MODE_INPUT               GPIO_CRL_CNF0_1   /*!< Select input mode */
 146:Drivers/STM32F1xx_HAL_Driver/Inc/stm32f1xx_ll_gpio.h **** #define LL_GPIO_MODE_OUTPUT              GPIO_CRL_MODE0_0  /*!< Select general purpose output mode 
 147:Drivers/STM32F1xx_HAL_Driver/Inc/stm32f1xx_ll_gpio.h **** #define LL_GPIO_MODE_ALTERNATE           (GPIO_CRL_CNF0_1 | GPIO_CRL_MODE0_0) /*!< Select alternate
 148:Drivers/STM32F1xx_HAL_Driver/Inc/stm32f1xx_ll_gpio.h **** /**
 149:Drivers/STM32F1xx_HAL_Driver/Inc/stm32f1xx_ll_gpio.h ****   * @}
 150:Drivers/STM32F1xx_HAL_Driver/Inc/stm32f1xx_ll_gpio.h ****   */
 151:Drivers/STM32F1xx_HAL_Driver/Inc/stm32f1xx_ll_gpio.h **** 
 152:Drivers/STM32F1xx_HAL_Driver/Inc/stm32f1xx_ll_gpio.h **** /** @defgroup GPIO_LL_EC_OUTPUT Output Type
 153:Drivers/STM32F1xx_HAL_Driver/Inc/stm32f1xx_ll_gpio.h ****   * @{
 154:Drivers/STM32F1xx_HAL_Driver/Inc/stm32f1xx_ll_gpio.h ****   */
 155:Drivers/STM32F1xx_HAL_Driver/Inc/stm32f1xx_ll_gpio.h **** #define LL_GPIO_OUTPUT_PUSHPULL          0x00000000U                /*!< Select push-pull as output
 156:Drivers/STM32F1xx_HAL_Driver/Inc/stm32f1xx_ll_gpio.h **** #define LL_GPIO_OUTPUT_OPENDRAIN         GPIO_CRL_CNF0_0            /*!< Select open-drain as outpu
 157:Drivers/STM32F1xx_HAL_Driver/Inc/stm32f1xx_ll_gpio.h **** /**
 158:Drivers/STM32F1xx_HAL_Driver/Inc/stm32f1xx_ll_gpio.h ****   * @}
 159:Drivers/STM32F1xx_HAL_Driver/Inc/stm32f1xx_ll_gpio.h ****   */
 160:Drivers/STM32F1xx_HAL_Driver/Inc/stm32f1xx_ll_gpio.h **** 
 161:Drivers/STM32F1xx_HAL_Driver/Inc/stm32f1xx_ll_gpio.h **** /** @defgroup GPIO_LL_EC_SPEED Output Speed
 162:Drivers/STM32F1xx_HAL_Driver/Inc/stm32f1xx_ll_gpio.h ****   * @{
 163:Drivers/STM32F1xx_HAL_Driver/Inc/stm32f1xx_ll_gpio.h ****   */
 164:Drivers/STM32F1xx_HAL_Driver/Inc/stm32f1xx_ll_gpio.h **** #define LL_GPIO_MODE_OUTPUT_10MHz        GPIO_CRL_MODE0_0            /*!< Select Output mode, max s
 165:Drivers/STM32F1xx_HAL_Driver/Inc/stm32f1xx_ll_gpio.h **** #define LL_GPIO_MODE_OUTPUT_2MHz         GPIO_CRL_MODE0_1            /*!< Select Output mode, max s
 166:Drivers/STM32F1xx_HAL_Driver/Inc/stm32f1xx_ll_gpio.h **** #define LL_GPIO_MODE_OUTPUT_50MHz        GPIO_CRL_MODE0              /*!< Select Output mode, max s
 167:Drivers/STM32F1xx_HAL_Driver/Inc/stm32f1xx_ll_gpio.h **** /**
 168:Drivers/STM32F1xx_HAL_Driver/Inc/stm32f1xx_ll_gpio.h ****   * @}
 169:Drivers/STM32F1xx_HAL_Driver/Inc/stm32f1xx_ll_gpio.h ****   */
 170:Drivers/STM32F1xx_HAL_Driver/Inc/stm32f1xx_ll_gpio.h **** 
 171:Drivers/STM32F1xx_HAL_Driver/Inc/stm32f1xx_ll_gpio.h **** #define LL_GPIO_SPEED_FREQ_LOW           LL_GPIO_MODE_OUTPUT_2MHz    /*!< Select I/O low output spe
 172:Drivers/STM32F1xx_HAL_Driver/Inc/stm32f1xx_ll_gpio.h **** #define LL_GPIO_SPEED_FREQ_MEDIUM        LL_GPIO_MODE_OUTPUT_10MHz   /*!< Select I/O medium output 
 173:Drivers/STM32F1xx_HAL_Driver/Inc/stm32f1xx_ll_gpio.h **** #define LL_GPIO_SPEED_FREQ_HIGH          LL_GPIO_MODE_OUTPUT_50MHz   /*!< Select I/O high output sp
 174:Drivers/STM32F1xx_HAL_Driver/Inc/stm32f1xx_ll_gpio.h **** 
 175:Drivers/STM32F1xx_HAL_Driver/Inc/stm32f1xx_ll_gpio.h **** /** @defgroup GPIO_LL_EC_PULL Pull Up Pull Down
 176:Drivers/STM32F1xx_HAL_Driver/Inc/stm32f1xx_ll_gpio.h ****   * @{
 177:Drivers/STM32F1xx_HAL_Driver/Inc/stm32f1xx_ll_gpio.h ****   */
 178:Drivers/STM32F1xx_HAL_Driver/Inc/stm32f1xx_ll_gpio.h **** #define LL_GPIO_PULL_DOWN                0x00000000U    /*!< Select I/O pull down */
 179:Drivers/STM32F1xx_HAL_Driver/Inc/stm32f1xx_ll_gpio.h **** #define LL_GPIO_PULL_UP                  GPIO_ODR_ODR0  /*!< Select I/O pull up */
 180:Drivers/STM32F1xx_HAL_Driver/Inc/stm32f1xx_ll_gpio.h **** 
 181:Drivers/STM32F1xx_HAL_Driver/Inc/stm32f1xx_ll_gpio.h **** /**
 182:Drivers/STM32F1xx_HAL_Driver/Inc/stm32f1xx_ll_gpio.h ****   * @}
 183:Drivers/STM32F1xx_HAL_Driver/Inc/stm32f1xx_ll_gpio.h ****   */
 184:Drivers/STM32F1xx_HAL_Driver/Inc/stm32f1xx_ll_gpio.h **** 
 185:Drivers/STM32F1xx_HAL_Driver/Inc/stm32f1xx_ll_gpio.h **** /** @defgroup GPIO_LL_EVENTOUT_PIN EVENTOUT Pin
 186:Drivers/STM32F1xx_HAL_Driver/Inc/stm32f1xx_ll_gpio.h ****   * @{
 187:Drivers/STM32F1xx_HAL_Driver/Inc/stm32f1xx_ll_gpio.h ****   */
 188:Drivers/STM32F1xx_HAL_Driver/Inc/stm32f1xx_ll_gpio.h **** 
 189:Drivers/STM32F1xx_HAL_Driver/Inc/stm32f1xx_ll_gpio.h **** #define LL_GPIO_AF_EVENTOUT_PIN_0        AFIO_EVCR_PIN_PX0   /*!< EVENTOUT on pin 0 */
 190:Drivers/STM32F1xx_HAL_Driver/Inc/stm32f1xx_ll_gpio.h **** #define LL_GPIO_AF_EVENTOUT_PIN_1        AFIO_EVCR_PIN_PX1   /*!< EVENTOUT on pin 1 */
 191:Drivers/STM32F1xx_HAL_Driver/Inc/stm32f1xx_ll_gpio.h **** #define LL_GPIO_AF_EVENTOUT_PIN_2        AFIO_EVCR_PIN_PX2   /*!< EVENTOUT on pin 2 */
 192:Drivers/STM32F1xx_HAL_Driver/Inc/stm32f1xx_ll_gpio.h **** #define LL_GPIO_AF_EVENTOUT_PIN_3        AFIO_EVCR_PIN_PX3   /*!< EVENTOUT on pin 3 */
 193:Drivers/STM32F1xx_HAL_Driver/Inc/stm32f1xx_ll_gpio.h **** #define LL_GPIO_AF_EVENTOUT_PIN_4        AFIO_EVCR_PIN_PX4   /*!< EVENTOUT on pin 4 */
 194:Drivers/STM32F1xx_HAL_Driver/Inc/stm32f1xx_ll_gpio.h **** #define LL_GPIO_AF_EVENTOUT_PIN_5        AFIO_EVCR_PIN_PX5   /*!< EVENTOUT on pin 5 */
 195:Drivers/STM32F1xx_HAL_Driver/Inc/stm32f1xx_ll_gpio.h **** #define LL_GPIO_AF_EVENTOUT_PIN_6        AFIO_EVCR_PIN_PX6   /*!< EVENTOUT on pin 6 */
 196:Drivers/STM32F1xx_HAL_Driver/Inc/stm32f1xx_ll_gpio.h **** #define LL_GPIO_AF_EVENTOUT_PIN_7        AFIO_EVCR_PIN_PX7   /*!< EVENTOUT on pin 7 */
 197:Drivers/STM32F1xx_HAL_Driver/Inc/stm32f1xx_ll_gpio.h **** #define LL_GPIO_AF_EVENTOUT_PIN_8        AFIO_EVCR_PIN_PX8   /*!< EVENTOUT on pin 8 */
 198:Drivers/STM32F1xx_HAL_Driver/Inc/stm32f1xx_ll_gpio.h **** #define LL_GPIO_AF_EVENTOUT_PIN_9        AFIO_EVCR_PIN_PX9   /*!< EVENTOUT on pin 9 */
 199:Drivers/STM32F1xx_HAL_Driver/Inc/stm32f1xx_ll_gpio.h **** #define LL_GPIO_AF_EVENTOUT_PIN_10       AFIO_EVCR_PIN_PX10  /*!< EVENTOUT on pin 10 */
ARM GAS  /var/folders/m1/3lv6xmzs0mlckxs4mx90nfb40000gn/T//ccOxfUMW.s 			page 6


 200:Drivers/STM32F1xx_HAL_Driver/Inc/stm32f1xx_ll_gpio.h **** #define LL_GPIO_AF_EVENTOUT_PIN_11       AFIO_EVCR_PIN_PX11  /*!< EVENTOUT on pin 11 */
 201:Drivers/STM32F1xx_HAL_Driver/Inc/stm32f1xx_ll_gpio.h **** #define LL_GPIO_AF_EVENTOUT_PIN_12       AFIO_EVCR_PIN_PX12  /*!< EVENTOUT on pin 12 */
 202:Drivers/STM32F1xx_HAL_Driver/Inc/stm32f1xx_ll_gpio.h **** #define LL_GPIO_AF_EVENTOUT_PIN_13       AFIO_EVCR_PIN_PX13  /*!< EVENTOUT on pin 13 */
 203:Drivers/STM32F1xx_HAL_Driver/Inc/stm32f1xx_ll_gpio.h **** #define LL_GPIO_AF_EVENTOUT_PIN_14       AFIO_EVCR_PIN_PX14  /*!< EVENTOUT on pin 14 */
 204:Drivers/STM32F1xx_HAL_Driver/Inc/stm32f1xx_ll_gpio.h **** #define LL_GPIO_AF_EVENTOUT_PIN_15       AFIO_EVCR_PIN_PX15  /*!< EVENTOUT on pin 15 */
 205:Drivers/STM32F1xx_HAL_Driver/Inc/stm32f1xx_ll_gpio.h **** 
 206:Drivers/STM32F1xx_HAL_Driver/Inc/stm32f1xx_ll_gpio.h **** /**
 207:Drivers/STM32F1xx_HAL_Driver/Inc/stm32f1xx_ll_gpio.h ****   * @}
 208:Drivers/STM32F1xx_HAL_Driver/Inc/stm32f1xx_ll_gpio.h ****   */
 209:Drivers/STM32F1xx_HAL_Driver/Inc/stm32f1xx_ll_gpio.h **** 
 210:Drivers/STM32F1xx_HAL_Driver/Inc/stm32f1xx_ll_gpio.h **** /** @defgroup GPIO_LL_EVENTOUT_PORT EVENTOUT Port
 211:Drivers/STM32F1xx_HAL_Driver/Inc/stm32f1xx_ll_gpio.h ****   * @{
 212:Drivers/STM32F1xx_HAL_Driver/Inc/stm32f1xx_ll_gpio.h ****   */
 213:Drivers/STM32F1xx_HAL_Driver/Inc/stm32f1xx_ll_gpio.h **** 
 214:Drivers/STM32F1xx_HAL_Driver/Inc/stm32f1xx_ll_gpio.h **** #define LL_GPIO_AF_EVENTOUT_PORT_A       AFIO_EVCR_PORT_PA  /*!< EVENTOUT on port A */
 215:Drivers/STM32F1xx_HAL_Driver/Inc/stm32f1xx_ll_gpio.h **** #define LL_GPIO_AF_EVENTOUT_PORT_B       AFIO_EVCR_PORT_PB  /*!< EVENTOUT on port B */
 216:Drivers/STM32F1xx_HAL_Driver/Inc/stm32f1xx_ll_gpio.h **** #define LL_GPIO_AF_EVENTOUT_PORT_C       AFIO_EVCR_PORT_PC  /*!< EVENTOUT on port C */
 217:Drivers/STM32F1xx_HAL_Driver/Inc/stm32f1xx_ll_gpio.h **** #define LL_GPIO_AF_EVENTOUT_PORT_D       AFIO_EVCR_PORT_PD  /*!< EVENTOUT on port D */
 218:Drivers/STM32F1xx_HAL_Driver/Inc/stm32f1xx_ll_gpio.h **** #define LL_GPIO_AF_EVENTOUT_PORT_E       AFIO_EVCR_PORT_PE  /*!< EVENTOUT on port E */
 219:Drivers/STM32F1xx_HAL_Driver/Inc/stm32f1xx_ll_gpio.h **** 
 220:Drivers/STM32F1xx_HAL_Driver/Inc/stm32f1xx_ll_gpio.h **** /**
 221:Drivers/STM32F1xx_HAL_Driver/Inc/stm32f1xx_ll_gpio.h ****   * @}
 222:Drivers/STM32F1xx_HAL_Driver/Inc/stm32f1xx_ll_gpio.h ****   */
 223:Drivers/STM32F1xx_HAL_Driver/Inc/stm32f1xx_ll_gpio.h **** 
 224:Drivers/STM32F1xx_HAL_Driver/Inc/stm32f1xx_ll_gpio.h **** /** @defgroup GPIO_LL_EC_EXTI_PORT GPIO EXTI PORT
 225:Drivers/STM32F1xx_HAL_Driver/Inc/stm32f1xx_ll_gpio.h ****   * @{
 226:Drivers/STM32F1xx_HAL_Driver/Inc/stm32f1xx_ll_gpio.h ****   */
 227:Drivers/STM32F1xx_HAL_Driver/Inc/stm32f1xx_ll_gpio.h **** #define LL_GPIO_AF_EXTI_PORTA            0U   /*!< EXTI PORT A */
 228:Drivers/STM32F1xx_HAL_Driver/Inc/stm32f1xx_ll_gpio.h **** #define LL_GPIO_AF_EXTI_PORTB            1U   /*!< EXTI PORT B */
 229:Drivers/STM32F1xx_HAL_Driver/Inc/stm32f1xx_ll_gpio.h **** #define LL_GPIO_AF_EXTI_PORTC            2U   /*!< EXTI PORT C */
 230:Drivers/STM32F1xx_HAL_Driver/Inc/stm32f1xx_ll_gpio.h **** #define LL_GPIO_AF_EXTI_PORTD            3U   /*!< EXTI PORT D */
 231:Drivers/STM32F1xx_HAL_Driver/Inc/stm32f1xx_ll_gpio.h **** #define LL_GPIO_AF_EXTI_PORTE            4U   /*!< EXTI PORT E */
 232:Drivers/STM32F1xx_HAL_Driver/Inc/stm32f1xx_ll_gpio.h **** #define LL_GPIO_AF_EXTI_PORTF            5U   /*!< EXTI PORT F */
 233:Drivers/STM32F1xx_HAL_Driver/Inc/stm32f1xx_ll_gpio.h **** #define LL_GPIO_AF_EXTI_PORTG            6U   /*!< EXTI PORT G */
 234:Drivers/STM32F1xx_HAL_Driver/Inc/stm32f1xx_ll_gpio.h **** /**
 235:Drivers/STM32F1xx_HAL_Driver/Inc/stm32f1xx_ll_gpio.h ****   * @}
 236:Drivers/STM32F1xx_HAL_Driver/Inc/stm32f1xx_ll_gpio.h ****   */
 237:Drivers/STM32F1xx_HAL_Driver/Inc/stm32f1xx_ll_gpio.h **** 
 238:Drivers/STM32F1xx_HAL_Driver/Inc/stm32f1xx_ll_gpio.h **** /** @defgroup GPIO_LL_EC_EXTI_LINE GPIO EXTI LINE
 239:Drivers/STM32F1xx_HAL_Driver/Inc/stm32f1xx_ll_gpio.h ****   * @{
 240:Drivers/STM32F1xx_HAL_Driver/Inc/stm32f1xx_ll_gpio.h ****   */
 241:Drivers/STM32F1xx_HAL_Driver/Inc/stm32f1xx_ll_gpio.h **** #define LL_GPIO_AF_EXTI_LINE0            (0x000FU << 16U | 0U)  /*!< EXTI_POSITION_0  | EXTICR[0] *
 242:Drivers/STM32F1xx_HAL_Driver/Inc/stm32f1xx_ll_gpio.h **** #define LL_GPIO_AF_EXTI_LINE1            (0x00F0U << 16U | 0U)  /*!< EXTI_POSITION_4  | EXTICR[0] *
 243:Drivers/STM32F1xx_HAL_Driver/Inc/stm32f1xx_ll_gpio.h **** #define LL_GPIO_AF_EXTI_LINE2            (0x0F00U << 16U | 0U)  /*!< EXTI_POSITION_8  | EXTICR[0] *
 244:Drivers/STM32F1xx_HAL_Driver/Inc/stm32f1xx_ll_gpio.h **** #define LL_GPIO_AF_EXTI_LINE3            (0xF000U << 16U | 0U)  /*!< EXTI_POSITION_12 | EXTICR[0] *
 245:Drivers/STM32F1xx_HAL_Driver/Inc/stm32f1xx_ll_gpio.h **** #define LL_GPIO_AF_EXTI_LINE4            (0x000FU << 16U | 1U)  /*!< EXTI_POSITION_0  | EXTICR[1] *
 246:Drivers/STM32F1xx_HAL_Driver/Inc/stm32f1xx_ll_gpio.h **** #define LL_GPIO_AF_EXTI_LINE5            (0x00F0U << 16U | 1U)  /*!< EXTI_POSITION_4  | EXTICR[1] *
 247:Drivers/STM32F1xx_HAL_Driver/Inc/stm32f1xx_ll_gpio.h **** #define LL_GPIO_AF_EXTI_LINE6            (0x0F00U << 16U | 1U)  /*!< EXTI_POSITION_8  | EXTICR[1] *
 248:Drivers/STM32F1xx_HAL_Driver/Inc/stm32f1xx_ll_gpio.h **** #define LL_GPIO_AF_EXTI_LINE7            (0xF000U << 16U | 1U)  /*!< EXTI_POSITION_12 | EXTICR[1] *
 249:Drivers/STM32F1xx_HAL_Driver/Inc/stm32f1xx_ll_gpio.h **** #define LL_GPIO_AF_EXTI_LINE8            (0x000FU << 16U | 2U)  /*!< EXTI_POSITION_0  | EXTICR[2] *
 250:Drivers/STM32F1xx_HAL_Driver/Inc/stm32f1xx_ll_gpio.h **** #define LL_GPIO_AF_EXTI_LINE9            (0x00F0U << 16U | 2U)  /*!< EXTI_POSITION_4  | EXTICR[2] *
 251:Drivers/STM32F1xx_HAL_Driver/Inc/stm32f1xx_ll_gpio.h **** #define LL_GPIO_AF_EXTI_LINE10           (0x0F00U << 16U | 2U)  /*!< EXTI_POSITION_8  | EXTICR[2] *
 252:Drivers/STM32F1xx_HAL_Driver/Inc/stm32f1xx_ll_gpio.h **** #define LL_GPIO_AF_EXTI_LINE11           (0xF000U << 16U | 2U)  /*!< EXTI_POSITION_12 | EXTICR[2] *
 253:Drivers/STM32F1xx_HAL_Driver/Inc/stm32f1xx_ll_gpio.h **** #define LL_GPIO_AF_EXTI_LINE12           (0x000FU << 16U | 3U)  /*!< EXTI_POSITION_0  | EXTICR[3] *
 254:Drivers/STM32F1xx_HAL_Driver/Inc/stm32f1xx_ll_gpio.h **** #define LL_GPIO_AF_EXTI_LINE13           (0x00F0U << 16U | 3U)  /*!< EXTI_POSITION_4  | EXTICR[3] *
 255:Drivers/STM32F1xx_HAL_Driver/Inc/stm32f1xx_ll_gpio.h **** #define LL_GPIO_AF_EXTI_LINE14           (0x0F00U << 16U | 3U)  /*!< EXTI_POSITION_8  | EXTICR[3] *
 256:Drivers/STM32F1xx_HAL_Driver/Inc/stm32f1xx_ll_gpio.h **** #define LL_GPIO_AF_EXTI_LINE15           (0xF000U << 16U | 3U)  /*!< EXTI_POSITION_12 | EXTICR[3] *
ARM GAS  /var/folders/m1/3lv6xmzs0mlckxs4mx90nfb40000gn/T//ccOxfUMW.s 			page 7


 257:Drivers/STM32F1xx_HAL_Driver/Inc/stm32f1xx_ll_gpio.h **** /**
 258:Drivers/STM32F1xx_HAL_Driver/Inc/stm32f1xx_ll_gpio.h ****   * @}
 259:Drivers/STM32F1xx_HAL_Driver/Inc/stm32f1xx_ll_gpio.h ****   */
 260:Drivers/STM32F1xx_HAL_Driver/Inc/stm32f1xx_ll_gpio.h **** 
 261:Drivers/STM32F1xx_HAL_Driver/Inc/stm32f1xx_ll_gpio.h **** /**
 262:Drivers/STM32F1xx_HAL_Driver/Inc/stm32f1xx_ll_gpio.h ****   * @}
 263:Drivers/STM32F1xx_HAL_Driver/Inc/stm32f1xx_ll_gpio.h ****   */
 264:Drivers/STM32F1xx_HAL_Driver/Inc/stm32f1xx_ll_gpio.h **** 
 265:Drivers/STM32F1xx_HAL_Driver/Inc/stm32f1xx_ll_gpio.h **** /* Exported macro ------------------------------------------------------------*/
 266:Drivers/STM32F1xx_HAL_Driver/Inc/stm32f1xx_ll_gpio.h **** /** @defgroup GPIO_LL_Exported_Macros GPIO Exported Macros
 267:Drivers/STM32F1xx_HAL_Driver/Inc/stm32f1xx_ll_gpio.h ****   * @{
 268:Drivers/STM32F1xx_HAL_Driver/Inc/stm32f1xx_ll_gpio.h ****   */
 269:Drivers/STM32F1xx_HAL_Driver/Inc/stm32f1xx_ll_gpio.h **** 
 270:Drivers/STM32F1xx_HAL_Driver/Inc/stm32f1xx_ll_gpio.h **** /** @defgroup GPIO_LL_EM_WRITE_READ Common Write and read registers Macros
 271:Drivers/STM32F1xx_HAL_Driver/Inc/stm32f1xx_ll_gpio.h ****   * @{
 272:Drivers/STM32F1xx_HAL_Driver/Inc/stm32f1xx_ll_gpio.h ****   */
 273:Drivers/STM32F1xx_HAL_Driver/Inc/stm32f1xx_ll_gpio.h **** 
 274:Drivers/STM32F1xx_HAL_Driver/Inc/stm32f1xx_ll_gpio.h **** /**
 275:Drivers/STM32F1xx_HAL_Driver/Inc/stm32f1xx_ll_gpio.h ****   * @brief  Write a value in GPIO register
 276:Drivers/STM32F1xx_HAL_Driver/Inc/stm32f1xx_ll_gpio.h ****   * @param  __INSTANCE__ GPIO Instance
 277:Drivers/STM32F1xx_HAL_Driver/Inc/stm32f1xx_ll_gpio.h ****   * @param  __REG__ Register to be written
 278:Drivers/STM32F1xx_HAL_Driver/Inc/stm32f1xx_ll_gpio.h ****   * @param  __VALUE__ Value to be written in the register
 279:Drivers/STM32F1xx_HAL_Driver/Inc/stm32f1xx_ll_gpio.h ****   * @retval None
 280:Drivers/STM32F1xx_HAL_Driver/Inc/stm32f1xx_ll_gpio.h ****   */
 281:Drivers/STM32F1xx_HAL_Driver/Inc/stm32f1xx_ll_gpio.h **** #define LL_GPIO_WriteReg(__INSTANCE__, __REG__, __VALUE__) WRITE_REG(__INSTANCE__->__REG__, (__VALU
 282:Drivers/STM32F1xx_HAL_Driver/Inc/stm32f1xx_ll_gpio.h **** 
 283:Drivers/STM32F1xx_HAL_Driver/Inc/stm32f1xx_ll_gpio.h **** /**
 284:Drivers/STM32F1xx_HAL_Driver/Inc/stm32f1xx_ll_gpio.h ****   * @brief  Read a value in GPIO register
 285:Drivers/STM32F1xx_HAL_Driver/Inc/stm32f1xx_ll_gpio.h ****   * @param  __INSTANCE__ GPIO Instance
 286:Drivers/STM32F1xx_HAL_Driver/Inc/stm32f1xx_ll_gpio.h ****   * @param  __REG__ Register to be read
 287:Drivers/STM32F1xx_HAL_Driver/Inc/stm32f1xx_ll_gpio.h ****   * @retval Register value
 288:Drivers/STM32F1xx_HAL_Driver/Inc/stm32f1xx_ll_gpio.h ****   */
 289:Drivers/STM32F1xx_HAL_Driver/Inc/stm32f1xx_ll_gpio.h **** #define LL_GPIO_ReadReg(__INSTANCE__, __REG__) READ_REG(__INSTANCE__->__REG__)
 290:Drivers/STM32F1xx_HAL_Driver/Inc/stm32f1xx_ll_gpio.h **** /**
 291:Drivers/STM32F1xx_HAL_Driver/Inc/stm32f1xx_ll_gpio.h ****   * @}
 292:Drivers/STM32F1xx_HAL_Driver/Inc/stm32f1xx_ll_gpio.h ****   */
 293:Drivers/STM32F1xx_HAL_Driver/Inc/stm32f1xx_ll_gpio.h **** 
 294:Drivers/STM32F1xx_HAL_Driver/Inc/stm32f1xx_ll_gpio.h **** /**
 295:Drivers/STM32F1xx_HAL_Driver/Inc/stm32f1xx_ll_gpio.h ****   * @}
 296:Drivers/STM32F1xx_HAL_Driver/Inc/stm32f1xx_ll_gpio.h ****   */
 297:Drivers/STM32F1xx_HAL_Driver/Inc/stm32f1xx_ll_gpio.h **** 
 298:Drivers/STM32F1xx_HAL_Driver/Inc/stm32f1xx_ll_gpio.h **** /* Exported functions --------------------------------------------------------*/
 299:Drivers/STM32F1xx_HAL_Driver/Inc/stm32f1xx_ll_gpio.h **** /** @defgroup GPIO_LL_Exported_Functions GPIO Exported Functions
 300:Drivers/STM32F1xx_HAL_Driver/Inc/stm32f1xx_ll_gpio.h ****   * @{
 301:Drivers/STM32F1xx_HAL_Driver/Inc/stm32f1xx_ll_gpio.h ****   */
 302:Drivers/STM32F1xx_HAL_Driver/Inc/stm32f1xx_ll_gpio.h **** 
 303:Drivers/STM32F1xx_HAL_Driver/Inc/stm32f1xx_ll_gpio.h **** /** @defgroup GPIO_LL_EF_Port_Configuration Port Configuration
 304:Drivers/STM32F1xx_HAL_Driver/Inc/stm32f1xx_ll_gpio.h ****   * @{
 305:Drivers/STM32F1xx_HAL_Driver/Inc/stm32f1xx_ll_gpio.h ****   */
 306:Drivers/STM32F1xx_HAL_Driver/Inc/stm32f1xx_ll_gpio.h **** 
 307:Drivers/STM32F1xx_HAL_Driver/Inc/stm32f1xx_ll_gpio.h **** /**
 308:Drivers/STM32F1xx_HAL_Driver/Inc/stm32f1xx_ll_gpio.h ****   * @brief  Configure gpio mode for a dedicated pin on dedicated port.
 309:Drivers/STM32F1xx_HAL_Driver/Inc/stm32f1xx_ll_gpio.h ****   * @note   I/O mode can be Analog, Floating input, Input with pull-up/pull-down, General purpose O
 310:Drivers/STM32F1xx_HAL_Driver/Inc/stm32f1xx_ll_gpio.h ****   *         Alternate function Output.
 311:Drivers/STM32F1xx_HAL_Driver/Inc/stm32f1xx_ll_gpio.h ****   * @note   Warning: only one pin can be passed as parameter.
 312:Drivers/STM32F1xx_HAL_Driver/Inc/stm32f1xx_ll_gpio.h ****   * @rmtoll CRL        CNFy         LL_GPIO_SetPinMode
 313:Drivers/STM32F1xx_HAL_Driver/Inc/stm32f1xx_ll_gpio.h ****   * @rmtoll CRL        MODEy        LL_GPIO_SetPinMode
ARM GAS  /var/folders/m1/3lv6xmzs0mlckxs4mx90nfb40000gn/T//ccOxfUMW.s 			page 8


 314:Drivers/STM32F1xx_HAL_Driver/Inc/stm32f1xx_ll_gpio.h ****   * @rmtoll CRH        CNFy         LL_GPIO_SetPinMode
 315:Drivers/STM32F1xx_HAL_Driver/Inc/stm32f1xx_ll_gpio.h ****   * @rmtoll CRH        MODEy        LL_GPIO_SetPinMode
 316:Drivers/STM32F1xx_HAL_Driver/Inc/stm32f1xx_ll_gpio.h ****   * @param  GPIOx GPIO Port
 317:Drivers/STM32F1xx_HAL_Driver/Inc/stm32f1xx_ll_gpio.h ****   * @param  Pin This parameter can be one of the following values:
 318:Drivers/STM32F1xx_HAL_Driver/Inc/stm32f1xx_ll_gpio.h ****   *         @arg @ref LL_GPIO_PIN_0
 319:Drivers/STM32F1xx_HAL_Driver/Inc/stm32f1xx_ll_gpio.h ****   *         @arg @ref LL_GPIO_PIN_1
 320:Drivers/STM32F1xx_HAL_Driver/Inc/stm32f1xx_ll_gpio.h ****   *         @arg @ref LL_GPIO_PIN_2
 321:Drivers/STM32F1xx_HAL_Driver/Inc/stm32f1xx_ll_gpio.h ****   *         @arg @ref LL_GPIO_PIN_3
 322:Drivers/STM32F1xx_HAL_Driver/Inc/stm32f1xx_ll_gpio.h ****   *         @arg @ref LL_GPIO_PIN_4
 323:Drivers/STM32F1xx_HAL_Driver/Inc/stm32f1xx_ll_gpio.h ****   *         @arg @ref LL_GPIO_PIN_5
 324:Drivers/STM32F1xx_HAL_Driver/Inc/stm32f1xx_ll_gpio.h ****   *         @arg @ref LL_GPIO_PIN_6
 325:Drivers/STM32F1xx_HAL_Driver/Inc/stm32f1xx_ll_gpio.h ****   *         @arg @ref LL_GPIO_PIN_7
 326:Drivers/STM32F1xx_HAL_Driver/Inc/stm32f1xx_ll_gpio.h ****   *         @arg @ref LL_GPIO_PIN_8
 327:Drivers/STM32F1xx_HAL_Driver/Inc/stm32f1xx_ll_gpio.h ****   *         @arg @ref LL_GPIO_PIN_9
 328:Drivers/STM32F1xx_HAL_Driver/Inc/stm32f1xx_ll_gpio.h ****   *         @arg @ref LL_GPIO_PIN_10
 329:Drivers/STM32F1xx_HAL_Driver/Inc/stm32f1xx_ll_gpio.h ****   *         @arg @ref LL_GPIO_PIN_11
 330:Drivers/STM32F1xx_HAL_Driver/Inc/stm32f1xx_ll_gpio.h ****   *         @arg @ref LL_GPIO_PIN_12
 331:Drivers/STM32F1xx_HAL_Driver/Inc/stm32f1xx_ll_gpio.h ****   *         @arg @ref LL_GPIO_PIN_13
 332:Drivers/STM32F1xx_HAL_Driver/Inc/stm32f1xx_ll_gpio.h ****   *         @arg @ref LL_GPIO_PIN_14
 333:Drivers/STM32F1xx_HAL_Driver/Inc/stm32f1xx_ll_gpio.h ****   *         @arg @ref LL_GPIO_PIN_15
 334:Drivers/STM32F1xx_HAL_Driver/Inc/stm32f1xx_ll_gpio.h ****   * @param  Mode This parameter can be one of the following values:
 335:Drivers/STM32F1xx_HAL_Driver/Inc/stm32f1xx_ll_gpio.h ****   *         @arg @ref LL_GPIO_MODE_ANALOG
 336:Drivers/STM32F1xx_HAL_Driver/Inc/stm32f1xx_ll_gpio.h ****   *         @arg @ref LL_GPIO_MODE_FLOATING
 337:Drivers/STM32F1xx_HAL_Driver/Inc/stm32f1xx_ll_gpio.h ****   *         @arg @ref LL_GPIO_MODE_INPUT
 338:Drivers/STM32F1xx_HAL_Driver/Inc/stm32f1xx_ll_gpio.h ****   *         @arg @ref LL_GPIO_MODE_OUTPUT
 339:Drivers/STM32F1xx_HAL_Driver/Inc/stm32f1xx_ll_gpio.h ****   *         @arg @ref LL_GPIO_MODE_ALTERNATE
 340:Drivers/STM32F1xx_HAL_Driver/Inc/stm32f1xx_ll_gpio.h ****   * @retval None
 341:Drivers/STM32F1xx_HAL_Driver/Inc/stm32f1xx_ll_gpio.h ****   */
 342:Drivers/STM32F1xx_HAL_Driver/Inc/stm32f1xx_ll_gpio.h **** __STATIC_INLINE void LL_GPIO_SetPinMode(GPIO_TypeDef *GPIOx, uint32_t Pin, uint32_t Mode)
 343:Drivers/STM32F1xx_HAL_Driver/Inc/stm32f1xx_ll_gpio.h **** {
 344:Drivers/STM32F1xx_HAL_Driver/Inc/stm32f1xx_ll_gpio.h ****   register uint32_t *pReg = (uint32_t *)((uint32_t)(&GPIOx->CRL) + (Pin >> 24));
 345:Drivers/STM32F1xx_HAL_Driver/Inc/stm32f1xx_ll_gpio.h ****   MODIFY_REG(*pReg, ((GPIO_CRL_CNF0 | GPIO_CRL_MODE0) << (POSITION_VAL(Pin) * 4U)), (Mode << (POSIT
 346:Drivers/STM32F1xx_HAL_Driver/Inc/stm32f1xx_ll_gpio.h **** }
 347:Drivers/STM32F1xx_HAL_Driver/Inc/stm32f1xx_ll_gpio.h **** 
 348:Drivers/STM32F1xx_HAL_Driver/Inc/stm32f1xx_ll_gpio.h **** /**
 349:Drivers/STM32F1xx_HAL_Driver/Inc/stm32f1xx_ll_gpio.h ****   * @brief  Return gpio mode for a dedicated pin on dedicated port.
 350:Drivers/STM32F1xx_HAL_Driver/Inc/stm32f1xx_ll_gpio.h ****   * @note   I/O mode can be Analog, Floating input, Input with pull-up/pull-down, General purpose O
 351:Drivers/STM32F1xx_HAL_Driver/Inc/stm32f1xx_ll_gpio.h ****   *         Alternate function Output.
 352:Drivers/STM32F1xx_HAL_Driver/Inc/stm32f1xx_ll_gpio.h ****   * @note   Warning: only one pin can be passed as parameter.
 353:Drivers/STM32F1xx_HAL_Driver/Inc/stm32f1xx_ll_gpio.h ****   * @rmtoll CRL        CNFy         LL_GPIO_GetPinMode
 354:Drivers/STM32F1xx_HAL_Driver/Inc/stm32f1xx_ll_gpio.h ****   * @rmtoll CRL        MODEy        LL_GPIO_GetPinMode
 355:Drivers/STM32F1xx_HAL_Driver/Inc/stm32f1xx_ll_gpio.h ****   * @rmtoll CRH        CNFy         LL_GPIO_GetPinMode
 356:Drivers/STM32F1xx_HAL_Driver/Inc/stm32f1xx_ll_gpio.h ****   * @rmtoll CRH        MODEy        LL_GPIO_GetPinMode
 357:Drivers/STM32F1xx_HAL_Driver/Inc/stm32f1xx_ll_gpio.h ****   * @param  GPIOx GPIO Port
 358:Drivers/STM32F1xx_HAL_Driver/Inc/stm32f1xx_ll_gpio.h ****   * @param  Pin This parameter can be one of the following values:
 359:Drivers/STM32F1xx_HAL_Driver/Inc/stm32f1xx_ll_gpio.h ****   *         @arg @ref LL_GPIO_PIN_0
 360:Drivers/STM32F1xx_HAL_Driver/Inc/stm32f1xx_ll_gpio.h ****   *         @arg @ref LL_GPIO_PIN_1
 361:Drivers/STM32F1xx_HAL_Driver/Inc/stm32f1xx_ll_gpio.h ****   *         @arg @ref LL_GPIO_PIN_2
 362:Drivers/STM32F1xx_HAL_Driver/Inc/stm32f1xx_ll_gpio.h ****   *         @arg @ref LL_GPIO_PIN_3
 363:Drivers/STM32F1xx_HAL_Driver/Inc/stm32f1xx_ll_gpio.h ****   *         @arg @ref LL_GPIO_PIN_4
 364:Drivers/STM32F1xx_HAL_Driver/Inc/stm32f1xx_ll_gpio.h ****   *         @arg @ref LL_GPIO_PIN_5
 365:Drivers/STM32F1xx_HAL_Driver/Inc/stm32f1xx_ll_gpio.h ****   *         @arg @ref LL_GPIO_PIN_6
 366:Drivers/STM32F1xx_HAL_Driver/Inc/stm32f1xx_ll_gpio.h ****   *         @arg @ref LL_GPIO_PIN_7
 367:Drivers/STM32F1xx_HAL_Driver/Inc/stm32f1xx_ll_gpio.h ****   *         @arg @ref LL_GPIO_PIN_8
 368:Drivers/STM32F1xx_HAL_Driver/Inc/stm32f1xx_ll_gpio.h ****   *         @arg @ref LL_GPIO_PIN_9
 369:Drivers/STM32F1xx_HAL_Driver/Inc/stm32f1xx_ll_gpio.h ****   *         @arg @ref LL_GPIO_PIN_10
 370:Drivers/STM32F1xx_HAL_Driver/Inc/stm32f1xx_ll_gpio.h ****   *         @arg @ref LL_GPIO_PIN_11
ARM GAS  /var/folders/m1/3lv6xmzs0mlckxs4mx90nfb40000gn/T//ccOxfUMW.s 			page 9


 371:Drivers/STM32F1xx_HAL_Driver/Inc/stm32f1xx_ll_gpio.h ****   *         @arg @ref LL_GPIO_PIN_12
 372:Drivers/STM32F1xx_HAL_Driver/Inc/stm32f1xx_ll_gpio.h ****   *         @arg @ref LL_GPIO_PIN_13
 373:Drivers/STM32F1xx_HAL_Driver/Inc/stm32f1xx_ll_gpio.h ****   *         @arg @ref LL_GPIO_PIN_14
 374:Drivers/STM32F1xx_HAL_Driver/Inc/stm32f1xx_ll_gpio.h ****   *         @arg @ref LL_GPIO_PIN_15
 375:Drivers/STM32F1xx_HAL_Driver/Inc/stm32f1xx_ll_gpio.h ****   * @retval Returned value can be one of the following values:
 376:Drivers/STM32F1xx_HAL_Driver/Inc/stm32f1xx_ll_gpio.h ****   *         @arg @ref LL_GPIO_MODE_ANALOG
 377:Drivers/STM32F1xx_HAL_Driver/Inc/stm32f1xx_ll_gpio.h ****   *         @arg @ref LL_GPIO_MODE_FLOATING
 378:Drivers/STM32F1xx_HAL_Driver/Inc/stm32f1xx_ll_gpio.h ****   *         @arg @ref LL_GPIO_MODE_INPUT
 379:Drivers/STM32F1xx_HAL_Driver/Inc/stm32f1xx_ll_gpio.h ****   *         @arg @ref LL_GPIO_MODE_OUTPUT
 380:Drivers/STM32F1xx_HAL_Driver/Inc/stm32f1xx_ll_gpio.h ****   *         @arg @ref LL_GPIO_MODE_ALTERNATE
 381:Drivers/STM32F1xx_HAL_Driver/Inc/stm32f1xx_ll_gpio.h ****   */
 382:Drivers/STM32F1xx_HAL_Driver/Inc/stm32f1xx_ll_gpio.h **** __STATIC_INLINE uint32_t LL_GPIO_GetPinMode(GPIO_TypeDef *GPIOx, uint32_t Pin)
 383:Drivers/STM32F1xx_HAL_Driver/Inc/stm32f1xx_ll_gpio.h **** {
 384:Drivers/STM32F1xx_HAL_Driver/Inc/stm32f1xx_ll_gpio.h ****   register uint32_t *pReg = (uint32_t *)((uint32_t)(&GPIOx->CRL) + (Pin >> 24));
 385:Drivers/STM32F1xx_HAL_Driver/Inc/stm32f1xx_ll_gpio.h ****   return (READ_BIT(*pReg, ((GPIO_CRL_CNF0 | GPIO_CRL_MODE0) << (POSITION_VAL(Pin) * 4U))) >> (POSIT
 386:Drivers/STM32F1xx_HAL_Driver/Inc/stm32f1xx_ll_gpio.h **** }
 387:Drivers/STM32F1xx_HAL_Driver/Inc/stm32f1xx_ll_gpio.h **** 
 388:Drivers/STM32F1xx_HAL_Driver/Inc/stm32f1xx_ll_gpio.h **** /**
 389:Drivers/STM32F1xx_HAL_Driver/Inc/stm32f1xx_ll_gpio.h ****   * @brief  Configure gpio speed for a dedicated pin on dedicated port.
 390:Drivers/STM32F1xx_HAL_Driver/Inc/stm32f1xx_ll_gpio.h ****   * @note   I/O speed can be Low, Medium or Fast speed.
 391:Drivers/STM32F1xx_HAL_Driver/Inc/stm32f1xx_ll_gpio.h ****   * @note   Warning: only one pin can be passed as parameter.
 392:Drivers/STM32F1xx_HAL_Driver/Inc/stm32f1xx_ll_gpio.h ****   * @note   Refer to datasheet for frequency specifications and the power
 393:Drivers/STM32F1xx_HAL_Driver/Inc/stm32f1xx_ll_gpio.h ****   *         supply and load conditions for each speed.
 394:Drivers/STM32F1xx_HAL_Driver/Inc/stm32f1xx_ll_gpio.h ****   * @rmtoll CRL      MODEy       LL_GPIO_SetPinSpeed
 395:Drivers/STM32F1xx_HAL_Driver/Inc/stm32f1xx_ll_gpio.h ****   * @rmtoll CRH      MODEy       LL_GPIO_SetPinSpeed
 396:Drivers/STM32F1xx_HAL_Driver/Inc/stm32f1xx_ll_gpio.h ****   * @param  GPIOx GPIO Port
 397:Drivers/STM32F1xx_HAL_Driver/Inc/stm32f1xx_ll_gpio.h ****   * @param  Pin This parameter can be one of the following values:
 398:Drivers/STM32F1xx_HAL_Driver/Inc/stm32f1xx_ll_gpio.h ****   *         @arg @ref LL_GPIO_PIN_0
 399:Drivers/STM32F1xx_HAL_Driver/Inc/stm32f1xx_ll_gpio.h ****   *         @arg @ref LL_GPIO_PIN_1
 400:Drivers/STM32F1xx_HAL_Driver/Inc/stm32f1xx_ll_gpio.h ****   *         @arg @ref LL_GPIO_PIN_2
 401:Drivers/STM32F1xx_HAL_Driver/Inc/stm32f1xx_ll_gpio.h ****   *         @arg @ref LL_GPIO_PIN_3
 402:Drivers/STM32F1xx_HAL_Driver/Inc/stm32f1xx_ll_gpio.h ****   *         @arg @ref LL_GPIO_PIN_4
 403:Drivers/STM32F1xx_HAL_Driver/Inc/stm32f1xx_ll_gpio.h ****   *         @arg @ref LL_GPIO_PIN_5
 404:Drivers/STM32F1xx_HAL_Driver/Inc/stm32f1xx_ll_gpio.h ****   *         @arg @ref LL_GPIO_PIN_6
 405:Drivers/STM32F1xx_HAL_Driver/Inc/stm32f1xx_ll_gpio.h ****   *         @arg @ref LL_GPIO_PIN_7
 406:Drivers/STM32F1xx_HAL_Driver/Inc/stm32f1xx_ll_gpio.h ****   *         @arg @ref LL_GPIO_PIN_8
 407:Drivers/STM32F1xx_HAL_Driver/Inc/stm32f1xx_ll_gpio.h ****   *         @arg @ref LL_GPIO_PIN_9
 408:Drivers/STM32F1xx_HAL_Driver/Inc/stm32f1xx_ll_gpio.h ****   *         @arg @ref LL_GPIO_PIN_10
 409:Drivers/STM32F1xx_HAL_Driver/Inc/stm32f1xx_ll_gpio.h ****   *         @arg @ref LL_GPIO_PIN_11
 410:Drivers/STM32F1xx_HAL_Driver/Inc/stm32f1xx_ll_gpio.h ****   *         @arg @ref LL_GPIO_PIN_12
 411:Drivers/STM32F1xx_HAL_Driver/Inc/stm32f1xx_ll_gpio.h ****   *         @arg @ref LL_GPIO_PIN_13
 412:Drivers/STM32F1xx_HAL_Driver/Inc/stm32f1xx_ll_gpio.h ****   *         @arg @ref LL_GPIO_PIN_14
 413:Drivers/STM32F1xx_HAL_Driver/Inc/stm32f1xx_ll_gpio.h ****   *         @arg @ref LL_GPIO_PIN_15
 414:Drivers/STM32F1xx_HAL_Driver/Inc/stm32f1xx_ll_gpio.h ****   * @param  Speed This parameter can be one of the following values:
 415:Drivers/STM32F1xx_HAL_Driver/Inc/stm32f1xx_ll_gpio.h ****   *         @arg @ref LL_GPIO_SPEED_FREQ_LOW
 416:Drivers/STM32F1xx_HAL_Driver/Inc/stm32f1xx_ll_gpio.h ****   *         @arg @ref LL_GPIO_SPEED_FREQ_MEDIUM
 417:Drivers/STM32F1xx_HAL_Driver/Inc/stm32f1xx_ll_gpio.h ****   *         @arg @ref LL_GPIO_SPEED_FREQ_HIGH
 418:Drivers/STM32F1xx_HAL_Driver/Inc/stm32f1xx_ll_gpio.h ****   * @retval None
 419:Drivers/STM32F1xx_HAL_Driver/Inc/stm32f1xx_ll_gpio.h ****   */
 420:Drivers/STM32F1xx_HAL_Driver/Inc/stm32f1xx_ll_gpio.h **** __STATIC_INLINE void LL_GPIO_SetPinSpeed(GPIO_TypeDef *GPIOx, uint32_t Pin, uint32_t  Speed)
 421:Drivers/STM32F1xx_HAL_Driver/Inc/stm32f1xx_ll_gpio.h **** {
 422:Drivers/STM32F1xx_HAL_Driver/Inc/stm32f1xx_ll_gpio.h ****   register uint32_t *pReg = (uint32_t *)((uint32_t)(&GPIOx->CRL) + (Pin >> 24));
 423:Drivers/STM32F1xx_HAL_Driver/Inc/stm32f1xx_ll_gpio.h ****   MODIFY_REG(*pReg, (GPIO_CRL_MODE0 << (POSITION_VAL(Pin) * 4U)),
 424:Drivers/STM32F1xx_HAL_Driver/Inc/stm32f1xx_ll_gpio.h ****              (Speed << (POSITION_VAL(Pin) * 4U)));
 425:Drivers/STM32F1xx_HAL_Driver/Inc/stm32f1xx_ll_gpio.h **** }
 426:Drivers/STM32F1xx_HAL_Driver/Inc/stm32f1xx_ll_gpio.h **** 
 427:Drivers/STM32F1xx_HAL_Driver/Inc/stm32f1xx_ll_gpio.h **** /**
ARM GAS  /var/folders/m1/3lv6xmzs0mlckxs4mx90nfb40000gn/T//ccOxfUMW.s 			page 10


 428:Drivers/STM32F1xx_HAL_Driver/Inc/stm32f1xx_ll_gpio.h ****   * @brief  Return gpio speed for a dedicated pin on dedicated port.
 429:Drivers/STM32F1xx_HAL_Driver/Inc/stm32f1xx_ll_gpio.h ****   * @note   I/O speed can be Low, Medium, Fast or High speed.
 430:Drivers/STM32F1xx_HAL_Driver/Inc/stm32f1xx_ll_gpio.h ****   * @note   Warning: only one pin can be passed as parameter.
 431:Drivers/STM32F1xx_HAL_Driver/Inc/stm32f1xx_ll_gpio.h ****   * @note   Refer to datasheet for frequency specifications and the power
 432:Drivers/STM32F1xx_HAL_Driver/Inc/stm32f1xx_ll_gpio.h ****   *         supply and load conditions for each speed.
 433:Drivers/STM32F1xx_HAL_Driver/Inc/stm32f1xx_ll_gpio.h ****   * @rmtoll CRL      MODEy       LL_GPIO_GetPinSpeed
 434:Drivers/STM32F1xx_HAL_Driver/Inc/stm32f1xx_ll_gpio.h ****   * @rmtoll CRH      MODEy       LL_GPIO_GetPinSpeed
 435:Drivers/STM32F1xx_HAL_Driver/Inc/stm32f1xx_ll_gpio.h ****   * @param  GPIOx GPIO Port
 436:Drivers/STM32F1xx_HAL_Driver/Inc/stm32f1xx_ll_gpio.h ****   * @param  Pin This parameter can be one of the following values:
 437:Drivers/STM32F1xx_HAL_Driver/Inc/stm32f1xx_ll_gpio.h ****   *         @arg @ref LL_GPIO_PIN_0
 438:Drivers/STM32F1xx_HAL_Driver/Inc/stm32f1xx_ll_gpio.h ****   *         @arg @ref LL_GPIO_PIN_1
 439:Drivers/STM32F1xx_HAL_Driver/Inc/stm32f1xx_ll_gpio.h ****   *         @arg @ref LL_GPIO_PIN_2
 440:Drivers/STM32F1xx_HAL_Driver/Inc/stm32f1xx_ll_gpio.h ****   *         @arg @ref LL_GPIO_PIN_3
 441:Drivers/STM32F1xx_HAL_Driver/Inc/stm32f1xx_ll_gpio.h ****   *         @arg @ref LL_GPIO_PIN_4
 442:Drivers/STM32F1xx_HAL_Driver/Inc/stm32f1xx_ll_gpio.h ****   *         @arg @ref LL_GPIO_PIN_5
 443:Drivers/STM32F1xx_HAL_Driver/Inc/stm32f1xx_ll_gpio.h ****   *         @arg @ref LL_GPIO_PIN_6
 444:Drivers/STM32F1xx_HAL_Driver/Inc/stm32f1xx_ll_gpio.h ****   *         @arg @ref LL_GPIO_PIN_7
 445:Drivers/STM32F1xx_HAL_Driver/Inc/stm32f1xx_ll_gpio.h ****   *         @arg @ref LL_GPIO_PIN_8
 446:Drivers/STM32F1xx_HAL_Driver/Inc/stm32f1xx_ll_gpio.h ****   *         @arg @ref LL_GPIO_PIN_9
 447:Drivers/STM32F1xx_HAL_Driver/Inc/stm32f1xx_ll_gpio.h ****   *         @arg @ref LL_GPIO_PIN_10
 448:Drivers/STM32F1xx_HAL_Driver/Inc/stm32f1xx_ll_gpio.h ****   *         @arg @ref LL_GPIO_PIN_11
 449:Drivers/STM32F1xx_HAL_Driver/Inc/stm32f1xx_ll_gpio.h ****   *         @arg @ref LL_GPIO_PIN_12
 450:Drivers/STM32F1xx_HAL_Driver/Inc/stm32f1xx_ll_gpio.h ****   *         @arg @ref LL_GPIO_PIN_13
 451:Drivers/STM32F1xx_HAL_Driver/Inc/stm32f1xx_ll_gpio.h ****   *         @arg @ref LL_GPIO_PIN_14
 452:Drivers/STM32F1xx_HAL_Driver/Inc/stm32f1xx_ll_gpio.h ****   *         @arg @ref LL_GPIO_PIN_15
 453:Drivers/STM32F1xx_HAL_Driver/Inc/stm32f1xx_ll_gpio.h ****   * @retval Returned value can be one of the following values:
 454:Drivers/STM32F1xx_HAL_Driver/Inc/stm32f1xx_ll_gpio.h ****   *         @arg @ref LL_GPIO_SPEED_FREQ_LOW
 455:Drivers/STM32F1xx_HAL_Driver/Inc/stm32f1xx_ll_gpio.h ****   *         @arg @ref LL_GPIO_SPEED_FREQ_MEDIUM
 456:Drivers/STM32F1xx_HAL_Driver/Inc/stm32f1xx_ll_gpio.h ****   *         @arg @ref LL_GPIO_SPEED_FREQ_HIGH
 457:Drivers/STM32F1xx_HAL_Driver/Inc/stm32f1xx_ll_gpio.h ****   */
 458:Drivers/STM32F1xx_HAL_Driver/Inc/stm32f1xx_ll_gpio.h **** __STATIC_INLINE uint32_t LL_GPIO_GetPinSpeed(GPIO_TypeDef *GPIOx, uint32_t Pin)
 459:Drivers/STM32F1xx_HAL_Driver/Inc/stm32f1xx_ll_gpio.h **** {
 460:Drivers/STM32F1xx_HAL_Driver/Inc/stm32f1xx_ll_gpio.h ****   register uint32_t *pReg = (uint32_t *)((uint32_t)(&GPIOx->CRL) + (Pin >> 24));
 461:Drivers/STM32F1xx_HAL_Driver/Inc/stm32f1xx_ll_gpio.h ****   return (READ_BIT(*pReg, (GPIO_CRL_MODE0 << (POSITION_VAL(Pin) * 4U))) >> (POSITION_VAL(Pin) * 4U)
 462:Drivers/STM32F1xx_HAL_Driver/Inc/stm32f1xx_ll_gpio.h **** }
 463:Drivers/STM32F1xx_HAL_Driver/Inc/stm32f1xx_ll_gpio.h **** 
 464:Drivers/STM32F1xx_HAL_Driver/Inc/stm32f1xx_ll_gpio.h **** /**
 465:Drivers/STM32F1xx_HAL_Driver/Inc/stm32f1xx_ll_gpio.h ****   * @brief  Configure gpio output type for several pins on dedicated port.
 466:Drivers/STM32F1xx_HAL_Driver/Inc/stm32f1xx_ll_gpio.h ****   * @note   Output type as to be set when gpio pin is in output or
 467:Drivers/STM32F1xx_HAL_Driver/Inc/stm32f1xx_ll_gpio.h ****   *         alternate modes. Possible type are Push-pull or Open-drain.
 468:Drivers/STM32F1xx_HAL_Driver/Inc/stm32f1xx_ll_gpio.h ****   * @rmtoll CRL       MODEy           LL_GPIO_SetPinOutputType
 469:Drivers/STM32F1xx_HAL_Driver/Inc/stm32f1xx_ll_gpio.h ****   * @rmtoll CRH       MODEy           LL_GPIO_SetPinOutputType
 470:Drivers/STM32F1xx_HAL_Driver/Inc/stm32f1xx_ll_gpio.h ****   * @param  GPIOx GPIO Port
 471:Drivers/STM32F1xx_HAL_Driver/Inc/stm32f1xx_ll_gpio.h ****   * @param  Pin This parameter can be a combination of the following values:
 472:Drivers/STM32F1xx_HAL_Driver/Inc/stm32f1xx_ll_gpio.h ****   *         @arg @ref LL_GPIO_PIN_0
 473:Drivers/STM32F1xx_HAL_Driver/Inc/stm32f1xx_ll_gpio.h ****   *         @arg @ref LL_GPIO_PIN_1
 474:Drivers/STM32F1xx_HAL_Driver/Inc/stm32f1xx_ll_gpio.h ****   *         @arg @ref LL_GPIO_PIN_2
 475:Drivers/STM32F1xx_HAL_Driver/Inc/stm32f1xx_ll_gpio.h ****   *         @arg @ref LL_GPIO_PIN_3
 476:Drivers/STM32F1xx_HAL_Driver/Inc/stm32f1xx_ll_gpio.h ****   *         @arg @ref LL_GPIO_PIN_4
 477:Drivers/STM32F1xx_HAL_Driver/Inc/stm32f1xx_ll_gpio.h ****   *         @arg @ref LL_GPIO_PIN_5
 478:Drivers/STM32F1xx_HAL_Driver/Inc/stm32f1xx_ll_gpio.h ****   *         @arg @ref LL_GPIO_PIN_6
 479:Drivers/STM32F1xx_HAL_Driver/Inc/stm32f1xx_ll_gpio.h ****   *         @arg @ref LL_GPIO_PIN_7
 480:Drivers/STM32F1xx_HAL_Driver/Inc/stm32f1xx_ll_gpio.h ****   *         @arg @ref LL_GPIO_PIN_8
 481:Drivers/STM32F1xx_HAL_Driver/Inc/stm32f1xx_ll_gpio.h ****   *         @arg @ref LL_GPIO_PIN_9
 482:Drivers/STM32F1xx_HAL_Driver/Inc/stm32f1xx_ll_gpio.h ****   *         @arg @ref LL_GPIO_PIN_10
 483:Drivers/STM32F1xx_HAL_Driver/Inc/stm32f1xx_ll_gpio.h ****   *         @arg @ref LL_GPIO_PIN_11
 484:Drivers/STM32F1xx_HAL_Driver/Inc/stm32f1xx_ll_gpio.h ****   *         @arg @ref LL_GPIO_PIN_12
ARM GAS  /var/folders/m1/3lv6xmzs0mlckxs4mx90nfb40000gn/T//ccOxfUMW.s 			page 11


 485:Drivers/STM32F1xx_HAL_Driver/Inc/stm32f1xx_ll_gpio.h ****   *         @arg @ref LL_GPIO_PIN_13
 486:Drivers/STM32F1xx_HAL_Driver/Inc/stm32f1xx_ll_gpio.h ****   *         @arg @ref LL_GPIO_PIN_14
 487:Drivers/STM32F1xx_HAL_Driver/Inc/stm32f1xx_ll_gpio.h ****   *         @arg @ref LL_GPIO_PIN_15
 488:Drivers/STM32F1xx_HAL_Driver/Inc/stm32f1xx_ll_gpio.h ****   *         @arg @ref LL_GPIO_PIN_ALL
 489:Drivers/STM32F1xx_HAL_Driver/Inc/stm32f1xx_ll_gpio.h ****   * @param  OutputType This parameter can be one of the following values:
 490:Drivers/STM32F1xx_HAL_Driver/Inc/stm32f1xx_ll_gpio.h ****   *         @arg @ref LL_GPIO_OUTPUT_PUSHPULL
 491:Drivers/STM32F1xx_HAL_Driver/Inc/stm32f1xx_ll_gpio.h ****   *         @arg @ref LL_GPIO_OUTPUT_OPENDRAIN
 492:Drivers/STM32F1xx_HAL_Driver/Inc/stm32f1xx_ll_gpio.h ****   * @retval None
 493:Drivers/STM32F1xx_HAL_Driver/Inc/stm32f1xx_ll_gpio.h ****   */
 494:Drivers/STM32F1xx_HAL_Driver/Inc/stm32f1xx_ll_gpio.h **** __STATIC_INLINE void LL_GPIO_SetPinOutputType(GPIO_TypeDef *GPIOx, uint32_t Pin, uint32_t OutputTyp
 495:Drivers/STM32F1xx_HAL_Driver/Inc/stm32f1xx_ll_gpio.h **** {
 496:Drivers/STM32F1xx_HAL_Driver/Inc/stm32f1xx_ll_gpio.h ****   register uint32_t *pReg = (uint32_t *)((uint32_t)(&GPIOx->CRL) + (Pin >> 24));
 497:Drivers/STM32F1xx_HAL_Driver/Inc/stm32f1xx_ll_gpio.h ****   MODIFY_REG(*pReg, (GPIO_CRL_CNF0_0 << (POSITION_VAL(Pin) * 4U)),
 498:Drivers/STM32F1xx_HAL_Driver/Inc/stm32f1xx_ll_gpio.h ****              (OutputType << (POSITION_VAL(Pin) * 4U)));
 499:Drivers/STM32F1xx_HAL_Driver/Inc/stm32f1xx_ll_gpio.h **** }
 500:Drivers/STM32F1xx_HAL_Driver/Inc/stm32f1xx_ll_gpio.h **** 
 501:Drivers/STM32F1xx_HAL_Driver/Inc/stm32f1xx_ll_gpio.h **** /**
 502:Drivers/STM32F1xx_HAL_Driver/Inc/stm32f1xx_ll_gpio.h ****   * @brief  Return gpio output type for several pins on dedicated port.
 503:Drivers/STM32F1xx_HAL_Driver/Inc/stm32f1xx_ll_gpio.h ****   * @note   Output type as to be set when gpio pin is in output or
 504:Drivers/STM32F1xx_HAL_Driver/Inc/stm32f1xx_ll_gpio.h ****   *         alternate modes. Possible type are Push-pull or Open-drain.
 505:Drivers/STM32F1xx_HAL_Driver/Inc/stm32f1xx_ll_gpio.h ****   * @note   Warning: only one pin can be passed as parameter.
 506:Drivers/STM32F1xx_HAL_Driver/Inc/stm32f1xx_ll_gpio.h ****   * @rmtoll CRL       MODEy       LL_GPIO_GetPinOutputType
 507:Drivers/STM32F1xx_HAL_Driver/Inc/stm32f1xx_ll_gpio.h ****   * @rmtoll CRH       MODEy       LL_GPIO_GetPinOutputType
 508:Drivers/STM32F1xx_HAL_Driver/Inc/stm32f1xx_ll_gpio.h ****   * @param  GPIOx GPIO Port
 509:Drivers/STM32F1xx_HAL_Driver/Inc/stm32f1xx_ll_gpio.h ****   * @param  Pin This parameter can be one of the following values:
 510:Drivers/STM32F1xx_HAL_Driver/Inc/stm32f1xx_ll_gpio.h ****   *         @arg @ref LL_GPIO_PIN_0
 511:Drivers/STM32F1xx_HAL_Driver/Inc/stm32f1xx_ll_gpio.h ****   *         @arg @ref LL_GPIO_PIN_1
 512:Drivers/STM32F1xx_HAL_Driver/Inc/stm32f1xx_ll_gpio.h ****   *         @arg @ref LL_GPIO_PIN_2
 513:Drivers/STM32F1xx_HAL_Driver/Inc/stm32f1xx_ll_gpio.h ****   *         @arg @ref LL_GPIO_PIN_3
 514:Drivers/STM32F1xx_HAL_Driver/Inc/stm32f1xx_ll_gpio.h ****   *         @arg @ref LL_GPIO_PIN_4
 515:Drivers/STM32F1xx_HAL_Driver/Inc/stm32f1xx_ll_gpio.h ****   *         @arg @ref LL_GPIO_PIN_5
 516:Drivers/STM32F1xx_HAL_Driver/Inc/stm32f1xx_ll_gpio.h ****   *         @arg @ref LL_GPIO_PIN_6
 517:Drivers/STM32F1xx_HAL_Driver/Inc/stm32f1xx_ll_gpio.h ****   *         @arg @ref LL_GPIO_PIN_7
 518:Drivers/STM32F1xx_HAL_Driver/Inc/stm32f1xx_ll_gpio.h ****   *         @arg @ref LL_GPIO_PIN_8
 519:Drivers/STM32F1xx_HAL_Driver/Inc/stm32f1xx_ll_gpio.h ****   *         @arg @ref LL_GPIO_PIN_9
 520:Drivers/STM32F1xx_HAL_Driver/Inc/stm32f1xx_ll_gpio.h ****   *         @arg @ref LL_GPIO_PIN_10
 521:Drivers/STM32F1xx_HAL_Driver/Inc/stm32f1xx_ll_gpio.h ****   *         @arg @ref LL_GPIO_PIN_11
 522:Drivers/STM32F1xx_HAL_Driver/Inc/stm32f1xx_ll_gpio.h ****   *         @arg @ref LL_GPIO_PIN_12
 523:Drivers/STM32F1xx_HAL_Driver/Inc/stm32f1xx_ll_gpio.h ****   *         @arg @ref LL_GPIO_PIN_13
 524:Drivers/STM32F1xx_HAL_Driver/Inc/stm32f1xx_ll_gpio.h ****   *         @arg @ref LL_GPIO_PIN_14
 525:Drivers/STM32F1xx_HAL_Driver/Inc/stm32f1xx_ll_gpio.h ****   *         @arg @ref LL_GPIO_PIN_15
 526:Drivers/STM32F1xx_HAL_Driver/Inc/stm32f1xx_ll_gpio.h ****   *         @arg @ref LL_GPIO_PIN_ALL
 527:Drivers/STM32F1xx_HAL_Driver/Inc/stm32f1xx_ll_gpio.h ****   * @retval Returned value can be one of the following values:
 528:Drivers/STM32F1xx_HAL_Driver/Inc/stm32f1xx_ll_gpio.h ****   *         @arg @ref LL_GPIO_OUTPUT_PUSHPULL
 529:Drivers/STM32F1xx_HAL_Driver/Inc/stm32f1xx_ll_gpio.h ****   *         @arg @ref LL_GPIO_OUTPUT_OPENDRAIN
 530:Drivers/STM32F1xx_HAL_Driver/Inc/stm32f1xx_ll_gpio.h ****   */
 531:Drivers/STM32F1xx_HAL_Driver/Inc/stm32f1xx_ll_gpio.h **** __STATIC_INLINE uint32_t LL_GPIO_GetPinOutputType(GPIO_TypeDef *GPIOx, uint32_t Pin)
 532:Drivers/STM32F1xx_HAL_Driver/Inc/stm32f1xx_ll_gpio.h **** {
 533:Drivers/STM32F1xx_HAL_Driver/Inc/stm32f1xx_ll_gpio.h ****   register uint32_t *pReg = (uint32_t *)((uint32_t)(&GPIOx->CRL) + (Pin >> 24));
 534:Drivers/STM32F1xx_HAL_Driver/Inc/stm32f1xx_ll_gpio.h ****   return (READ_BIT(*pReg, (GPIO_CRL_CNF0_0 << (POSITION_VAL(Pin) * 4U))) >> (POSITION_VAL(Pin) * 4U
 535:Drivers/STM32F1xx_HAL_Driver/Inc/stm32f1xx_ll_gpio.h **** 
 536:Drivers/STM32F1xx_HAL_Driver/Inc/stm32f1xx_ll_gpio.h **** }
 537:Drivers/STM32F1xx_HAL_Driver/Inc/stm32f1xx_ll_gpio.h **** 
 538:Drivers/STM32F1xx_HAL_Driver/Inc/stm32f1xx_ll_gpio.h **** /**
 539:Drivers/STM32F1xx_HAL_Driver/Inc/stm32f1xx_ll_gpio.h ****   * @brief  Configure gpio pull-up or pull-down for a dedicated pin on a dedicated port.
 540:Drivers/STM32F1xx_HAL_Driver/Inc/stm32f1xx_ll_gpio.h ****   * @note   Warning: only one pin can be passed as parameter.
 541:Drivers/STM32F1xx_HAL_Driver/Inc/stm32f1xx_ll_gpio.h ****   * @rmtoll ODR        ODR         LL_GPIO_SetPinPull
ARM GAS  /var/folders/m1/3lv6xmzs0mlckxs4mx90nfb40000gn/T//ccOxfUMW.s 			page 12


 542:Drivers/STM32F1xx_HAL_Driver/Inc/stm32f1xx_ll_gpio.h ****   * @param  GPIOx GPIO Port
 543:Drivers/STM32F1xx_HAL_Driver/Inc/stm32f1xx_ll_gpio.h ****   * @param  Pin This parameter can be one of the following values:
 544:Drivers/STM32F1xx_HAL_Driver/Inc/stm32f1xx_ll_gpio.h ****   *         @arg @ref LL_GPIO_PIN_0
 545:Drivers/STM32F1xx_HAL_Driver/Inc/stm32f1xx_ll_gpio.h ****   *         @arg @ref LL_GPIO_PIN_1
 546:Drivers/STM32F1xx_HAL_Driver/Inc/stm32f1xx_ll_gpio.h ****   *         @arg @ref LL_GPIO_PIN_2
 547:Drivers/STM32F1xx_HAL_Driver/Inc/stm32f1xx_ll_gpio.h ****   *         @arg @ref LL_GPIO_PIN_3
 548:Drivers/STM32F1xx_HAL_Driver/Inc/stm32f1xx_ll_gpio.h ****   *         @arg @ref LL_GPIO_PIN_4
 549:Drivers/STM32F1xx_HAL_Driver/Inc/stm32f1xx_ll_gpio.h ****   *         @arg @ref LL_GPIO_PIN_5
 550:Drivers/STM32F1xx_HAL_Driver/Inc/stm32f1xx_ll_gpio.h ****   *         @arg @ref LL_GPIO_PIN_6
 551:Drivers/STM32F1xx_HAL_Driver/Inc/stm32f1xx_ll_gpio.h ****   *         @arg @ref LL_GPIO_PIN_7
 552:Drivers/STM32F1xx_HAL_Driver/Inc/stm32f1xx_ll_gpio.h ****   *         @arg @ref LL_GPIO_PIN_8
 553:Drivers/STM32F1xx_HAL_Driver/Inc/stm32f1xx_ll_gpio.h ****   *         @arg @ref LL_GPIO_PIN_9
 554:Drivers/STM32F1xx_HAL_Driver/Inc/stm32f1xx_ll_gpio.h ****   *         @arg @ref LL_GPIO_PIN_10
 555:Drivers/STM32F1xx_HAL_Driver/Inc/stm32f1xx_ll_gpio.h ****   *         @arg @ref LL_GPIO_PIN_11
 556:Drivers/STM32F1xx_HAL_Driver/Inc/stm32f1xx_ll_gpio.h ****   *         @arg @ref LL_GPIO_PIN_12
 557:Drivers/STM32F1xx_HAL_Driver/Inc/stm32f1xx_ll_gpio.h ****   *         @arg @ref LL_GPIO_PIN_13
 558:Drivers/STM32F1xx_HAL_Driver/Inc/stm32f1xx_ll_gpio.h ****   *         @arg @ref LL_GPIO_PIN_14
 559:Drivers/STM32F1xx_HAL_Driver/Inc/stm32f1xx_ll_gpio.h ****   *         @arg @ref LL_GPIO_PIN_15
 560:Drivers/STM32F1xx_HAL_Driver/Inc/stm32f1xx_ll_gpio.h ****   * @param  Pull This parameter can be one of the following values:
 561:Drivers/STM32F1xx_HAL_Driver/Inc/stm32f1xx_ll_gpio.h ****   *         @arg @ref LL_GPIO_PULL_DOWN
 562:Drivers/STM32F1xx_HAL_Driver/Inc/stm32f1xx_ll_gpio.h ****   *         @arg @ref LL_GPIO_PULL_UP
 563:Drivers/STM32F1xx_HAL_Driver/Inc/stm32f1xx_ll_gpio.h ****   * @retval None
 564:Drivers/STM32F1xx_HAL_Driver/Inc/stm32f1xx_ll_gpio.h ****   */
 565:Drivers/STM32F1xx_HAL_Driver/Inc/stm32f1xx_ll_gpio.h **** __STATIC_INLINE void LL_GPIO_SetPinPull(GPIO_TypeDef *GPIOx, uint32_t Pin, uint32_t Pull)
 566:Drivers/STM32F1xx_HAL_Driver/Inc/stm32f1xx_ll_gpio.h **** {
 567:Drivers/STM32F1xx_HAL_Driver/Inc/stm32f1xx_ll_gpio.h ****   MODIFY_REG(GPIOx->ODR, (Pin >> GPIO_PIN_MASK_POS), Pull << (POSITION_VAL(Pin >> GPIO_PIN_MASK_POS
 568:Drivers/STM32F1xx_HAL_Driver/Inc/stm32f1xx_ll_gpio.h **** }
 569:Drivers/STM32F1xx_HAL_Driver/Inc/stm32f1xx_ll_gpio.h **** 
 570:Drivers/STM32F1xx_HAL_Driver/Inc/stm32f1xx_ll_gpio.h **** /**
 571:Drivers/STM32F1xx_HAL_Driver/Inc/stm32f1xx_ll_gpio.h ****   * @brief  Return gpio pull-up or pull-down for a dedicated pin on a dedicated port
 572:Drivers/STM32F1xx_HAL_Driver/Inc/stm32f1xx_ll_gpio.h ****   * @note   Warning: only one pin can be passed as parameter.
 573:Drivers/STM32F1xx_HAL_Driver/Inc/stm32f1xx_ll_gpio.h ****   * @rmtoll ODR        ODR         LL_GPIO_GetPinPull
 574:Drivers/STM32F1xx_HAL_Driver/Inc/stm32f1xx_ll_gpio.h ****   * @param  GPIOx GPIO Port
 575:Drivers/STM32F1xx_HAL_Driver/Inc/stm32f1xx_ll_gpio.h ****   * @param  Pin This parameter can be one of the following values:
 576:Drivers/STM32F1xx_HAL_Driver/Inc/stm32f1xx_ll_gpio.h ****   *         @arg @ref LL_GPIO_PIN_0
 577:Drivers/STM32F1xx_HAL_Driver/Inc/stm32f1xx_ll_gpio.h ****   *         @arg @ref LL_GPIO_PIN_1
 578:Drivers/STM32F1xx_HAL_Driver/Inc/stm32f1xx_ll_gpio.h ****   *         @arg @ref LL_GPIO_PIN_2
 579:Drivers/STM32F1xx_HAL_Driver/Inc/stm32f1xx_ll_gpio.h ****   *         @arg @ref LL_GPIO_PIN_3
 580:Drivers/STM32F1xx_HAL_Driver/Inc/stm32f1xx_ll_gpio.h ****   *         @arg @ref LL_GPIO_PIN_4
 581:Drivers/STM32F1xx_HAL_Driver/Inc/stm32f1xx_ll_gpio.h ****   *         @arg @ref LL_GPIO_PIN_5
 582:Drivers/STM32F1xx_HAL_Driver/Inc/stm32f1xx_ll_gpio.h ****   *         @arg @ref LL_GPIO_PIN_6
 583:Drivers/STM32F1xx_HAL_Driver/Inc/stm32f1xx_ll_gpio.h ****   *         @arg @ref LL_GPIO_PIN_7
 584:Drivers/STM32F1xx_HAL_Driver/Inc/stm32f1xx_ll_gpio.h ****   *         @arg @ref LL_GPIO_PIN_8
 585:Drivers/STM32F1xx_HAL_Driver/Inc/stm32f1xx_ll_gpio.h ****   *         @arg @ref LL_GPIO_PIN_9
 586:Drivers/STM32F1xx_HAL_Driver/Inc/stm32f1xx_ll_gpio.h ****   *         @arg @ref LL_GPIO_PIN_10
 587:Drivers/STM32F1xx_HAL_Driver/Inc/stm32f1xx_ll_gpio.h ****   *         @arg @ref LL_GPIO_PIN_11
 588:Drivers/STM32F1xx_HAL_Driver/Inc/stm32f1xx_ll_gpio.h ****   *         @arg @ref LL_GPIO_PIN_12
 589:Drivers/STM32F1xx_HAL_Driver/Inc/stm32f1xx_ll_gpio.h ****   *         @arg @ref LL_GPIO_PIN_13
 590:Drivers/STM32F1xx_HAL_Driver/Inc/stm32f1xx_ll_gpio.h ****   *         @arg @ref LL_GPIO_PIN_14
 591:Drivers/STM32F1xx_HAL_Driver/Inc/stm32f1xx_ll_gpio.h ****   *         @arg @ref LL_GPIO_PIN_15
 592:Drivers/STM32F1xx_HAL_Driver/Inc/stm32f1xx_ll_gpio.h ****   * @retval Returned value can be one of the following values:
 593:Drivers/STM32F1xx_HAL_Driver/Inc/stm32f1xx_ll_gpio.h ****   *         @arg @ref LL_GPIO_PULL_DOWN
 594:Drivers/STM32F1xx_HAL_Driver/Inc/stm32f1xx_ll_gpio.h ****   *         @arg @ref LL_GPIO_PULL_UP
 595:Drivers/STM32F1xx_HAL_Driver/Inc/stm32f1xx_ll_gpio.h ****   */
 596:Drivers/STM32F1xx_HAL_Driver/Inc/stm32f1xx_ll_gpio.h **** __STATIC_INLINE uint32_t LL_GPIO_GetPinPull(GPIO_TypeDef *GPIOx, uint32_t Pin)
 597:Drivers/STM32F1xx_HAL_Driver/Inc/stm32f1xx_ll_gpio.h **** {
 598:Drivers/STM32F1xx_HAL_Driver/Inc/stm32f1xx_ll_gpio.h ****   return (READ_BIT(GPIOx->ODR, (GPIO_ODR_ODR0 << (POSITION_VAL(Pin >> GPIO_PIN_MASK_POS)))) >> (POS
ARM GAS  /var/folders/m1/3lv6xmzs0mlckxs4mx90nfb40000gn/T//ccOxfUMW.s 			page 13


 599:Drivers/STM32F1xx_HAL_Driver/Inc/stm32f1xx_ll_gpio.h **** }
 600:Drivers/STM32F1xx_HAL_Driver/Inc/stm32f1xx_ll_gpio.h **** 
 601:Drivers/STM32F1xx_HAL_Driver/Inc/stm32f1xx_ll_gpio.h **** /**
 602:Drivers/STM32F1xx_HAL_Driver/Inc/stm32f1xx_ll_gpio.h ****   * @brief  Lock configuration of several pins for a dedicated port.
 603:Drivers/STM32F1xx_HAL_Driver/Inc/stm32f1xx_ll_gpio.h ****   * @note   When the lock sequence has been applied on a port bit, the
 604:Drivers/STM32F1xx_HAL_Driver/Inc/stm32f1xx_ll_gpio.h ****   *         value of this port bit can no longer be modified until the
 605:Drivers/STM32F1xx_HAL_Driver/Inc/stm32f1xx_ll_gpio.h ****   *         next reset.
 606:Drivers/STM32F1xx_HAL_Driver/Inc/stm32f1xx_ll_gpio.h ****   * @note   Each lock bit freezes a specific configuration register
 607:Drivers/STM32F1xx_HAL_Driver/Inc/stm32f1xx_ll_gpio.h ****   *         (control and alternate function registers).
 608:Drivers/STM32F1xx_HAL_Driver/Inc/stm32f1xx_ll_gpio.h ****   * @rmtoll LCKR         LCKK          LL_GPIO_LockPin
 609:Drivers/STM32F1xx_HAL_Driver/Inc/stm32f1xx_ll_gpio.h ****   * @param  GPIOx GPIO Port
 610:Drivers/STM32F1xx_HAL_Driver/Inc/stm32f1xx_ll_gpio.h ****   * @param  PinMask This parameter can be a combination of the following values:
 611:Drivers/STM32F1xx_HAL_Driver/Inc/stm32f1xx_ll_gpio.h ****   *         @arg @ref LL_GPIO_PIN_0
 612:Drivers/STM32F1xx_HAL_Driver/Inc/stm32f1xx_ll_gpio.h ****   *         @arg @ref LL_GPIO_PIN_1
 613:Drivers/STM32F1xx_HAL_Driver/Inc/stm32f1xx_ll_gpio.h ****   *         @arg @ref LL_GPIO_PIN_2
 614:Drivers/STM32F1xx_HAL_Driver/Inc/stm32f1xx_ll_gpio.h ****   *         @arg @ref LL_GPIO_PIN_3
 615:Drivers/STM32F1xx_HAL_Driver/Inc/stm32f1xx_ll_gpio.h ****   *         @arg @ref LL_GPIO_PIN_4
 616:Drivers/STM32F1xx_HAL_Driver/Inc/stm32f1xx_ll_gpio.h ****   *         @arg @ref LL_GPIO_PIN_5
 617:Drivers/STM32F1xx_HAL_Driver/Inc/stm32f1xx_ll_gpio.h ****   *         @arg @ref LL_GPIO_PIN_6
 618:Drivers/STM32F1xx_HAL_Driver/Inc/stm32f1xx_ll_gpio.h ****   *         @arg @ref LL_GPIO_PIN_7
 619:Drivers/STM32F1xx_HAL_Driver/Inc/stm32f1xx_ll_gpio.h ****   *         @arg @ref LL_GPIO_PIN_8
 620:Drivers/STM32F1xx_HAL_Driver/Inc/stm32f1xx_ll_gpio.h ****   *         @arg @ref LL_GPIO_PIN_9
 621:Drivers/STM32F1xx_HAL_Driver/Inc/stm32f1xx_ll_gpio.h ****   *         @arg @ref LL_GPIO_PIN_10
 622:Drivers/STM32F1xx_HAL_Driver/Inc/stm32f1xx_ll_gpio.h ****   *         @arg @ref LL_GPIO_PIN_11
 623:Drivers/STM32F1xx_HAL_Driver/Inc/stm32f1xx_ll_gpio.h ****   *         @arg @ref LL_GPIO_PIN_12
 624:Drivers/STM32F1xx_HAL_Driver/Inc/stm32f1xx_ll_gpio.h ****   *         @arg @ref LL_GPIO_PIN_13
 625:Drivers/STM32F1xx_HAL_Driver/Inc/stm32f1xx_ll_gpio.h ****   *         @arg @ref LL_GPIO_PIN_14
 626:Drivers/STM32F1xx_HAL_Driver/Inc/stm32f1xx_ll_gpio.h ****   *         @arg @ref LL_GPIO_PIN_15
 627:Drivers/STM32F1xx_HAL_Driver/Inc/stm32f1xx_ll_gpio.h ****   *         @arg @ref LL_GPIO_PIN_ALL
 628:Drivers/STM32F1xx_HAL_Driver/Inc/stm32f1xx_ll_gpio.h ****   * @retval None
 629:Drivers/STM32F1xx_HAL_Driver/Inc/stm32f1xx_ll_gpio.h ****   */
 630:Drivers/STM32F1xx_HAL_Driver/Inc/stm32f1xx_ll_gpio.h **** __STATIC_INLINE void LL_GPIO_LockPin(GPIO_TypeDef *GPIOx, uint32_t PinMask)
 631:Drivers/STM32F1xx_HAL_Driver/Inc/stm32f1xx_ll_gpio.h **** {
 632:Drivers/STM32F1xx_HAL_Driver/Inc/stm32f1xx_ll_gpio.h ****   __IO uint32_t temp;
 633:Drivers/STM32F1xx_HAL_Driver/Inc/stm32f1xx_ll_gpio.h ****   WRITE_REG(GPIOx->LCKR, GPIO_LCKR_LCKK | ((PinMask >> GPIO_PIN_MASK_POS) & 0x0000FFFFU));
 634:Drivers/STM32F1xx_HAL_Driver/Inc/stm32f1xx_ll_gpio.h ****   WRITE_REG(GPIOx->LCKR, ((PinMask >> GPIO_PIN_MASK_POS) & 0x0000FFFFU));
 635:Drivers/STM32F1xx_HAL_Driver/Inc/stm32f1xx_ll_gpio.h ****   WRITE_REG(GPIOx->LCKR, GPIO_LCKR_LCKK | ((PinMask >> GPIO_PIN_MASK_POS) & 0x0000FFFFU));
 636:Drivers/STM32F1xx_HAL_Driver/Inc/stm32f1xx_ll_gpio.h ****   temp = READ_REG(GPIOx->LCKR);
 637:Drivers/STM32F1xx_HAL_Driver/Inc/stm32f1xx_ll_gpio.h ****   (void) temp;
 638:Drivers/STM32F1xx_HAL_Driver/Inc/stm32f1xx_ll_gpio.h **** }
 639:Drivers/STM32F1xx_HAL_Driver/Inc/stm32f1xx_ll_gpio.h **** 
 640:Drivers/STM32F1xx_HAL_Driver/Inc/stm32f1xx_ll_gpio.h **** /**
 641:Drivers/STM32F1xx_HAL_Driver/Inc/stm32f1xx_ll_gpio.h ****   * @brief  Return 1 if all pins passed as parameter, of a dedicated port, are locked. else Return 
 642:Drivers/STM32F1xx_HAL_Driver/Inc/stm32f1xx_ll_gpio.h ****   * @rmtoll LCKR         LCKy          LL_GPIO_IsPinLocked
 643:Drivers/STM32F1xx_HAL_Driver/Inc/stm32f1xx_ll_gpio.h ****   * @param  GPIOx GPIO Port
 644:Drivers/STM32F1xx_HAL_Driver/Inc/stm32f1xx_ll_gpio.h ****   * @param  PinMask This parameter can be a combination of the following values:
 645:Drivers/STM32F1xx_HAL_Driver/Inc/stm32f1xx_ll_gpio.h ****   *         @arg @ref LL_GPIO_PIN_0
 646:Drivers/STM32F1xx_HAL_Driver/Inc/stm32f1xx_ll_gpio.h ****   *         @arg @ref LL_GPIO_PIN_1
 647:Drivers/STM32F1xx_HAL_Driver/Inc/stm32f1xx_ll_gpio.h ****   *         @arg @ref LL_GPIO_PIN_2
 648:Drivers/STM32F1xx_HAL_Driver/Inc/stm32f1xx_ll_gpio.h ****   *         @arg @ref LL_GPIO_PIN_3
 649:Drivers/STM32F1xx_HAL_Driver/Inc/stm32f1xx_ll_gpio.h ****   *         @arg @ref LL_GPIO_PIN_4
 650:Drivers/STM32F1xx_HAL_Driver/Inc/stm32f1xx_ll_gpio.h ****   *         @arg @ref LL_GPIO_PIN_5
 651:Drivers/STM32F1xx_HAL_Driver/Inc/stm32f1xx_ll_gpio.h ****   *         @arg @ref LL_GPIO_PIN_6
 652:Drivers/STM32F1xx_HAL_Driver/Inc/stm32f1xx_ll_gpio.h ****   *         @arg @ref LL_GPIO_PIN_7
 653:Drivers/STM32F1xx_HAL_Driver/Inc/stm32f1xx_ll_gpio.h ****   *         @arg @ref LL_GPIO_PIN_8
 654:Drivers/STM32F1xx_HAL_Driver/Inc/stm32f1xx_ll_gpio.h ****   *         @arg @ref LL_GPIO_PIN_9
 655:Drivers/STM32F1xx_HAL_Driver/Inc/stm32f1xx_ll_gpio.h ****   *         @arg @ref LL_GPIO_PIN_10
ARM GAS  /var/folders/m1/3lv6xmzs0mlckxs4mx90nfb40000gn/T//ccOxfUMW.s 			page 14


 656:Drivers/STM32F1xx_HAL_Driver/Inc/stm32f1xx_ll_gpio.h ****   *         @arg @ref LL_GPIO_PIN_11
 657:Drivers/STM32F1xx_HAL_Driver/Inc/stm32f1xx_ll_gpio.h ****   *         @arg @ref LL_GPIO_PIN_12
 658:Drivers/STM32F1xx_HAL_Driver/Inc/stm32f1xx_ll_gpio.h ****   *         @arg @ref LL_GPIO_PIN_13
 659:Drivers/STM32F1xx_HAL_Driver/Inc/stm32f1xx_ll_gpio.h ****   *         @arg @ref LL_GPIO_PIN_14
 660:Drivers/STM32F1xx_HAL_Driver/Inc/stm32f1xx_ll_gpio.h ****   *         @arg @ref LL_GPIO_PIN_15
 661:Drivers/STM32F1xx_HAL_Driver/Inc/stm32f1xx_ll_gpio.h ****   *         @arg @ref LL_GPIO_PIN_ALL
 662:Drivers/STM32F1xx_HAL_Driver/Inc/stm32f1xx_ll_gpio.h ****   * @retval State of bit (1 or 0).
 663:Drivers/STM32F1xx_HAL_Driver/Inc/stm32f1xx_ll_gpio.h ****   */
 664:Drivers/STM32F1xx_HAL_Driver/Inc/stm32f1xx_ll_gpio.h **** __STATIC_INLINE uint32_t LL_GPIO_IsPinLocked(GPIO_TypeDef *GPIOx, uint32_t PinMask)
 665:Drivers/STM32F1xx_HAL_Driver/Inc/stm32f1xx_ll_gpio.h **** {
 666:Drivers/STM32F1xx_HAL_Driver/Inc/stm32f1xx_ll_gpio.h ****   return (READ_BIT(GPIOx->LCKR, ((PinMask >> GPIO_PIN_MASK_POS) & 0x0000FFFFU)) == ((PinMask >> GPI
 667:Drivers/STM32F1xx_HAL_Driver/Inc/stm32f1xx_ll_gpio.h **** }
 668:Drivers/STM32F1xx_HAL_Driver/Inc/stm32f1xx_ll_gpio.h **** 
 669:Drivers/STM32F1xx_HAL_Driver/Inc/stm32f1xx_ll_gpio.h **** /**
 670:Drivers/STM32F1xx_HAL_Driver/Inc/stm32f1xx_ll_gpio.h ****   * @brief  Return 1 if one of the pin of a dedicated port is locked. else return 0.
 671:Drivers/STM32F1xx_HAL_Driver/Inc/stm32f1xx_ll_gpio.h ****   * @rmtoll LCKR         LCKK          LL_GPIO_IsAnyPinLocked
 672:Drivers/STM32F1xx_HAL_Driver/Inc/stm32f1xx_ll_gpio.h ****   * @param  GPIOx GPIO Port
 673:Drivers/STM32F1xx_HAL_Driver/Inc/stm32f1xx_ll_gpio.h ****   * @retval State of bit (1 or 0).
 674:Drivers/STM32F1xx_HAL_Driver/Inc/stm32f1xx_ll_gpio.h ****   */
 675:Drivers/STM32F1xx_HAL_Driver/Inc/stm32f1xx_ll_gpio.h **** __STATIC_INLINE uint32_t LL_GPIO_IsAnyPinLocked(GPIO_TypeDef *GPIOx)
 676:Drivers/STM32F1xx_HAL_Driver/Inc/stm32f1xx_ll_gpio.h **** {
 677:Drivers/STM32F1xx_HAL_Driver/Inc/stm32f1xx_ll_gpio.h ****   return (READ_BIT(GPIOx->LCKR, GPIO_LCKR_LCKK) == (GPIO_LCKR_LCKK));
 678:Drivers/STM32F1xx_HAL_Driver/Inc/stm32f1xx_ll_gpio.h **** }
 679:Drivers/STM32F1xx_HAL_Driver/Inc/stm32f1xx_ll_gpio.h **** 
 680:Drivers/STM32F1xx_HAL_Driver/Inc/stm32f1xx_ll_gpio.h **** /**
 681:Drivers/STM32F1xx_HAL_Driver/Inc/stm32f1xx_ll_gpio.h ****   * @}
 682:Drivers/STM32F1xx_HAL_Driver/Inc/stm32f1xx_ll_gpio.h ****   */
 683:Drivers/STM32F1xx_HAL_Driver/Inc/stm32f1xx_ll_gpio.h **** 
 684:Drivers/STM32F1xx_HAL_Driver/Inc/stm32f1xx_ll_gpio.h **** /** @defgroup GPIO_LL_EF_Data_Access Data Access
 685:Drivers/STM32F1xx_HAL_Driver/Inc/stm32f1xx_ll_gpio.h ****   * @{
 686:Drivers/STM32F1xx_HAL_Driver/Inc/stm32f1xx_ll_gpio.h ****   */
 687:Drivers/STM32F1xx_HAL_Driver/Inc/stm32f1xx_ll_gpio.h **** 
 688:Drivers/STM32F1xx_HAL_Driver/Inc/stm32f1xx_ll_gpio.h **** /**
 689:Drivers/STM32F1xx_HAL_Driver/Inc/stm32f1xx_ll_gpio.h ****   * @brief  Return full input data register value for a dedicated port.
 690:Drivers/STM32F1xx_HAL_Driver/Inc/stm32f1xx_ll_gpio.h ****   * @rmtoll IDR          IDy           LL_GPIO_ReadInputPort
 691:Drivers/STM32F1xx_HAL_Driver/Inc/stm32f1xx_ll_gpio.h ****   * @param  GPIOx GPIO Port
 692:Drivers/STM32F1xx_HAL_Driver/Inc/stm32f1xx_ll_gpio.h ****   * @retval Input data register value of port
 693:Drivers/STM32F1xx_HAL_Driver/Inc/stm32f1xx_ll_gpio.h ****   */
 694:Drivers/STM32F1xx_HAL_Driver/Inc/stm32f1xx_ll_gpio.h **** __STATIC_INLINE uint32_t LL_GPIO_ReadInputPort(GPIO_TypeDef *GPIOx)
 695:Drivers/STM32F1xx_HAL_Driver/Inc/stm32f1xx_ll_gpio.h **** {
 696:Drivers/STM32F1xx_HAL_Driver/Inc/stm32f1xx_ll_gpio.h ****   return (READ_REG(GPIOx->IDR));
  57              		.loc 2 696 0
  58 0000 0A4B     		ldr	r3, .L8
  59 0002 9B68     		ldr	r3, [r3, #8]
  60              	.LVL1:
  61              	.LBE51:
  62              	.LBE50:
  34:grbl/system.c ****   uint8_t control_state = 0;
  35:grbl/system.c **** #ifdef STM32
  36:grbl/system.c ****   uint16_t pin= GPIO_ReadInputData(CON_GPIO_Port);
  37:grbl/system.c **** #endif
  38:grbl/system.c **** 
  39:grbl/system.c ****   #ifdef INVERT_CONTROL_PIN_MASK
  40:grbl/system.c ****     pin ^= INVERT_CONTROL_PIN_MASK;
  41:grbl/system.c ****   #endif
  42:grbl/system.c ****   if (pin) {
  63              		.loc 1 42 0
ARM GAS  /var/folders/m1/3lv6xmzs0mlckxs4mx90nfb40000gn/T//ccOxfUMW.s 			page 15


  64 0004 98B2     		uxth	r0, r3
  65 0006 80B1     		cbz	r0, .L4
  43:grbl/system.c ****     #ifdef ENABLE_SAFETY_DOOR_INPUT_PIN
  44:grbl/system.c ****       if (bit_isfalse(pin,CON_SAFETY_DOOR_Pin)) { control_state |= CONTROL_PIN_INDEX_SAFETY_DOOR; }
  66              		.loc 1 44 0
  67 0008 0246     		mov	r2, r0
  68 000a 80F01000 		eor	r0, r0, #16
  34:grbl/system.c ****   uint8_t control_state = 0;
  69              		.loc 1 34 0
  70 000e C0F30010 		ubfx	r0, r0, #4, #1
  71              	.LVL2:
  45:grbl/system.c ****     #endif
  46:grbl/system.c ****     if (bit_isfalse(pin,CON_RESET_Pin)) { control_state |= CONTROL_PIN_INDEX_RESET; }
  72              		.loc 1 46 0
  73 0012 1B07     		lsls	r3, r3, #28
  74              	.LVL3:
  75 0014 58BF     		it	pl
  76 0016 40F00200 		orrpl	r0, r0, #2
  77              	.LVL4:
  47:grbl/system.c ****     if (bit_isfalse(pin,CON_FEED_HOLD_Pin)) { control_state |= CONTROL_PIN_INDEX_FEED_HOLD; }
  78              		.loc 1 47 0
  79 001a 9107     		lsls	r1, r2, #30
  80 001c 58BF     		it	pl
  81 001e 40F00400 		orrpl	r0, r0, #4
  82              	.LVL5:
  48:grbl/system.c ****     if (bit_isfalse(pin,CON_CYCLE_START_Pin)) { control_state |= CONTROL_PIN_INDEX_CYCLE_START; }
  83              		.loc 1 48 0
  84 0022 D307     		lsls	r3, r2, #31
  85 0024 58BF     		it	pl
  86 0026 40F00800 		orrpl	r0, r0, #8
  87              	.LVL6:
  88              	.L4:
  49:grbl/system.c ****   }
  50:grbl/system.c ****   return(control_state);
  51:grbl/system.c **** }
  89              		.loc 1 51 0
  90 002a 7047     		bx	lr
  91              	.L9:
  92              		.align	2
  93              	.L8:
  94 002c 000C0140 		.word	1073810432
  95              		.cfi_endproc
  96              	.LFE704:
  98              		.section	.text.HandleControlIT,"ax",%progbits
  99              		.align	1
 100              		.p2align 2,,3
 101              		.global	HandleControlIT
 102              		.syntax unified
 103              		.thumb
 104              		.thumb_func
 105              		.fpu softvfp
 107              	HandleControlIT:
 108              	.LFB705:
  52:grbl/system.c **** 
  53:grbl/system.c **** 
  54:grbl/system.c **** // Pin change interrupt for pin-out commands, i.e. cycle start, feed hold, and reset. Sets
  55:grbl/system.c **** // only the realtime command execute variable to have the main program execute these when
ARM GAS  /var/folders/m1/3lv6xmzs0mlckxs4mx90nfb40000gn/T//ccOxfUMW.s 			page 16


  56:grbl/system.c **** // its ready. This works exactly like the character-based realtime commands when picked off
  57:grbl/system.c **** // directly from the incoming serial data stream.
  58:grbl/system.c **** #ifdef STM32
  59:grbl/system.c ****   void HandleControlIT(uint16_t Control_Pin)
  60:grbl/system.c ****   {
 109              		.loc 1 60 0
 110              		.cfi_startproc
 111              		@ args = 0, pretend = 0, frame = 0
 112              		@ frame_needed = 0, uses_anonymous_args = 0
 113              		@ link register save eliminated.
 114              	.LVL7:
 115              	.LBB56:
 116              	.LBB57:
 117              	.LBB58:
 118              	.LBB59:
 119              		.loc 2 696 0
 120 0000 234B     		ldr	r3, .L40
 121 0002 9A68     		ldr	r2, [r3, #8]
 122              	.LVL8:
 123              	.LBE59:
 124              	.LBE58:
  42:grbl/system.c ****     #ifdef ENABLE_SAFETY_DOOR_INPUT_PIN
 125              		.loc 1 42 0
 126 0004 93B2     		uxth	r3, r2
 127 0006 1BB3     		cbz	r3, .L10
  44:grbl/system.c ****     #endif
 128              		.loc 1 44 0
 129 0008 1946     		mov	r1, r3
 130 000a 83F01003 		eor	r3, r3, #16
  46:grbl/system.c ****     if (bit_isfalse(pin,CON_FEED_HOLD_Pin)) { control_state |= CONTROL_PIN_INDEX_FEED_HOLD; }
 131              		.loc 1 46 0
 132 000e 1207     		lsls	r2, r2, #28
 133              	.LVL9:
  34:grbl/system.c **** #ifdef STM32
 134              		.loc 1 34 0
 135 0010 C3F30013 		ubfx	r3, r3, #4, #1
 136              	.LVL10:
  46:grbl/system.c ****     if (bit_isfalse(pin,CON_FEED_HOLD_Pin)) { control_state |= CONTROL_PIN_INDEX_FEED_HOLD; }
 137              		.loc 1 46 0
 138 0014 58BF     		it	pl
 139 0016 43F00203 		orrpl	r3, r3, #2
 140              	.LVL11:
  47:grbl/system.c ****     if (bit_isfalse(pin,CON_CYCLE_START_Pin)) { control_state |= CONTROL_PIN_INDEX_CYCLE_START; }
 141              		.loc 1 47 0
 142 001a 8A07     		lsls	r2, r1, #30
 143 001c 58BF     		it	pl
 144 001e 43F00403 		orrpl	r3, r3, #4
 145              	.LVL12:
  48:grbl/system.c ****   }
 146              		.loc 1 48 0
 147 0022 CA07     		lsls	r2, r1, #31
 148 0024 0ED4     		bmi	.L14
 149              	.LBE57:
 150              	.LBE56:
  61:grbl/system.c ****     uint8_t pin = system_control_get_state();
  62:grbl/system.c ****     switch (Control_Pin)
 151              		.loc 1 62 0
ARM GAS  /var/folders/m1/3lv6xmzs0mlckxs4mx90nfb40000gn/T//ccOxfUMW.s 			page 17


 152 0026 0138     		subs	r0, r0, #1
 153              	.LVL13:
 154              	.LBB62:
 155              	.LBB60:
  48:grbl/system.c ****   }
 156              		.loc 1 48 0
 157 0028 43F00802 		orr	r2, r3, #8
 158              	.LVL14:
 159              	.LBE60:
 160              	.LBE62:
 161              		.loc 1 62 0
 162 002c 0F28     		cmp	r0, #15
 163 002e 0FD8     		bhi	.L10
 164 0030 DFE800F0 		tbb	[pc, r0]
 165              	.L16:
 166 0034 0F       		.byte	(.L15-.L16)/2
 167 0035 1B       		.byte	(.L17-.L16)/2
 168 0036 0E       		.byte	(.L10-.L16)/2
 169 0037 0E       		.byte	(.L10-.L16)/2
 170 0038 0E       		.byte	(.L10-.L16)/2
 171 0039 0E       		.byte	(.L10-.L16)/2
 172 003a 0E       		.byte	(.L10-.L16)/2
 173 003b 15       		.byte	(.L18-.L16)/2
 174 003c 0E       		.byte	(.L10-.L16)/2
 175 003d 0E       		.byte	(.L10-.L16)/2
 176 003e 0E       		.byte	(.L10-.L16)/2
 177 003f 0E       		.byte	(.L10-.L16)/2
 178 0040 0E       		.byte	(.L10-.L16)/2
 179 0041 0E       		.byte	(.L10-.L16)/2
 180 0042 0E       		.byte	(.L10-.L16)/2
 181 0043 25       		.byte	(.L24-.L16)/2
 182              	.LVL15:
 183              		.p2align 1
 184              	.L14:
 185 0044 0828     		cmp	r0, #8
 186 0046 0AD0     		beq	.L18
 187 0048 1028     		cmp	r0, #16
 188 004a 19D0     		beq	.L19
 189 004c 0228     		cmp	r0, #2
 190 004e 0CD0     		beq	.L17
 191              	.LVL16:
 192              	.L10:
  63:grbl/system.c ****     {
  64:grbl/system.c ****     case CON_FEED_HOLD_Pin:
  65:grbl/system.c ****       if (bit_istrue(pin, CONTROL_PIN_INDEX_FEED_HOLD))
  66:grbl/system.c ****         bit_true(sys_rt_exec_state, EXEC_FEED_HOLD);
  67:grbl/system.c ****       break;
  68:grbl/system.c ****     case CON_CYCLE_START_Pin:
  69:grbl/system.c ****       if (bit_istrue(pin, CONTROL_PIN_INDEX_CYCLE_START))
  70:grbl/system.c ****         bit_true(sys_rt_exec_state, EXEC_CYCLE_START);
  71:grbl/system.c ****       break;
  72:grbl/system.c ****     case CON_RESET_Pin:
  73:grbl/system.c ****       if (bit_istrue(pin,CONTROL_PIN_INDEX_RESET))
  74:grbl/system.c ****         mc_reset();
  75:grbl/system.c ****       break;
  76:grbl/system.c ****     case CON_SAFETY_DOOR_Pin:
  77:grbl/system.c ****       if (bit_istrue(pin, CONTROL_PIN_INDEX_SAFETY_DOOR))
ARM GAS  /var/folders/m1/3lv6xmzs0mlckxs4mx90nfb40000gn/T//ccOxfUMW.s 			page 18


  78:grbl/system.c ****         bit_true(sys_rt_exec_state, EXEC_SAFETY_DOOR);
  79:grbl/system.c ****       break;
  80:grbl/system.c ****     }
  81:grbl/system.c ****   }
 193              		.loc 1 81 0
 194 0050 7047     		bx	lr
 195              	.L15:
  70:grbl/system.c ****       break;
 196              		.loc 1 70 0
 197 0052 104A     		ldr	r2, .L40+4
 198 0054 1378     		ldrb	r3, [r2]	@ zero_extendqisi2
 199 0056 43F00203 		orr	r3, r3, #2
 200 005a 1370     		strb	r3, [r2]
 201 005c 7047     		bx	lr
 202              	.L18:
 203 005e 03F00203 		and	r3, r3, #2
  73:grbl/system.c ****         mc_reset();
 204              		.loc 1 73 0
 205 0062 002B     		cmp	r3, #0
 206 0064 F4D0     		beq	.L10
  74:grbl/system.c ****       break;
 207              		.loc 1 74 0
 208 0066 FFF7FEBF 		b	mc_reset
 209              	.LVL17:
 210              	.L17:
 211 006a 03F00403 		and	r3, r3, #4
  65:grbl/system.c ****         bit_true(sys_rt_exec_state, EXEC_FEED_HOLD);
 212              		.loc 1 65 0
 213 006e 002B     		cmp	r3, #0
 214 0070 EED0     		beq	.L10
  66:grbl/system.c ****       break;
 215              		.loc 1 66 0
 216 0072 084A     		ldr	r2, .L40+4
 217 0074 1378     		ldrb	r3, [r2]	@ zero_extendqisi2
 218 0076 43F00803 		orr	r3, r3, #8
 219 007a 1370     		strb	r3, [r2]
 220 007c 7047     		bx	lr
 221              	.L24:
 222              	.LBB63:
 223              	.LBB61:
  48:grbl/system.c ****   }
 224              		.loc 1 48 0
 225 007e 1346     		mov	r3, r2
 226              	.L19:
 227              	.LBE61:
 228              	.LBE63:
  77:grbl/system.c ****         bit_true(sys_rt_exec_state, EXEC_SAFETY_DOOR);
 229              		.loc 1 77 0
 230 0080 DB07     		lsls	r3, r3, #31
 231 0082 E5D5     		bpl	.L10
  78:grbl/system.c ****       break;
 232              		.loc 1 78 0
 233 0084 034A     		ldr	r2, .L40+4
 234 0086 1378     		ldrb	r3, [r2]	@ zero_extendqisi2
 235 0088 43F02003 		orr	r3, r3, #32
 236 008c 1370     		strb	r3, [r2]
 237              		.loc 1 81 0
ARM GAS  /var/folders/m1/3lv6xmzs0mlckxs4mx90nfb40000gn/T//ccOxfUMW.s 			page 19


 238 008e 7047     		bx	lr
 239              	.L41:
 240              		.align	2
 241              	.L40:
 242 0090 000C0140 		.word	1073810432
 243 0094 00000000 		.word	sys_rt_exec_state
 244              		.cfi_endproc
 245              	.LFE705:
 247              		.section	.text.system_check_safety_door_ajar,"ax",%progbits
 248              		.align	1
 249              		.p2align 2,,3
 250              		.global	system_check_safety_door_ajar
 251              		.syntax unified
 252              		.thumb
 253              		.thumb_func
 254              		.fpu softvfp
 256              	system_check_safety_door_ajar:
 257              	.LFB706:
  82:grbl/system.c **** #endif
  83:grbl/system.c **** 
  84:grbl/system.c **** // Returns if safety door is ajar(T) or closed(F), based on pin state.
  85:grbl/system.c **** uint8_t system_check_safety_door_ajar()
  86:grbl/system.c **** {
 258              		.loc 1 86 0
 259              		.cfi_startproc
 260              		@ args = 0, pretend = 0, frame = 0
 261              		@ frame_needed = 0, uses_anonymous_args = 0
 262              		@ link register save eliminated.
 263              	.LVL18:
 264              	.LBB68:
 265              	.LBB69:
 266              	.LBB70:
 267              	.LBB71:
 268              		.loc 2 696 0
 269 0000 094B     		ldr	r3, .L48
 270 0002 9B68     		ldr	r3, [r3, #8]
 271              	.LVL19:
 272              	.LBE71:
 273              	.LBE70:
  42:grbl/system.c ****     #ifdef ENABLE_SAFETY_DOOR_INPUT_PIN
 274              		.loc 1 42 0
 275 0004 98B2     		uxth	r0, r3
 276 0006 70B1     		cbz	r0, .L43
  44:grbl/system.c ****     #endif
 277              		.loc 1 44 0
 278 0008 0246     		mov	r2, r0
 279 000a 80F01000 		eor	r0, r0, #16
  34:grbl/system.c **** #ifdef STM32
 280              		.loc 1 34 0
 281 000e C0F30010 		ubfx	r0, r0, #4, #1
 282              	.LVL20:
  46:grbl/system.c ****     if (bit_isfalse(pin,CON_FEED_HOLD_Pin)) { control_state |= CONTROL_PIN_INDEX_FEED_HOLD; }
 283              		.loc 1 46 0
 284 0012 1907     		lsls	r1, r3, #28
 285 0014 58BF     		it	pl
 286 0016 40F00200 		orrpl	r0, r0, #2
 287              	.LVL21:
ARM GAS  /var/folders/m1/3lv6xmzs0mlckxs4mx90nfb40000gn/T//ccOxfUMW.s 			page 20


  47:grbl/system.c ****     if (bit_isfalse(pin,CON_CYCLE_START_Pin)) { control_state |= CONTROL_PIN_INDEX_CYCLE_START; }
 288              		.loc 1 47 0
 289 001a 9307     		lsls	r3, r2, #30
 290              	.LVL22:
 291 001c 58BF     		it	pl
 292 001e 40F00400 		orrpl	r0, r0, #4
 293              	.LVL23:
 294 0022 00F00100 		and	r0, r0, #1
 295              	.LVL24:
 296              	.L43:
 297              	.LBE69:
 298              	.LBE68:
  87:grbl/system.c ****   #ifdef ENABLE_SAFETY_DOOR_INPUT_PIN
  88:grbl/system.c ****     return(system_control_get_state() & CONTROL_PIN_INDEX_SAFETY_DOOR);
  89:grbl/system.c ****   #else
  90:grbl/system.c ****     return(false); // Input pin not enabled, so just return that it's closed.
  91:grbl/system.c ****   #endif
  92:grbl/system.c **** }
 299              		.loc 1 92 0
 300 0026 7047     		bx	lr
 301              	.L49:
 302              		.align	2
 303              	.L48:
 304 0028 000C0140 		.word	1073810432
 305              		.cfi_endproc
 306              	.LFE706:
 308              		.section	.text.system_execute_startup,"ax",%progbits
 309              		.align	1
 310              		.p2align 2,,3
 311              		.global	system_execute_startup
 312              		.syntax unified
 313              		.thumb
 314              		.thumb_func
 315              		.fpu softvfp
 317              	system_execute_startup:
 318              	.LFB707:
  93:grbl/system.c **** 
  94:grbl/system.c **** 
  95:grbl/system.c **** // Executes user startup script, if stored.
  96:grbl/system.c **** void system_execute_startup(char *line)
  97:grbl/system.c **** {
 319              		.loc 1 97 0
 320              		.cfi_startproc
 321              		@ args = 0, pretend = 0, frame = 0
 322              		@ frame_needed = 0, uses_anonymous_args = 0
 323              	.LVL25:
 324 0000 38B5     		push	{r3, r4, r5, lr}
 325              	.LCFI0:
 326              		.cfi_def_cfa_offset 16
 327              		.cfi_offset 3, -16
 328              		.cfi_offset 4, -12
 329              		.cfi_offset 5, -8
 330              		.cfi_offset 14, -4
 331              		.loc 1 97 0
 332 0002 0446     		mov	r4, r0
 333 0004 0025     		movs	r5, #0
 334              	.LVL26:
ARM GAS  /var/folders/m1/3lv6xmzs0mlckxs4mx90nfb40000gn/T//ccOxfUMW.s 			page 21


  98:grbl/system.c ****   uint8_t n;
  99:grbl/system.c ****   for (n=0; n < N_STARTUP_LINE; n++) {
 100:grbl/system.c ****     if (!(settings_read_startup_line(n, line))) {
 335              		.loc 1 100 0
 336 0006 2146     		mov	r1, r4
 337 0008 2846     		mov	r0, r5
 338              	.LVL27:
 339 000a FFF7FEFF 		bl	settings_read_startup_line
 340              	.LVL28:
 341 000e 50B1     		cbz	r0, .L59
 342              	.L51:
 101:grbl/system.c ****       line[0] = 0;
 102:grbl/system.c ****       report_execute_startup_message(line,STATUS_SETTING_READ_FAIL);
 103:grbl/system.c ****     } else {
 104:grbl/system.c ****       if (line[0] != 0) {
 343              		.loc 1 104 0
 344 0010 2378     		ldrb	r3, [r4]	@ zero_extendqisi2
 345 0012 73B9     		cbnz	r3, .L60
 346              	.L52:
 347              	.LVL29:
  99:grbl/system.c ****     if (!(settings_read_startup_line(n, line))) {
 348              		.loc 1 99 0 discriminator 2
 349 0014 05B1     		cbz	r5, .L54
 105:grbl/system.c ****         uint8_t status_code = gc_execute_line(line);
 106:grbl/system.c ****         report_execute_startup_message(line,status_code);
 107:grbl/system.c ****       }
 108:grbl/system.c ****     }
 109:grbl/system.c ****   }
 110:grbl/system.c **** }
 350              		.loc 1 110 0
 351 0016 38BD     		pop	{r3, r4, r5, pc}
 352              	.LVL30:
 353              	.L54:
 354 0018 0125     		movs	r5, #1
 355              	.LVL31:
 100:grbl/system.c ****       line[0] = 0;
 356              		.loc 1 100 0
 357 001a 2146     		mov	r1, r4
 358 001c 2846     		mov	r0, r5
 359 001e FFF7FEFF 		bl	settings_read_startup_line
 360              	.LVL32:
 361 0022 0028     		cmp	r0, #0
 362 0024 F4D1     		bne	.L51
 363              	.L59:
 101:grbl/system.c ****       report_execute_startup_message(line,STATUS_SETTING_READ_FAIL);
 364              		.loc 1 101 0
 365 0026 2070     		strb	r0, [r4]
 102:grbl/system.c ****     } else {
 366              		.loc 1 102 0
 367 0028 0721     		movs	r1, #7
 368 002a 2046     		mov	r0, r4
 369 002c FFF7FEFF 		bl	report_execute_startup_message
 370              	.LVL33:
 371 0030 F0E7     		b	.L52
 372              	.L60:
 373              	.LBB72:
 105:grbl/system.c ****         report_execute_startup_message(line,status_code);
ARM GAS  /var/folders/m1/3lv6xmzs0mlckxs4mx90nfb40000gn/T//ccOxfUMW.s 			page 22


 374              		.loc 1 105 0
 375 0032 2046     		mov	r0, r4
 376 0034 FFF7FEFF 		bl	gc_execute_line
 377              	.LVL34:
 106:grbl/system.c ****       }
 378              		.loc 1 106 0
 379 0038 0146     		mov	r1, r0
 380 003a 2046     		mov	r0, r4
 381              	.LVL35:
 382 003c FFF7FEFF 		bl	report_execute_startup_message
 383              	.LVL36:
 384 0040 E8E7     		b	.L52
 385              	.LBE72:
 386              		.cfi_endproc
 387              	.LFE707:
 389              		.global	__aeabi_f2d
 390              		.global	__aeabi_d2uiz
 391              		.global	__aeabi_fcmpgt
 392              		.global	__aeabi_f2uiz
 393 0042 00BF     		.section	.text.system_execute_line,"ax",%progbits
 394              		.align	1
 395              		.p2align 2,,3
 396              		.global	system_execute_line
 397              		.syntax unified
 398              		.thumb
 399              		.thumb_func
 400              		.fpu softvfp
 402              	system_execute_line:
 403              	.LFB708:
 111:grbl/system.c **** 
 112:grbl/system.c **** 
 113:grbl/system.c **** // Directs and executes one line of formatted input from protocol_process. While mostly
 114:grbl/system.c **** // incoming streaming g-code blocks, this also executes Grbl internal commands, such as
 115:grbl/system.c **** // settings, initiating the homing cycle, and toggling switch states. This differs from
 116:grbl/system.c **** // the realtime command module by being susceptible to when Grbl is ready to execute the
 117:grbl/system.c **** // next line during a cycle, so for switches like block delete, the switch only effects
 118:grbl/system.c **** // the lines that are processed afterward, not necessarily real-time during a cycle,
 119:grbl/system.c **** // since there are motions already stored in the buffer. However, this 'lag' should not
 120:grbl/system.c **** // be an issue, since these commands are not typically used during a cycle.
 121:grbl/system.c **** uint8_t system_execute_line(char *line)
 122:grbl/system.c **** {
 404              		.loc 1 122 0
 405              		.cfi_startproc
 406              		@ args = 0, pretend = 0, frame = 16
 407              		@ frame_needed = 0, uses_anonymous_args = 0
 408              	.LVL37:
 123:grbl/system.c ****   uint8_t char_counter = 1;
 409              		.loc 1 123 0
 410 0000 0123     		movs	r3, #1
 122:grbl/system.c ****   uint8_t char_counter = 1;
 411              		.loc 1 122 0
 412 0002 70B5     		push	{r4, r5, r6, lr}
 413              	.LCFI1:
 414              		.cfi_def_cfa_offset 16
 415              		.cfi_offset 4, -16
 416              		.cfi_offset 5, -12
 417              		.cfi_offset 6, -8
ARM GAS  /var/folders/m1/3lv6xmzs0mlckxs4mx90nfb40000gn/T//ccOxfUMW.s 			page 23


 418              		.cfi_offset 14, -4
 124:grbl/system.c ****   uint8_t helper_var = 0; // Helper variable
 125:grbl/system.c ****   float parameter, value;
 126:grbl/system.c ****   switch( line[char_counter] ) {
 419              		.loc 1 126 0
 420 0004 4478     		ldrb	r4, [r0, #1]	@ zero_extendqisi2
 122:grbl/system.c ****   uint8_t char_counter = 1;
 421              		.loc 1 122 0
 422 0006 84B0     		sub	sp, sp, #16
 423              	.LCFI2:
 424              		.cfi_def_cfa_offset 32
 425              		.loc 1 126 0
 426 0008 432C     		cmp	r4, #67
 122:grbl/system.c ****   uint8_t char_counter = 1;
 427              		.loc 1 122 0
 428 000a 0546     		mov	r5, r0
 123:grbl/system.c ****   uint8_t helper_var = 0; // Helper variable
 429              		.loc 1 123 0
 430 000c 8DF80730 		strb	r3, [sp, #7]
 431              	.LVL38:
 432              		.loc 1 126 0
 433 0010 4CD0     		beq	.L63
 434 0012 7AD9     		bls	.L149
 435 0014 4A2C     		cmp	r4, #74
 436 0016 08D1     		bne	.L150
 127:grbl/system.c ****     case 0 : report_grbl_help(); break;
 128:grbl/system.c ****     case 'J' : // Jogging
 129:grbl/system.c ****       // Execute only if in IDLE or JOG states.
 130:grbl/system.c ****       if (sys.state != STATE_IDLE && sys.state != STATE_JOG) { return(STATUS_IDLE_ERROR); }
 437              		.loc 1 130 0
 438 0018 A14B     		ldr	r3, .L156
 439 001a 1B78     		ldrb	r3, [r3]	@ zero_extendqisi2
 440 001c 13F0DF0F 		tst	r3, #223
 441 0020 7AD0     		beq	.L151
 442              	.L123:
 131:grbl/system.c ****       if(line[2] != '=') { return(STATUS_INVALID_STATEMENT); }
 132:grbl/system.c ****       return(gc_execute_line(line)); // NOTE: $J= is ignored inside g-code parser and used to detec
 133:grbl/system.c ****       break;
 134:grbl/system.c ****     case '$': case 'G': case 'C': case 'X':
 135:grbl/system.c ****       if ( line[2] != 0 ) { return(STATUS_INVALID_STATEMENT); }
 136:grbl/system.c ****       switch( line[1] ) {
 137:grbl/system.c ****         case '$' : // Prints Grbl settings
 138:grbl/system.c ****           if ( sys.state & (STATE_CYCLE | STATE_HOLD) ) { return(STATUS_IDLE_ERROR); } // Block dur
 139:grbl/system.c ****           else { report_grbl_settings(); }
 140:grbl/system.c ****           break;
 141:grbl/system.c ****         case 'G' : // Prints gcode parser state
 142:grbl/system.c ****           // TODO: Move this to realtime commands for GUIs to request this data during suspend-stat
 143:grbl/system.c ****           report_gcode_modes();
 144:grbl/system.c ****           break;
 145:grbl/system.c ****         case 'C' : // Set check g-code mode [IDLE/CHECK]
 146:grbl/system.c ****           // Perform reset when toggling off. Check g-code mode should only work if Grbl
 147:grbl/system.c ****           // is idle and ready, regardless of alarm locks. This is mainly to keep things
 148:grbl/system.c ****           // simple and consistent.
 149:grbl/system.c ****           if ( sys.state == STATE_CHECK_MODE ) {
 150:grbl/system.c ****             mc_reset();
 151:grbl/system.c ****             report_feedback_message(MESSAGE_DISABLED);
 152:grbl/system.c ****           } else {
ARM GAS  /var/folders/m1/3lv6xmzs0mlckxs4mx90nfb40000gn/T//ccOxfUMW.s 			page 24


 153:grbl/system.c ****             if (sys.state) { return(STATUS_IDLE_ERROR); } // Requires no alarm mode.
 154:grbl/system.c ****             sys.state = STATE_CHECK_MODE;
 155:grbl/system.c ****             report_feedback_message(MESSAGE_ENABLED);
 156:grbl/system.c ****           }
 157:grbl/system.c ****           break;
 158:grbl/system.c ****         case 'X' : // Disable alarm lock [ALARM]
 159:grbl/system.c ****           if (sys.state == STATE_ALARM) {
 160:grbl/system.c ****             // Block if safety door is ajar.
 161:grbl/system.c ****             if (system_check_safety_door_ajar()) { return(STATUS_CHECK_DOOR); }
 162:grbl/system.c ****             report_feedback_message(MESSAGE_ALARM_UNLOCK);
 163:grbl/system.c ****             sys.state = STATE_IDLE;
 164:grbl/system.c ****             // Don't run startup script. Prevents stored moves in startup from causing accidents.
 165:grbl/system.c ****           } // Otherwise, no effect.
 166:grbl/system.c ****           break;
 167:grbl/system.c ****       }
 168:grbl/system.c ****       break;
 169:grbl/system.c ****     default :
 170:grbl/system.c ****       // Block any system command that requires the state as IDLE/ALARM. (i.e. EEPROM, homing)
 171:grbl/system.c ****       if ( !(sys.state == STATE_IDLE || sys.state == STATE_ALARM) ) { return(STATUS_IDLE_ERROR); }
 172:grbl/system.c ****       switch( line[1] ) {
 173:grbl/system.c ****         case '#' : // Print Grbl NGC parameters
 174:grbl/system.c ****           if ( line[2] != 0 ) { return(STATUS_INVALID_STATEMENT); }
 175:grbl/system.c ****           else { report_ngc_parameters(); }
 176:grbl/system.c ****           break;
 177:grbl/system.c ****         case 'H' : // Perform homing cycle [IDLE/ALARM]
 178:grbl/system.c ****           if (bit_isfalse(settings.flags,BITFLAG_HOMING_ENABLE)) {return(STATUS_SETTING_DISABLED); 
 179:grbl/system.c ****           if (system_check_safety_door_ajar()) { return(STATUS_CHECK_DOOR); } // Block if safety do
 180:grbl/system.c ****           sys.state = STATE_HOMING; // Set system state variable
 181:grbl/system.c ****           if (line[2] == 0) {
 182:grbl/system.c ****             mc_homing_cycle(HOMING_CYCLE_ALL);
 183:grbl/system.c ****           #ifdef HOMING_SINGLE_AXIS_COMMANDS
 184:grbl/system.c ****             } else if (line[3] == 0) {
 185:grbl/system.c ****               switch (line[2]) {
 186:grbl/system.c ****                 case 'X': mc_homing_cycle(HOMING_CYCLE_X); break;
 187:grbl/system.c ****                 case 'Y': mc_homing_cycle(HOMING_CYCLE_Y); break;
 188:grbl/system.c ****                 case 'Z': mc_homing_cycle(HOMING_CYCLE_Z); break;
 189:grbl/system.c **** 
 190:grbl/system.c **** #if ( defined(STM32F1_4) || defined(STM32F4_4) )
 191:grbl/system.c ****                 case 'A': mc_homing_cycle(HOMING_CYCLE_A); break;
 192:grbl/system.c **** #endif
 193:grbl/system.c **** #if ( defined(STM32F1_5) || defined(STM32F4_5) )
 194:grbl/system.c ****                 case 'A': mc_homing_cycle(HOMING_CYCLE_A); break;
 195:grbl/system.c ****                 case 'B': mc_homing_cycle(HOMING_CYCLE_B); break;
 196:grbl/system.c **** #endif
 197:grbl/system.c **** #if ( defined(STM32F1_6) || defined(STM32F4_6) )
 198:grbl/system.c ****                 case 'A': mc_homing_cycle(HOMING_CYCLE_A); break;
 199:grbl/system.c ****                 case 'B': mc_homing_cycle(HOMING_CYCLE_B); break;
 200:grbl/system.c ****                 case 'C': mc_homing_cycle(HOMING_CYCLE_C); break;
 201:grbl/system.c **** #endif
 202:grbl/system.c **** 
 203:grbl/system.c ****                 default: return(STATUS_INVALID_STATEMENT);
 204:grbl/system.c ****               }
 205:grbl/system.c ****           #endif
 206:grbl/system.c ****           } else { return(STATUS_INVALID_STATEMENT); }
 207:grbl/system.c ****           if (!sys.abort) {  // Execute startup scripts after successful homing.
 208:grbl/system.c ****             sys.state = STATE_IDLE; // Set to IDLE when complete.
 209:grbl/system.c ****             st_go_idle(); // Set steppers to the settings idle state before returning.
ARM GAS  /var/folders/m1/3lv6xmzs0mlckxs4mx90nfb40000gn/T//ccOxfUMW.s 			page 25


 210:grbl/system.c ****             if (line[2] == 0) { system_execute_startup(line); }
 211:grbl/system.c ****           }
 212:grbl/system.c ****           break;
 213:grbl/system.c ****         case 'S' : // Puts Grbl to sleep [IDLE/ALARM]
 214:grbl/system.c ****           if ((line[2] != 'L') || (line[3] != 'P') || (line[4] != 0)) { return(STATUS_INVALID_STATE
 215:grbl/system.c ****           system_set_exec_state_flag(EXEC_SLEEP); // Set to execute sleep mode immediately
 216:grbl/system.c ****           break;
 217:grbl/system.c ****         case 'I' : // Print or store build info. [IDLE/ALARM]
 218:grbl/system.c ****           if ( line[++char_counter] == 0 ) {
 219:grbl/system.c ****             settings_read_build_info(line);
 220:grbl/system.c ****             report_build_info(line);
 221:grbl/system.c ****           #ifdef ENABLE_BUILD_INFO_WRITE_COMMAND
 222:grbl/system.c ****             } else { // Store startup line [IDLE/ALARM]
 223:grbl/system.c ****               if(line[char_counter++] != '=') { return(STATUS_INVALID_STATEMENT); }
 224:grbl/system.c ****               helper_var = char_counter; // Set helper variable as counter to start of user info li
 225:grbl/system.c ****               do {
 226:grbl/system.c ****                 line[char_counter-helper_var] = line[char_counter];
 227:grbl/system.c ****               } while (line[char_counter++] != 0);
 228:grbl/system.c ****               settings_store_build_info(line);
 229:grbl/system.c ****           #endif
 230:grbl/system.c ****           }
 231:grbl/system.c ****           break;
 232:grbl/system.c ****         case 'R' : // Restore defaults [IDLE/ALARM]
 233:grbl/system.c ****           if ((line[2] != 'S') || (line[3] != 'T') || (line[4] != '=') || (line[6] != 0)) { return(
 234:grbl/system.c ****           switch (line[5]) {
 235:grbl/system.c ****             #ifdef ENABLE_RESTORE_EEPROM_DEFAULT_SETTINGS
 236:grbl/system.c ****               case '$': settings_restore(SETTINGS_RESTORE_DEFAULTS); break;
 237:grbl/system.c ****             #endif
 238:grbl/system.c ****             #ifdef ENABLE_RESTORE_EEPROM_CLEAR_PARAMETERS
 239:grbl/system.c ****               case '#': settings_restore(SETTINGS_RESTORE_PARAMETERS); break;
 240:grbl/system.c ****             #endif
 241:grbl/system.c ****             #ifdef ENABLE_RESTORE_EEPROM_WIPE_ALL
 242:grbl/system.c ****               case '*': settings_restore(SETTINGS_RESTORE_ALL); break;
 243:grbl/system.c ****             #endif
 244:grbl/system.c ****             default: return(STATUS_INVALID_STATEMENT);
 245:grbl/system.c ****           }
 246:grbl/system.c ****           report_feedback_message(MESSAGE_RESTORE_DEFAULTS);
 247:grbl/system.c ****           mc_reset(); // Force reset to ensure settings are initialized correctly.
 248:grbl/system.c ****           break;
 249:grbl/system.c ****         case 'N' : // Startup lines. [IDLE/ALARM]
 250:grbl/system.c ****           if ( line[++char_counter] == 0 ) { // Print startup lines
 251:grbl/system.c ****             for (helper_var=0; helper_var < N_STARTUP_LINE; helper_var++) {
 252:grbl/system.c ****               if (!(settings_read_startup_line(helper_var, line))) {
 253:grbl/system.c ****                 report_status_message(STATUS_SETTING_READ_FAIL);
 254:grbl/system.c ****               } else {
 255:grbl/system.c ****                 report_startup_line(helper_var,line);
 256:grbl/system.c ****               }
 257:grbl/system.c ****             }
 258:grbl/system.c ****             break;
 259:grbl/system.c ****           } else { // Store startup line [IDLE Only] Prevents motion during ALARM.
 260:grbl/system.c ****             if (sys.state != STATE_IDLE) { return(STATUS_IDLE_ERROR); } // Store only when idle.
 443              		.loc 1 260 0
 444 0022 0824     		movs	r4, #8
 445              	.LVL39:
 446              	.L67:
 261:grbl/system.c ****             helper_var = true;  // Set helper_var to flag storing method.
 262:grbl/system.c ****             // No break. Continues into default: to read remaining command characters.
ARM GAS  /var/folders/m1/3lv6xmzs0mlckxs4mx90nfb40000gn/T//ccOxfUMW.s 			page 26


 263:grbl/system.c ****           }
 264:grbl/system.c ****         default :  // Storing setting methods [IDLE/ALARM]
 265:grbl/system.c ****           if(!read_float(line, &char_counter, &parameter)) { return(STATUS_BAD_NUMBER_FORMAT); }
 266:grbl/system.c ****           if(line[char_counter++] != '=') { return(STATUS_INVALID_STATEMENT); }
 267:grbl/system.c ****           if (helper_var) { // Store startup line
 268:grbl/system.c ****             // Prepare sending gcode block to gcode parser by shifting all characters
 269:grbl/system.c ****             helper_var = char_counter; // Set helper variable as counter to start of gcode block
 270:grbl/system.c ****             do {
 271:grbl/system.c ****               line[char_counter-helper_var] = line[char_counter];
 272:grbl/system.c ****             } while (line[char_counter++] != 0);
 273:grbl/system.c ****             // Execute gcode block to ensure block is valid.
 274:grbl/system.c ****             helper_var = gc_execute_line(line); // Set helper_var to returned status code.
 275:grbl/system.c ****             if (helper_var) { return(helper_var); }
 276:grbl/system.c ****             else {
 277:grbl/system.c ****               helper_var = trunc(parameter); // Set helper_var to int value of parameter
 278:grbl/system.c ****               settings_store_startup_line(helper_var,line);
 279:grbl/system.c ****             }
 280:grbl/system.c ****           } else { // Store global setting.
 281:grbl/system.c ****             if(!read_float(line, &char_counter, &value)) { return(STATUS_BAD_NUMBER_FORMAT); }
 282:grbl/system.c ****             if((line[char_counter] != 0) || (parameter > 255)) { return(STATUS_INVALID_STATEMENT); 
 283:grbl/system.c ****             return(settings_store_global_setting((uint8_t)parameter, value));
 284:grbl/system.c ****           }
 285:grbl/system.c ****       }
 286:grbl/system.c ****   }
 287:grbl/system.c ****   return(STATUS_OK); // If '$' command makes it to here, then everything's ok.
 288:grbl/system.c **** }
 447              		.loc 1 288 0
 448 0024 2046     		mov	r0, r4
 449 0026 04B0     		add	sp, sp, #16
 450              	.LCFI3:
 451              		.cfi_remember_state
 452              		.cfi_def_cfa_offset 16
 453              		@ sp needed
 454 0028 70BD     		pop	{r4, r5, r6, pc}
 455              	.LVL40:
 456              	.L150:
 457              	.LCFI4:
 458              		.cfi_restore_state
 126:grbl/system.c ****     case 0 : report_grbl_help(); break;
 459              		.loc 1 126 0
 460 002a 582C     		cmp	r4, #88
 461 002c 3ED0     		beq	.L63
 462 002e 472C     		cmp	r4, #71
 463 0030 3CD0     		beq	.L63
 464              	.L62:
 171:grbl/system.c ****       switch( line[1] ) {
 465              		.loc 1 171 0
 466 0032 9B4E     		ldr	r6, .L156
 467 0034 3378     		ldrb	r3, [r6]	@ zero_extendqisi2
 468 0036 012B     		cmp	r3, #1
 469 0038 F3D8     		bhi	.L123
 172:grbl/system.c ****         case '#' : // Print Grbl NGC parameters
 470              		.loc 1 172 0
 471 003a 233C     		subs	r4, r4, #35
 472 003c 302C     		cmp	r4, #48
 473 003e 00F23781 		bhi	.L120
 474 0042 DFE814F0 		tbh	[pc, r4, lsl #1]
ARM GAS  /var/folders/m1/3lv6xmzs0mlckxs4mx90nfb40000gn/T//ccOxfUMW.s 			page 27


 475              	.L83:
 476 0046 0901     		.2byte	(.L82-.L83)/2
 477 0048 3501     		.2byte	(.L120-.L83)/2
 478 004a 3501     		.2byte	(.L120-.L83)/2
 479 004c 3501     		.2byte	(.L120-.L83)/2
 480 004e 3501     		.2byte	(.L120-.L83)/2
 481 0050 3501     		.2byte	(.L120-.L83)/2
 482 0052 3501     		.2byte	(.L120-.L83)/2
 483 0054 3501     		.2byte	(.L120-.L83)/2
 484 0056 3501     		.2byte	(.L120-.L83)/2
 485 0058 3501     		.2byte	(.L120-.L83)/2
 486 005a 3501     		.2byte	(.L120-.L83)/2
 487 005c 3501     		.2byte	(.L120-.L83)/2
 488 005e 3501     		.2byte	(.L120-.L83)/2
 489 0060 3501     		.2byte	(.L120-.L83)/2
 490 0062 3501     		.2byte	(.L120-.L83)/2
 491 0064 3501     		.2byte	(.L120-.L83)/2
 492 0066 3501     		.2byte	(.L120-.L83)/2
 493 0068 3501     		.2byte	(.L120-.L83)/2
 494 006a 3501     		.2byte	(.L120-.L83)/2
 495 006c 3501     		.2byte	(.L120-.L83)/2
 496 006e 3501     		.2byte	(.L120-.L83)/2
 497 0070 3501     		.2byte	(.L120-.L83)/2
 498 0072 3501     		.2byte	(.L120-.L83)/2
 499 0074 3501     		.2byte	(.L120-.L83)/2
 500 0076 3501     		.2byte	(.L120-.L83)/2
 501 0078 3501     		.2byte	(.L120-.L83)/2
 502 007a 3501     		.2byte	(.L120-.L83)/2
 503 007c 3501     		.2byte	(.L120-.L83)/2
 504 007e 3501     		.2byte	(.L120-.L83)/2
 505 0080 3501     		.2byte	(.L120-.L83)/2
 506 0082 3501     		.2byte	(.L120-.L83)/2
 507 0084 3501     		.2byte	(.L120-.L83)/2
 508 0086 3501     		.2byte	(.L120-.L83)/2
 509 0088 3501     		.2byte	(.L120-.L83)/2
 510 008a 3501     		.2byte	(.L120-.L83)/2
 511 008c 3501     		.2byte	(.L120-.L83)/2
 512 008e 3501     		.2byte	(.L120-.L83)/2
 513 0090 A700     		.2byte	(.L84-.L83)/2
 514 0092 8E00     		.2byte	(.L85-.L83)/2
 515 0094 3501     		.2byte	(.L120-.L83)/2
 516 0096 3501     		.2byte	(.L120-.L83)/2
 517 0098 3501     		.2byte	(.L120-.L83)/2
 518 009a 3501     		.2byte	(.L120-.L83)/2
 519 009c 1001     		.2byte	(.L86-.L83)/2
 520 009e 3501     		.2byte	(.L120-.L83)/2
 521 00a0 3501     		.2byte	(.L120-.L83)/2
 522 00a2 3501     		.2byte	(.L120-.L83)/2
 523 00a4 E500     		.2byte	(.L87-.L83)/2
 524 00a6 7D00     		.2byte	(.L88-.L83)/2
 525              		.p2align 1
 526              	.L153:
 126:grbl/system.c ****     case 0 : report_grbl_help(); break;
 527              		.loc 1 126 0
 528 00a8 242C     		cmp	r4, #36
 529 00aa C2D1     		bne	.L62
 530              	.L63:
ARM GAS  /var/folders/m1/3lv6xmzs0mlckxs4mx90nfb40000gn/T//ccOxfUMW.s 			page 28


 135:grbl/system.c ****       switch( line[1] ) {
 531              		.loc 1 135 0
 532 00ac AD78     		ldrb	r5, [r5, #2]	@ zero_extendqisi2
 533 00ae 45BB     		cbnz	r5, .L95
 136:grbl/system.c ****         case '$' : // Prints Grbl settings
 534              		.loc 1 136 0
 535 00b0 432C     		cmp	r4, #67
 536 00b2 00F03581 		beq	.L70
 537 00b6 36D9     		bls	.L152
 538 00b8 472C     		cmp	r4, #71
 539 00ba 00F02D81 		beq	.L73
 540 00be 582C     		cmp	r4, #88
 541 00c0 33D1     		bne	.L115
 159:grbl/system.c ****             // Block if safety door is ajar.
 542              		.loc 1 159 0
 543 00c2 774E     		ldr	r6, .L156
 544 00c4 3378     		ldrb	r3, [r6]	@ zero_extendqisi2
 545 00c6 012B     		cmp	r3, #1
 546 00c8 2FD1     		bne	.L115
 547              	.LVL41:
 548              	.LBB91:
 549              	.LBB92:
 550              	.LBB93:
 551              	.LBB94:
 552              	.LBB95:
 553              	.LBB96:
 554              		.loc 2 696 0
 555 00ca 764B     		ldr	r3, .L156+4
 556 00cc 9A68     		ldr	r2, [r3, #8]
 557              	.LVL42:
 558              	.LBE96:
 559              	.LBE95:
  42:grbl/system.c ****     #ifdef ENABLE_SAFETY_DOOR_INPUT_PIN
 560              		.loc 1 42 0
 561 00ce 93B2     		uxth	r3, r2
 562 00d0 002B     		cmp	r3, #0
 563 00d2 00F05181 		beq	.L77
  44:grbl/system.c ****     #endif
 564              		.loc 1 44 0
 565 00d6 1946     		mov	r1, r3
 566 00d8 83F01003 		eor	r3, r3, #16
  34:grbl/system.c **** #ifdef STM32
 567              		.loc 1 34 0
 568 00dc C3F30013 		ubfx	r3, r3, #4, #1
 569              	.LVL43:
  46:grbl/system.c ****     if (bit_isfalse(pin,CON_FEED_HOLD_Pin)) { control_state |= CONTROL_PIN_INDEX_FEED_HOLD; }
 570              		.loc 1 46 0
 571 00e0 1407     		lsls	r4, r2, #28
 572 00e2 58BF     		it	pl
 573 00e4 43F00203 		orrpl	r3, r3, #2
 574              	.LVL44:
  47:grbl/system.c ****     if (bit_isfalse(pin,CON_CYCLE_START_Pin)) { control_state |= CONTROL_PIN_INDEX_CYCLE_START; }
 575              		.loc 1 47 0
 576 00e8 8807     		lsls	r0, r1, #30
 577              	.LVL45:
 578 00ea 58BF     		it	pl
 579 00ec 43F00403 		orrpl	r3, r3, #4
ARM GAS  /var/folders/m1/3lv6xmzs0mlckxs4mx90nfb40000gn/T//ccOxfUMW.s 			page 29


 580              	.LVL46:
  48:grbl/system.c ****   }
 581              		.loc 1 48 0
 582 00f0 C907     		lsls	r1, r1, #31
 583 00f2 58BF     		it	pl
 584 00f4 43F00803 		orrpl	r3, r3, #8
 585              	.LVL47:
 586              	.LBE94:
 587              	.LBE93:
 588              	.LBE92:
 589              	.LBE91:
 161:grbl/system.c ****             report_feedback_message(MESSAGE_ALARM_UNLOCK);
 590              		.loc 1 161 0
 591 00f8 DA07     		lsls	r2, r3, #31
 592 00fa 40F13D81 		bpl	.L77
 593              	.L122:
 594 00fe 0D24     		movs	r4, #13
 595 0100 90E7     		b	.L67
 596              	.LVL48:
 597              	.L95:
 203:grbl/system.c ****               }
 598              		.loc 1 203 0
 599 0102 0324     		movs	r4, #3
 600              		.loc 1 288 0
 601 0104 2046     		mov	r0, r4
 602 0106 04B0     		add	sp, sp, #16
 603              	.LCFI5:
 604              		.cfi_remember_state
 605              		.cfi_def_cfa_offset 16
 606              		@ sp needed
 607 0108 70BD     		pop	{r4, r5, r6, pc}
 608              	.LVL49:
 609              	.L149:
 610              	.LCFI6:
 611              		.cfi_restore_state
 126:grbl/system.c ****     case 0 : report_grbl_help(); break;
 612              		.loc 1 126 0
 613 010a 002C     		cmp	r4, #0
 614 010c CCD1     		bne	.L153
 127:grbl/system.c ****     case 'J' : // Jogging
 615              		.loc 1 127 0
 616 010e FFF7FEFF 		bl	report_grbl_help
 617              	.LVL50:
 618              		.loc 1 288 0
 619 0112 2046     		mov	r0, r4
 620 0114 04B0     		add	sp, sp, #16
 621              	.LCFI7:
 622              		.cfi_remember_state
 623              		.cfi_def_cfa_offset 16
 624              		@ sp needed
 625 0116 70BD     		pop	{r4, r5, r6, pc}
 626              	.LVL51:
 627              	.L151:
 628              	.LCFI8:
 629              		.cfi_restore_state
 131:grbl/system.c ****       return(gc_execute_line(line)); // NOTE: $J= is ignored inside g-code parser and used to detec
 630              		.loc 1 131 0
ARM GAS  /var/folders/m1/3lv6xmzs0mlckxs4mx90nfb40000gn/T//ccOxfUMW.s 			page 30


 631 0118 8378     		ldrb	r3, [r0, #2]	@ zero_extendqisi2
 632 011a 3D2B     		cmp	r3, #61
 633 011c F1D1     		bne	.L95
 132:grbl/system.c ****       break;
 634              		.loc 1 132 0
 635 011e FFF7FEFF 		bl	gc_execute_line
 636              	.LVL52:
 637 0122 0446     		mov	r4, r0
 638 0124 7EE7     		b	.L67
 639              	.LVL53:
 640              	.L152:
 136:grbl/system.c ****         case '$' : // Prints Grbl settings
 641              		.loc 1 136 0
 642 0126 242C     		cmp	r4, #36
 643 0128 01D0     		beq	.L72
 644              	.LVL54:
 645              	.L115:
 287:grbl/system.c **** }
 646              		.loc 1 287 0
 647 012a 0024     		movs	r4, #0
 648 012c 7AE7     		b	.L67
 649              	.LVL55:
 650              	.L72:
 138:grbl/system.c ****           else { report_grbl_settings(); }
 651              		.loc 1 138 0
 652 012e 5C4B     		ldr	r3, .L156
 653 0130 1C78     		ldrb	r4, [r3]	@ zero_extendqisi2
 654 0132 14F01804 		ands	r4, r4, #24
 655 0136 7FF474AF 		bne	.L123
 139:grbl/system.c ****           break;
 656              		.loc 1 139 0
 657 013a FFF7FEFF 		bl	report_grbl_settings
 658              	.LVL56:
 140:grbl/system.c ****         case 'G' : // Prints gcode parser state
 659              		.loc 1 140 0
 660 013e 71E7     		b	.L67
 661              	.LVL57:
 662              	.L88:
 214:grbl/system.c ****           system_set_exec_state_flag(EXEC_SLEEP); // Set to execute sleep mode immediately
 663              		.loc 1 214 0
 664 0140 AB78     		ldrb	r3, [r5, #2]	@ zero_extendqisi2
 665 0142 4C2B     		cmp	r3, #76
 666 0144 DDD1     		bne	.L95
 214:grbl/system.c ****           system_set_exec_state_flag(EXEC_SLEEP); // Set to execute sleep mode immediately
 667              		.loc 1 214 0 is_stmt 0 discriminator 2
 668 0146 EB78     		ldrb	r3, [r5, #3]	@ zero_extendqisi2
 669 0148 502B     		cmp	r3, #80
 670 014a DAD1     		bne	.L95
 214:grbl/system.c ****           system_set_exec_state_flag(EXEC_SLEEP); // Set to execute sleep mode immediately
 671              		.loc 1 214 0 discriminator 4
 672 014c 2C79     		ldrb	r4, [r5, #4]	@ zero_extendqisi2
 673 014e 002C     		cmp	r4, #0
 674 0150 D7D1     		bne	.L95
 675              	.LVL58:
 676              	.LBB97:
 677              	.LBB98:
 678              	.LBB99:
ARM GAS  /var/folders/m1/3lv6xmzs0mlckxs4mx90nfb40000gn/T//ccOxfUMW.s 			page 31


 679              	.LBB100:
 680              		.file 3 "Drivers/CMSIS/Include/cmsis_gcc.h"
   1:Drivers/CMSIS/Include/cmsis_gcc.h **** /**************************************************************************//**
   2:Drivers/CMSIS/Include/cmsis_gcc.h ****  * @file     cmsis_gcc.h
   3:Drivers/CMSIS/Include/cmsis_gcc.h ****  * @brief    CMSIS compiler GCC header file
   4:Drivers/CMSIS/Include/cmsis_gcc.h ****  * @version  V5.0.4
   5:Drivers/CMSIS/Include/cmsis_gcc.h ****  * @date     09. April 2018
   6:Drivers/CMSIS/Include/cmsis_gcc.h ****  ******************************************************************************/
   7:Drivers/CMSIS/Include/cmsis_gcc.h **** /*
   8:Drivers/CMSIS/Include/cmsis_gcc.h ****  * Copyright (c) 2009-2018 Arm Limited. All rights reserved.
   9:Drivers/CMSIS/Include/cmsis_gcc.h ****  *
  10:Drivers/CMSIS/Include/cmsis_gcc.h ****  * SPDX-License-Identifier: Apache-2.0
  11:Drivers/CMSIS/Include/cmsis_gcc.h ****  *
  12:Drivers/CMSIS/Include/cmsis_gcc.h ****  * Licensed under the Apache License, Version 2.0 (the License); you may
  13:Drivers/CMSIS/Include/cmsis_gcc.h ****  * not use this file except in compliance with the License.
  14:Drivers/CMSIS/Include/cmsis_gcc.h ****  * You may obtain a copy of the License at
  15:Drivers/CMSIS/Include/cmsis_gcc.h ****  *
  16:Drivers/CMSIS/Include/cmsis_gcc.h ****  * www.apache.org/licenses/LICENSE-2.0
  17:Drivers/CMSIS/Include/cmsis_gcc.h ****  *
  18:Drivers/CMSIS/Include/cmsis_gcc.h ****  * Unless required by applicable law or agreed to in writing, software
  19:Drivers/CMSIS/Include/cmsis_gcc.h ****  * distributed under the License is distributed on an AS IS BASIS, WITHOUT
  20:Drivers/CMSIS/Include/cmsis_gcc.h ****  * WARRANTIES OR CONDITIONS OF ANY KIND, either express or implied.
  21:Drivers/CMSIS/Include/cmsis_gcc.h ****  * See the License for the specific language governing permissions and
  22:Drivers/CMSIS/Include/cmsis_gcc.h ****  * limitations under the License.
  23:Drivers/CMSIS/Include/cmsis_gcc.h ****  */
  24:Drivers/CMSIS/Include/cmsis_gcc.h **** 
  25:Drivers/CMSIS/Include/cmsis_gcc.h **** #ifndef __CMSIS_GCC_H
  26:Drivers/CMSIS/Include/cmsis_gcc.h **** #define __CMSIS_GCC_H
  27:Drivers/CMSIS/Include/cmsis_gcc.h **** 
  28:Drivers/CMSIS/Include/cmsis_gcc.h **** /* ignore some GCC warnings */
  29:Drivers/CMSIS/Include/cmsis_gcc.h **** #pragma GCC diagnostic push
  30:Drivers/CMSIS/Include/cmsis_gcc.h **** #pragma GCC diagnostic ignored "-Wsign-conversion"
  31:Drivers/CMSIS/Include/cmsis_gcc.h **** #pragma GCC diagnostic ignored "-Wconversion"
  32:Drivers/CMSIS/Include/cmsis_gcc.h **** #pragma GCC diagnostic ignored "-Wunused-parameter"
  33:Drivers/CMSIS/Include/cmsis_gcc.h **** 
  34:Drivers/CMSIS/Include/cmsis_gcc.h **** /* Fallback for __has_builtin */
  35:Drivers/CMSIS/Include/cmsis_gcc.h **** #ifndef __has_builtin
  36:Drivers/CMSIS/Include/cmsis_gcc.h ****   #define __has_builtin(x) (0)
  37:Drivers/CMSIS/Include/cmsis_gcc.h **** #endif
  38:Drivers/CMSIS/Include/cmsis_gcc.h **** 
  39:Drivers/CMSIS/Include/cmsis_gcc.h **** /* CMSIS compiler specific defines */
  40:Drivers/CMSIS/Include/cmsis_gcc.h **** #ifndef   __ASM
  41:Drivers/CMSIS/Include/cmsis_gcc.h ****   #define __ASM                                  __asm
  42:Drivers/CMSIS/Include/cmsis_gcc.h **** #endif
  43:Drivers/CMSIS/Include/cmsis_gcc.h **** #ifndef   __INLINE
  44:Drivers/CMSIS/Include/cmsis_gcc.h ****   #define __INLINE                               inline
  45:Drivers/CMSIS/Include/cmsis_gcc.h **** #endif
  46:Drivers/CMSIS/Include/cmsis_gcc.h **** #ifndef   __STATIC_INLINE
  47:Drivers/CMSIS/Include/cmsis_gcc.h ****   #define __STATIC_INLINE                        static inline
  48:Drivers/CMSIS/Include/cmsis_gcc.h **** #endif
  49:Drivers/CMSIS/Include/cmsis_gcc.h **** #ifndef   __STATIC_FORCEINLINE                 
  50:Drivers/CMSIS/Include/cmsis_gcc.h ****   #define __STATIC_FORCEINLINE                   __attribute__((always_inline)) static inline
  51:Drivers/CMSIS/Include/cmsis_gcc.h **** #endif                                           
  52:Drivers/CMSIS/Include/cmsis_gcc.h **** #ifndef   __NO_RETURN
  53:Drivers/CMSIS/Include/cmsis_gcc.h ****   #define __NO_RETURN                            __attribute__((__noreturn__))
  54:Drivers/CMSIS/Include/cmsis_gcc.h **** #endif
  55:Drivers/CMSIS/Include/cmsis_gcc.h **** #ifndef   __USED
ARM GAS  /var/folders/m1/3lv6xmzs0mlckxs4mx90nfb40000gn/T//ccOxfUMW.s 			page 32


  56:Drivers/CMSIS/Include/cmsis_gcc.h ****   #define __USED                                 __attribute__((used))
  57:Drivers/CMSIS/Include/cmsis_gcc.h **** #endif
  58:Drivers/CMSIS/Include/cmsis_gcc.h **** #ifndef   __WEAK
  59:Drivers/CMSIS/Include/cmsis_gcc.h ****   #define __WEAK                                 __attribute__((weak))
  60:Drivers/CMSIS/Include/cmsis_gcc.h **** #endif
  61:Drivers/CMSIS/Include/cmsis_gcc.h **** #ifndef   __PACKED
  62:Drivers/CMSIS/Include/cmsis_gcc.h ****   #define __PACKED                               __attribute__((packed, aligned(1)))
  63:Drivers/CMSIS/Include/cmsis_gcc.h **** #endif
  64:Drivers/CMSIS/Include/cmsis_gcc.h **** #ifndef   __PACKED_STRUCT
  65:Drivers/CMSIS/Include/cmsis_gcc.h ****   #define __PACKED_STRUCT                        struct __attribute__((packed, aligned(1)))
  66:Drivers/CMSIS/Include/cmsis_gcc.h **** #endif
  67:Drivers/CMSIS/Include/cmsis_gcc.h **** #ifndef   __PACKED_UNION
  68:Drivers/CMSIS/Include/cmsis_gcc.h ****   #define __PACKED_UNION                         union __attribute__((packed, aligned(1)))
  69:Drivers/CMSIS/Include/cmsis_gcc.h **** #endif
  70:Drivers/CMSIS/Include/cmsis_gcc.h **** #ifndef   __UNALIGNED_UINT32        /* deprecated */
  71:Drivers/CMSIS/Include/cmsis_gcc.h ****   #pragma GCC diagnostic push
  72:Drivers/CMSIS/Include/cmsis_gcc.h ****   #pragma GCC diagnostic ignored "-Wpacked"
  73:Drivers/CMSIS/Include/cmsis_gcc.h ****   #pragma GCC diagnostic ignored "-Wattributes"
  74:Drivers/CMSIS/Include/cmsis_gcc.h ****   struct __attribute__((packed)) T_UINT32 { uint32_t v; };
  75:Drivers/CMSIS/Include/cmsis_gcc.h ****   #pragma GCC diagnostic pop
  76:Drivers/CMSIS/Include/cmsis_gcc.h ****   #define __UNALIGNED_UINT32(x)                  (((struct T_UINT32 *)(x))->v)
  77:Drivers/CMSIS/Include/cmsis_gcc.h **** #endif
  78:Drivers/CMSIS/Include/cmsis_gcc.h **** #ifndef   __UNALIGNED_UINT16_WRITE
  79:Drivers/CMSIS/Include/cmsis_gcc.h ****   #pragma GCC diagnostic push
  80:Drivers/CMSIS/Include/cmsis_gcc.h ****   #pragma GCC diagnostic ignored "-Wpacked"
  81:Drivers/CMSIS/Include/cmsis_gcc.h ****   #pragma GCC diagnostic ignored "-Wattributes"
  82:Drivers/CMSIS/Include/cmsis_gcc.h ****   __PACKED_STRUCT T_UINT16_WRITE { uint16_t v; };
  83:Drivers/CMSIS/Include/cmsis_gcc.h ****   #pragma GCC diagnostic pop
  84:Drivers/CMSIS/Include/cmsis_gcc.h ****   #define __UNALIGNED_UINT16_WRITE(addr, val)    (void)((((struct T_UINT16_WRITE *)(void *)(addr))-
  85:Drivers/CMSIS/Include/cmsis_gcc.h **** #endif
  86:Drivers/CMSIS/Include/cmsis_gcc.h **** #ifndef   __UNALIGNED_UINT16_READ
  87:Drivers/CMSIS/Include/cmsis_gcc.h ****   #pragma GCC diagnostic push
  88:Drivers/CMSIS/Include/cmsis_gcc.h ****   #pragma GCC diagnostic ignored "-Wpacked"
  89:Drivers/CMSIS/Include/cmsis_gcc.h ****   #pragma GCC diagnostic ignored "-Wattributes"
  90:Drivers/CMSIS/Include/cmsis_gcc.h ****   __PACKED_STRUCT T_UINT16_READ { uint16_t v; };
  91:Drivers/CMSIS/Include/cmsis_gcc.h ****   #pragma GCC diagnostic pop
  92:Drivers/CMSIS/Include/cmsis_gcc.h ****   #define __UNALIGNED_UINT16_READ(addr)          (((const struct T_UINT16_READ *)(const void *)(add
  93:Drivers/CMSIS/Include/cmsis_gcc.h **** #endif
  94:Drivers/CMSIS/Include/cmsis_gcc.h **** #ifndef   __UNALIGNED_UINT32_WRITE
  95:Drivers/CMSIS/Include/cmsis_gcc.h ****   #pragma GCC diagnostic push
  96:Drivers/CMSIS/Include/cmsis_gcc.h ****   #pragma GCC diagnostic ignored "-Wpacked"
  97:Drivers/CMSIS/Include/cmsis_gcc.h ****   #pragma GCC diagnostic ignored "-Wattributes"
  98:Drivers/CMSIS/Include/cmsis_gcc.h ****   __PACKED_STRUCT T_UINT32_WRITE { uint32_t v; };
  99:Drivers/CMSIS/Include/cmsis_gcc.h ****   #pragma GCC diagnostic pop
 100:Drivers/CMSIS/Include/cmsis_gcc.h ****   #define __UNALIGNED_UINT32_WRITE(addr, val)    (void)((((struct T_UINT32_WRITE *)(void *)(addr))-
 101:Drivers/CMSIS/Include/cmsis_gcc.h **** #endif
 102:Drivers/CMSIS/Include/cmsis_gcc.h **** #ifndef   __UNALIGNED_UINT32_READ
 103:Drivers/CMSIS/Include/cmsis_gcc.h ****   #pragma GCC diagnostic push
 104:Drivers/CMSIS/Include/cmsis_gcc.h ****   #pragma GCC diagnostic ignored "-Wpacked"
 105:Drivers/CMSIS/Include/cmsis_gcc.h ****   #pragma GCC diagnostic ignored "-Wattributes"
 106:Drivers/CMSIS/Include/cmsis_gcc.h ****   __PACKED_STRUCT T_UINT32_READ { uint32_t v; };
 107:Drivers/CMSIS/Include/cmsis_gcc.h ****   #pragma GCC diagnostic pop
 108:Drivers/CMSIS/Include/cmsis_gcc.h ****   #define __UNALIGNED_UINT32_READ(addr)          (((const struct T_UINT32_READ *)(const void *)(add
 109:Drivers/CMSIS/Include/cmsis_gcc.h **** #endif
 110:Drivers/CMSIS/Include/cmsis_gcc.h **** #ifndef   __ALIGNED
 111:Drivers/CMSIS/Include/cmsis_gcc.h ****   #define __ALIGNED(x)                           __attribute__((aligned(x)))
 112:Drivers/CMSIS/Include/cmsis_gcc.h **** #endif
ARM GAS  /var/folders/m1/3lv6xmzs0mlckxs4mx90nfb40000gn/T//ccOxfUMW.s 			page 33


 113:Drivers/CMSIS/Include/cmsis_gcc.h **** #ifndef   __RESTRICT
 114:Drivers/CMSIS/Include/cmsis_gcc.h ****   #define __RESTRICT                             __restrict
 115:Drivers/CMSIS/Include/cmsis_gcc.h **** #endif
 116:Drivers/CMSIS/Include/cmsis_gcc.h **** 
 117:Drivers/CMSIS/Include/cmsis_gcc.h **** 
 118:Drivers/CMSIS/Include/cmsis_gcc.h **** /* ###########################  Core Function Access  ########################### */
 119:Drivers/CMSIS/Include/cmsis_gcc.h **** /** \ingroup  CMSIS_Core_FunctionInterface
 120:Drivers/CMSIS/Include/cmsis_gcc.h ****     \defgroup CMSIS_Core_RegAccFunctions CMSIS Core Register Access Functions
 121:Drivers/CMSIS/Include/cmsis_gcc.h ****   @{
 122:Drivers/CMSIS/Include/cmsis_gcc.h ****  */
 123:Drivers/CMSIS/Include/cmsis_gcc.h **** 
 124:Drivers/CMSIS/Include/cmsis_gcc.h **** /**
 125:Drivers/CMSIS/Include/cmsis_gcc.h ****   \brief   Enable IRQ Interrupts
 126:Drivers/CMSIS/Include/cmsis_gcc.h ****   \details Enables IRQ interrupts by clearing the I-bit in the CPSR.
 127:Drivers/CMSIS/Include/cmsis_gcc.h ****            Can only be executed in Privileged modes.
 128:Drivers/CMSIS/Include/cmsis_gcc.h ****  */
 129:Drivers/CMSIS/Include/cmsis_gcc.h **** __STATIC_FORCEINLINE void __enable_irq(void)
 130:Drivers/CMSIS/Include/cmsis_gcc.h **** {
 131:Drivers/CMSIS/Include/cmsis_gcc.h ****   __ASM volatile ("cpsie i" : : : "memory");
 132:Drivers/CMSIS/Include/cmsis_gcc.h **** }
 133:Drivers/CMSIS/Include/cmsis_gcc.h **** 
 134:Drivers/CMSIS/Include/cmsis_gcc.h **** 
 135:Drivers/CMSIS/Include/cmsis_gcc.h **** /**
 136:Drivers/CMSIS/Include/cmsis_gcc.h ****   \brief   Disable IRQ Interrupts
 137:Drivers/CMSIS/Include/cmsis_gcc.h ****   \details Disables IRQ interrupts by setting the I-bit in the CPSR.
 138:Drivers/CMSIS/Include/cmsis_gcc.h ****            Can only be executed in Privileged modes.
 139:Drivers/CMSIS/Include/cmsis_gcc.h ****  */
 140:Drivers/CMSIS/Include/cmsis_gcc.h **** __STATIC_FORCEINLINE void __disable_irq(void)
 141:Drivers/CMSIS/Include/cmsis_gcc.h **** {
 142:Drivers/CMSIS/Include/cmsis_gcc.h ****   __ASM volatile ("cpsid i" : : : "memory");
 681              		.loc 3 142 0 is_stmt 1
 682              		.syntax unified
 683              	@ 142 "Drivers/CMSIS/Include/cmsis_gcc.h" 1
 684 0152 72B6     		cpsid i
 685              	@ 0 "" 2
 686              		.thumb
 687              		.syntax unified
 688              	.LBE100:
 689              	.LBE99:
 289:grbl/system.c **** 
 290:grbl/system.c **** 
 291:grbl/system.c **** 
 292:grbl/system.c **** void system_flag_wco_change()
 293:grbl/system.c **** {
 294:grbl/system.c ****   #ifdef FORCE_BUFFER_SYNC_DURING_WCO_CHANGE
 295:grbl/system.c ****     protocol_buffer_synchronize();
 296:grbl/system.c ****   #endif
 297:grbl/system.c ****   sys.report_wco_counter = 0;
 298:grbl/system.c **** }
 299:grbl/system.c **** 
 300:grbl/system.c **** 
 301:grbl/system.c **** // Returns machine position of axis 'idx'. Must be sent a 'step' array.
 302:grbl/system.c **** // NOTE: If motor steps and machine position are not in the same coordinate frame, this function
 303:grbl/system.c **** //   serves as a central place to compute the transformation.
 304:grbl/system.c **** float system_convert_axis_steps_to_mpos(int32_t *steps, uint8_t idx)
 305:grbl/system.c **** {
 306:grbl/system.c ****   float pos;
ARM GAS  /var/folders/m1/3lv6xmzs0mlckxs4mx90nfb40000gn/T//ccOxfUMW.s 			page 34


 307:grbl/system.c ****   #ifdef COREXY
 308:grbl/system.c ****     if (idx==X_AXIS) {
 309:grbl/system.c ****       pos = (float)system_convert_corexy_to_x_axis_steps(steps) / settings.steps_per_mm[idx];
 310:grbl/system.c ****     } else if (idx==Y_AXIS) {
 311:grbl/system.c ****       pos = (float)system_convert_corexy_to_y_axis_steps(steps) / settings.steps_per_mm[idx];
 312:grbl/system.c ****     } else {
 313:grbl/system.c ****       pos = steps[idx]/settings.steps_per_mm[idx];
 314:grbl/system.c ****     }
 315:grbl/system.c ****   #else
 316:grbl/system.c ****     pos = steps[idx]/settings.steps_per_mm[idx];
 317:grbl/system.c ****   #endif
 318:grbl/system.c ****   return(pos);
 319:grbl/system.c **** }
 320:grbl/system.c **** 
 321:grbl/system.c **** 
 322:grbl/system.c **** void system_convert_array_steps_to_mpos(float *position, int32_t *steps)
 323:grbl/system.c **** {
 324:grbl/system.c ****   uint8_t idx;
 325:grbl/system.c ****   for (idx=0; idx<N_AXIS; idx++) {
 326:grbl/system.c ****     position[idx] = system_convert_axis_steps_to_mpos(steps, idx);
 327:grbl/system.c ****   }
 328:grbl/system.c ****   return;
 329:grbl/system.c **** }
 330:grbl/system.c **** 
 331:grbl/system.c **** 
 332:grbl/system.c **** // CoreXY calculation only. Returns x or y-axis "steps" based on CoreXY motor steps.
 333:grbl/system.c **** #ifdef COREXY
 334:grbl/system.c ****   int32_t system_convert_corexy_to_x_axis_steps(int32_t *steps)
 335:grbl/system.c ****   {
 336:grbl/system.c ****     return( (steps[A_MOTOR] + steps[B_MOTOR])/2 );
 337:grbl/system.c ****   }
 338:grbl/system.c ****   int32_t system_convert_corexy_to_y_axis_steps(int32_t *steps)
 339:grbl/system.c ****   {
 340:grbl/system.c ****     return( (steps[A_MOTOR] - steps[B_MOTOR])/2 );
 341:grbl/system.c ****   }
 342:grbl/system.c **** #endif
 343:grbl/system.c **** 
 344:grbl/system.c **** 
 345:grbl/system.c **** // Checks and reports if target array exceeds machine travel limits.
 346:grbl/system.c **** uint8_t system_check_travel_limits(float *target)
 347:grbl/system.c **** {
 348:grbl/system.c ****   uint8_t idx;
 349:grbl/system.c ****   for (idx=0; idx<N_AXIS; idx++) {
 350:grbl/system.c ****     #ifdef HOMING_FORCE_SET_ORIGIN
 351:grbl/system.c ****       // When homing forced set origin is enabled, soft limits checks need to account for direction
 352:grbl/system.c ****       // NOTE: max_travel is stored as negative
 353:grbl/system.c ****       if (bit_istrue(settings.homing_dir_mask,bit(idx))) {
 354:grbl/system.c ****         if (target[idx] < 0 || target[idx] > -settings.max_travel[idx]) { return(true); }
 355:grbl/system.c ****       } else {
 356:grbl/system.c ****         if (target[idx] > 0 || target[idx] < settings.max_travel[idx]) { return(true); }
 357:grbl/system.c ****       }
 358:grbl/system.c ****     #else
 359:grbl/system.c ****       // NOTE: max_travel is stored as negative
 360:grbl/system.c ****       if (target[idx] > 0 || target[idx] < settings.max_travel[idx]) { return(true); }
 361:grbl/system.c ****     #endif
 362:grbl/system.c ****   }
 363:grbl/system.c ****   return(false);
ARM GAS  /var/folders/m1/3lv6xmzs0mlckxs4mx90nfb40000gn/T//ccOxfUMW.s 			page 35


 364:grbl/system.c **** }
 365:grbl/system.c **** 
 366:grbl/system.c **** // Special handlers for setting and clearing Grbl's real-time execution flags.
 367:grbl/system.c **** void system_set_exec_state_flag(uint8_t mask)
 368:grbl/system.c **** {
 369:grbl/system.c **** #ifdef STM32
 370:grbl/system.c ****   __disable_irq();
 371:grbl/system.c ****   sys_rt_exec_state |= (mask);
 690              		.loc 1 371 0
 691 0154 544A     		ldr	r2, .L156+8
 692 0156 1378     		ldrb	r3, [r2]	@ zero_extendqisi2
 693 0158 43F08003 		orr	r3, r3, #128
 694 015c 1370     		strb	r3, [r2]
 695              	.LBB101:
 696              	.LBB102:
 131:Drivers/CMSIS/Include/cmsis_gcc.h **** }
 697              		.loc 3 131 0
 698              		.syntax unified
 699              	@ 131 "Drivers/CMSIS/Include/cmsis_gcc.h" 1
 700 015e 62B6     		cpsie i
 701              	@ 0 "" 2
 702              		.thumb
 703              		.syntax unified
 704 0160 60E7     		b	.L67
 705              	.LVL59:
 706              	.L85:
 707              	.LBE102:
 708              	.LBE101:
 709              	.LBE98:
 710              	.LBE97:
 218:grbl/system.c ****             settings_read_build_info(line);
 711              		.loc 1 218 0
 712 0162 0223     		movs	r3, #2
 713 0164 AC78     		ldrb	r4, [r5, #2]	@ zero_extendqisi2
 714 0166 8DF80730 		strb	r3, [sp, #7]
 715 016a 002C     		cmp	r4, #0
 716 016c 00F0F580 		beq	.L154
 223:grbl/system.c ****               helper_var = char_counter; // Set helper variable as counter to start of user info li
 717              		.loc 1 223 0
 718 0170 3D2C     		cmp	r4, #61
 719 0172 4FF00303 		mov	r3, #3
 720 0176 C4D1     		bne	.L95
 721              	.L101:
 226:grbl/system.c ****               } while (line[char_counter++] != 0);
 722              		.loc 1 226 0 discriminator 1
 723 0178 EC5C     		ldrb	r4, [r5, r3]	@ zero_extendqisi2
 724 017a EA18     		adds	r2, r5, r3
 227:grbl/system.c ****               settings_store_build_info(line);
 725              		.loc 1 227 0 discriminator 1
 726 017c 0133     		adds	r3, r3, #1
 226:grbl/system.c ****               } while (line[char_counter++] != 0);
 727              		.loc 1 226 0 discriminator 1
 728 017e 02F8034C 		strb	r4, [r2, #-3]
 227:grbl/system.c ****               settings_store_build_info(line);
 729              		.loc 1 227 0 discriminator 1
 730 0182 DBB2     		uxtb	r3, r3
 731 0184 002C     		cmp	r4, #0
ARM GAS  /var/folders/m1/3lv6xmzs0mlckxs4mx90nfb40000gn/T//ccOxfUMW.s 			page 36


 732 0186 F7D1     		bne	.L101
 228:grbl/system.c ****           #endif
 733              		.loc 1 228 0
 734 0188 2846     		mov	r0, r5
 735              	.LVL60:
 736 018a 8DF80730 		strb	r3, [sp, #7]
 737 018e FFF7FEFF 		bl	settings_store_build_info
 738              	.LVL61:
 739 0192 47E7     		b	.L67
 740              	.LVL62:
 741              	.L84:
 178:grbl/system.c ****           if (system_check_safety_door_ajar()) { return(STATUS_CHECK_DOOR); } // Block if safety do
 742              		.loc 1 178 0
 743 0194 454B     		ldr	r3, .L156+12
 744 0196 93F84830 		ldrb	r3, [r3, #72]	@ zero_extendqisi2
 745 019a DB06     		lsls	r3, r3, #27
 746 019c 40F1D280 		bpl	.L121
 747              	.LVL63:
 748              	.LBB103:
 749              	.LBB104:
 750              	.LBB105:
 751              	.LBB106:
 752              	.LBB107:
 753              	.LBB108:
 754              		.loc 2 696 0
 755 01a0 404B     		ldr	r3, .L156+4
 756 01a2 9A68     		ldr	r2, [r3, #8]
 757              	.LVL64:
 758              	.LBE108:
 759              	.LBE107:
  42:grbl/system.c ****     #ifdef ENABLE_SAFETY_DOOR_INPUT_PIN
 760              		.loc 1 42 0
 761 01a4 93B2     		uxth	r3, r2
 762 01a6 93B1     		cbz	r3, .L89
  44:grbl/system.c ****     #endif
 763              		.loc 1 44 0
 764 01a8 1946     		mov	r1, r3
 765 01aa 83F01003 		eor	r3, r3, #16
  34:grbl/system.c **** #ifdef STM32
 766              		.loc 1 34 0
 767 01ae C3F30013 		ubfx	r3, r3, #4, #1
 768              	.LVL65:
  46:grbl/system.c ****     if (bit_isfalse(pin,CON_FEED_HOLD_Pin)) { control_state |= CONTROL_PIN_INDEX_FEED_HOLD; }
 769              		.loc 1 46 0
 770 01b2 1407     		lsls	r4, r2, #28
 771 01b4 58BF     		it	pl
 772 01b6 43F00203 		orrpl	r3, r3, #2
 773              	.LVL66:
  47:grbl/system.c ****     if (bit_isfalse(pin,CON_CYCLE_START_Pin)) { control_state |= CONTROL_PIN_INDEX_CYCLE_START; }
 774              		.loc 1 47 0
 775 01ba 8807     		lsls	r0, r1, #30
 776              	.LVL67:
 777 01bc 58BF     		it	pl
 778 01be 43F00403 		orrpl	r3, r3, #4
 779              	.LVL68:
  48:grbl/system.c ****   }
 780              		.loc 1 48 0
ARM GAS  /var/folders/m1/3lv6xmzs0mlckxs4mx90nfb40000gn/T//ccOxfUMW.s 			page 37


 781 01c2 CA07     		lsls	r2, r1, #31
 782              	.LVL69:
 783 01c4 58BF     		it	pl
 784 01c6 43F00803 		orrpl	r3, r3, #8
 785              	.LVL70:
 786              	.LBE106:
 787              	.LBE105:
 788              	.LBE104:
 789              	.LBE103:
 179:grbl/system.c ****           sys.state = STATE_HOMING; // Set system state variable
 790              		.loc 1 179 0
 791 01ca DB07     		lsls	r3, r3, #31
 792 01cc 97D4     		bmi	.L122
 793              	.L89:
 180:grbl/system.c ****           if (line[2] == 0) {
 794              		.loc 1 180 0
 795 01ce 0423     		movs	r3, #4
 181:grbl/system.c ****             mc_homing_cycle(HOMING_CYCLE_ALL);
 796              		.loc 1 181 0
 797 01d0 A878     		ldrb	r0, [r5, #2]	@ zero_extendqisi2
 180:grbl/system.c ****           if (line[2] == 0) {
 798              		.loc 1 180 0
 799 01d2 3370     		strb	r3, [r6]
 181:grbl/system.c ****             mc_homing_cycle(HOMING_CYCLE_ALL);
 800              		.loc 1 181 0
 801 01d4 0028     		cmp	r0, #0
 802 01d6 00F0F580 		beq	.L148
 184:grbl/system.c ****               switch (line[2]) {
 803              		.loc 1 184 0
 804 01da EA78     		ldrb	r2, [r5, #3]	@ zero_extendqisi2
 805 01dc 002A     		cmp	r2, #0
 806 01de 90D1     		bne	.L95
 185:grbl/system.c ****                 case 'X': mc_homing_cycle(HOMING_CYCLE_X); break;
 807              		.loc 1 185 0
 808 01e0 5928     		cmp	r0, #89
 809 01e2 00F0F280 		beq	.L96
 810 01e6 5A28     		cmp	r0, #90
 811 01e8 00F0EB80 		beq	.L97
 812 01ec 5828     		cmp	r0, #88
 813 01ee 88D1     		bne	.L95
 186:grbl/system.c ****                 case 'Y': mc_homing_cycle(HOMING_CYCLE_Y); break;
 814              		.loc 1 186 0
 815 01f0 0120     		movs	r0, #1
 816 01f2 FFF7FEFF 		bl	mc_homing_cycle
 817              	.LVL71:
 818              	.L94:
 207:grbl/system.c ****             sys.state = STATE_IDLE; // Set to IDLE when complete.
 819              		.loc 1 207 0
 820 01f6 7478     		ldrb	r4, [r6, #1]	@ zero_extendqisi2
 821 01f8 002C     		cmp	r4, #0
 822 01fa 96D1     		bne	.L115
 208:grbl/system.c ****             st_go_idle(); // Set steppers to the settings idle state before returning.
 823              		.loc 1 208 0
 824 01fc 3470     		strb	r4, [r6]
 209:grbl/system.c ****             if (line[2] == 0) { system_execute_startup(line); }
 825              		.loc 1 209 0
 826 01fe FFF7FEFF 		bl	st_go_idle
ARM GAS  /var/folders/m1/3lv6xmzs0mlckxs4mx90nfb40000gn/T//ccOxfUMW.s 			page 38


 827              	.LVL72:
 210:grbl/system.c ****           }
 828              		.loc 1 210 0
 829 0202 AB78     		ldrb	r3, [r5, #2]	@ zero_extendqisi2
 830 0204 002B     		cmp	r3, #0
 831 0206 90D1     		bne	.L115
 210:grbl/system.c ****           }
 832              		.loc 1 210 0 is_stmt 0 discriminator 1
 833 0208 2846     		mov	r0, r5
 834 020a FFF7FEFF 		bl	system_execute_startup
 835              	.LVL73:
 836 020e 09E7     		b	.L67
 837              	.LVL74:
 838              	.L87:
 233:grbl/system.c ****           switch (line[5]) {
 839              		.loc 1 233 0 is_stmt 1
 840 0210 AB78     		ldrb	r3, [r5, #2]	@ zero_extendqisi2
 841 0212 532B     		cmp	r3, #83
 842 0214 7FF475AF 		bne	.L95
 233:grbl/system.c ****           switch (line[5]) {
 843              		.loc 1 233 0 is_stmt 0 discriminator 2
 844 0218 EB78     		ldrb	r3, [r5, #3]	@ zero_extendqisi2
 845 021a 542B     		cmp	r3, #84
 846 021c 7FF471AF 		bne	.L95
 233:grbl/system.c ****           switch (line[5]) {
 847              		.loc 1 233 0 discriminator 4
 848 0220 2B79     		ldrb	r3, [r5, #4]	@ zero_extendqisi2
 849 0222 3D2B     		cmp	r3, #61
 850 0224 7FF46DAF 		bne	.L95
 233:grbl/system.c ****           switch (line[5]) {
 851              		.loc 1 233 0 discriminator 6
 852 0228 AB79     		ldrb	r3, [r5, #6]	@ zero_extendqisi2
 853 022a 002B     		cmp	r3, #0
 854 022c 7FF469AF 		bne	.L95
 234:grbl/system.c ****             #ifdef ENABLE_RESTORE_EEPROM_DEFAULT_SETTINGS
 855              		.loc 1 234 0 is_stmt 1
 856 0230 6B79     		ldrb	r3, [r5, #5]	@ zero_extendqisi2
 857 0232 242B     		cmp	r3, #36
 858 0234 00F0D180 		beq	.L102
 859 0238 2A2B     		cmp	r3, #42
 860 023a 00F0CA80 		beq	.L103
 861 023e 232B     		cmp	r3, #35
 862 0240 7FF45FAF 		bne	.L95
 239:grbl/system.c ****             #endif
 863              		.loc 1 239 0
 864 0244 0220     		movs	r0, #2
 865              	.LVL75:
 866 0246 FFF7FEFF 		bl	settings_restore
 867              	.LVL76:
 868              	.L105:
 246:grbl/system.c ****           mc_reset(); // Force reset to ensure settings are initialized correctly.
 869              		.loc 1 246 0
 870 024a 0920     		movs	r0, #9
 871 024c FFF7FEFF 		bl	report_feedback_message
 872              	.LVL77:
 287:grbl/system.c **** }
 873              		.loc 1 287 0
ARM GAS  /var/folders/m1/3lv6xmzs0mlckxs4mx90nfb40000gn/T//ccOxfUMW.s 			page 39


 874 0250 0024     		movs	r4, #0
 247:grbl/system.c ****           break;
 875              		.loc 1 247 0
 876 0252 FFF7FEFF 		bl	mc_reset
 877              	.LVL78:
 248:grbl/system.c ****         case 'N' : // Startup lines. [IDLE/ALARM]
 878              		.loc 1 248 0
 879 0256 E5E6     		b	.L67
 880              	.LVL79:
 881              	.L82:
 174:grbl/system.c ****           else { report_ngc_parameters(); }
 882              		.loc 1 174 0
 883 0258 AC78     		ldrb	r4, [r5, #2]	@ zero_extendqisi2
 884 025a 002C     		cmp	r4, #0
 885 025c 7FF451AF 		bne	.L95
 175:grbl/system.c ****           break;
 886              		.loc 1 175 0
 887 0260 FFF7FEFF 		bl	report_ngc_parameters
 888              	.LVL80:
 176:grbl/system.c ****         case 'H' : // Perform homing cycle [IDLE/ALARM]
 889              		.loc 1 176 0
 890 0264 DEE6     		b	.L67
 891              	.LVL81:
 892              	.L86:
 250:grbl/system.c ****             for (helper_var=0; helper_var < N_STARTUP_LINE; helper_var++) {
 893              		.loc 1 250 0
 894 0266 0222     		movs	r2, #2
 895 0268 AC78     		ldrb	r4, [r5, #2]	@ zero_extendqisi2
 896 026a 8DF80720 		strb	r2, [sp, #7]
 897 026e 002C     		cmp	r4, #0
 898 0270 63D1     		bne	.L106
 252:grbl/system.c ****                 report_status_message(STATUS_SETTING_READ_FAIL);
 899              		.loc 1 252 0
 900 0272 2946     		mov	r1, r5
 901 0274 2046     		mov	r0, r4
 902              	.LVL82:
 903 0276 FFF7FEFF 		bl	settings_read_startup_line
 904              	.LVL83:
 905 027a 0028     		cmp	r0, #0
 906 027c 74D0     		beq	.L107
 255:grbl/system.c ****               }
 907              		.loc 1 255 0
 908 027e 2046     		mov	r0, r4
 909 0280 2946     		mov	r1, r5
 910 0282 FFF7FEFF 		bl	report_startup_line
 911              	.LVL84:
 912              	.L108:
 252:grbl/system.c ****                 report_status_message(STATUS_SETTING_READ_FAIL);
 913              		.loc 1 252 0
 914 0286 2946     		mov	r1, r5
 915 0288 0120     		movs	r0, #1
 916 028a FFF7FEFF 		bl	settings_read_startup_line
 917              	.LVL85:
 918 028e 0446     		mov	r4, r0
 919 0290 0028     		cmp	r0, #0
 920 0292 6DD0     		beq	.L109
 255:grbl/system.c ****               }
ARM GAS  /var/folders/m1/3lv6xmzs0mlckxs4mx90nfb40000gn/T//ccOxfUMW.s 			page 40


 921              		.loc 1 255 0
 922 0294 2946     		mov	r1, r5
 923 0296 0120     		movs	r0, #1
 924 0298 FFF7FEFF 		bl	report_startup_line
 925              	.LVL86:
 287:grbl/system.c **** }
 926              		.loc 1 287 0
 927 029c 0024     		movs	r4, #0
 928 029e C1E6     		b	.L67
 929              	.L157:
 930              		.align	2
 931              	.L156:
 932 02a0 00000000 		.word	sys
 933 02a4 000C0140 		.word	1073810432
 934 02a8 00000000 		.word	sys_rt_exec_state
 935 02ac 00000000 		.word	settings
 936              	.LVL87:
 937              	.L120:
 124:grbl/system.c ****   float parameter, value;
 938              		.loc 1 124 0
 939 02b0 0024     		movs	r4, #0
 940              	.L81:
 941              	.LVL88:
 265:grbl/system.c ****           if(line[char_counter++] != '=') { return(STATUS_INVALID_STATEMENT); }
 942              		.loc 1 265 0
 943 02b2 0DF10701 		add	r1, sp, #7
 944 02b6 02AA     		add	r2, sp, #8
 945 02b8 2846     		mov	r0, r5
 946              	.LVL89:
 947 02ba FFF7FEFF 		bl	read_float
 948              	.LVL90:
 949 02be 0028     		cmp	r0, #0
 950 02c0 42D0     		beq	.L113
 266:grbl/system.c ****           if (helper_var) { // Store startup line
 951              		.loc 1 266 0
 952 02c2 9DF80720 		ldrb	r2, [sp, #7]	@ zero_extendqisi2
 953 02c6 531C     		adds	r3, r2, #1
 954 02c8 AA5C     		ldrb	r2, [r5, r2]	@ zero_extendqisi2
 955 02ca DBB2     		uxtb	r3, r3
 956 02cc 3D2A     		cmp	r2, #61
 957 02ce 8DF80730 		strb	r3, [sp, #7]
 958 02d2 7FF416AF 		bne	.L95
 267:grbl/system.c ****             // Prepare sending gcode block to gcode parser by shifting all characters
 959              		.loc 1 267 0
 960 02d6 002C     		cmp	r4, #0
 961 02d8 54D0     		beq	.L111
 962 02da 1846     		mov	r0, r3
 963              	.L112:
 271:grbl/system.c ****             } while (line[char_counter++] != 0);
 964              		.loc 1 271 0 discriminator 1
 965 02dc E95C     		ldrb	r1, [r5, r3]	@ zero_extendqisi2
 966 02de 1A1A     		subs	r2, r3, r0
 967 02e0 A954     		strb	r1, [r5, r2]
 968 02e2 EA18     		adds	r2, r5, r3
 272:grbl/system.c ****             // Execute gcode block to ensure block is valid.
 969              		.loc 1 272 0 discriminator 1
 970 02e4 1278     		ldrb	r2, [r2]	@ zero_extendqisi2
ARM GAS  /var/folders/m1/3lv6xmzs0mlckxs4mx90nfb40000gn/T//ccOxfUMW.s 			page 41


 971 02e6 0133     		adds	r3, r3, #1
 972 02e8 DBB2     		uxtb	r3, r3
 973 02ea 002A     		cmp	r2, #0
 974 02ec F6D1     		bne	.L112
 274:grbl/system.c ****             if (helper_var) { return(helper_var); }
 975              		.loc 1 274 0
 976 02ee 2846     		mov	r0, r5
 977 02f0 8DF80730 		strb	r3, [sp, #7]
 978 02f4 FFF7FEFF 		bl	gc_execute_line
 979              	.LVL91:
 275:grbl/system.c ****             else {
 980              		.loc 1 275 0
 981 02f8 0446     		mov	r4, r0
 982 02fa 0028     		cmp	r0, #0
 983 02fc 7FF492AE 		bne	.L67
 277:grbl/system.c ****               settings_store_startup_line(helper_var,line);
 984              		.loc 1 277 0
 985 0300 0298     		ldr	r0, [sp, #8]	@ float
 986              	.LVL92:
 987 0302 FFF7FEFF 		bl	__aeabi_f2d
 988              	.LVL93:
 989 0306 FFF7FEFF 		bl	trunc
 990              	.LVL94:
 991 030a FFF7FEFF 		bl	__aeabi_d2uiz
 992              	.LVL95:
 278:grbl/system.c ****             }
 993              		.loc 1 278 0
 994 030e 2946     		mov	r1, r5
 995 0310 C0B2     		uxtb	r0, r0
 996 0312 FFF7FEFF 		bl	settings_store_startup_line
 997              	.LVL96:
 998 0316 85E6     		b	.L67
 999              	.LVL97:
 1000              	.L73:
 143:grbl/system.c ****           break;
 1001              		.loc 1 143 0
 1002 0318 FFF7FEFF 		bl	report_gcode_modes
 1003              	.LVL98:
 287:grbl/system.c **** }
 1004              		.loc 1 287 0
 1005 031c 2C46     		mov	r4, r5
 144:grbl/system.c ****         case 'C' : // Set check g-code mode [IDLE/CHECK]
 1006              		.loc 1 144 0
 1007 031e 81E6     		b	.L67
 1008              	.LVL99:
 1009              	.L70:
 149:grbl/system.c ****             mc_reset();
 1010              		.loc 1 149 0
 1011 0320 304B     		ldr	r3, .L158
 1012 0322 1C78     		ldrb	r4, [r3]	@ zero_extendqisi2
 1013 0324 022C     		cmp	r4, #2
 1014 0326 11D0     		beq	.L155
 153:grbl/system.c ****             sys.state = STATE_CHECK_MODE;
 1015              		.loc 1 153 0
 1016 0328 002C     		cmp	r4, #0
 1017 032a 7FF47AAE 		bne	.L123
 154:grbl/system.c ****             report_feedback_message(MESSAGE_ENABLED);
ARM GAS  /var/folders/m1/3lv6xmzs0mlckxs4mx90nfb40000gn/T//ccOxfUMW.s 			page 42


 1018              		.loc 1 154 0
 1019 032e 0222     		movs	r2, #2
 155:grbl/system.c ****           }
 1020              		.loc 1 155 0
 1021 0330 0420     		movs	r0, #4
 1022              	.LVL100:
 154:grbl/system.c ****             report_feedback_message(MESSAGE_ENABLED);
 1023              		.loc 1 154 0
 1024 0332 1A70     		strb	r2, [r3]
 155:grbl/system.c ****           }
 1025              		.loc 1 155 0
 1026 0334 FFF7FEFF 		bl	report_feedback_message
 1027              	.LVL101:
 1028 0338 74E6     		b	.L67
 1029              	.LVL102:
 1030              	.L106:
 260:grbl/system.c ****             helper_var = true;  // Set helper_var to flag storing method.
 1031              		.loc 1 260 0
 1032 033a 002B     		cmp	r3, #0
 1033 033c 7FF471AE 		bne	.L123
 261:grbl/system.c ****             // No break. Continues into default: to read remaining command characters.
 1034              		.loc 1 261 0
 1035 0340 0124     		movs	r4, #1
 1036 0342 B6E7     		b	.L81
 1037              	.L121:
 178:grbl/system.c ****           if (system_check_safety_door_ajar()) { return(STATUS_CHECK_DOOR); } // Block if safety do
 1038              		.loc 1 178 0
 1039 0344 0524     		movs	r4, #5
 1040 0346 6DE6     		b	.L67
 1041              	.LVL103:
 1042              	.L113:
 265:grbl/system.c ****           if(line[char_counter++] != '=') { return(STATUS_INVALID_STATEMENT); }
 1043              		.loc 1 265 0
 1044 0348 0224     		movs	r4, #2
 1045              	.LVL104:
 1046 034a 6BE6     		b	.L67
 1047              	.LVL105:
 1048              	.L155:
 150:grbl/system.c ****             report_feedback_message(MESSAGE_DISABLED);
 1049              		.loc 1 150 0
 1050 034c FFF7FEFF 		bl	mc_reset
 1051              	.LVL106:
 151:grbl/system.c ****           } else {
 1052              		.loc 1 151 0
 1053 0350 0520     		movs	r0, #5
 287:grbl/system.c **** }
 1054              		.loc 1 287 0
 1055 0352 2C46     		mov	r4, r5
 151:grbl/system.c ****           } else {
 1056              		.loc 1 151 0
 1057 0354 FFF7FEFF 		bl	report_feedback_message
 1058              	.LVL107:
 1059 0358 64E6     		b	.L67
 1060              	.LVL108:
 1061              	.L154:
 219:grbl/system.c ****             report_build_info(line);
 1062              		.loc 1 219 0
ARM GAS  /var/folders/m1/3lv6xmzs0mlckxs4mx90nfb40000gn/T//ccOxfUMW.s 			page 43


 1063 035a 2846     		mov	r0, r5
 1064              	.LVL109:
 1065 035c FFF7FEFF 		bl	settings_read_build_info
 1066              	.LVL110:
 220:grbl/system.c ****           #ifdef ENABLE_BUILD_INFO_WRITE_COMMAND
 1067              		.loc 1 220 0
 1068 0360 2846     		mov	r0, r5
 1069 0362 FFF7FEFF 		bl	report_build_info
 1070              	.LVL111:
 1071 0366 5DE6     		b	.L67
 1072              	.L107:
 253:grbl/system.c ****               } else {
 1073              		.loc 1 253 0
 1074 0368 0720     		movs	r0, #7
 1075 036a FFF7FEFF 		bl	report_status_message
 1076              	.LVL112:
 1077 036e 8AE7     		b	.L108
 1078              	.LVL113:
 1079              	.L109:
 1080 0370 0720     		movs	r0, #7
 1081 0372 FFF7FEFF 		bl	report_status_message
 1082              	.LVL114:
 1083 0376 55E6     		b	.L67
 1084              	.LVL115:
 1085              	.L77:
 163:grbl/system.c ****             // Don't run startup script. Prevents stored moves in startup from causing accidents.
 1086              		.loc 1 163 0
 1087 0378 0024     		movs	r4, #0
 162:grbl/system.c ****             sys.state = STATE_IDLE;
 1088              		.loc 1 162 0
 1089 037a 0320     		movs	r0, #3
 1090 037c FFF7FEFF 		bl	report_feedback_message
 1091              	.LVL116:
 163:grbl/system.c ****             // Don't run startup script. Prevents stored moves in startup from causing accidents.
 1092              		.loc 1 163 0
 1093 0380 3470     		strb	r4, [r6]
 1094 0382 4FE6     		b	.L67
 1095              	.LVL117:
 1096              	.L111:
 281:grbl/system.c ****             if((line[char_counter] != 0) || (parameter > 255)) { return(STATUS_INVALID_STATEMENT); 
 1097              		.loc 1 281 0
 1098 0384 0DF10701 		add	r1, sp, #7
 1099 0388 03AA     		add	r2, sp, #12
 1100 038a 2846     		mov	r0, r5
 1101 038c FFF7FEFF 		bl	read_float
 1102              	.LVL118:
 1103 0390 0028     		cmp	r0, #0
 1104 0392 D9D0     		beq	.L113
 282:grbl/system.c ****             return(settings_store_global_setting((uint8_t)parameter, value));
 1105              		.loc 1 282 0
 1106 0394 9DF80730 		ldrb	r3, [sp, #7]	@ zero_extendqisi2
 1107 0398 EB5C     		ldrb	r3, [r5, r3]	@ zero_extendqisi2
 1108 039a 002B     		cmp	r3, #0
 1109 039c 7FF4B1AE 		bne	.L95
 282:grbl/system.c ****             return(settings_store_global_setting((uint8_t)parameter, value));
 1110              		.loc 1 282 0 is_stmt 0 discriminator 2
 1111 03a0 029C     		ldr	r4, [sp, #8]	@ float
ARM GAS  /var/folders/m1/3lv6xmzs0mlckxs4mx90nfb40000gn/T//ccOxfUMW.s 			page 44


 1112              	.LVL119:
 1113 03a2 1149     		ldr	r1, .L158+4
 1114 03a4 2046     		mov	r0, r4
 1115 03a6 FFF7FEFF 		bl	__aeabi_fcmpgt
 1116              	.LVL120:
 1117 03aa 0028     		cmp	r0, #0
 1118 03ac 7FF4A9AE 		bne	.L95
 283:grbl/system.c ****           }
 1119              		.loc 1 283 0 is_stmt 1
 1120 03b0 2046     		mov	r0, r4
 1121 03b2 FFF7FEFF 		bl	__aeabi_f2uiz
 1122              	.LVL121:
 1123 03b6 0399     		ldr	r1, [sp, #12]	@ float
 1124 03b8 C0B2     		uxtb	r0, r0
 1125 03ba FFF7FEFF 		bl	settings_store_global_setting
 1126              	.LVL122:
 1127 03be 0446     		mov	r4, r0
 1128 03c0 30E6     		b	.L67
 1129              	.LVL123:
 1130              	.L97:
 188:grbl/system.c **** 
 1131              		.loc 1 188 0
 1132 03c2 1846     		mov	r0, r3
 1133              	.L148:
 1134 03c4 FFF7FEFF 		bl	mc_homing_cycle
 1135              	.LVL124:
 1136 03c8 15E7     		b	.L94
 1137              	.L96:
 187:grbl/system.c ****                 case 'Z': mc_homing_cycle(HOMING_CYCLE_Z); break;
 1138              		.loc 1 187 0
 1139 03ca 0220     		movs	r0, #2
 1140 03cc FFF7FEFF 		bl	mc_homing_cycle
 1141              	.LVL125:
 1142 03d0 11E7     		b	.L94
 1143              	.LVL126:
 1144              	.L103:
 242:grbl/system.c ****             #endif
 1145              		.loc 1 242 0
 1146 03d2 FF20     		movs	r0, #255
 1147              	.LVL127:
 1148 03d4 FFF7FEFF 		bl	settings_restore
 1149              	.LVL128:
 1150 03d8 37E7     		b	.L105
 1151              	.LVL129:
 1152              	.L102:
 236:grbl/system.c ****             #endif
 1153              		.loc 1 236 0
 1154 03da 0120     		movs	r0, #1
 1155              	.LVL130:
 1156 03dc FFF7FEFF 		bl	settings_restore
 1157              	.LVL131:
 1158 03e0 33E7     		b	.L105
 1159              	.L159:
 1160 03e2 00BF     		.align	2
 1161              	.L158:
 1162 03e4 00000000 		.word	sys
 1163 03e8 00007F43 		.word	1132396544
ARM GAS  /var/folders/m1/3lv6xmzs0mlckxs4mx90nfb40000gn/T//ccOxfUMW.s 			page 45


 1164              		.cfi_endproc
 1165              	.LFE708:
 1167              		.section	.text.system_flag_wco_change,"ax",%progbits
 1168              		.align	1
 1169              		.p2align 2,,3
 1170              		.global	system_flag_wco_change
 1171              		.syntax unified
 1172              		.thumb
 1173              		.thumb_func
 1174              		.fpu softvfp
 1176              	system_flag_wco_change:
 1177              	.LFB709:
 293:grbl/system.c ****   #ifdef FORCE_BUFFER_SYNC_DURING_WCO_CHANGE
 1178              		.loc 1 293 0
 1179              		.cfi_startproc
 1180              		@ args = 0, pretend = 0, frame = 0
 1181              		@ frame_needed = 0, uses_anonymous_args = 0
 1182 0000 08B5     		push	{r3, lr}
 1183              	.LCFI9:
 1184              		.cfi_def_cfa_offset 8
 1185              		.cfi_offset 3, -8
 1186              		.cfi_offset 14, -4
 295:grbl/system.c ****   #endif
 1187              		.loc 1 295 0
 1188 0002 FFF7FEFF 		bl	protocol_buffer_synchronize
 1189              	.LVL132:
 297:grbl/system.c **** }
 1190              		.loc 1 297 0
 1191 0006 0022     		movs	r2, #0
 1192 0008 014B     		ldr	r3, .L162
 1193 000a 5A73     		strb	r2, [r3, #13]
 298:grbl/system.c **** 
 1194              		.loc 1 298 0
 1195 000c 08BD     		pop	{r3, pc}
 1196              	.L163:
 1197 000e 00BF     		.align	2
 1198              	.L162:
 1199 0010 00000000 		.word	sys
 1200              		.cfi_endproc
 1201              	.LFE709:
 1203              		.global	__aeabi_i2f
 1204              		.global	__aeabi_fdiv
 1205              		.section	.text.system_convert_axis_steps_to_mpos,"ax",%progbits
 1206              		.align	1
 1207              		.p2align 2,,3
 1208              		.global	system_convert_axis_steps_to_mpos
 1209              		.syntax unified
 1210              		.thumb
 1211              		.thumb_func
 1212              		.fpu softvfp
 1214              	system_convert_axis_steps_to_mpos:
 1215              	.LFB710:
 305:grbl/system.c ****   float pos;
 1216              		.loc 1 305 0
 1217              		.cfi_startproc
 1218              		@ args = 0, pretend = 0, frame = 0
 1219              		@ frame_needed = 0, uses_anonymous_args = 0
ARM GAS  /var/folders/m1/3lv6xmzs0mlckxs4mx90nfb40000gn/T//ccOxfUMW.s 			page 46


 1220              	.LVL133:
 1221 0000 10B5     		push	{r4, lr}
 1222              	.LCFI10:
 1223              		.cfi_def_cfa_offset 8
 1224              		.cfi_offset 4, -8
 1225              		.cfi_offset 14, -4
 305:grbl/system.c ****   float pos;
 1226              		.loc 1 305 0
 1227 0002 0C46     		mov	r4, r1
 1228              	.LVL134:
 316:grbl/system.c ****   #endif
 1229              		.loc 1 316 0
 1230 0004 50F82100 		ldr	r0, [r0, r1, lsl #2]
 1231              	.LVL135:
 1232 0008 FFF7FEFF 		bl	__aeabi_i2f
 1233              	.LVL136:
 1234 000c 024B     		ldr	r3, .L166
 1235 000e 53F82410 		ldr	r1, [r3, r4, lsl #2]	@ float
 1236 0012 FFF7FEFF 		bl	__aeabi_fdiv
 1237              	.LVL137:
 319:grbl/system.c **** 
 1238              		.loc 1 319 0
 1239 0016 10BD     		pop	{r4, pc}
 1240              	.L167:
 1241              		.align	2
 1242              	.L166:
 1243 0018 00000000 		.word	settings
 1244              		.cfi_endproc
 1245              	.LFE710:
 1247              		.section	.text.system_convert_array_steps_to_mpos,"ax",%progbits
 1248              		.align	1
 1249              		.p2align 2,,3
 1250              		.global	system_convert_array_steps_to_mpos
 1251              		.syntax unified
 1252              		.thumb
 1253              		.thumb_func
 1254              		.fpu softvfp
 1256              	system_convert_array_steps_to_mpos:
 1257              	.LFB711:
 323:grbl/system.c ****   uint8_t idx;
 1258              		.loc 1 323 0
 1259              		.cfi_startproc
 1260              		@ args = 0, pretend = 0, frame = 0
 1261              		@ frame_needed = 0, uses_anonymous_args = 0
 1262              	.LVL138:
 1263 0000 70B5     		push	{r4, r5, r6, lr}
 1264              	.LCFI11:
 1265              		.cfi_def_cfa_offset 16
 1266              		.cfi_offset 4, -16
 1267              		.cfi_offset 5, -12
 1268              		.cfi_offset 6, -8
 1269              		.cfi_offset 14, -4
 1270              	.LBB109:
 1271              	.LBB110:
 316:grbl/system.c ****   #endif
 1272              		.loc 1 316 0
 1273 0002 0C4D     		ldr	r5, .L170
ARM GAS  /var/folders/m1/3lv6xmzs0mlckxs4mx90nfb40000gn/T//ccOxfUMW.s 			page 47


 1274              	.LBE110:
 1275              	.LBE109:
 323:grbl/system.c ****   uint8_t idx;
 1276              		.loc 1 323 0
 1277 0004 0446     		mov	r4, r0
 1278              	.LBB115:
 1279              	.LBB111:
 316:grbl/system.c ****   #endif
 1280              		.loc 1 316 0
 1281 0006 0868     		ldr	r0, [r1]
 1282              	.LVL139:
 1283              	.LBE111:
 1284              	.LBE115:
 323:grbl/system.c ****   uint8_t idx;
 1285              		.loc 1 323 0
 1286 0008 0E46     		mov	r6, r1
 1287              	.LBB116:
 1288              	.LBB112:
 316:grbl/system.c ****   #endif
 1289              		.loc 1 316 0
 1290 000a FFF7FEFF 		bl	__aeabi_i2f
 1291              	.LVL140:
 1292 000e 2968     		ldr	r1, [r5]	@ float
 1293 0010 FFF7FEFF 		bl	__aeabi_fdiv
 1294              	.LVL141:
 1295              	.LBE112:
 1296              	.LBE116:
 326:grbl/system.c ****   }
 1297              		.loc 1 326 0
 1298 0014 2060     		str	r0, [r4]	@ float
 1299              	.LVL142:
 1300              	.LBB117:
 1301              	.LBB113:
 316:grbl/system.c ****   #endif
 1302              		.loc 1 316 0
 1303 0016 7068     		ldr	r0, [r6, #4]
 1304 0018 FFF7FEFF 		bl	__aeabi_i2f
 1305              	.LVL143:
 1306 001c 6968     		ldr	r1, [r5, #4]	@ float
 1307 001e FFF7FEFF 		bl	__aeabi_fdiv
 1308              	.LVL144:
 1309              	.LBE113:
 1310              	.LBE117:
 326:grbl/system.c ****   }
 1311              		.loc 1 326 0
 1312 0022 6060     		str	r0, [r4, #4]	@ float
 1313              	.LVL145:
 1314              	.LBB118:
 1315              	.LBB114:
 316:grbl/system.c ****   #endif
 1316              		.loc 1 316 0
 1317 0024 B068     		ldr	r0, [r6, #8]
 1318 0026 FFF7FEFF 		bl	__aeabi_i2f
 1319              	.LVL146:
 1320 002a A968     		ldr	r1, [r5, #8]	@ float
 1321 002c FFF7FEFF 		bl	__aeabi_fdiv
 1322              	.LVL147:
ARM GAS  /var/folders/m1/3lv6xmzs0mlckxs4mx90nfb40000gn/T//ccOxfUMW.s 			page 48


 1323              	.LBE114:
 1324              	.LBE118:
 326:grbl/system.c ****   }
 1325              		.loc 1 326 0
 1326 0030 A060     		str	r0, [r4, #8]	@ float
 1327              	.LVL148:
 329:grbl/system.c **** 
 1328              		.loc 1 329 0
 1329 0032 70BD     		pop	{r4, r5, r6, pc}
 1330              	.LVL149:
 1331              	.L171:
 1332              		.align	2
 1333              	.L170:
 1334 0034 00000000 		.word	settings
 1335              		.cfi_endproc
 1336              	.LFE711:
 1338              		.global	__aeabi_fcmplt
 1339              		.section	.text.system_check_travel_limits,"ax",%progbits
 1340              		.align	1
 1341              		.p2align 2,,3
 1342              		.global	system_check_travel_limits
 1343              		.syntax unified
 1344              		.thumb
 1345              		.thumb_func
 1346              		.fpu softvfp
 1348              	system_check_travel_limits:
 1349              	.LFB712:
 347:grbl/system.c ****   uint8_t idx;
 1350              		.loc 1 347 0
 1351              		.cfi_startproc
 1352              		@ args = 0, pretend = 0, frame = 0
 1353              		@ frame_needed = 0, uses_anonymous_args = 0
 1354              	.LVL150:
 1355 0000 70B5     		push	{r4, r5, r6, lr}
 1356              	.LCFI12:
 1357              		.cfi_def_cfa_offset 16
 1358              		.cfi_offset 4, -16
 1359              		.cfi_offset 5, -12
 1360              		.cfi_offset 6, -8
 1361              		.cfi_offset 14, -4
 360:grbl/system.c ****     #endif
 1362              		.loc 1 360 0
 1363 0002 0668     		ldr	r6, [r0]	@ float
 347:grbl/system.c ****   uint8_t idx;
 1364              		.loc 1 347 0
 1365 0004 0446     		mov	r4, r0
 360:grbl/system.c ****     #endif
 1366              		.loc 1 360 0
 1367 0006 0021     		movs	r1, #0
 1368 0008 3046     		mov	r0, r6
 1369              	.LVL151:
 1370 000a FFF7FEFF 		bl	__aeabi_fcmpgt
 1371              	.LVL152:
 1372 000e 10BB     		cbnz	r0, .L179
 1373 0010 124D     		ldr	r5, .L182
 1374 0012 3046     		mov	r0, r6
 1375 0014 696A     		ldr	r1, [r5, #36]	@ float
ARM GAS  /var/folders/m1/3lv6xmzs0mlckxs4mx90nfb40000gn/T//ccOxfUMW.s 			page 49


 1376 0016 FFF7FEFF 		bl	__aeabi_fcmplt
 1377              	.LVL153:
 1378 001a E0B9     		cbnz	r0, .L179
 1379              	.LVL154:
 1380 001c 6668     		ldr	r6, [r4, #4]	@ float
 1381 001e 0021     		movs	r1, #0
 1382 0020 3046     		mov	r0, r6
 1383 0022 FFF7FEFF 		bl	__aeabi_fcmpgt
 1384              	.LVL155:
 1385 0026 B0B9     		cbnz	r0, .L179
 1386 0028 3046     		mov	r0, r6
 1387 002a A96A     		ldr	r1, [r5, #40]	@ float
 1388 002c FFF7FEFF 		bl	__aeabi_fcmplt
 1389              	.LVL156:
 1390 0030 88B9     		cbnz	r0, .L179
 1391              	.LVL157:
 1392 0032 A468     		ldr	r4, [r4, #8]	@ float
 1393              	.LVL158:
 1394 0034 0021     		movs	r1, #0
 1395 0036 2046     		mov	r0, r4
 1396 0038 FFF7FEFF 		bl	__aeabi_fcmpgt
 1397              	.LVL159:
 1398 003c 58B9     		cbnz	r0, .L179
 360:grbl/system.c ****     #endif
 1399              		.loc 1 360 0 is_stmt 0 discriminator 2
 1400 003e E96A     		ldr	r1, [r5, #44]	@ float
 1401 0040 2046     		mov	r0, r4
 1402 0042 FFF7FEFF 		bl	__aeabi_fcmplt
 1403              	.LVL160:
 1404 0046 4FF00103 		mov	r3, #1
 1405 004a 08B1     		cbz	r0, .L181
 1406 004c D8B2     		uxtb	r0, r3
 1407              	.L173:
 364:grbl/system.c **** 
 1408              		.loc 1 364 0 is_stmt 1
 1409 004e 70BD     		pop	{r4, r5, r6, pc}
 1410              	.L181:
 360:grbl/system.c ****     #endif
 1411              		.loc 1 360 0 discriminator 2
 1412 0050 0346     		mov	r3, r0
 1413 0052 D8B2     		uxtb	r0, r3
 1414 0054 FBE7     		b	.L173
 1415              	.LVL161:
 1416              	.L179:
 360:grbl/system.c ****     #endif
 1417              		.loc 1 360 0 is_stmt 0
 1418 0056 0120     		movs	r0, #1
 364:grbl/system.c **** 
 1419              		.loc 1 364 0 is_stmt 1
 1420 0058 70BD     		pop	{r4, r5, r6, pc}
 1421              	.L183:
 1422 005a 00BF     		.align	2
 1423              	.L182:
 1424 005c 00000000 		.word	settings
 1425              		.cfi_endproc
 1426              	.LFE712:
 1428              		.section	.text.system_set_exec_state_flag,"ax",%progbits
ARM GAS  /var/folders/m1/3lv6xmzs0mlckxs4mx90nfb40000gn/T//ccOxfUMW.s 			page 50


 1429              		.align	1
 1430              		.p2align 2,,3
 1431              		.global	system_set_exec_state_flag
 1432              		.syntax unified
 1433              		.thumb
 1434              		.thumb_func
 1435              		.fpu softvfp
 1437              	system_set_exec_state_flag:
 1438              	.LFB713:
 368:grbl/system.c **** #ifdef STM32
 1439              		.loc 1 368 0
 1440              		.cfi_startproc
 1441              		@ args = 0, pretend = 0, frame = 0
 1442              		@ frame_needed = 0, uses_anonymous_args = 0
 1443              		@ link register save eliminated.
 1444              	.LVL162:
 1445              	.LBB119:
 1446              	.LBB120:
 1447              		.loc 3 142 0
 1448              		.syntax unified
 1449              	@ 142 "Drivers/CMSIS/Include/cmsis_gcc.h" 1
 1450 0000 72B6     		cpsid i
 1451              	@ 0 "" 2
 1452              		.thumb
 1453              		.syntax unified
 1454              	.LBE120:
 1455              	.LBE119:
 1456              		.loc 1 371 0
 1457 0002 034A     		ldr	r2, .L185
 1458 0004 1378     		ldrb	r3, [r2]	@ zero_extendqisi2
 1459 0006 1843     		orrs	r0, r0, r3
 1460              	.LVL163:
 1461 0008 1070     		strb	r0, [r2]
 1462              	.LBB121:
 1463              	.LBB122:
 131:Drivers/CMSIS/Include/cmsis_gcc.h **** }
 1464              		.loc 3 131 0
 1465              		.syntax unified
 1466              	@ 131 "Drivers/CMSIS/Include/cmsis_gcc.h" 1
 1467 000a 62B6     		cpsie i
 1468              	@ 0 "" 2
 1469              		.thumb
 1470              		.syntax unified
 1471              	.LBE122:
 1472              	.LBE121:
 372:grbl/system.c ****   __enable_irq();
 373:grbl/system.c **** #endif
 374:grbl/system.c **** }
 1473              		.loc 1 374 0
 1474 000c 7047     		bx	lr
 1475              	.L186:
 1476 000e 00BF     		.align	2
 1477              	.L185:
 1478 0010 00000000 		.word	sys_rt_exec_state
 1479              		.cfi_endproc
 1480              	.LFE713:
 1482              		.section	.text.system_clear_exec_state_flag,"ax",%progbits
ARM GAS  /var/folders/m1/3lv6xmzs0mlckxs4mx90nfb40000gn/T//ccOxfUMW.s 			page 51


 1483              		.align	1
 1484              		.p2align 2,,3
 1485              		.global	system_clear_exec_state_flag
 1486              		.syntax unified
 1487              		.thumb
 1488              		.thumb_func
 1489              		.fpu softvfp
 1491              	system_clear_exec_state_flag:
 1492              	.LFB714:
 375:grbl/system.c **** 
 376:grbl/system.c **** void system_clear_exec_state_flag(uint8_t mask)
 377:grbl/system.c **** {
 1493              		.loc 1 377 0
 1494              		.cfi_startproc
 1495              		@ args = 0, pretend = 0, frame = 0
 1496              		@ frame_needed = 0, uses_anonymous_args = 0
 1497              		@ link register save eliminated.
 1498              	.LVL164:
 1499              	.LBB123:
 1500              	.LBB124:
 1501              		.loc 3 142 0
 1502              		.syntax unified
 1503              	@ 142 "Drivers/CMSIS/Include/cmsis_gcc.h" 1
 1504 0000 72B6     		cpsid i
 1505              	@ 0 "" 2
 1506              		.thumb
 1507              		.syntax unified
 1508              	.LBE124:
 1509              	.LBE123:
 378:grbl/system.c **** #ifdef STM32
 379:grbl/system.c ****   __disable_irq();
 380:grbl/system.c ****   sys_rt_exec_state &= ~(mask);
 1510              		.loc 1 380 0
 1511 0002 034A     		ldr	r2, .L188
 1512 0004 1378     		ldrb	r3, [r2]	@ zero_extendqisi2
 1513 0006 23EA0000 		bic	r0, r3, r0
 1514              	.LVL165:
 1515 000a 1070     		strb	r0, [r2]
 1516              	.LBB125:
 1517              	.LBB126:
 131:Drivers/CMSIS/Include/cmsis_gcc.h **** }
 1518              		.loc 3 131 0
 1519              		.syntax unified
 1520              	@ 131 "Drivers/CMSIS/Include/cmsis_gcc.h" 1
 1521 000c 62B6     		cpsie i
 1522              	@ 0 "" 2
 1523              		.thumb
 1524              		.syntax unified
 1525              	.LBE126:
 1526              	.LBE125:
 381:grbl/system.c ****   __enable_irq();
 382:grbl/system.c **** #endif
 383:grbl/system.c **** }
 1527              		.loc 1 383 0
 1528 000e 7047     		bx	lr
 1529              	.L189:
 1530              		.align	2
ARM GAS  /var/folders/m1/3lv6xmzs0mlckxs4mx90nfb40000gn/T//ccOxfUMW.s 			page 52


 1531              	.L188:
 1532 0010 00000000 		.word	sys_rt_exec_state
 1533              		.cfi_endproc
 1534              	.LFE714:
 1536              		.section	.text.system_set_exec_alarm,"ax",%progbits
 1537              		.align	1
 1538              		.p2align 2,,3
 1539              		.global	system_set_exec_alarm
 1540              		.syntax unified
 1541              		.thumb
 1542              		.thumb_func
 1543              		.fpu softvfp
 1545              	system_set_exec_alarm:
 1546              	.LFB715:
 384:grbl/system.c **** 
 385:grbl/system.c **** void system_set_exec_alarm(uint8_t code)
 386:grbl/system.c **** {
 1547              		.loc 1 386 0
 1548              		.cfi_startproc
 1549              		@ args = 0, pretend = 0, frame = 0
 1550              		@ frame_needed = 0, uses_anonymous_args = 0
 1551              		@ link register save eliminated.
 1552              	.LVL166:
 1553              	.LBB127:
 1554              	.LBB128:
 1555              		.loc 3 142 0
 1556              		.syntax unified
 1557              	@ 142 "Drivers/CMSIS/Include/cmsis_gcc.h" 1
 1558 0000 72B6     		cpsid i
 1559              	@ 0 "" 2
 1560              		.thumb
 1561              		.syntax unified
 1562              	.LBE128:
 1563              	.LBE127:
 387:grbl/system.c **** #ifdef STM32
 388:grbl/system.c ****   __disable_irq();
 389:grbl/system.c ****   sys_rt_exec_alarm |= (code);
 1564              		.loc 1 389 0
 1565 0002 034A     		ldr	r2, .L191
 1566 0004 1378     		ldrb	r3, [r2]	@ zero_extendqisi2
 1567 0006 1843     		orrs	r0, r0, r3
 1568              	.LVL167:
 1569 0008 1070     		strb	r0, [r2]
 1570              	.LBB129:
 1571              	.LBB130:
 131:Drivers/CMSIS/Include/cmsis_gcc.h **** }
 1572              		.loc 3 131 0
 1573              		.syntax unified
 1574              	@ 131 "Drivers/CMSIS/Include/cmsis_gcc.h" 1
 1575 000a 62B6     		cpsie i
 1576              	@ 0 "" 2
 1577              		.thumb
 1578              		.syntax unified
 1579              	.LBE130:
 1580              	.LBE129:
 390:grbl/system.c ****   __enable_irq();
 391:grbl/system.c **** #endif
ARM GAS  /var/folders/m1/3lv6xmzs0mlckxs4mx90nfb40000gn/T//ccOxfUMW.s 			page 53


 392:grbl/system.c **** }
 1581              		.loc 1 392 0
 1582 000c 7047     		bx	lr
 1583              	.L192:
 1584 000e 00BF     		.align	2
 1585              	.L191:
 1586 0010 00000000 		.word	sys_rt_exec_alarm
 1587              		.cfi_endproc
 1588              	.LFE715:
 1590              		.section	.text.system_clear_exec_alarm,"ax",%progbits
 1591              		.align	1
 1592              		.p2align 2,,3
 1593              		.global	system_clear_exec_alarm
 1594              		.syntax unified
 1595              		.thumb
 1596              		.thumb_func
 1597              		.fpu softvfp
 1599              	system_clear_exec_alarm:
 1600              	.LFB716:
 393:grbl/system.c **** 
 394:grbl/system.c **** void system_clear_exec_alarm()
 395:grbl/system.c **** {
 1601              		.loc 1 395 0
 1602              		.cfi_startproc
 1603              		@ args = 0, pretend = 0, frame = 0
 1604              		@ frame_needed = 0, uses_anonymous_args = 0
 1605              		@ link register save eliminated.
 1606              	.LBB131:
 1607              	.LBB132:
 1608              		.loc 3 142 0
 1609              		.syntax unified
 1610              	@ 142 "Drivers/CMSIS/Include/cmsis_gcc.h" 1
 1611 0000 72B6     		cpsid i
 1612              	@ 0 "" 2
 1613              		.thumb
 1614              		.syntax unified
 1615              	.LBE132:
 1616              	.LBE131:
 396:grbl/system.c **** #ifdef STM32
 397:grbl/system.c ****   __disable_irq();
 398:grbl/system.c ****   sys_rt_exec_alarm = 0;
 1617              		.loc 1 398 0
 1618 0002 0022     		movs	r2, #0
 1619 0004 014B     		ldr	r3, .L194
 1620 0006 1A70     		strb	r2, [r3]
 1621              	.LBB133:
 1622              	.LBB134:
 131:Drivers/CMSIS/Include/cmsis_gcc.h **** }
 1623              		.loc 3 131 0
 1624              		.syntax unified
 1625              	@ 131 "Drivers/CMSIS/Include/cmsis_gcc.h" 1
 1626 0008 62B6     		cpsie i
 1627              	@ 0 "" 2
 1628              		.thumb
 1629              		.syntax unified
 1630              	.LBE134:
 1631              	.LBE133:
ARM GAS  /var/folders/m1/3lv6xmzs0mlckxs4mx90nfb40000gn/T//ccOxfUMW.s 			page 54


 399:grbl/system.c ****   __enable_irq();
 400:grbl/system.c **** #endif
 401:grbl/system.c **** }
 1632              		.loc 1 401 0
 1633 000a 7047     		bx	lr
 1634              	.L195:
 1635              		.align	2
 1636              	.L194:
 1637 000c 00000000 		.word	sys_rt_exec_alarm
 1638              		.cfi_endproc
 1639              	.LFE716:
 1641              		.section	.text.system_set_exec_motion_override_flag,"ax",%progbits
 1642              		.align	1
 1643              		.p2align 2,,3
 1644              		.global	system_set_exec_motion_override_flag
 1645              		.syntax unified
 1646              		.thumb
 1647              		.thumb_func
 1648              		.fpu softvfp
 1650              	system_set_exec_motion_override_flag:
 1651              	.LFB717:
 402:grbl/system.c **** 
 403:grbl/system.c **** void system_set_exec_motion_override_flag(uint8_t mask)
 404:grbl/system.c **** {
 1652              		.loc 1 404 0
 1653              		.cfi_startproc
 1654              		@ args = 0, pretend = 0, frame = 0
 1655              		@ frame_needed = 0, uses_anonymous_args = 0
 1656              		@ link register save eliminated.
 1657              	.LVL168:
 1658              	.LBB135:
 1659              	.LBB136:
 1660              		.loc 3 142 0
 1661              		.syntax unified
 1662              	@ 142 "Drivers/CMSIS/Include/cmsis_gcc.h" 1
 1663 0000 72B6     		cpsid i
 1664              	@ 0 "" 2
 1665              		.thumb
 1666              		.syntax unified
 1667              	.LBE136:
 1668              	.LBE135:
 405:grbl/system.c **** #ifdef STM32
 406:grbl/system.c ****   __disable_irq();
 407:grbl/system.c ****   sys_rt_exec_motion_override |= (mask);
 1669              		.loc 1 407 0
 1670 0002 034A     		ldr	r2, .L197
 1671 0004 1378     		ldrb	r3, [r2]	@ zero_extendqisi2
 1672 0006 1843     		orrs	r0, r0, r3
 1673              	.LVL169:
 1674 0008 1070     		strb	r0, [r2]
 1675              	.LBB137:
 1676              	.LBB138:
 131:Drivers/CMSIS/Include/cmsis_gcc.h **** }
 1677              		.loc 3 131 0
 1678              		.syntax unified
 1679              	@ 131 "Drivers/CMSIS/Include/cmsis_gcc.h" 1
 1680 000a 62B6     		cpsie i
ARM GAS  /var/folders/m1/3lv6xmzs0mlckxs4mx90nfb40000gn/T//ccOxfUMW.s 			page 55


 1681              	@ 0 "" 2
 1682              		.thumb
 1683              		.syntax unified
 1684              	.LBE138:
 1685              	.LBE137:
 408:grbl/system.c ****   __enable_irq();
 409:grbl/system.c **** #endif
 410:grbl/system.c **** }
 1686              		.loc 1 410 0
 1687 000c 7047     		bx	lr
 1688              	.L198:
 1689 000e 00BF     		.align	2
 1690              	.L197:
 1691 0010 00000000 		.word	sys_rt_exec_motion_override
 1692              		.cfi_endproc
 1693              	.LFE717:
 1695              		.section	.text.system_set_exec_accessory_override_flag,"ax",%progbits
 1696              		.align	1
 1697              		.p2align 2,,3
 1698              		.global	system_set_exec_accessory_override_flag
 1699              		.syntax unified
 1700              		.thumb
 1701              		.thumb_func
 1702              		.fpu softvfp
 1704              	system_set_exec_accessory_override_flag:
 1705              	.LFB718:
 411:grbl/system.c **** 
 412:grbl/system.c **** void system_set_exec_accessory_override_flag(uint8_t mask)
 413:grbl/system.c **** {
 1706              		.loc 1 413 0
 1707              		.cfi_startproc
 1708              		@ args = 0, pretend = 0, frame = 0
 1709              		@ frame_needed = 0, uses_anonymous_args = 0
 1710              		@ link register save eliminated.
 1711              	.LVL170:
 1712              	.LBB139:
 1713              	.LBB140:
 1714              		.loc 3 142 0
 1715              		.syntax unified
 1716              	@ 142 "Drivers/CMSIS/Include/cmsis_gcc.h" 1
 1717 0000 72B6     		cpsid i
 1718              	@ 0 "" 2
 1719              		.thumb
 1720              		.syntax unified
 1721              	.LBE140:
 1722              	.LBE139:
 414:grbl/system.c **** #ifdef STM32
 415:grbl/system.c ****   __disable_irq();
 416:grbl/system.c ****   sys_rt_exec_accessory_override |= (mask);
 1723              		.loc 1 416 0
 1724 0002 034A     		ldr	r2, .L200
 1725 0004 1378     		ldrb	r3, [r2]	@ zero_extendqisi2
 1726 0006 1843     		orrs	r0, r0, r3
 1727              	.LVL171:
 1728 0008 1070     		strb	r0, [r2]
 1729              	.LBB141:
 1730              	.LBB142:
ARM GAS  /var/folders/m1/3lv6xmzs0mlckxs4mx90nfb40000gn/T//ccOxfUMW.s 			page 56


 131:Drivers/CMSIS/Include/cmsis_gcc.h **** }
 1731              		.loc 3 131 0
 1732              		.syntax unified
 1733              	@ 131 "Drivers/CMSIS/Include/cmsis_gcc.h" 1
 1734 000a 62B6     		cpsie i
 1735              	@ 0 "" 2
 1736              		.thumb
 1737              		.syntax unified
 1738              	.LBE142:
 1739              	.LBE141:
 417:grbl/system.c ****   __enable_irq();
 418:grbl/system.c **** #endif
 419:grbl/system.c **** }
 1740              		.loc 1 419 0
 1741 000c 7047     		bx	lr
 1742              	.L201:
 1743 000e 00BF     		.align	2
 1744              	.L200:
 1745 0010 00000000 		.word	sys_rt_exec_accessory_override
 1746              		.cfi_endproc
 1747              	.LFE718:
 1749              		.section	.text.system_clear_exec_motion_overrides,"ax",%progbits
 1750              		.align	1
 1751              		.p2align 2,,3
 1752              		.global	system_clear_exec_motion_overrides
 1753              		.syntax unified
 1754              		.thumb
 1755              		.thumb_func
 1756              		.fpu softvfp
 1758              	system_clear_exec_motion_overrides:
 1759              	.LFB719:
 420:grbl/system.c **** 
 421:grbl/system.c **** void system_clear_exec_motion_overrides()
 422:grbl/system.c **** {
 1760              		.loc 1 422 0
 1761              		.cfi_startproc
 1762              		@ args = 0, pretend = 0, frame = 0
 1763              		@ frame_needed = 0, uses_anonymous_args = 0
 1764              		@ link register save eliminated.
 1765              	.LBB143:
 1766              	.LBB144:
 1767              		.loc 3 142 0
 1768              		.syntax unified
 1769              	@ 142 "Drivers/CMSIS/Include/cmsis_gcc.h" 1
 1770 0000 72B6     		cpsid i
 1771              	@ 0 "" 2
 1772              		.thumb
 1773              		.syntax unified
 1774              	.LBE144:
 1775              	.LBE143:
 423:grbl/system.c **** #ifdef STM32
 424:grbl/system.c ****   __disable_irq();
 425:grbl/system.c ****   sys_rt_exec_motion_override = 0;
 1776              		.loc 1 425 0
 1777 0002 0022     		movs	r2, #0
 1778 0004 014B     		ldr	r3, .L203
 1779 0006 1A70     		strb	r2, [r3]
ARM GAS  /var/folders/m1/3lv6xmzs0mlckxs4mx90nfb40000gn/T//ccOxfUMW.s 			page 57


 1780              	.LBB145:
 1781              	.LBB146:
 131:Drivers/CMSIS/Include/cmsis_gcc.h **** }
 1782              		.loc 3 131 0
 1783              		.syntax unified
 1784              	@ 131 "Drivers/CMSIS/Include/cmsis_gcc.h" 1
 1785 0008 62B6     		cpsie i
 1786              	@ 0 "" 2
 1787              		.thumb
 1788              		.syntax unified
 1789              	.LBE146:
 1790              	.LBE145:
 426:grbl/system.c ****   __enable_irq();
 427:grbl/system.c **** #endif
 428:grbl/system.c **** }
 1791              		.loc 1 428 0
 1792 000a 7047     		bx	lr
 1793              	.L204:
 1794              		.align	2
 1795              	.L203:
 1796 000c 00000000 		.word	sys_rt_exec_motion_override
 1797              		.cfi_endproc
 1798              	.LFE719:
 1800              		.section	.text.system_clear_exec_accessory_overrides,"ax",%progbits
 1801              		.align	1
 1802              		.p2align 2,,3
 1803              		.global	system_clear_exec_accessory_overrides
 1804              		.syntax unified
 1805              		.thumb
 1806              		.thumb_func
 1807              		.fpu softvfp
 1809              	system_clear_exec_accessory_overrides:
 1810              	.LFB720:
 429:grbl/system.c **** 
 430:grbl/system.c **** void system_clear_exec_accessory_overrides()
 431:grbl/system.c **** {
 1811              		.loc 1 431 0
 1812              		.cfi_startproc
 1813              		@ args = 0, pretend = 0, frame = 0
 1814              		@ frame_needed = 0, uses_anonymous_args = 0
 1815              		@ link register save eliminated.
 1816              	.LBB147:
 1817              	.LBB148:
 1818              		.loc 3 142 0
 1819              		.syntax unified
 1820              	@ 142 "Drivers/CMSIS/Include/cmsis_gcc.h" 1
 1821 0000 72B6     		cpsid i
 1822              	@ 0 "" 2
 1823              		.thumb
 1824              		.syntax unified
 1825              	.LBE148:
 1826              	.LBE147:
 432:grbl/system.c **** #ifdef STM32
 433:grbl/system.c ****   __disable_irq();
 434:grbl/system.c ****   sys_rt_exec_accessory_override = 0;
 1827              		.loc 1 434 0
 1828 0002 0022     		movs	r2, #0
ARM GAS  /var/folders/m1/3lv6xmzs0mlckxs4mx90nfb40000gn/T//ccOxfUMW.s 			page 58


 1829 0004 014B     		ldr	r3, .L206
 1830 0006 1A70     		strb	r2, [r3]
 1831              	.LBB149:
 1832              	.LBB150:
 131:Drivers/CMSIS/Include/cmsis_gcc.h **** }
 1833              		.loc 3 131 0
 1834              		.syntax unified
 1835              	@ 131 "Drivers/CMSIS/Include/cmsis_gcc.h" 1
 1836 0008 62B6     		cpsie i
 1837              	@ 0 "" 2
 1838              		.thumb
 1839              		.syntax unified
 1840              	.LBE150:
 1841              	.LBE149:
 435:grbl/system.c ****   __enable_irq();
 436:grbl/system.c **** #endif
 437:grbl/system.c **** }
 1842              		.loc 1 437 0
 1843 000a 7047     		bx	lr
 1844              	.L207:
 1845              		.align	2
 1846              	.L206:
 1847 000c 00000000 		.word	sys_rt_exec_accessory_override
 1848              		.cfi_endproc
 1849              	.LFE720:
 1851              		.text
 1852              	.Letext0:
 1853              		.file 4 "/usr/local/Cellar/gcc-arm-none-eabi/20180627/arm-none-eabi/include/machine/_default_types
 1854              		.file 5 "/usr/local/Cellar/gcc-arm-none-eabi/20180627/arm-none-eabi/include/sys/lock.h"
 1855              		.file 6 "/usr/local/Cellar/gcc-arm-none-eabi/20180627/arm-none-eabi/include/sys/_types.h"
 1856              		.file 7 "/usr/local/Cellar/gcc-arm-none-eabi/20180627/lib/gcc/arm-none-eabi/7.3.1/include/stddef.h
 1857              		.file 8 "/usr/local/Cellar/gcc-arm-none-eabi/20180627/arm-none-eabi/include/sys/reent.h"
 1858              		.file 9 "/usr/local/Cellar/gcc-arm-none-eabi/20180627/arm-none-eabi/include/math.h"
 1859              		.file 10 "/usr/local/Cellar/gcc-arm-none-eabi/20180627/arm-none-eabi/include/sys/_stdint.h"
 1860              		.file 11 "Drivers/CMSIS/Include/core_cm3.h"
 1861              		.file 12 "Drivers/CMSIS/Device/ST/STM32F1xx/Include/system_stm32f1xx.h"
 1862              		.file 13 "Drivers/CMSIS/Device/ST/STM32F1xx/Include/stm32f103xb.h"
 1863              		.file 14 "Drivers/STM32F1xx_HAL_Driver/Inc/stm32f1xx_hal.h"
 1864              		.file 15 "Drivers/STM32F1xx_HAL_Driver/Inc/stm32f1xx_ll_tim.h"
 1865              		.file 16 "Drivers/STM32F1xx_HAL_Driver/Inc/stm32f1xx_ll_dma.h"
 1866              		.file 17 "stm32/stm32utilities.h"
 1867              		.file 18 "/usr/local/Cellar/gcc-arm-none-eabi/20180627/arm-none-eabi/include/stdlib.h"
 1868              		.file 19 "grbl/settings.h"
 1869              		.file 20 "grbl/system.h"
 1870              		.file 21 "grbl/gcode.h"
 1871              		.file 22 "grbl/protocol.h"
 1872              		.file 23 "grbl/report.h"
 1873              		.file 24 "grbl/motion_control.h"
 1874              		.file 25 "grbl/stepper.h"
 1875              		.file 26 "grbl/nuts_bolts.h"
ARM GAS  /var/folders/m1/3lv6xmzs0mlckxs4mx90nfb40000gn/T//ccOxfUMW.s 			page 59

