ARM GAS  /var/folders/m1/3lv6xmzs0mlckxs4mx90nfb40000gn/T//ccFDK2TW.s 			page 1


   1              		.cpu cortex-m3
   2              		.eabi_attribute 20, 1
   3              		.eabi_attribute 21, 1
   4              		.eabi_attribute 23, 3
   5              		.eabi_attribute 24, 1
   6              		.eabi_attribute 25, 1
   7              		.eabi_attribute 26, 1
   8              		.eabi_attribute 30, 2
   9              		.eabi_attribute 34, 1
  10              		.eabi_attribute 18, 4
  11              		.file	"tim.c"
  12              		.text
  13              	.Ltext0:
  14              		.cfi_sections	.debug_frame
  15              		.section	.text.MX_TIM1_Init,"ax",%progbits
  16              		.align	1
  17              		.p2align 2,,3
  18              		.global	MX_TIM1_Init
  19              		.syntax unified
  20              		.thumb
  21              		.thumb_func
  22              		.fpu softvfp
  24              	MX_TIM1_Init:
  25              	.LFB703:
  26              		.file 1 "Src/tim.c"
   1:Src/tim.c     **** /**
   2:Src/tim.c     ****   ******************************************************************************
   3:Src/tim.c     ****   * File Name          : TIM.c
   4:Src/tim.c     ****   * Description        : This file provides code for the configuration
   5:Src/tim.c     ****   *                      of the TIM instances.
   6:Src/tim.c     ****   ******************************************************************************
   7:Src/tim.c     ****   * @attention
   8:Src/tim.c     ****   *
   9:Src/tim.c     ****   * <h2><center>&copy; Copyright (c) 2020 STMicroelectronics.
  10:Src/tim.c     ****   * All rights reserved.</center></h2>
  11:Src/tim.c     ****   *
  12:Src/tim.c     ****   * This software component is licensed by ST under BSD 3-Clause license,
  13:Src/tim.c     ****   * the "License"; You may not use this file except in compliance with the
  14:Src/tim.c     ****   * License. You may obtain a copy of the License at:
  15:Src/tim.c     ****   *                        opensource.org/licenses/BSD-3-Clause
  16:Src/tim.c     ****   *
  17:Src/tim.c     ****   ******************************************************************************
  18:Src/tim.c     ****   */
  19:Src/tim.c     **** 
  20:Src/tim.c     **** /* Includes ------------------------------------------------------------------*/
  21:Src/tim.c     **** #include "tim.h"
  22:Src/tim.c     **** 
  23:Src/tim.c     **** /* USER CODE BEGIN 0 */
  24:Src/tim.c     **** 
  25:Src/tim.c     **** /* USER CODE END 0 */
  26:Src/tim.c     **** 
  27:Src/tim.c     **** /* TIM1 init function */
  28:Src/tim.c     **** void MX_TIM1_Init(void)
  29:Src/tim.c     **** {
  27              		.loc 1 29 0
  28              		.cfi_startproc
  29              		@ args = 0, pretend = 0, frame = 104
ARM GAS  /var/folders/m1/3lv6xmzs0mlckxs4mx90nfb40000gn/T//ccFDK2TW.s 			page 2


  30              		@ frame_needed = 0, uses_anonymous_args = 0
  31 0000 F0B5     		push	{r4, r5, r6, r7, lr}
  32              	.LCFI0:
  33              		.cfi_def_cfa_offset 20
  34              		.cfi_offset 4, -20
  35              		.cfi_offset 5, -16
  36              		.cfi_offset 6, -12
  37              		.cfi_offset 7, -8
  38              		.cfi_offset 14, -4
  30:Src/tim.c     ****   LL_TIM_InitTypeDef TIM_InitStruct = {0};
  39              		.loc 1 30 0
  40 0002 0024     		movs	r4, #0
  29:Src/tim.c     ****   LL_TIM_InitTypeDef TIM_InitStruct = {0};
  41              		.loc 1 29 0
  42 0004 9BB0     		sub	sp, sp, #108
  43              	.LCFI1:
  44              		.cfi_def_cfa_offset 128
  31:Src/tim.c     ****   LL_TIM_OC_InitTypeDef TIM_OC_InitStruct = {0};
  45              		.loc 1 31 0
  46 0006 2146     		mov	r1, r4
  47 0008 12A8     		add	r0, sp, #72
  48 000a 2022     		movs	r2, #32
  30:Src/tim.c     ****   LL_TIM_InitTypeDef TIM_InitStruct = {0};
  49              		.loc 1 30 0
  50 000c CDE90244 		strd	r4, r4, [sp, #8]
  51 0010 CDE90444 		strd	r4, r4, [sp, #16]
  52 0014 0694     		str	r4, [sp, #24]
  53              		.loc 1 31 0
  54 0016 FFF7FEFF 		bl	memset
  55              	.LVL0:
  32:Src/tim.c     ****   LL_TIM_BDTR_InitTypeDef TIM_BDTRInitStruct = {0};
  33:Src/tim.c     **** 
  34:Src/tim.c     ****   LL_GPIO_InitTypeDef GPIO_InitStruct = {0};
  35:Src/tim.c     ****   /* Peripheral clock enable */
  36:Src/tim.c     ****   LL_APB2_GRP1_EnableClock(LL_APB2_GRP1_PERIPH_TIM1);
  37:Src/tim.c     **** 
  38:Src/tim.c     ****   TIM_InitStruct.Prescaler = 0;
  39:Src/tim.c     ****   TIM_InitStruct.CounterMode = LL_TIM_COUNTERMODE_UP;
  40:Src/tim.c     ****   TIM_InitStruct.Autoreload = 7199;
  56              		.loc 1 40 0
  57 001a 41F61F42 		movw	r2, #7199
  41:Src/tim.c     ****   TIM_InitStruct.ClockDivision = LL_TIM_CLOCKDIVISION_DIV1;
  42:Src/tim.c     ****   TIM_InitStruct.RepetitionCounter = 0;
  43:Src/tim.c     ****   LL_TIM_Init(TIM1, &TIM_InitStruct);
  44:Src/tim.c     ****   LL_TIM_DisableARRPreload(TIM1);
  45:Src/tim.c     ****   LL_TIM_OC_EnablePreload(TIM1, LL_TIM_CHANNEL_CH1);
  46:Src/tim.c     ****   TIM_OC_InitStruct.OCMode = LL_TIM_OCMODE_PWM1;
  58              		.loc 1 46 0
  59 001e 6027     		movs	r7, #96
  32:Src/tim.c     ****   LL_TIM_BDTR_InitTypeDef TIM_BDTRInitStruct = {0};
  60              		.loc 1 32 0
  61 0020 CDE90D44 		strd	r4, r4, [sp, #52]
  62 0024 CDE90F44 		strd	r4, r4, [sp, #60]
  34:Src/tim.c     ****   /* Peripheral clock enable */
  63              		.loc 1 34 0
  64 0028 CDE90844 		strd	r4, r4, [sp, #32]
  65 002c CDE90A44 		strd	r4, r4, [sp, #40]
ARM GAS  /var/folders/m1/3lv6xmzs0mlckxs4mx90nfb40000gn/T//ccFDK2TW.s 			page 3


  66              	.LVL1:
  67              	.LBB52:
  68              	.LBB53:
  69              		.file 2 "Drivers/STM32F1xx_HAL_Driver/Inc/stm32f1xx_ll_bus.h"
   1:Drivers/STM32F1xx_HAL_Driver/Inc/stm32f1xx_ll_bus.h **** /**
   2:Drivers/STM32F1xx_HAL_Driver/Inc/stm32f1xx_ll_bus.h ****   ******************************************************************************
   3:Drivers/STM32F1xx_HAL_Driver/Inc/stm32f1xx_ll_bus.h ****   * @file    stm32f1xx_ll_bus.h
   4:Drivers/STM32F1xx_HAL_Driver/Inc/stm32f1xx_ll_bus.h ****   * @author  MCD Application Team
   5:Drivers/STM32F1xx_HAL_Driver/Inc/stm32f1xx_ll_bus.h ****   * @brief   Header file of BUS LL module.
   6:Drivers/STM32F1xx_HAL_Driver/Inc/stm32f1xx_ll_bus.h **** 
   7:Drivers/STM32F1xx_HAL_Driver/Inc/stm32f1xx_ll_bus.h ****   @verbatim
   8:Drivers/STM32F1xx_HAL_Driver/Inc/stm32f1xx_ll_bus.h ****                       ##### RCC Limitations #####
   9:Drivers/STM32F1xx_HAL_Driver/Inc/stm32f1xx_ll_bus.h ****   ==============================================================================
  10:Drivers/STM32F1xx_HAL_Driver/Inc/stm32f1xx_ll_bus.h ****     [..]
  11:Drivers/STM32F1xx_HAL_Driver/Inc/stm32f1xx_ll_bus.h ****       A delay between an RCC peripheral clock enable and the effective peripheral
  12:Drivers/STM32F1xx_HAL_Driver/Inc/stm32f1xx_ll_bus.h ****       enabling should be taken into account in order to manage the peripheral read/write
  13:Drivers/STM32F1xx_HAL_Driver/Inc/stm32f1xx_ll_bus.h ****       from/to registers.
  14:Drivers/STM32F1xx_HAL_Driver/Inc/stm32f1xx_ll_bus.h ****       (+) This delay depends on the peripheral mapping.
  15:Drivers/STM32F1xx_HAL_Driver/Inc/stm32f1xx_ll_bus.h ****         (++) AHB & APB peripherals, 1 dummy read is necessary
  16:Drivers/STM32F1xx_HAL_Driver/Inc/stm32f1xx_ll_bus.h **** 
  17:Drivers/STM32F1xx_HAL_Driver/Inc/stm32f1xx_ll_bus.h ****     [..]
  18:Drivers/STM32F1xx_HAL_Driver/Inc/stm32f1xx_ll_bus.h ****       Workarounds:
  19:Drivers/STM32F1xx_HAL_Driver/Inc/stm32f1xx_ll_bus.h ****       (#) For AHB & APB peripherals, a dummy read to the peripheral register has been
  20:Drivers/STM32F1xx_HAL_Driver/Inc/stm32f1xx_ll_bus.h ****           inserted in each LL_{BUS}_GRP{x}_EnableClock() function.
  21:Drivers/STM32F1xx_HAL_Driver/Inc/stm32f1xx_ll_bus.h **** 
  22:Drivers/STM32F1xx_HAL_Driver/Inc/stm32f1xx_ll_bus.h ****   @endverbatim
  23:Drivers/STM32F1xx_HAL_Driver/Inc/stm32f1xx_ll_bus.h ****   ******************************************************************************
  24:Drivers/STM32F1xx_HAL_Driver/Inc/stm32f1xx_ll_bus.h ****   * @attention
  25:Drivers/STM32F1xx_HAL_Driver/Inc/stm32f1xx_ll_bus.h ****   *
  26:Drivers/STM32F1xx_HAL_Driver/Inc/stm32f1xx_ll_bus.h ****   * <h2><center>&copy; Copyright (c) 2016 STMicroelectronics.
  27:Drivers/STM32F1xx_HAL_Driver/Inc/stm32f1xx_ll_bus.h ****   * All rights reserved.</center></h2>
  28:Drivers/STM32F1xx_HAL_Driver/Inc/stm32f1xx_ll_bus.h ****   *
  29:Drivers/STM32F1xx_HAL_Driver/Inc/stm32f1xx_ll_bus.h ****   * This software component is licensed by ST under BSD 3-Clause license,
  30:Drivers/STM32F1xx_HAL_Driver/Inc/stm32f1xx_ll_bus.h ****   * the "License"; You may not use this file except in compliance with the
  31:Drivers/STM32F1xx_HAL_Driver/Inc/stm32f1xx_ll_bus.h ****   * License. You may obtain a copy of the License at:
  32:Drivers/STM32F1xx_HAL_Driver/Inc/stm32f1xx_ll_bus.h ****   *                        opensource.org/licenses/BSD-3-Clause
  33:Drivers/STM32F1xx_HAL_Driver/Inc/stm32f1xx_ll_bus.h ****   *
  34:Drivers/STM32F1xx_HAL_Driver/Inc/stm32f1xx_ll_bus.h ****   ******************************************************************************
  35:Drivers/STM32F1xx_HAL_Driver/Inc/stm32f1xx_ll_bus.h ****   */
  36:Drivers/STM32F1xx_HAL_Driver/Inc/stm32f1xx_ll_bus.h **** 
  37:Drivers/STM32F1xx_HAL_Driver/Inc/stm32f1xx_ll_bus.h **** /* Define to prevent recursive inclusion -------------------------------------*/
  38:Drivers/STM32F1xx_HAL_Driver/Inc/stm32f1xx_ll_bus.h **** #ifndef __STM32F1xx_LL_BUS_H
  39:Drivers/STM32F1xx_HAL_Driver/Inc/stm32f1xx_ll_bus.h **** #define __STM32F1xx_LL_BUS_H
  40:Drivers/STM32F1xx_HAL_Driver/Inc/stm32f1xx_ll_bus.h **** 
  41:Drivers/STM32F1xx_HAL_Driver/Inc/stm32f1xx_ll_bus.h **** #ifdef __cplusplus
  42:Drivers/STM32F1xx_HAL_Driver/Inc/stm32f1xx_ll_bus.h **** extern "C" {
  43:Drivers/STM32F1xx_HAL_Driver/Inc/stm32f1xx_ll_bus.h **** #endif
  44:Drivers/STM32F1xx_HAL_Driver/Inc/stm32f1xx_ll_bus.h **** 
  45:Drivers/STM32F1xx_HAL_Driver/Inc/stm32f1xx_ll_bus.h **** /* Includes ------------------------------------------------------------------*/
  46:Drivers/STM32F1xx_HAL_Driver/Inc/stm32f1xx_ll_bus.h **** #include "stm32f1xx.h"
  47:Drivers/STM32F1xx_HAL_Driver/Inc/stm32f1xx_ll_bus.h **** 
  48:Drivers/STM32F1xx_HAL_Driver/Inc/stm32f1xx_ll_bus.h **** /** @addtogroup STM32F1xx_LL_Driver
  49:Drivers/STM32F1xx_HAL_Driver/Inc/stm32f1xx_ll_bus.h ****   * @{
  50:Drivers/STM32F1xx_HAL_Driver/Inc/stm32f1xx_ll_bus.h ****   */
  51:Drivers/STM32F1xx_HAL_Driver/Inc/stm32f1xx_ll_bus.h **** 
  52:Drivers/STM32F1xx_HAL_Driver/Inc/stm32f1xx_ll_bus.h **** #if defined(RCC)
  53:Drivers/STM32F1xx_HAL_Driver/Inc/stm32f1xx_ll_bus.h **** 
ARM GAS  /var/folders/m1/3lv6xmzs0mlckxs4mx90nfb40000gn/T//ccFDK2TW.s 			page 4


  54:Drivers/STM32F1xx_HAL_Driver/Inc/stm32f1xx_ll_bus.h **** /** @defgroup BUS_LL BUS
  55:Drivers/STM32F1xx_HAL_Driver/Inc/stm32f1xx_ll_bus.h ****   * @{
  56:Drivers/STM32F1xx_HAL_Driver/Inc/stm32f1xx_ll_bus.h ****   */
  57:Drivers/STM32F1xx_HAL_Driver/Inc/stm32f1xx_ll_bus.h **** 
  58:Drivers/STM32F1xx_HAL_Driver/Inc/stm32f1xx_ll_bus.h **** /* Private types -------------------------------------------------------------*/
  59:Drivers/STM32F1xx_HAL_Driver/Inc/stm32f1xx_ll_bus.h **** /* Private variables ---------------------------------------------------------*/
  60:Drivers/STM32F1xx_HAL_Driver/Inc/stm32f1xx_ll_bus.h **** 
  61:Drivers/STM32F1xx_HAL_Driver/Inc/stm32f1xx_ll_bus.h **** /* Private constants ---------------------------------------------------------*/
  62:Drivers/STM32F1xx_HAL_Driver/Inc/stm32f1xx_ll_bus.h **** #if defined(RCC_AHBRSTR_OTGFSRST) || defined(RCC_AHBRSTR_ETHMACRST)
  63:Drivers/STM32F1xx_HAL_Driver/Inc/stm32f1xx_ll_bus.h **** #define RCC_AHBRSTR_SUPPORT
  64:Drivers/STM32F1xx_HAL_Driver/Inc/stm32f1xx_ll_bus.h **** #endif /* RCC_AHBRSTR_OTGFSRST || RCC_AHBRSTR_ETHMACRST */
  65:Drivers/STM32F1xx_HAL_Driver/Inc/stm32f1xx_ll_bus.h **** 
  66:Drivers/STM32F1xx_HAL_Driver/Inc/stm32f1xx_ll_bus.h **** /* Private macros ------------------------------------------------------------*/
  67:Drivers/STM32F1xx_HAL_Driver/Inc/stm32f1xx_ll_bus.h **** 
  68:Drivers/STM32F1xx_HAL_Driver/Inc/stm32f1xx_ll_bus.h **** /* Exported types ------------------------------------------------------------*/
  69:Drivers/STM32F1xx_HAL_Driver/Inc/stm32f1xx_ll_bus.h **** /* Exported constants --------------------------------------------------------*/
  70:Drivers/STM32F1xx_HAL_Driver/Inc/stm32f1xx_ll_bus.h **** /** @defgroup BUS_LL_Exported_Constants BUS Exported Constants
  71:Drivers/STM32F1xx_HAL_Driver/Inc/stm32f1xx_ll_bus.h ****   * @{
  72:Drivers/STM32F1xx_HAL_Driver/Inc/stm32f1xx_ll_bus.h ****   */
  73:Drivers/STM32F1xx_HAL_Driver/Inc/stm32f1xx_ll_bus.h **** 
  74:Drivers/STM32F1xx_HAL_Driver/Inc/stm32f1xx_ll_bus.h **** /** @defgroup BUS_LL_EC_AHB1_GRP1_PERIPH  AHB1 GRP1 PERIPH
  75:Drivers/STM32F1xx_HAL_Driver/Inc/stm32f1xx_ll_bus.h ****   * @{
  76:Drivers/STM32F1xx_HAL_Driver/Inc/stm32f1xx_ll_bus.h ****   */
  77:Drivers/STM32F1xx_HAL_Driver/Inc/stm32f1xx_ll_bus.h **** #define LL_AHB1_GRP1_PERIPH_ALL            (uint32_t)0xFFFFFFFFU
  78:Drivers/STM32F1xx_HAL_Driver/Inc/stm32f1xx_ll_bus.h **** #define LL_AHB1_GRP1_PERIPH_CRC            RCC_AHBENR_CRCEN
  79:Drivers/STM32F1xx_HAL_Driver/Inc/stm32f1xx_ll_bus.h **** #define LL_AHB1_GRP1_PERIPH_DMA1           RCC_AHBENR_DMA1EN
  80:Drivers/STM32F1xx_HAL_Driver/Inc/stm32f1xx_ll_bus.h **** #if defined(DMA2)
  81:Drivers/STM32F1xx_HAL_Driver/Inc/stm32f1xx_ll_bus.h **** #define LL_AHB1_GRP1_PERIPH_DMA2           RCC_AHBENR_DMA2EN
  82:Drivers/STM32F1xx_HAL_Driver/Inc/stm32f1xx_ll_bus.h **** #endif /*DMA2*/
  83:Drivers/STM32F1xx_HAL_Driver/Inc/stm32f1xx_ll_bus.h **** #if defined(ETH)
  84:Drivers/STM32F1xx_HAL_Driver/Inc/stm32f1xx_ll_bus.h **** #define LL_AHB1_GRP1_PERIPH_ETHMAC         RCC_AHBENR_ETHMACEN
  85:Drivers/STM32F1xx_HAL_Driver/Inc/stm32f1xx_ll_bus.h **** #define LL_AHB1_GRP1_PERIPH_ETHMACRX       RCC_AHBENR_ETHMACRXEN
  86:Drivers/STM32F1xx_HAL_Driver/Inc/stm32f1xx_ll_bus.h **** #define LL_AHB1_GRP1_PERIPH_ETHMACTX       RCC_AHBENR_ETHMACTXEN
  87:Drivers/STM32F1xx_HAL_Driver/Inc/stm32f1xx_ll_bus.h **** #endif /*ETH*/
  88:Drivers/STM32F1xx_HAL_Driver/Inc/stm32f1xx_ll_bus.h **** #define LL_AHB1_GRP1_PERIPH_FLASH          RCC_AHBENR_FLITFEN
  89:Drivers/STM32F1xx_HAL_Driver/Inc/stm32f1xx_ll_bus.h **** #if defined(FSMC_Bank1)
  90:Drivers/STM32F1xx_HAL_Driver/Inc/stm32f1xx_ll_bus.h **** #define LL_AHB1_GRP1_PERIPH_FSMC           RCC_AHBENR_FSMCEN
  91:Drivers/STM32F1xx_HAL_Driver/Inc/stm32f1xx_ll_bus.h **** #endif /*FSMC_Bank1*/
  92:Drivers/STM32F1xx_HAL_Driver/Inc/stm32f1xx_ll_bus.h **** #if defined(USB_OTG_FS)
  93:Drivers/STM32F1xx_HAL_Driver/Inc/stm32f1xx_ll_bus.h **** #define LL_AHB1_GRP1_PERIPH_OTGFS          RCC_AHBENR_OTGFSEN
  94:Drivers/STM32F1xx_HAL_Driver/Inc/stm32f1xx_ll_bus.h **** #endif /*USB_OTG_FS*/
  95:Drivers/STM32F1xx_HAL_Driver/Inc/stm32f1xx_ll_bus.h **** #if defined(SDIO)
  96:Drivers/STM32F1xx_HAL_Driver/Inc/stm32f1xx_ll_bus.h **** #define LL_AHB1_GRP1_PERIPH_SDIO           RCC_AHBENR_SDIOEN
  97:Drivers/STM32F1xx_HAL_Driver/Inc/stm32f1xx_ll_bus.h **** #endif /*SDIO*/
  98:Drivers/STM32F1xx_HAL_Driver/Inc/stm32f1xx_ll_bus.h **** #define LL_AHB1_GRP1_PERIPH_SRAM           RCC_AHBENR_SRAMEN
  99:Drivers/STM32F1xx_HAL_Driver/Inc/stm32f1xx_ll_bus.h **** /**
 100:Drivers/STM32F1xx_HAL_Driver/Inc/stm32f1xx_ll_bus.h ****   * @}
 101:Drivers/STM32F1xx_HAL_Driver/Inc/stm32f1xx_ll_bus.h ****   */
 102:Drivers/STM32F1xx_HAL_Driver/Inc/stm32f1xx_ll_bus.h **** 
 103:Drivers/STM32F1xx_HAL_Driver/Inc/stm32f1xx_ll_bus.h **** /** @defgroup BUS_LL_EC_APB1_GRP1_PERIPH  APB1 GRP1 PERIPH
 104:Drivers/STM32F1xx_HAL_Driver/Inc/stm32f1xx_ll_bus.h ****   * @{
 105:Drivers/STM32F1xx_HAL_Driver/Inc/stm32f1xx_ll_bus.h ****   */
 106:Drivers/STM32F1xx_HAL_Driver/Inc/stm32f1xx_ll_bus.h **** #define LL_APB1_GRP1_PERIPH_ALL            (uint32_t)0xFFFFFFFFU
 107:Drivers/STM32F1xx_HAL_Driver/Inc/stm32f1xx_ll_bus.h **** #define LL_APB1_GRP1_PERIPH_BKP            RCC_APB1ENR_BKPEN
 108:Drivers/STM32F1xx_HAL_Driver/Inc/stm32f1xx_ll_bus.h **** #if defined(CAN1)
 109:Drivers/STM32F1xx_HAL_Driver/Inc/stm32f1xx_ll_bus.h **** #define LL_APB1_GRP1_PERIPH_CAN1           RCC_APB1ENR_CAN1EN
 110:Drivers/STM32F1xx_HAL_Driver/Inc/stm32f1xx_ll_bus.h **** #endif /*CAN1*/
ARM GAS  /var/folders/m1/3lv6xmzs0mlckxs4mx90nfb40000gn/T//ccFDK2TW.s 			page 5


 111:Drivers/STM32F1xx_HAL_Driver/Inc/stm32f1xx_ll_bus.h **** #if defined(CAN2)
 112:Drivers/STM32F1xx_HAL_Driver/Inc/stm32f1xx_ll_bus.h **** #define LL_APB1_GRP1_PERIPH_CAN2           RCC_APB1ENR_CAN2EN
 113:Drivers/STM32F1xx_HAL_Driver/Inc/stm32f1xx_ll_bus.h **** #endif /*CAN2*/
 114:Drivers/STM32F1xx_HAL_Driver/Inc/stm32f1xx_ll_bus.h **** #if defined(CEC)
 115:Drivers/STM32F1xx_HAL_Driver/Inc/stm32f1xx_ll_bus.h **** #define LL_APB1_GRP1_PERIPH_CEC            RCC_APB1ENR_CECEN
 116:Drivers/STM32F1xx_HAL_Driver/Inc/stm32f1xx_ll_bus.h **** #endif /*CEC*/
 117:Drivers/STM32F1xx_HAL_Driver/Inc/stm32f1xx_ll_bus.h **** #if defined(DAC)
 118:Drivers/STM32F1xx_HAL_Driver/Inc/stm32f1xx_ll_bus.h **** #define LL_APB1_GRP1_PERIPH_DAC1           RCC_APB1ENR_DACEN
 119:Drivers/STM32F1xx_HAL_Driver/Inc/stm32f1xx_ll_bus.h **** #endif /*DAC*/
 120:Drivers/STM32F1xx_HAL_Driver/Inc/stm32f1xx_ll_bus.h **** #define LL_APB1_GRP1_PERIPH_I2C1           RCC_APB1ENR_I2C1EN
 121:Drivers/STM32F1xx_HAL_Driver/Inc/stm32f1xx_ll_bus.h **** #if defined(I2C2)
 122:Drivers/STM32F1xx_HAL_Driver/Inc/stm32f1xx_ll_bus.h **** #define LL_APB1_GRP1_PERIPH_I2C2           RCC_APB1ENR_I2C2EN
 123:Drivers/STM32F1xx_HAL_Driver/Inc/stm32f1xx_ll_bus.h **** #endif /*I2C2*/
 124:Drivers/STM32F1xx_HAL_Driver/Inc/stm32f1xx_ll_bus.h **** #define LL_APB1_GRP1_PERIPH_PWR            RCC_APB1ENR_PWREN
 125:Drivers/STM32F1xx_HAL_Driver/Inc/stm32f1xx_ll_bus.h **** #if defined(SPI2)
 126:Drivers/STM32F1xx_HAL_Driver/Inc/stm32f1xx_ll_bus.h **** #define LL_APB1_GRP1_PERIPH_SPI2           RCC_APB1ENR_SPI2EN
 127:Drivers/STM32F1xx_HAL_Driver/Inc/stm32f1xx_ll_bus.h **** #endif /*SPI2*/
 128:Drivers/STM32F1xx_HAL_Driver/Inc/stm32f1xx_ll_bus.h **** #if defined(SPI3)
 129:Drivers/STM32F1xx_HAL_Driver/Inc/stm32f1xx_ll_bus.h **** #define LL_APB1_GRP1_PERIPH_SPI3           RCC_APB1ENR_SPI3EN
 130:Drivers/STM32F1xx_HAL_Driver/Inc/stm32f1xx_ll_bus.h **** #endif /*SPI3*/
 131:Drivers/STM32F1xx_HAL_Driver/Inc/stm32f1xx_ll_bus.h **** #if defined(TIM12)
 132:Drivers/STM32F1xx_HAL_Driver/Inc/stm32f1xx_ll_bus.h **** #define LL_APB1_GRP1_PERIPH_TIM12          RCC_APB1ENR_TIM12EN
 133:Drivers/STM32F1xx_HAL_Driver/Inc/stm32f1xx_ll_bus.h **** #endif /*TIM12*/
 134:Drivers/STM32F1xx_HAL_Driver/Inc/stm32f1xx_ll_bus.h **** #if defined(TIM13)
 135:Drivers/STM32F1xx_HAL_Driver/Inc/stm32f1xx_ll_bus.h **** #define LL_APB1_GRP1_PERIPH_TIM13          RCC_APB1ENR_TIM13EN
 136:Drivers/STM32F1xx_HAL_Driver/Inc/stm32f1xx_ll_bus.h **** #endif /*TIM13*/
 137:Drivers/STM32F1xx_HAL_Driver/Inc/stm32f1xx_ll_bus.h **** #if defined(TIM14)
 138:Drivers/STM32F1xx_HAL_Driver/Inc/stm32f1xx_ll_bus.h **** #define LL_APB1_GRP1_PERIPH_TIM14          RCC_APB1ENR_TIM14EN
 139:Drivers/STM32F1xx_HAL_Driver/Inc/stm32f1xx_ll_bus.h **** #endif /*TIM14*/
 140:Drivers/STM32F1xx_HAL_Driver/Inc/stm32f1xx_ll_bus.h **** #define LL_APB1_GRP1_PERIPH_TIM2           RCC_APB1ENR_TIM2EN
 141:Drivers/STM32F1xx_HAL_Driver/Inc/stm32f1xx_ll_bus.h **** #define LL_APB1_GRP1_PERIPH_TIM3           RCC_APB1ENR_TIM3EN
 142:Drivers/STM32F1xx_HAL_Driver/Inc/stm32f1xx_ll_bus.h **** #if defined(TIM4)
 143:Drivers/STM32F1xx_HAL_Driver/Inc/stm32f1xx_ll_bus.h **** #define LL_APB1_GRP1_PERIPH_TIM4           RCC_APB1ENR_TIM4EN
 144:Drivers/STM32F1xx_HAL_Driver/Inc/stm32f1xx_ll_bus.h **** #endif /*TIM4*/
 145:Drivers/STM32F1xx_HAL_Driver/Inc/stm32f1xx_ll_bus.h **** #if defined(TIM5)
 146:Drivers/STM32F1xx_HAL_Driver/Inc/stm32f1xx_ll_bus.h **** #define LL_APB1_GRP1_PERIPH_TIM5           RCC_APB1ENR_TIM5EN
 147:Drivers/STM32F1xx_HAL_Driver/Inc/stm32f1xx_ll_bus.h **** #endif /*TIM5*/
 148:Drivers/STM32F1xx_HAL_Driver/Inc/stm32f1xx_ll_bus.h **** #if defined(TIM6)
 149:Drivers/STM32F1xx_HAL_Driver/Inc/stm32f1xx_ll_bus.h **** #define LL_APB1_GRP1_PERIPH_TIM6           RCC_APB1ENR_TIM6EN
 150:Drivers/STM32F1xx_HAL_Driver/Inc/stm32f1xx_ll_bus.h **** #endif /*TIM6*/
 151:Drivers/STM32F1xx_HAL_Driver/Inc/stm32f1xx_ll_bus.h **** #if defined(TIM7)
 152:Drivers/STM32F1xx_HAL_Driver/Inc/stm32f1xx_ll_bus.h **** #define LL_APB1_GRP1_PERIPH_TIM7           RCC_APB1ENR_TIM7EN
 153:Drivers/STM32F1xx_HAL_Driver/Inc/stm32f1xx_ll_bus.h **** #endif /*TIM7*/
 154:Drivers/STM32F1xx_HAL_Driver/Inc/stm32f1xx_ll_bus.h **** #if defined(UART4)
 155:Drivers/STM32F1xx_HAL_Driver/Inc/stm32f1xx_ll_bus.h **** #define LL_APB1_GRP1_PERIPH_UART4          RCC_APB1ENR_UART4EN
 156:Drivers/STM32F1xx_HAL_Driver/Inc/stm32f1xx_ll_bus.h **** #endif /*UART4*/
 157:Drivers/STM32F1xx_HAL_Driver/Inc/stm32f1xx_ll_bus.h **** #if defined(UART5)
 158:Drivers/STM32F1xx_HAL_Driver/Inc/stm32f1xx_ll_bus.h **** #define LL_APB1_GRP1_PERIPH_UART5          RCC_APB1ENR_UART5EN
 159:Drivers/STM32F1xx_HAL_Driver/Inc/stm32f1xx_ll_bus.h **** #endif /*UART5*/
 160:Drivers/STM32F1xx_HAL_Driver/Inc/stm32f1xx_ll_bus.h **** #define LL_APB1_GRP1_PERIPH_USART2         RCC_APB1ENR_USART2EN
 161:Drivers/STM32F1xx_HAL_Driver/Inc/stm32f1xx_ll_bus.h **** #if defined(USART3)
 162:Drivers/STM32F1xx_HAL_Driver/Inc/stm32f1xx_ll_bus.h **** #define LL_APB1_GRP1_PERIPH_USART3         RCC_APB1ENR_USART3EN
 163:Drivers/STM32F1xx_HAL_Driver/Inc/stm32f1xx_ll_bus.h **** #endif /*USART3*/
 164:Drivers/STM32F1xx_HAL_Driver/Inc/stm32f1xx_ll_bus.h **** #if defined(USB)
 165:Drivers/STM32F1xx_HAL_Driver/Inc/stm32f1xx_ll_bus.h **** #define LL_APB1_GRP1_PERIPH_USB            RCC_APB1ENR_USBEN
 166:Drivers/STM32F1xx_HAL_Driver/Inc/stm32f1xx_ll_bus.h **** #endif /*USB*/
 167:Drivers/STM32F1xx_HAL_Driver/Inc/stm32f1xx_ll_bus.h **** #define LL_APB1_GRP1_PERIPH_WWDG           RCC_APB1ENR_WWDGEN
ARM GAS  /var/folders/m1/3lv6xmzs0mlckxs4mx90nfb40000gn/T//ccFDK2TW.s 			page 6


 168:Drivers/STM32F1xx_HAL_Driver/Inc/stm32f1xx_ll_bus.h **** /**
 169:Drivers/STM32F1xx_HAL_Driver/Inc/stm32f1xx_ll_bus.h ****   * @}
 170:Drivers/STM32F1xx_HAL_Driver/Inc/stm32f1xx_ll_bus.h ****   */
 171:Drivers/STM32F1xx_HAL_Driver/Inc/stm32f1xx_ll_bus.h **** 
 172:Drivers/STM32F1xx_HAL_Driver/Inc/stm32f1xx_ll_bus.h **** /** @defgroup BUS_LL_EC_APB2_GRP1_PERIPH  APB2 GRP1 PERIPH
 173:Drivers/STM32F1xx_HAL_Driver/Inc/stm32f1xx_ll_bus.h ****   * @{
 174:Drivers/STM32F1xx_HAL_Driver/Inc/stm32f1xx_ll_bus.h ****   */
 175:Drivers/STM32F1xx_HAL_Driver/Inc/stm32f1xx_ll_bus.h **** #define LL_APB2_GRP1_PERIPH_ALL            (uint32_t)0xFFFFFFFFU
 176:Drivers/STM32F1xx_HAL_Driver/Inc/stm32f1xx_ll_bus.h **** #define LL_APB2_GRP1_PERIPH_ADC1           RCC_APB2ENR_ADC1EN
 177:Drivers/STM32F1xx_HAL_Driver/Inc/stm32f1xx_ll_bus.h **** #if defined(ADC2)
 178:Drivers/STM32F1xx_HAL_Driver/Inc/stm32f1xx_ll_bus.h **** #define LL_APB2_GRP1_PERIPH_ADC2           RCC_APB2ENR_ADC2EN
 179:Drivers/STM32F1xx_HAL_Driver/Inc/stm32f1xx_ll_bus.h **** #endif /*ADC2*/
 180:Drivers/STM32F1xx_HAL_Driver/Inc/stm32f1xx_ll_bus.h **** #if defined(ADC3)
 181:Drivers/STM32F1xx_HAL_Driver/Inc/stm32f1xx_ll_bus.h **** #define LL_APB2_GRP1_PERIPH_ADC3           RCC_APB2ENR_ADC3EN
 182:Drivers/STM32F1xx_HAL_Driver/Inc/stm32f1xx_ll_bus.h **** #endif /*ADC3*/
 183:Drivers/STM32F1xx_HAL_Driver/Inc/stm32f1xx_ll_bus.h **** #define LL_APB2_GRP1_PERIPH_AFIO           RCC_APB2ENR_AFIOEN
 184:Drivers/STM32F1xx_HAL_Driver/Inc/stm32f1xx_ll_bus.h **** #define LL_APB2_GRP1_PERIPH_GPIOA          RCC_APB2ENR_IOPAEN
 185:Drivers/STM32F1xx_HAL_Driver/Inc/stm32f1xx_ll_bus.h **** #define LL_APB2_GRP1_PERIPH_GPIOB          RCC_APB2ENR_IOPBEN
 186:Drivers/STM32F1xx_HAL_Driver/Inc/stm32f1xx_ll_bus.h **** #define LL_APB2_GRP1_PERIPH_GPIOC          RCC_APB2ENR_IOPCEN
 187:Drivers/STM32F1xx_HAL_Driver/Inc/stm32f1xx_ll_bus.h **** #define LL_APB2_GRP1_PERIPH_GPIOD          RCC_APB2ENR_IOPDEN
 188:Drivers/STM32F1xx_HAL_Driver/Inc/stm32f1xx_ll_bus.h **** #if defined(GPIOE)
 189:Drivers/STM32F1xx_HAL_Driver/Inc/stm32f1xx_ll_bus.h **** #define LL_APB2_GRP1_PERIPH_GPIOE          RCC_APB2ENR_IOPEEN
 190:Drivers/STM32F1xx_HAL_Driver/Inc/stm32f1xx_ll_bus.h **** #endif /*GPIOE*/
 191:Drivers/STM32F1xx_HAL_Driver/Inc/stm32f1xx_ll_bus.h **** #if defined(GPIOF)
 192:Drivers/STM32F1xx_HAL_Driver/Inc/stm32f1xx_ll_bus.h **** #define LL_APB2_GRP1_PERIPH_GPIOF          RCC_APB2ENR_IOPFEN
 193:Drivers/STM32F1xx_HAL_Driver/Inc/stm32f1xx_ll_bus.h **** #endif /*GPIOF*/
 194:Drivers/STM32F1xx_HAL_Driver/Inc/stm32f1xx_ll_bus.h **** #if defined(GPIOG)
 195:Drivers/STM32F1xx_HAL_Driver/Inc/stm32f1xx_ll_bus.h **** #define LL_APB2_GRP1_PERIPH_GPIOG          RCC_APB2ENR_IOPGEN
 196:Drivers/STM32F1xx_HAL_Driver/Inc/stm32f1xx_ll_bus.h **** #endif /*GPIOG*/
 197:Drivers/STM32F1xx_HAL_Driver/Inc/stm32f1xx_ll_bus.h **** #define LL_APB2_GRP1_PERIPH_SPI1           RCC_APB2ENR_SPI1EN
 198:Drivers/STM32F1xx_HAL_Driver/Inc/stm32f1xx_ll_bus.h **** #if defined(TIM10)
 199:Drivers/STM32F1xx_HAL_Driver/Inc/stm32f1xx_ll_bus.h **** #define LL_APB2_GRP1_PERIPH_TIM10          RCC_APB2ENR_TIM10EN
 200:Drivers/STM32F1xx_HAL_Driver/Inc/stm32f1xx_ll_bus.h **** #endif /*TIM10*/
 201:Drivers/STM32F1xx_HAL_Driver/Inc/stm32f1xx_ll_bus.h **** #if defined(TIM11)
 202:Drivers/STM32F1xx_HAL_Driver/Inc/stm32f1xx_ll_bus.h **** #define LL_APB2_GRP1_PERIPH_TIM11          RCC_APB2ENR_TIM11EN
 203:Drivers/STM32F1xx_HAL_Driver/Inc/stm32f1xx_ll_bus.h **** #endif /*TIM11*/
 204:Drivers/STM32F1xx_HAL_Driver/Inc/stm32f1xx_ll_bus.h **** #if defined(TIM15)
 205:Drivers/STM32F1xx_HAL_Driver/Inc/stm32f1xx_ll_bus.h **** #define LL_APB2_GRP1_PERIPH_TIM15          RCC_APB2ENR_TIM15EN
 206:Drivers/STM32F1xx_HAL_Driver/Inc/stm32f1xx_ll_bus.h **** #endif /*TIM15*/
 207:Drivers/STM32F1xx_HAL_Driver/Inc/stm32f1xx_ll_bus.h **** #if defined(TIM16)
 208:Drivers/STM32F1xx_HAL_Driver/Inc/stm32f1xx_ll_bus.h **** #define LL_APB2_GRP1_PERIPH_TIM16          RCC_APB2ENR_TIM16EN
 209:Drivers/STM32F1xx_HAL_Driver/Inc/stm32f1xx_ll_bus.h **** #endif /*TIM16*/
 210:Drivers/STM32F1xx_HAL_Driver/Inc/stm32f1xx_ll_bus.h **** #if defined(TIM17)
 211:Drivers/STM32F1xx_HAL_Driver/Inc/stm32f1xx_ll_bus.h **** #define LL_APB2_GRP1_PERIPH_TIM17          RCC_APB2ENR_TIM17EN
 212:Drivers/STM32F1xx_HAL_Driver/Inc/stm32f1xx_ll_bus.h **** #endif /*TIM17*/
 213:Drivers/STM32F1xx_HAL_Driver/Inc/stm32f1xx_ll_bus.h **** #define LL_APB2_GRP1_PERIPH_TIM1           RCC_APB2ENR_TIM1EN
 214:Drivers/STM32F1xx_HAL_Driver/Inc/stm32f1xx_ll_bus.h **** #if defined(TIM8)
 215:Drivers/STM32F1xx_HAL_Driver/Inc/stm32f1xx_ll_bus.h **** #define LL_APB2_GRP1_PERIPH_TIM8           RCC_APB2ENR_TIM8EN
 216:Drivers/STM32F1xx_HAL_Driver/Inc/stm32f1xx_ll_bus.h **** #endif /*TIM8*/
 217:Drivers/STM32F1xx_HAL_Driver/Inc/stm32f1xx_ll_bus.h **** #if defined(TIM9)
 218:Drivers/STM32F1xx_HAL_Driver/Inc/stm32f1xx_ll_bus.h **** #define LL_APB2_GRP1_PERIPH_TIM9           RCC_APB2ENR_TIM9EN
 219:Drivers/STM32F1xx_HAL_Driver/Inc/stm32f1xx_ll_bus.h **** #endif /*TIM9*/
 220:Drivers/STM32F1xx_HAL_Driver/Inc/stm32f1xx_ll_bus.h **** #define LL_APB2_GRP1_PERIPH_USART1         RCC_APB2ENR_USART1EN
 221:Drivers/STM32F1xx_HAL_Driver/Inc/stm32f1xx_ll_bus.h **** /**
 222:Drivers/STM32F1xx_HAL_Driver/Inc/stm32f1xx_ll_bus.h ****   * @}
 223:Drivers/STM32F1xx_HAL_Driver/Inc/stm32f1xx_ll_bus.h ****   */
 224:Drivers/STM32F1xx_HAL_Driver/Inc/stm32f1xx_ll_bus.h **** 
ARM GAS  /var/folders/m1/3lv6xmzs0mlckxs4mx90nfb40000gn/T//ccFDK2TW.s 			page 7


 225:Drivers/STM32F1xx_HAL_Driver/Inc/stm32f1xx_ll_bus.h **** /**
 226:Drivers/STM32F1xx_HAL_Driver/Inc/stm32f1xx_ll_bus.h ****   * @}
 227:Drivers/STM32F1xx_HAL_Driver/Inc/stm32f1xx_ll_bus.h ****   */
 228:Drivers/STM32F1xx_HAL_Driver/Inc/stm32f1xx_ll_bus.h **** 
 229:Drivers/STM32F1xx_HAL_Driver/Inc/stm32f1xx_ll_bus.h **** /* Exported macro ------------------------------------------------------------*/
 230:Drivers/STM32F1xx_HAL_Driver/Inc/stm32f1xx_ll_bus.h **** 
 231:Drivers/STM32F1xx_HAL_Driver/Inc/stm32f1xx_ll_bus.h **** /* Exported functions --------------------------------------------------------*/
 232:Drivers/STM32F1xx_HAL_Driver/Inc/stm32f1xx_ll_bus.h **** /** @defgroup BUS_LL_Exported_Functions BUS Exported Functions
 233:Drivers/STM32F1xx_HAL_Driver/Inc/stm32f1xx_ll_bus.h ****   * @{
 234:Drivers/STM32F1xx_HAL_Driver/Inc/stm32f1xx_ll_bus.h ****   */
 235:Drivers/STM32F1xx_HAL_Driver/Inc/stm32f1xx_ll_bus.h **** 
 236:Drivers/STM32F1xx_HAL_Driver/Inc/stm32f1xx_ll_bus.h **** /** @defgroup BUS_LL_EF_AHB1 AHB1
 237:Drivers/STM32F1xx_HAL_Driver/Inc/stm32f1xx_ll_bus.h ****   * @{
 238:Drivers/STM32F1xx_HAL_Driver/Inc/stm32f1xx_ll_bus.h ****   */
 239:Drivers/STM32F1xx_HAL_Driver/Inc/stm32f1xx_ll_bus.h **** 
 240:Drivers/STM32F1xx_HAL_Driver/Inc/stm32f1xx_ll_bus.h **** /**
 241:Drivers/STM32F1xx_HAL_Driver/Inc/stm32f1xx_ll_bus.h ****   * @brief  Enable AHB1 peripherals clock.
 242:Drivers/STM32F1xx_HAL_Driver/Inc/stm32f1xx_ll_bus.h ****   * @rmtoll AHBENR       CRCEN         LL_AHB1_GRP1_EnableClock\n
 243:Drivers/STM32F1xx_HAL_Driver/Inc/stm32f1xx_ll_bus.h ****   *         AHBENR       DMA1EN        LL_AHB1_GRP1_EnableClock\n
 244:Drivers/STM32F1xx_HAL_Driver/Inc/stm32f1xx_ll_bus.h ****   *         AHBENR       DMA2EN        LL_AHB1_GRP1_EnableClock\n
 245:Drivers/STM32F1xx_HAL_Driver/Inc/stm32f1xx_ll_bus.h ****   *         AHBENR       ETHMACEN      LL_AHB1_GRP1_EnableClock\n
 246:Drivers/STM32F1xx_HAL_Driver/Inc/stm32f1xx_ll_bus.h ****   *         AHBENR       ETHMACRXEN    LL_AHB1_GRP1_EnableClock\n
 247:Drivers/STM32F1xx_HAL_Driver/Inc/stm32f1xx_ll_bus.h ****   *         AHBENR       ETHMACTXEN    LL_AHB1_GRP1_EnableClock\n
 248:Drivers/STM32F1xx_HAL_Driver/Inc/stm32f1xx_ll_bus.h ****   *         AHBENR       FLITFEN       LL_AHB1_GRP1_EnableClock\n
 249:Drivers/STM32F1xx_HAL_Driver/Inc/stm32f1xx_ll_bus.h ****   *         AHBENR       FSMCEN        LL_AHB1_GRP1_EnableClock\n
 250:Drivers/STM32F1xx_HAL_Driver/Inc/stm32f1xx_ll_bus.h ****   *         AHBENR       OTGFSEN       LL_AHB1_GRP1_EnableClock\n
 251:Drivers/STM32F1xx_HAL_Driver/Inc/stm32f1xx_ll_bus.h ****   *         AHBENR       SDIOEN        LL_AHB1_GRP1_EnableClock\n
 252:Drivers/STM32F1xx_HAL_Driver/Inc/stm32f1xx_ll_bus.h ****   *         AHBENR       SRAMEN        LL_AHB1_GRP1_EnableClock
 253:Drivers/STM32F1xx_HAL_Driver/Inc/stm32f1xx_ll_bus.h ****   * @param  Periphs This parameter can be a combination of the following values:
 254:Drivers/STM32F1xx_HAL_Driver/Inc/stm32f1xx_ll_bus.h ****   *         @arg @ref LL_AHB1_GRP1_PERIPH_CRC
 255:Drivers/STM32F1xx_HAL_Driver/Inc/stm32f1xx_ll_bus.h ****   *         @arg @ref LL_AHB1_GRP1_PERIPH_DMA1
 256:Drivers/STM32F1xx_HAL_Driver/Inc/stm32f1xx_ll_bus.h ****   *         @arg @ref LL_AHB1_GRP1_PERIPH_DMA2 (*)
 257:Drivers/STM32F1xx_HAL_Driver/Inc/stm32f1xx_ll_bus.h ****   *         @arg @ref LL_AHB1_GRP1_PERIPH_ETHMAC (*)
 258:Drivers/STM32F1xx_HAL_Driver/Inc/stm32f1xx_ll_bus.h ****   *         @arg @ref LL_AHB1_GRP1_PERIPH_ETHMACRX (*)
 259:Drivers/STM32F1xx_HAL_Driver/Inc/stm32f1xx_ll_bus.h ****   *         @arg @ref LL_AHB1_GRP1_PERIPH_ETHMACTX (*)
 260:Drivers/STM32F1xx_HAL_Driver/Inc/stm32f1xx_ll_bus.h ****   *         @arg @ref LL_AHB1_GRP1_PERIPH_FLASH
 261:Drivers/STM32F1xx_HAL_Driver/Inc/stm32f1xx_ll_bus.h ****   *         @arg @ref LL_AHB1_GRP1_PERIPH_FSMC (*)
 262:Drivers/STM32F1xx_HAL_Driver/Inc/stm32f1xx_ll_bus.h ****   *         @arg @ref LL_AHB1_GRP1_PERIPH_OTGFS (*)
 263:Drivers/STM32F1xx_HAL_Driver/Inc/stm32f1xx_ll_bus.h ****   *         @arg @ref LL_AHB1_GRP1_PERIPH_SDIO (*)
 264:Drivers/STM32F1xx_HAL_Driver/Inc/stm32f1xx_ll_bus.h ****   *         @arg @ref LL_AHB1_GRP1_PERIPH_SRAM
 265:Drivers/STM32F1xx_HAL_Driver/Inc/stm32f1xx_ll_bus.h ****   *
 266:Drivers/STM32F1xx_HAL_Driver/Inc/stm32f1xx_ll_bus.h ****   *         (*) value not defined in all devices.
 267:Drivers/STM32F1xx_HAL_Driver/Inc/stm32f1xx_ll_bus.h ****   * @retval None
 268:Drivers/STM32F1xx_HAL_Driver/Inc/stm32f1xx_ll_bus.h **** */
 269:Drivers/STM32F1xx_HAL_Driver/Inc/stm32f1xx_ll_bus.h **** __STATIC_INLINE void LL_AHB1_GRP1_EnableClock(uint32_t Periphs)
 270:Drivers/STM32F1xx_HAL_Driver/Inc/stm32f1xx_ll_bus.h **** {
 271:Drivers/STM32F1xx_HAL_Driver/Inc/stm32f1xx_ll_bus.h ****   __IO uint32_t tmpreg;
 272:Drivers/STM32F1xx_HAL_Driver/Inc/stm32f1xx_ll_bus.h ****   SET_BIT(RCC->AHBENR, Periphs);
 273:Drivers/STM32F1xx_HAL_Driver/Inc/stm32f1xx_ll_bus.h ****   /* Delay after an RCC peripheral clock enabling */
 274:Drivers/STM32F1xx_HAL_Driver/Inc/stm32f1xx_ll_bus.h ****   tmpreg = READ_BIT(RCC->AHBENR, Periphs);
 275:Drivers/STM32F1xx_HAL_Driver/Inc/stm32f1xx_ll_bus.h ****   (void)tmpreg;
 276:Drivers/STM32F1xx_HAL_Driver/Inc/stm32f1xx_ll_bus.h **** }
 277:Drivers/STM32F1xx_HAL_Driver/Inc/stm32f1xx_ll_bus.h **** 
 278:Drivers/STM32F1xx_HAL_Driver/Inc/stm32f1xx_ll_bus.h **** /**
 279:Drivers/STM32F1xx_HAL_Driver/Inc/stm32f1xx_ll_bus.h ****   * @brief  Check if AHB1 peripheral clock is enabled or not
 280:Drivers/STM32F1xx_HAL_Driver/Inc/stm32f1xx_ll_bus.h ****   * @rmtoll AHBENR       CRCEN         LL_AHB1_GRP1_IsEnabledClock\n
 281:Drivers/STM32F1xx_HAL_Driver/Inc/stm32f1xx_ll_bus.h ****   *         AHBENR       DMA1EN        LL_AHB1_GRP1_IsEnabledClock\n
ARM GAS  /var/folders/m1/3lv6xmzs0mlckxs4mx90nfb40000gn/T//ccFDK2TW.s 			page 8


 282:Drivers/STM32F1xx_HAL_Driver/Inc/stm32f1xx_ll_bus.h ****   *         AHBENR       DMA2EN        LL_AHB1_GRP1_IsEnabledClock\n
 283:Drivers/STM32F1xx_HAL_Driver/Inc/stm32f1xx_ll_bus.h ****   *         AHBENR       ETHMACEN      LL_AHB1_GRP1_IsEnabledClock\n
 284:Drivers/STM32F1xx_HAL_Driver/Inc/stm32f1xx_ll_bus.h ****   *         AHBENR       ETHMACRXEN    LL_AHB1_GRP1_IsEnabledClock\n
 285:Drivers/STM32F1xx_HAL_Driver/Inc/stm32f1xx_ll_bus.h ****   *         AHBENR       ETHMACTXEN    LL_AHB1_GRP1_IsEnabledClock\n
 286:Drivers/STM32F1xx_HAL_Driver/Inc/stm32f1xx_ll_bus.h ****   *         AHBENR       FLITFEN       LL_AHB1_GRP1_IsEnabledClock\n
 287:Drivers/STM32F1xx_HAL_Driver/Inc/stm32f1xx_ll_bus.h ****   *         AHBENR       FSMCEN        LL_AHB1_GRP1_IsEnabledClock\n
 288:Drivers/STM32F1xx_HAL_Driver/Inc/stm32f1xx_ll_bus.h ****   *         AHBENR       OTGFSEN       LL_AHB1_GRP1_IsEnabledClock\n
 289:Drivers/STM32F1xx_HAL_Driver/Inc/stm32f1xx_ll_bus.h ****   *         AHBENR       SDIOEN        LL_AHB1_GRP1_IsEnabledClock\n
 290:Drivers/STM32F1xx_HAL_Driver/Inc/stm32f1xx_ll_bus.h ****   *         AHBENR       SRAMEN        LL_AHB1_GRP1_IsEnabledClock
 291:Drivers/STM32F1xx_HAL_Driver/Inc/stm32f1xx_ll_bus.h ****   * @param  Periphs This parameter can be a combination of the following values:
 292:Drivers/STM32F1xx_HAL_Driver/Inc/stm32f1xx_ll_bus.h ****   *         @arg @ref LL_AHB1_GRP1_PERIPH_CRC
 293:Drivers/STM32F1xx_HAL_Driver/Inc/stm32f1xx_ll_bus.h ****   *         @arg @ref LL_AHB1_GRP1_PERIPH_DMA1
 294:Drivers/STM32F1xx_HAL_Driver/Inc/stm32f1xx_ll_bus.h ****   *         @arg @ref LL_AHB1_GRP1_PERIPH_DMA2 (*)
 295:Drivers/STM32F1xx_HAL_Driver/Inc/stm32f1xx_ll_bus.h ****   *         @arg @ref LL_AHB1_GRP1_PERIPH_ETHMAC (*)
 296:Drivers/STM32F1xx_HAL_Driver/Inc/stm32f1xx_ll_bus.h ****   *         @arg @ref LL_AHB1_GRP1_PERIPH_ETHMACRX (*)
 297:Drivers/STM32F1xx_HAL_Driver/Inc/stm32f1xx_ll_bus.h ****   *         @arg @ref LL_AHB1_GRP1_PERIPH_ETHMACTX (*)
 298:Drivers/STM32F1xx_HAL_Driver/Inc/stm32f1xx_ll_bus.h ****   *         @arg @ref LL_AHB1_GRP1_PERIPH_FLASH
 299:Drivers/STM32F1xx_HAL_Driver/Inc/stm32f1xx_ll_bus.h ****   *         @arg @ref LL_AHB1_GRP1_PERIPH_FSMC (*)
 300:Drivers/STM32F1xx_HAL_Driver/Inc/stm32f1xx_ll_bus.h ****   *         @arg @ref LL_AHB1_GRP1_PERIPH_OTGFS (*)
 301:Drivers/STM32F1xx_HAL_Driver/Inc/stm32f1xx_ll_bus.h ****   *         @arg @ref LL_AHB1_GRP1_PERIPH_SDIO (*)
 302:Drivers/STM32F1xx_HAL_Driver/Inc/stm32f1xx_ll_bus.h ****   *         @arg @ref LL_AHB1_GRP1_PERIPH_SRAM
 303:Drivers/STM32F1xx_HAL_Driver/Inc/stm32f1xx_ll_bus.h ****   *
 304:Drivers/STM32F1xx_HAL_Driver/Inc/stm32f1xx_ll_bus.h ****   *         (*) value not defined in all devices.
 305:Drivers/STM32F1xx_HAL_Driver/Inc/stm32f1xx_ll_bus.h ****   * @retval State of Periphs (1 or 0).
 306:Drivers/STM32F1xx_HAL_Driver/Inc/stm32f1xx_ll_bus.h **** */
 307:Drivers/STM32F1xx_HAL_Driver/Inc/stm32f1xx_ll_bus.h **** __STATIC_INLINE uint32_t LL_AHB1_GRP1_IsEnabledClock(uint32_t Periphs)
 308:Drivers/STM32F1xx_HAL_Driver/Inc/stm32f1xx_ll_bus.h **** {
 309:Drivers/STM32F1xx_HAL_Driver/Inc/stm32f1xx_ll_bus.h ****   return (READ_BIT(RCC->AHBENR, Periphs) == Periphs);
 310:Drivers/STM32F1xx_HAL_Driver/Inc/stm32f1xx_ll_bus.h **** }
 311:Drivers/STM32F1xx_HAL_Driver/Inc/stm32f1xx_ll_bus.h **** 
 312:Drivers/STM32F1xx_HAL_Driver/Inc/stm32f1xx_ll_bus.h **** /**
 313:Drivers/STM32F1xx_HAL_Driver/Inc/stm32f1xx_ll_bus.h ****   * @brief  Disable AHB1 peripherals clock.
 314:Drivers/STM32F1xx_HAL_Driver/Inc/stm32f1xx_ll_bus.h ****   * @rmtoll AHBENR       CRCEN         LL_AHB1_GRP1_DisableClock\n
 315:Drivers/STM32F1xx_HAL_Driver/Inc/stm32f1xx_ll_bus.h ****   *         AHBENR       DMA1EN        LL_AHB1_GRP1_DisableClock\n
 316:Drivers/STM32F1xx_HAL_Driver/Inc/stm32f1xx_ll_bus.h ****   *         AHBENR       DMA2EN        LL_AHB1_GRP1_DisableClock\n
 317:Drivers/STM32F1xx_HAL_Driver/Inc/stm32f1xx_ll_bus.h ****   *         AHBENR       ETHMACEN      LL_AHB1_GRP1_DisableClock\n
 318:Drivers/STM32F1xx_HAL_Driver/Inc/stm32f1xx_ll_bus.h ****   *         AHBENR       ETHMACRXEN    LL_AHB1_GRP1_DisableClock\n
 319:Drivers/STM32F1xx_HAL_Driver/Inc/stm32f1xx_ll_bus.h ****   *         AHBENR       ETHMACTXEN    LL_AHB1_GRP1_DisableClock\n
 320:Drivers/STM32F1xx_HAL_Driver/Inc/stm32f1xx_ll_bus.h ****   *         AHBENR       FLITFEN       LL_AHB1_GRP1_DisableClock\n
 321:Drivers/STM32F1xx_HAL_Driver/Inc/stm32f1xx_ll_bus.h ****   *         AHBENR       FSMCEN        LL_AHB1_GRP1_DisableClock\n
 322:Drivers/STM32F1xx_HAL_Driver/Inc/stm32f1xx_ll_bus.h ****   *         AHBENR       OTGFSEN       LL_AHB1_GRP1_DisableClock\n
 323:Drivers/STM32F1xx_HAL_Driver/Inc/stm32f1xx_ll_bus.h ****   *         AHBENR       SDIOEN        LL_AHB1_GRP1_DisableClock\n
 324:Drivers/STM32F1xx_HAL_Driver/Inc/stm32f1xx_ll_bus.h ****   *         AHBENR       SRAMEN        LL_AHB1_GRP1_DisableClock
 325:Drivers/STM32F1xx_HAL_Driver/Inc/stm32f1xx_ll_bus.h ****   * @param  Periphs This parameter can be a combination of the following values:
 326:Drivers/STM32F1xx_HAL_Driver/Inc/stm32f1xx_ll_bus.h ****   *         @arg @ref LL_AHB1_GRP1_PERIPH_CRC
 327:Drivers/STM32F1xx_HAL_Driver/Inc/stm32f1xx_ll_bus.h ****   *         @arg @ref LL_AHB1_GRP1_PERIPH_DMA1
 328:Drivers/STM32F1xx_HAL_Driver/Inc/stm32f1xx_ll_bus.h ****   *         @arg @ref LL_AHB1_GRP1_PERIPH_DMA2 (*)
 329:Drivers/STM32F1xx_HAL_Driver/Inc/stm32f1xx_ll_bus.h ****   *         @arg @ref LL_AHB1_GRP1_PERIPH_ETHMAC (*)
 330:Drivers/STM32F1xx_HAL_Driver/Inc/stm32f1xx_ll_bus.h ****   *         @arg @ref LL_AHB1_GRP1_PERIPH_ETHMACRX (*)
 331:Drivers/STM32F1xx_HAL_Driver/Inc/stm32f1xx_ll_bus.h ****   *         @arg @ref LL_AHB1_GRP1_PERIPH_ETHMACTX (*)
 332:Drivers/STM32F1xx_HAL_Driver/Inc/stm32f1xx_ll_bus.h ****   *         @arg @ref LL_AHB1_GRP1_PERIPH_FLASH
 333:Drivers/STM32F1xx_HAL_Driver/Inc/stm32f1xx_ll_bus.h ****   *         @arg @ref LL_AHB1_GRP1_PERIPH_FSMC (*)
 334:Drivers/STM32F1xx_HAL_Driver/Inc/stm32f1xx_ll_bus.h ****   *         @arg @ref LL_AHB1_GRP1_PERIPH_OTGFS (*)
 335:Drivers/STM32F1xx_HAL_Driver/Inc/stm32f1xx_ll_bus.h ****   *         @arg @ref LL_AHB1_GRP1_PERIPH_SDIO (*)
 336:Drivers/STM32F1xx_HAL_Driver/Inc/stm32f1xx_ll_bus.h ****   *         @arg @ref LL_AHB1_GRP1_PERIPH_SRAM
 337:Drivers/STM32F1xx_HAL_Driver/Inc/stm32f1xx_ll_bus.h ****   *
 338:Drivers/STM32F1xx_HAL_Driver/Inc/stm32f1xx_ll_bus.h ****   *         (*) value not defined in all devices.
ARM GAS  /var/folders/m1/3lv6xmzs0mlckxs4mx90nfb40000gn/T//ccFDK2TW.s 			page 9


 339:Drivers/STM32F1xx_HAL_Driver/Inc/stm32f1xx_ll_bus.h ****   * @retval None
 340:Drivers/STM32F1xx_HAL_Driver/Inc/stm32f1xx_ll_bus.h **** */
 341:Drivers/STM32F1xx_HAL_Driver/Inc/stm32f1xx_ll_bus.h **** __STATIC_INLINE void LL_AHB1_GRP1_DisableClock(uint32_t Periphs)
 342:Drivers/STM32F1xx_HAL_Driver/Inc/stm32f1xx_ll_bus.h **** {
 343:Drivers/STM32F1xx_HAL_Driver/Inc/stm32f1xx_ll_bus.h ****   CLEAR_BIT(RCC->AHBENR, Periphs);
 344:Drivers/STM32F1xx_HAL_Driver/Inc/stm32f1xx_ll_bus.h **** }
 345:Drivers/STM32F1xx_HAL_Driver/Inc/stm32f1xx_ll_bus.h **** 
 346:Drivers/STM32F1xx_HAL_Driver/Inc/stm32f1xx_ll_bus.h **** #if defined(RCC_AHBRSTR_SUPPORT)
 347:Drivers/STM32F1xx_HAL_Driver/Inc/stm32f1xx_ll_bus.h **** /**
 348:Drivers/STM32F1xx_HAL_Driver/Inc/stm32f1xx_ll_bus.h ****   * @brief  Force AHB1 peripherals reset.
 349:Drivers/STM32F1xx_HAL_Driver/Inc/stm32f1xx_ll_bus.h ****   * @rmtoll AHBRSTR      ETHMACRST     LL_AHB1_GRP1_ForceReset\n
 350:Drivers/STM32F1xx_HAL_Driver/Inc/stm32f1xx_ll_bus.h ****   *         AHBRSTR      OTGFSRST      LL_AHB1_GRP1_ForceReset
 351:Drivers/STM32F1xx_HAL_Driver/Inc/stm32f1xx_ll_bus.h ****   * @param  Periphs This parameter can be a combination of the following values:
 352:Drivers/STM32F1xx_HAL_Driver/Inc/stm32f1xx_ll_bus.h ****   *         @arg @ref LL_AHB1_GRP1_PERIPH_ALL
 353:Drivers/STM32F1xx_HAL_Driver/Inc/stm32f1xx_ll_bus.h ****   *         @arg @ref LL_AHB1_GRP1_PERIPH_ETHMAC (*)
 354:Drivers/STM32F1xx_HAL_Driver/Inc/stm32f1xx_ll_bus.h ****   *         @arg @ref LL_AHB1_GRP1_PERIPH_OTGFS (*)
 355:Drivers/STM32F1xx_HAL_Driver/Inc/stm32f1xx_ll_bus.h ****   *
 356:Drivers/STM32F1xx_HAL_Driver/Inc/stm32f1xx_ll_bus.h ****   *         (*) value not defined in all devices.
 357:Drivers/STM32F1xx_HAL_Driver/Inc/stm32f1xx_ll_bus.h ****   * @retval None
 358:Drivers/STM32F1xx_HAL_Driver/Inc/stm32f1xx_ll_bus.h **** */
 359:Drivers/STM32F1xx_HAL_Driver/Inc/stm32f1xx_ll_bus.h **** __STATIC_INLINE void LL_AHB1_GRP1_ForceReset(uint32_t Periphs)
 360:Drivers/STM32F1xx_HAL_Driver/Inc/stm32f1xx_ll_bus.h **** {
 361:Drivers/STM32F1xx_HAL_Driver/Inc/stm32f1xx_ll_bus.h ****   SET_BIT(RCC->AHBRSTR, Periphs);
 362:Drivers/STM32F1xx_HAL_Driver/Inc/stm32f1xx_ll_bus.h **** }
 363:Drivers/STM32F1xx_HAL_Driver/Inc/stm32f1xx_ll_bus.h **** 
 364:Drivers/STM32F1xx_HAL_Driver/Inc/stm32f1xx_ll_bus.h **** /**
 365:Drivers/STM32F1xx_HAL_Driver/Inc/stm32f1xx_ll_bus.h ****   * @brief  Release AHB1 peripherals reset.
 366:Drivers/STM32F1xx_HAL_Driver/Inc/stm32f1xx_ll_bus.h ****   * @rmtoll AHBRSTR      ETHMACRST     LL_AHB1_GRP1_ReleaseReset\n
 367:Drivers/STM32F1xx_HAL_Driver/Inc/stm32f1xx_ll_bus.h ****   *         AHBRSTR      OTGFSRST      LL_AHB1_GRP1_ReleaseReset
 368:Drivers/STM32F1xx_HAL_Driver/Inc/stm32f1xx_ll_bus.h ****   * @param  Periphs This parameter can be a combination of the following values:
 369:Drivers/STM32F1xx_HAL_Driver/Inc/stm32f1xx_ll_bus.h ****   *         @arg @ref LL_AHB1_GRP1_PERIPH_ALL
 370:Drivers/STM32F1xx_HAL_Driver/Inc/stm32f1xx_ll_bus.h ****   *         @arg @ref LL_AHB1_GRP1_PERIPH_ETHMAC (*)
 371:Drivers/STM32F1xx_HAL_Driver/Inc/stm32f1xx_ll_bus.h ****   *         @arg @ref LL_AHB1_GRP1_PERIPH_OTGFS (*)
 372:Drivers/STM32F1xx_HAL_Driver/Inc/stm32f1xx_ll_bus.h ****   *
 373:Drivers/STM32F1xx_HAL_Driver/Inc/stm32f1xx_ll_bus.h ****   *         (*) value not defined in all devices.
 374:Drivers/STM32F1xx_HAL_Driver/Inc/stm32f1xx_ll_bus.h ****   * @retval None
 375:Drivers/STM32F1xx_HAL_Driver/Inc/stm32f1xx_ll_bus.h **** */
 376:Drivers/STM32F1xx_HAL_Driver/Inc/stm32f1xx_ll_bus.h **** __STATIC_INLINE void LL_AHB1_GRP1_ReleaseReset(uint32_t Periphs)
 377:Drivers/STM32F1xx_HAL_Driver/Inc/stm32f1xx_ll_bus.h **** {
 378:Drivers/STM32F1xx_HAL_Driver/Inc/stm32f1xx_ll_bus.h ****   CLEAR_BIT(RCC->AHBRSTR, Periphs);
 379:Drivers/STM32F1xx_HAL_Driver/Inc/stm32f1xx_ll_bus.h **** }
 380:Drivers/STM32F1xx_HAL_Driver/Inc/stm32f1xx_ll_bus.h **** #endif /* RCC_AHBRSTR_SUPPORT */
 381:Drivers/STM32F1xx_HAL_Driver/Inc/stm32f1xx_ll_bus.h **** 
 382:Drivers/STM32F1xx_HAL_Driver/Inc/stm32f1xx_ll_bus.h **** /**
 383:Drivers/STM32F1xx_HAL_Driver/Inc/stm32f1xx_ll_bus.h ****   * @}
 384:Drivers/STM32F1xx_HAL_Driver/Inc/stm32f1xx_ll_bus.h ****   */
 385:Drivers/STM32F1xx_HAL_Driver/Inc/stm32f1xx_ll_bus.h **** 
 386:Drivers/STM32F1xx_HAL_Driver/Inc/stm32f1xx_ll_bus.h **** /** @defgroup BUS_LL_EF_APB1 APB1
 387:Drivers/STM32F1xx_HAL_Driver/Inc/stm32f1xx_ll_bus.h ****   * @{
 388:Drivers/STM32F1xx_HAL_Driver/Inc/stm32f1xx_ll_bus.h ****   */
 389:Drivers/STM32F1xx_HAL_Driver/Inc/stm32f1xx_ll_bus.h **** 
 390:Drivers/STM32F1xx_HAL_Driver/Inc/stm32f1xx_ll_bus.h **** /**
 391:Drivers/STM32F1xx_HAL_Driver/Inc/stm32f1xx_ll_bus.h ****   * @brief  Enable APB1 peripherals clock.
 392:Drivers/STM32F1xx_HAL_Driver/Inc/stm32f1xx_ll_bus.h ****   * @rmtoll APB1ENR      BKPEN         LL_APB1_GRP1_EnableClock\n
 393:Drivers/STM32F1xx_HAL_Driver/Inc/stm32f1xx_ll_bus.h ****   *         APB1ENR      CAN1EN        LL_APB1_GRP1_EnableClock\n
 394:Drivers/STM32F1xx_HAL_Driver/Inc/stm32f1xx_ll_bus.h ****   *         APB1ENR      CAN2EN        LL_APB1_GRP1_EnableClock\n
 395:Drivers/STM32F1xx_HAL_Driver/Inc/stm32f1xx_ll_bus.h ****   *         APB1ENR      CECEN         LL_APB1_GRP1_EnableClock\n
ARM GAS  /var/folders/m1/3lv6xmzs0mlckxs4mx90nfb40000gn/T//ccFDK2TW.s 			page 10


 396:Drivers/STM32F1xx_HAL_Driver/Inc/stm32f1xx_ll_bus.h ****   *         APB1ENR      DACEN         LL_APB1_GRP1_EnableClock\n
 397:Drivers/STM32F1xx_HAL_Driver/Inc/stm32f1xx_ll_bus.h ****   *         APB1ENR      I2C1EN        LL_APB1_GRP1_EnableClock\n
 398:Drivers/STM32F1xx_HAL_Driver/Inc/stm32f1xx_ll_bus.h ****   *         APB1ENR      I2C2EN        LL_APB1_GRP1_EnableClock\n
 399:Drivers/STM32F1xx_HAL_Driver/Inc/stm32f1xx_ll_bus.h ****   *         APB1ENR      PWREN         LL_APB1_GRP1_EnableClock\n
 400:Drivers/STM32F1xx_HAL_Driver/Inc/stm32f1xx_ll_bus.h ****   *         APB1ENR      SPI2EN        LL_APB1_GRP1_EnableClock\n
 401:Drivers/STM32F1xx_HAL_Driver/Inc/stm32f1xx_ll_bus.h ****   *         APB1ENR      SPI3EN        LL_APB1_GRP1_EnableClock\n
 402:Drivers/STM32F1xx_HAL_Driver/Inc/stm32f1xx_ll_bus.h ****   *         APB1ENR      TIM12EN       LL_APB1_GRP1_EnableClock\n
 403:Drivers/STM32F1xx_HAL_Driver/Inc/stm32f1xx_ll_bus.h ****   *         APB1ENR      TIM13EN       LL_APB1_GRP1_EnableClock\n
 404:Drivers/STM32F1xx_HAL_Driver/Inc/stm32f1xx_ll_bus.h ****   *         APB1ENR      TIM14EN       LL_APB1_GRP1_EnableClock\n
 405:Drivers/STM32F1xx_HAL_Driver/Inc/stm32f1xx_ll_bus.h ****   *         APB1ENR      TIM2EN        LL_APB1_GRP1_EnableClock\n
 406:Drivers/STM32F1xx_HAL_Driver/Inc/stm32f1xx_ll_bus.h ****   *         APB1ENR      TIM3EN        LL_APB1_GRP1_EnableClock\n
 407:Drivers/STM32F1xx_HAL_Driver/Inc/stm32f1xx_ll_bus.h ****   *         APB1ENR      TIM4EN        LL_APB1_GRP1_EnableClock\n
 408:Drivers/STM32F1xx_HAL_Driver/Inc/stm32f1xx_ll_bus.h ****   *         APB1ENR      TIM5EN        LL_APB1_GRP1_EnableClock\n
 409:Drivers/STM32F1xx_HAL_Driver/Inc/stm32f1xx_ll_bus.h ****   *         APB1ENR      TIM6EN        LL_APB1_GRP1_EnableClock\n
 410:Drivers/STM32F1xx_HAL_Driver/Inc/stm32f1xx_ll_bus.h ****   *         APB1ENR      TIM7EN        LL_APB1_GRP1_EnableClock\n
 411:Drivers/STM32F1xx_HAL_Driver/Inc/stm32f1xx_ll_bus.h ****   *         APB1ENR      UART4EN       LL_APB1_GRP1_EnableClock\n
 412:Drivers/STM32F1xx_HAL_Driver/Inc/stm32f1xx_ll_bus.h ****   *         APB1ENR      UART5EN       LL_APB1_GRP1_EnableClock\n
 413:Drivers/STM32F1xx_HAL_Driver/Inc/stm32f1xx_ll_bus.h ****   *         APB1ENR      USART2EN      LL_APB1_GRP1_EnableClock\n
 414:Drivers/STM32F1xx_HAL_Driver/Inc/stm32f1xx_ll_bus.h ****   *         APB1ENR      USART3EN      LL_APB1_GRP1_EnableClock\n
 415:Drivers/STM32F1xx_HAL_Driver/Inc/stm32f1xx_ll_bus.h ****   *         APB1ENR      USBEN         LL_APB1_GRP1_EnableClock\n
 416:Drivers/STM32F1xx_HAL_Driver/Inc/stm32f1xx_ll_bus.h ****   *         APB1ENR      WWDGEN        LL_APB1_GRP1_EnableClock
 417:Drivers/STM32F1xx_HAL_Driver/Inc/stm32f1xx_ll_bus.h ****   * @param  Periphs This parameter can be a combination of the following values:
 418:Drivers/STM32F1xx_HAL_Driver/Inc/stm32f1xx_ll_bus.h ****   *         @arg @ref LL_APB1_GRP1_PERIPH_BKP
 419:Drivers/STM32F1xx_HAL_Driver/Inc/stm32f1xx_ll_bus.h ****   *         @arg @ref LL_APB1_GRP1_PERIPH_CAN1 (*)
 420:Drivers/STM32F1xx_HAL_Driver/Inc/stm32f1xx_ll_bus.h ****   *         @arg @ref LL_APB1_GRP1_PERIPH_CAN2 (*)
 421:Drivers/STM32F1xx_HAL_Driver/Inc/stm32f1xx_ll_bus.h ****   *         @arg @ref LL_APB1_GRP1_PERIPH_CEC (*)
 422:Drivers/STM32F1xx_HAL_Driver/Inc/stm32f1xx_ll_bus.h ****   *         @arg @ref LL_APB1_GRP1_PERIPH_DAC1 (*)
 423:Drivers/STM32F1xx_HAL_Driver/Inc/stm32f1xx_ll_bus.h ****   *         @arg @ref LL_APB1_GRP1_PERIPH_I2C1
 424:Drivers/STM32F1xx_HAL_Driver/Inc/stm32f1xx_ll_bus.h ****   *         @arg @ref LL_APB1_GRP1_PERIPH_I2C2 (*)
 425:Drivers/STM32F1xx_HAL_Driver/Inc/stm32f1xx_ll_bus.h ****   *         @arg @ref LL_APB1_GRP1_PERIPH_PWR
 426:Drivers/STM32F1xx_HAL_Driver/Inc/stm32f1xx_ll_bus.h ****   *         @arg @ref LL_APB1_GRP1_PERIPH_SPI2 (*)
 427:Drivers/STM32F1xx_HAL_Driver/Inc/stm32f1xx_ll_bus.h ****   *         @arg @ref LL_APB1_GRP1_PERIPH_SPI3 (*)
 428:Drivers/STM32F1xx_HAL_Driver/Inc/stm32f1xx_ll_bus.h ****   *         @arg @ref LL_APB1_GRP1_PERIPH_TIM12 (*)
 429:Drivers/STM32F1xx_HAL_Driver/Inc/stm32f1xx_ll_bus.h ****   *         @arg @ref LL_APB1_GRP1_PERIPH_TIM13 (*)
 430:Drivers/STM32F1xx_HAL_Driver/Inc/stm32f1xx_ll_bus.h ****   *         @arg @ref LL_APB1_GRP1_PERIPH_TIM14 (*)
 431:Drivers/STM32F1xx_HAL_Driver/Inc/stm32f1xx_ll_bus.h ****   *         @arg @ref LL_APB1_GRP1_PERIPH_TIM2
 432:Drivers/STM32F1xx_HAL_Driver/Inc/stm32f1xx_ll_bus.h ****   *         @arg @ref LL_APB1_GRP1_PERIPH_TIM3
 433:Drivers/STM32F1xx_HAL_Driver/Inc/stm32f1xx_ll_bus.h ****   *         @arg @ref LL_APB1_GRP1_PERIPH_TIM4 (*)
 434:Drivers/STM32F1xx_HAL_Driver/Inc/stm32f1xx_ll_bus.h ****   *         @arg @ref LL_APB1_GRP1_PERIPH_TIM5 (*)
 435:Drivers/STM32F1xx_HAL_Driver/Inc/stm32f1xx_ll_bus.h ****   *         @arg @ref LL_APB1_GRP1_PERIPH_TIM6 (*)
 436:Drivers/STM32F1xx_HAL_Driver/Inc/stm32f1xx_ll_bus.h ****   *         @arg @ref LL_APB1_GRP1_PERIPH_TIM7 (*)
 437:Drivers/STM32F1xx_HAL_Driver/Inc/stm32f1xx_ll_bus.h ****   *         @arg @ref LL_APB1_GRP1_PERIPH_UART4 (*)
 438:Drivers/STM32F1xx_HAL_Driver/Inc/stm32f1xx_ll_bus.h ****   *         @arg @ref LL_APB1_GRP1_PERIPH_UART5 (*)
 439:Drivers/STM32F1xx_HAL_Driver/Inc/stm32f1xx_ll_bus.h ****   *         @arg @ref LL_APB1_GRP1_PERIPH_USART2
 440:Drivers/STM32F1xx_HAL_Driver/Inc/stm32f1xx_ll_bus.h ****   *         @arg @ref LL_APB1_GRP1_PERIPH_USART3 (*)
 441:Drivers/STM32F1xx_HAL_Driver/Inc/stm32f1xx_ll_bus.h ****   *         @arg @ref LL_APB1_GRP1_PERIPH_USB (*)
 442:Drivers/STM32F1xx_HAL_Driver/Inc/stm32f1xx_ll_bus.h ****   *         @arg @ref LL_APB1_GRP1_PERIPH_WWDG
 443:Drivers/STM32F1xx_HAL_Driver/Inc/stm32f1xx_ll_bus.h ****   *
 444:Drivers/STM32F1xx_HAL_Driver/Inc/stm32f1xx_ll_bus.h ****   *         (*) value not defined in all devices.
 445:Drivers/STM32F1xx_HAL_Driver/Inc/stm32f1xx_ll_bus.h ****   * @retval None
 446:Drivers/STM32F1xx_HAL_Driver/Inc/stm32f1xx_ll_bus.h **** */
 447:Drivers/STM32F1xx_HAL_Driver/Inc/stm32f1xx_ll_bus.h **** __STATIC_INLINE void LL_APB1_GRP1_EnableClock(uint32_t Periphs)
 448:Drivers/STM32F1xx_HAL_Driver/Inc/stm32f1xx_ll_bus.h **** {
 449:Drivers/STM32F1xx_HAL_Driver/Inc/stm32f1xx_ll_bus.h ****   __IO uint32_t tmpreg;
 450:Drivers/STM32F1xx_HAL_Driver/Inc/stm32f1xx_ll_bus.h ****   SET_BIT(RCC->APB1ENR, Periphs);
 451:Drivers/STM32F1xx_HAL_Driver/Inc/stm32f1xx_ll_bus.h ****   /* Delay after an RCC peripheral clock enabling */
 452:Drivers/STM32F1xx_HAL_Driver/Inc/stm32f1xx_ll_bus.h ****   tmpreg = READ_BIT(RCC->APB1ENR, Periphs);
ARM GAS  /var/folders/m1/3lv6xmzs0mlckxs4mx90nfb40000gn/T//ccFDK2TW.s 			page 11


 453:Drivers/STM32F1xx_HAL_Driver/Inc/stm32f1xx_ll_bus.h ****   (void)tmpreg;
 454:Drivers/STM32F1xx_HAL_Driver/Inc/stm32f1xx_ll_bus.h **** }
 455:Drivers/STM32F1xx_HAL_Driver/Inc/stm32f1xx_ll_bus.h **** 
 456:Drivers/STM32F1xx_HAL_Driver/Inc/stm32f1xx_ll_bus.h **** /**
 457:Drivers/STM32F1xx_HAL_Driver/Inc/stm32f1xx_ll_bus.h ****   * @brief  Check if APB1 peripheral clock is enabled or not
 458:Drivers/STM32F1xx_HAL_Driver/Inc/stm32f1xx_ll_bus.h ****   * @rmtoll APB1ENR      BKPEN         LL_APB1_GRP1_IsEnabledClock\n
 459:Drivers/STM32F1xx_HAL_Driver/Inc/stm32f1xx_ll_bus.h ****   *         APB1ENR      CAN1EN        LL_APB1_GRP1_IsEnabledClock\n
 460:Drivers/STM32F1xx_HAL_Driver/Inc/stm32f1xx_ll_bus.h ****   *         APB1ENR      CAN2EN        LL_APB1_GRP1_IsEnabledClock\n
 461:Drivers/STM32F1xx_HAL_Driver/Inc/stm32f1xx_ll_bus.h ****   *         APB1ENR      CECEN         LL_APB1_GRP1_IsEnabledClock\n
 462:Drivers/STM32F1xx_HAL_Driver/Inc/stm32f1xx_ll_bus.h ****   *         APB1ENR      DACEN         LL_APB1_GRP1_IsEnabledClock\n
 463:Drivers/STM32F1xx_HAL_Driver/Inc/stm32f1xx_ll_bus.h ****   *         APB1ENR      I2C1EN        LL_APB1_GRP1_IsEnabledClock\n
 464:Drivers/STM32F1xx_HAL_Driver/Inc/stm32f1xx_ll_bus.h ****   *         APB1ENR      I2C2EN        LL_APB1_GRP1_IsEnabledClock\n
 465:Drivers/STM32F1xx_HAL_Driver/Inc/stm32f1xx_ll_bus.h ****   *         APB1ENR      PWREN         LL_APB1_GRP1_IsEnabledClock\n
 466:Drivers/STM32F1xx_HAL_Driver/Inc/stm32f1xx_ll_bus.h ****   *         APB1ENR      SPI2EN        LL_APB1_GRP1_IsEnabledClock\n
 467:Drivers/STM32F1xx_HAL_Driver/Inc/stm32f1xx_ll_bus.h ****   *         APB1ENR      SPI3EN        LL_APB1_GRP1_IsEnabledClock\n
 468:Drivers/STM32F1xx_HAL_Driver/Inc/stm32f1xx_ll_bus.h ****   *         APB1ENR      TIM12EN       LL_APB1_GRP1_IsEnabledClock\n
 469:Drivers/STM32F1xx_HAL_Driver/Inc/stm32f1xx_ll_bus.h ****   *         APB1ENR      TIM13EN       LL_APB1_GRP1_IsEnabledClock\n
 470:Drivers/STM32F1xx_HAL_Driver/Inc/stm32f1xx_ll_bus.h ****   *         APB1ENR      TIM14EN       LL_APB1_GRP1_IsEnabledClock\n
 471:Drivers/STM32F1xx_HAL_Driver/Inc/stm32f1xx_ll_bus.h ****   *         APB1ENR      TIM2EN        LL_APB1_GRP1_IsEnabledClock\n
 472:Drivers/STM32F1xx_HAL_Driver/Inc/stm32f1xx_ll_bus.h ****   *         APB1ENR      TIM3EN        LL_APB1_GRP1_IsEnabledClock\n
 473:Drivers/STM32F1xx_HAL_Driver/Inc/stm32f1xx_ll_bus.h ****   *         APB1ENR      TIM4EN        LL_APB1_GRP1_IsEnabledClock\n
 474:Drivers/STM32F1xx_HAL_Driver/Inc/stm32f1xx_ll_bus.h ****   *         APB1ENR      TIM5EN        LL_APB1_GRP1_IsEnabledClock\n
 475:Drivers/STM32F1xx_HAL_Driver/Inc/stm32f1xx_ll_bus.h ****   *         APB1ENR      TIM6EN        LL_APB1_GRP1_IsEnabledClock\n
 476:Drivers/STM32F1xx_HAL_Driver/Inc/stm32f1xx_ll_bus.h ****   *         APB1ENR      TIM7EN        LL_APB1_GRP1_IsEnabledClock\n
 477:Drivers/STM32F1xx_HAL_Driver/Inc/stm32f1xx_ll_bus.h ****   *         APB1ENR      UART4EN       LL_APB1_GRP1_IsEnabledClock\n
 478:Drivers/STM32F1xx_HAL_Driver/Inc/stm32f1xx_ll_bus.h ****   *         APB1ENR      UART5EN       LL_APB1_GRP1_IsEnabledClock\n
 479:Drivers/STM32F1xx_HAL_Driver/Inc/stm32f1xx_ll_bus.h ****   *         APB1ENR      USART2EN      LL_APB1_GRP1_IsEnabledClock\n
 480:Drivers/STM32F1xx_HAL_Driver/Inc/stm32f1xx_ll_bus.h ****   *         APB1ENR      USART3EN      LL_APB1_GRP1_IsEnabledClock\n
 481:Drivers/STM32F1xx_HAL_Driver/Inc/stm32f1xx_ll_bus.h ****   *         APB1ENR      USBEN         LL_APB1_GRP1_IsEnabledClock\n
 482:Drivers/STM32F1xx_HAL_Driver/Inc/stm32f1xx_ll_bus.h ****   *         APB1ENR      WWDGEN        LL_APB1_GRP1_IsEnabledClock
 483:Drivers/STM32F1xx_HAL_Driver/Inc/stm32f1xx_ll_bus.h ****   * @param  Periphs This parameter can be a combination of the following values:
 484:Drivers/STM32F1xx_HAL_Driver/Inc/stm32f1xx_ll_bus.h ****   *         @arg @ref LL_APB1_GRP1_PERIPH_BKP
 485:Drivers/STM32F1xx_HAL_Driver/Inc/stm32f1xx_ll_bus.h ****   *         @arg @ref LL_APB1_GRP1_PERIPH_CAN1 (*)
 486:Drivers/STM32F1xx_HAL_Driver/Inc/stm32f1xx_ll_bus.h ****   *         @arg @ref LL_APB1_GRP1_PERIPH_CAN2 (*)
 487:Drivers/STM32F1xx_HAL_Driver/Inc/stm32f1xx_ll_bus.h ****   *         @arg @ref LL_APB1_GRP1_PERIPH_CEC (*)
 488:Drivers/STM32F1xx_HAL_Driver/Inc/stm32f1xx_ll_bus.h ****   *         @arg @ref LL_APB1_GRP1_PERIPH_DAC1 (*)
 489:Drivers/STM32F1xx_HAL_Driver/Inc/stm32f1xx_ll_bus.h ****   *         @arg @ref LL_APB1_GRP1_PERIPH_I2C1
 490:Drivers/STM32F1xx_HAL_Driver/Inc/stm32f1xx_ll_bus.h ****   *         @arg @ref LL_APB1_GRP1_PERIPH_I2C2 (*)
 491:Drivers/STM32F1xx_HAL_Driver/Inc/stm32f1xx_ll_bus.h ****   *         @arg @ref LL_APB1_GRP1_PERIPH_PWR
 492:Drivers/STM32F1xx_HAL_Driver/Inc/stm32f1xx_ll_bus.h ****   *         @arg @ref LL_APB1_GRP1_PERIPH_SPI2 (*)
 493:Drivers/STM32F1xx_HAL_Driver/Inc/stm32f1xx_ll_bus.h ****   *         @arg @ref LL_APB1_GRP1_PERIPH_SPI3 (*)
 494:Drivers/STM32F1xx_HAL_Driver/Inc/stm32f1xx_ll_bus.h ****   *         @arg @ref LL_APB1_GRP1_PERIPH_TIM12 (*)
 495:Drivers/STM32F1xx_HAL_Driver/Inc/stm32f1xx_ll_bus.h ****   *         @arg @ref LL_APB1_GRP1_PERIPH_TIM13 (*)
 496:Drivers/STM32F1xx_HAL_Driver/Inc/stm32f1xx_ll_bus.h ****   *         @arg @ref LL_APB1_GRP1_PERIPH_TIM14 (*)
 497:Drivers/STM32F1xx_HAL_Driver/Inc/stm32f1xx_ll_bus.h ****   *         @arg @ref LL_APB1_GRP1_PERIPH_TIM2
 498:Drivers/STM32F1xx_HAL_Driver/Inc/stm32f1xx_ll_bus.h ****   *         @arg @ref LL_APB1_GRP1_PERIPH_TIM3
 499:Drivers/STM32F1xx_HAL_Driver/Inc/stm32f1xx_ll_bus.h ****   *         @arg @ref LL_APB1_GRP1_PERIPH_TIM4 (*)
 500:Drivers/STM32F1xx_HAL_Driver/Inc/stm32f1xx_ll_bus.h ****   *         @arg @ref LL_APB1_GRP1_PERIPH_TIM5 (*)
 501:Drivers/STM32F1xx_HAL_Driver/Inc/stm32f1xx_ll_bus.h ****   *         @arg @ref LL_APB1_GRP1_PERIPH_TIM6 (*)
 502:Drivers/STM32F1xx_HAL_Driver/Inc/stm32f1xx_ll_bus.h ****   *         @arg @ref LL_APB1_GRP1_PERIPH_TIM7 (*)
 503:Drivers/STM32F1xx_HAL_Driver/Inc/stm32f1xx_ll_bus.h ****   *         @arg @ref LL_APB1_GRP1_PERIPH_UART4 (*)
 504:Drivers/STM32F1xx_HAL_Driver/Inc/stm32f1xx_ll_bus.h ****   *         @arg @ref LL_APB1_GRP1_PERIPH_UART5 (*)
 505:Drivers/STM32F1xx_HAL_Driver/Inc/stm32f1xx_ll_bus.h ****   *         @arg @ref LL_APB1_GRP1_PERIPH_USART2
 506:Drivers/STM32F1xx_HAL_Driver/Inc/stm32f1xx_ll_bus.h ****   *         @arg @ref LL_APB1_GRP1_PERIPH_USART3 (*)
 507:Drivers/STM32F1xx_HAL_Driver/Inc/stm32f1xx_ll_bus.h ****   *         @arg @ref LL_APB1_GRP1_PERIPH_USB (*)
 508:Drivers/STM32F1xx_HAL_Driver/Inc/stm32f1xx_ll_bus.h ****   *         @arg @ref LL_APB1_GRP1_PERIPH_WWDG
 509:Drivers/STM32F1xx_HAL_Driver/Inc/stm32f1xx_ll_bus.h ****   *
ARM GAS  /var/folders/m1/3lv6xmzs0mlckxs4mx90nfb40000gn/T//ccFDK2TW.s 			page 12


 510:Drivers/STM32F1xx_HAL_Driver/Inc/stm32f1xx_ll_bus.h ****   *         (*) value not defined in all devices.
 511:Drivers/STM32F1xx_HAL_Driver/Inc/stm32f1xx_ll_bus.h ****   * @retval State of Periphs (1 or 0).
 512:Drivers/STM32F1xx_HAL_Driver/Inc/stm32f1xx_ll_bus.h **** */
 513:Drivers/STM32F1xx_HAL_Driver/Inc/stm32f1xx_ll_bus.h **** __STATIC_INLINE uint32_t LL_APB1_GRP1_IsEnabledClock(uint32_t Periphs)
 514:Drivers/STM32F1xx_HAL_Driver/Inc/stm32f1xx_ll_bus.h **** {
 515:Drivers/STM32F1xx_HAL_Driver/Inc/stm32f1xx_ll_bus.h ****   return (READ_BIT(RCC->APB1ENR, Periphs) == Periphs);
 516:Drivers/STM32F1xx_HAL_Driver/Inc/stm32f1xx_ll_bus.h **** }
 517:Drivers/STM32F1xx_HAL_Driver/Inc/stm32f1xx_ll_bus.h **** 
 518:Drivers/STM32F1xx_HAL_Driver/Inc/stm32f1xx_ll_bus.h **** /**
 519:Drivers/STM32F1xx_HAL_Driver/Inc/stm32f1xx_ll_bus.h ****   * @brief  Disable APB1 peripherals clock.
 520:Drivers/STM32F1xx_HAL_Driver/Inc/stm32f1xx_ll_bus.h ****   * @rmtoll APB1ENR      BKPEN         LL_APB1_GRP1_DisableClock\n
 521:Drivers/STM32F1xx_HAL_Driver/Inc/stm32f1xx_ll_bus.h ****   *         APB1ENR      CAN1EN        LL_APB1_GRP1_DisableClock\n
 522:Drivers/STM32F1xx_HAL_Driver/Inc/stm32f1xx_ll_bus.h ****   *         APB1ENR      CAN2EN        LL_APB1_GRP1_DisableClock\n
 523:Drivers/STM32F1xx_HAL_Driver/Inc/stm32f1xx_ll_bus.h ****   *         APB1ENR      CECEN         LL_APB1_GRP1_DisableClock\n
 524:Drivers/STM32F1xx_HAL_Driver/Inc/stm32f1xx_ll_bus.h ****   *         APB1ENR      DACEN         LL_APB1_GRP1_DisableClock\n
 525:Drivers/STM32F1xx_HAL_Driver/Inc/stm32f1xx_ll_bus.h ****   *         APB1ENR      I2C1EN        LL_APB1_GRP1_DisableClock\n
 526:Drivers/STM32F1xx_HAL_Driver/Inc/stm32f1xx_ll_bus.h ****   *         APB1ENR      I2C2EN        LL_APB1_GRP1_DisableClock\n
 527:Drivers/STM32F1xx_HAL_Driver/Inc/stm32f1xx_ll_bus.h ****   *         APB1ENR      PWREN         LL_APB1_GRP1_DisableClock\n
 528:Drivers/STM32F1xx_HAL_Driver/Inc/stm32f1xx_ll_bus.h ****   *         APB1ENR      SPI2EN        LL_APB1_GRP1_DisableClock\n
 529:Drivers/STM32F1xx_HAL_Driver/Inc/stm32f1xx_ll_bus.h ****   *         APB1ENR      SPI3EN        LL_APB1_GRP1_DisableClock\n
 530:Drivers/STM32F1xx_HAL_Driver/Inc/stm32f1xx_ll_bus.h ****   *         APB1ENR      TIM12EN       LL_APB1_GRP1_DisableClock\n
 531:Drivers/STM32F1xx_HAL_Driver/Inc/stm32f1xx_ll_bus.h ****   *         APB1ENR      TIM13EN       LL_APB1_GRP1_DisableClock\n
 532:Drivers/STM32F1xx_HAL_Driver/Inc/stm32f1xx_ll_bus.h ****   *         APB1ENR      TIM14EN       LL_APB1_GRP1_DisableClock\n
 533:Drivers/STM32F1xx_HAL_Driver/Inc/stm32f1xx_ll_bus.h ****   *         APB1ENR      TIM2EN        LL_APB1_GRP1_DisableClock\n
 534:Drivers/STM32F1xx_HAL_Driver/Inc/stm32f1xx_ll_bus.h ****   *         APB1ENR      TIM3EN        LL_APB1_GRP1_DisableClock\n
 535:Drivers/STM32F1xx_HAL_Driver/Inc/stm32f1xx_ll_bus.h ****   *         APB1ENR      TIM4EN        LL_APB1_GRP1_DisableClock\n
 536:Drivers/STM32F1xx_HAL_Driver/Inc/stm32f1xx_ll_bus.h ****   *         APB1ENR      TIM5EN        LL_APB1_GRP1_DisableClock\n
 537:Drivers/STM32F1xx_HAL_Driver/Inc/stm32f1xx_ll_bus.h ****   *         APB1ENR      TIM6EN        LL_APB1_GRP1_DisableClock\n
 538:Drivers/STM32F1xx_HAL_Driver/Inc/stm32f1xx_ll_bus.h ****   *         APB1ENR      TIM7EN        LL_APB1_GRP1_DisableClock\n
 539:Drivers/STM32F1xx_HAL_Driver/Inc/stm32f1xx_ll_bus.h ****   *         APB1ENR      UART4EN       LL_APB1_GRP1_DisableClock\n
 540:Drivers/STM32F1xx_HAL_Driver/Inc/stm32f1xx_ll_bus.h ****   *         APB1ENR      UART5EN       LL_APB1_GRP1_DisableClock\n
 541:Drivers/STM32F1xx_HAL_Driver/Inc/stm32f1xx_ll_bus.h ****   *         APB1ENR      USART2EN      LL_APB1_GRP1_DisableClock\n
 542:Drivers/STM32F1xx_HAL_Driver/Inc/stm32f1xx_ll_bus.h ****   *         APB1ENR      USART3EN      LL_APB1_GRP1_DisableClock\n
 543:Drivers/STM32F1xx_HAL_Driver/Inc/stm32f1xx_ll_bus.h ****   *         APB1ENR      USBEN         LL_APB1_GRP1_DisableClock\n
 544:Drivers/STM32F1xx_HAL_Driver/Inc/stm32f1xx_ll_bus.h ****   *         APB1ENR      WWDGEN        LL_APB1_GRP1_DisableClock
 545:Drivers/STM32F1xx_HAL_Driver/Inc/stm32f1xx_ll_bus.h ****   * @param  Periphs This parameter can be a combination of the following values:
 546:Drivers/STM32F1xx_HAL_Driver/Inc/stm32f1xx_ll_bus.h ****   *         @arg @ref LL_APB1_GRP1_PERIPH_BKP
 547:Drivers/STM32F1xx_HAL_Driver/Inc/stm32f1xx_ll_bus.h ****   *         @arg @ref LL_APB1_GRP1_PERIPH_CAN1 (*)
 548:Drivers/STM32F1xx_HAL_Driver/Inc/stm32f1xx_ll_bus.h ****   *         @arg @ref LL_APB1_GRP1_PERIPH_CAN2 (*)
 549:Drivers/STM32F1xx_HAL_Driver/Inc/stm32f1xx_ll_bus.h ****   *         @arg @ref LL_APB1_GRP1_PERIPH_CEC (*)
 550:Drivers/STM32F1xx_HAL_Driver/Inc/stm32f1xx_ll_bus.h ****   *         @arg @ref LL_APB1_GRP1_PERIPH_DAC1 (*)
 551:Drivers/STM32F1xx_HAL_Driver/Inc/stm32f1xx_ll_bus.h ****   *         @arg @ref LL_APB1_GRP1_PERIPH_I2C1
 552:Drivers/STM32F1xx_HAL_Driver/Inc/stm32f1xx_ll_bus.h ****   *         @arg @ref LL_APB1_GRP1_PERIPH_I2C2 (*)
 553:Drivers/STM32F1xx_HAL_Driver/Inc/stm32f1xx_ll_bus.h ****   *         @arg @ref LL_APB1_GRP1_PERIPH_PWR
 554:Drivers/STM32F1xx_HAL_Driver/Inc/stm32f1xx_ll_bus.h ****   *         @arg @ref LL_APB1_GRP1_PERIPH_SPI2 (*)
 555:Drivers/STM32F1xx_HAL_Driver/Inc/stm32f1xx_ll_bus.h ****   *         @arg @ref LL_APB1_GRP1_PERIPH_SPI3 (*)
 556:Drivers/STM32F1xx_HAL_Driver/Inc/stm32f1xx_ll_bus.h ****   *         @arg @ref LL_APB1_GRP1_PERIPH_TIM12 (*)
 557:Drivers/STM32F1xx_HAL_Driver/Inc/stm32f1xx_ll_bus.h ****   *         @arg @ref LL_APB1_GRP1_PERIPH_TIM13 (*)
 558:Drivers/STM32F1xx_HAL_Driver/Inc/stm32f1xx_ll_bus.h ****   *         @arg @ref LL_APB1_GRP1_PERIPH_TIM14 (*)
 559:Drivers/STM32F1xx_HAL_Driver/Inc/stm32f1xx_ll_bus.h ****   *         @arg @ref LL_APB1_GRP1_PERIPH_TIM2
 560:Drivers/STM32F1xx_HAL_Driver/Inc/stm32f1xx_ll_bus.h ****   *         @arg @ref LL_APB1_GRP1_PERIPH_TIM3
 561:Drivers/STM32F1xx_HAL_Driver/Inc/stm32f1xx_ll_bus.h ****   *         @arg @ref LL_APB1_GRP1_PERIPH_TIM4 (*)
 562:Drivers/STM32F1xx_HAL_Driver/Inc/stm32f1xx_ll_bus.h ****   *         @arg @ref LL_APB1_GRP1_PERIPH_TIM5 (*)
 563:Drivers/STM32F1xx_HAL_Driver/Inc/stm32f1xx_ll_bus.h ****   *         @arg @ref LL_APB1_GRP1_PERIPH_TIM6 (*)
 564:Drivers/STM32F1xx_HAL_Driver/Inc/stm32f1xx_ll_bus.h ****   *         @arg @ref LL_APB1_GRP1_PERIPH_TIM7 (*)
 565:Drivers/STM32F1xx_HAL_Driver/Inc/stm32f1xx_ll_bus.h ****   *         @arg @ref LL_APB1_GRP1_PERIPH_UART4 (*)
 566:Drivers/STM32F1xx_HAL_Driver/Inc/stm32f1xx_ll_bus.h ****   *         @arg @ref LL_APB1_GRP1_PERIPH_UART5 (*)
ARM GAS  /var/folders/m1/3lv6xmzs0mlckxs4mx90nfb40000gn/T//ccFDK2TW.s 			page 13


 567:Drivers/STM32F1xx_HAL_Driver/Inc/stm32f1xx_ll_bus.h ****   *         @arg @ref LL_APB1_GRP1_PERIPH_USART2
 568:Drivers/STM32F1xx_HAL_Driver/Inc/stm32f1xx_ll_bus.h ****   *         @arg @ref LL_APB1_GRP1_PERIPH_USART3 (*)
 569:Drivers/STM32F1xx_HAL_Driver/Inc/stm32f1xx_ll_bus.h ****   *         @arg @ref LL_APB1_GRP1_PERIPH_USB (*)
 570:Drivers/STM32F1xx_HAL_Driver/Inc/stm32f1xx_ll_bus.h ****   *         @arg @ref LL_APB1_GRP1_PERIPH_WWDG
 571:Drivers/STM32F1xx_HAL_Driver/Inc/stm32f1xx_ll_bus.h ****   *
 572:Drivers/STM32F1xx_HAL_Driver/Inc/stm32f1xx_ll_bus.h ****   *         (*) value not defined in all devices.
 573:Drivers/STM32F1xx_HAL_Driver/Inc/stm32f1xx_ll_bus.h ****   * @retval None
 574:Drivers/STM32F1xx_HAL_Driver/Inc/stm32f1xx_ll_bus.h **** */
 575:Drivers/STM32F1xx_HAL_Driver/Inc/stm32f1xx_ll_bus.h **** __STATIC_INLINE void LL_APB1_GRP1_DisableClock(uint32_t Periphs)
 576:Drivers/STM32F1xx_HAL_Driver/Inc/stm32f1xx_ll_bus.h **** {
 577:Drivers/STM32F1xx_HAL_Driver/Inc/stm32f1xx_ll_bus.h ****   CLEAR_BIT(RCC->APB1ENR, Periphs);
 578:Drivers/STM32F1xx_HAL_Driver/Inc/stm32f1xx_ll_bus.h **** }
 579:Drivers/STM32F1xx_HAL_Driver/Inc/stm32f1xx_ll_bus.h **** 
 580:Drivers/STM32F1xx_HAL_Driver/Inc/stm32f1xx_ll_bus.h **** /**
 581:Drivers/STM32F1xx_HAL_Driver/Inc/stm32f1xx_ll_bus.h ****   * @brief  Force APB1 peripherals reset.
 582:Drivers/STM32F1xx_HAL_Driver/Inc/stm32f1xx_ll_bus.h ****   * @rmtoll APB1RSTR     BKPRST        LL_APB1_GRP1_ForceReset\n
 583:Drivers/STM32F1xx_HAL_Driver/Inc/stm32f1xx_ll_bus.h ****   *         APB1RSTR     CAN1RST       LL_APB1_GRP1_ForceReset\n
 584:Drivers/STM32F1xx_HAL_Driver/Inc/stm32f1xx_ll_bus.h ****   *         APB1RSTR     CAN2RST       LL_APB1_GRP1_ForceReset\n
 585:Drivers/STM32F1xx_HAL_Driver/Inc/stm32f1xx_ll_bus.h ****   *         APB1RSTR     CECRST        LL_APB1_GRP1_ForceReset\n
 586:Drivers/STM32F1xx_HAL_Driver/Inc/stm32f1xx_ll_bus.h ****   *         APB1RSTR     DACRST        LL_APB1_GRP1_ForceReset\n
 587:Drivers/STM32F1xx_HAL_Driver/Inc/stm32f1xx_ll_bus.h ****   *         APB1RSTR     I2C1RST       LL_APB1_GRP1_ForceReset\n
 588:Drivers/STM32F1xx_HAL_Driver/Inc/stm32f1xx_ll_bus.h ****   *         APB1RSTR     I2C2RST       LL_APB1_GRP1_ForceReset\n
 589:Drivers/STM32F1xx_HAL_Driver/Inc/stm32f1xx_ll_bus.h ****   *         APB1RSTR     PWRRST        LL_APB1_GRP1_ForceReset\n
 590:Drivers/STM32F1xx_HAL_Driver/Inc/stm32f1xx_ll_bus.h ****   *         APB1RSTR     SPI2RST       LL_APB1_GRP1_ForceReset\n
 591:Drivers/STM32F1xx_HAL_Driver/Inc/stm32f1xx_ll_bus.h ****   *         APB1RSTR     SPI3RST       LL_APB1_GRP1_ForceReset\n
 592:Drivers/STM32F1xx_HAL_Driver/Inc/stm32f1xx_ll_bus.h ****   *         APB1RSTR     TIM12RST      LL_APB1_GRP1_ForceReset\n
 593:Drivers/STM32F1xx_HAL_Driver/Inc/stm32f1xx_ll_bus.h ****   *         APB1RSTR     TIM13RST      LL_APB1_GRP1_ForceReset\n
 594:Drivers/STM32F1xx_HAL_Driver/Inc/stm32f1xx_ll_bus.h ****   *         APB1RSTR     TIM14RST      LL_APB1_GRP1_ForceReset\n
 595:Drivers/STM32F1xx_HAL_Driver/Inc/stm32f1xx_ll_bus.h ****   *         APB1RSTR     TIM2RST       LL_APB1_GRP1_ForceReset\n
 596:Drivers/STM32F1xx_HAL_Driver/Inc/stm32f1xx_ll_bus.h ****   *         APB1RSTR     TIM3RST       LL_APB1_GRP1_ForceReset\n
 597:Drivers/STM32F1xx_HAL_Driver/Inc/stm32f1xx_ll_bus.h ****   *         APB1RSTR     TIM4RST       LL_APB1_GRP1_ForceReset\n
 598:Drivers/STM32F1xx_HAL_Driver/Inc/stm32f1xx_ll_bus.h ****   *         APB1RSTR     TIM5RST       LL_APB1_GRP1_ForceReset\n
 599:Drivers/STM32F1xx_HAL_Driver/Inc/stm32f1xx_ll_bus.h ****   *         APB1RSTR     TIM6RST       LL_APB1_GRP1_ForceReset\n
 600:Drivers/STM32F1xx_HAL_Driver/Inc/stm32f1xx_ll_bus.h ****   *         APB1RSTR     TIM7RST       LL_APB1_GRP1_ForceReset\n
 601:Drivers/STM32F1xx_HAL_Driver/Inc/stm32f1xx_ll_bus.h ****   *         APB1RSTR     UART4RST      LL_APB1_GRP1_ForceReset\n
 602:Drivers/STM32F1xx_HAL_Driver/Inc/stm32f1xx_ll_bus.h ****   *         APB1RSTR     UART5RST      LL_APB1_GRP1_ForceReset\n
 603:Drivers/STM32F1xx_HAL_Driver/Inc/stm32f1xx_ll_bus.h ****   *         APB1RSTR     USART2RST     LL_APB1_GRP1_ForceReset\n
 604:Drivers/STM32F1xx_HAL_Driver/Inc/stm32f1xx_ll_bus.h ****   *         APB1RSTR     USART3RST     LL_APB1_GRP1_ForceReset\n
 605:Drivers/STM32F1xx_HAL_Driver/Inc/stm32f1xx_ll_bus.h ****   *         APB1RSTR     USBRST        LL_APB1_GRP1_ForceReset\n
 606:Drivers/STM32F1xx_HAL_Driver/Inc/stm32f1xx_ll_bus.h ****   *         APB1RSTR     WWDGRST       LL_APB1_GRP1_ForceReset
 607:Drivers/STM32F1xx_HAL_Driver/Inc/stm32f1xx_ll_bus.h ****   * @param  Periphs This parameter can be a combination of the following values:
 608:Drivers/STM32F1xx_HAL_Driver/Inc/stm32f1xx_ll_bus.h ****   *         @arg @ref LL_APB1_GRP1_PERIPH_ALL
 609:Drivers/STM32F1xx_HAL_Driver/Inc/stm32f1xx_ll_bus.h ****   *         @arg @ref LL_APB1_GRP1_PERIPH_BKP
 610:Drivers/STM32F1xx_HAL_Driver/Inc/stm32f1xx_ll_bus.h ****   *         @arg @ref LL_APB1_GRP1_PERIPH_CAN1 (*)
 611:Drivers/STM32F1xx_HAL_Driver/Inc/stm32f1xx_ll_bus.h ****   *         @arg @ref LL_APB1_GRP1_PERIPH_CAN2 (*)
 612:Drivers/STM32F1xx_HAL_Driver/Inc/stm32f1xx_ll_bus.h ****   *         @arg @ref LL_APB1_GRP1_PERIPH_CEC (*)
 613:Drivers/STM32F1xx_HAL_Driver/Inc/stm32f1xx_ll_bus.h ****   *         @arg @ref LL_APB1_GRP1_PERIPH_DAC1 (*)
 614:Drivers/STM32F1xx_HAL_Driver/Inc/stm32f1xx_ll_bus.h ****   *         @arg @ref LL_APB1_GRP1_PERIPH_I2C1
 615:Drivers/STM32F1xx_HAL_Driver/Inc/stm32f1xx_ll_bus.h ****   *         @arg @ref LL_APB1_GRP1_PERIPH_I2C2 (*)
 616:Drivers/STM32F1xx_HAL_Driver/Inc/stm32f1xx_ll_bus.h ****   *         @arg @ref LL_APB1_GRP1_PERIPH_PWR
 617:Drivers/STM32F1xx_HAL_Driver/Inc/stm32f1xx_ll_bus.h ****   *         @arg @ref LL_APB1_GRP1_PERIPH_SPI2 (*)
 618:Drivers/STM32F1xx_HAL_Driver/Inc/stm32f1xx_ll_bus.h ****   *         @arg @ref LL_APB1_GRP1_PERIPH_SPI3 (*)
 619:Drivers/STM32F1xx_HAL_Driver/Inc/stm32f1xx_ll_bus.h ****   *         @arg @ref LL_APB1_GRP1_PERIPH_TIM12 (*)
 620:Drivers/STM32F1xx_HAL_Driver/Inc/stm32f1xx_ll_bus.h ****   *         @arg @ref LL_APB1_GRP1_PERIPH_TIM13 (*)
 621:Drivers/STM32F1xx_HAL_Driver/Inc/stm32f1xx_ll_bus.h ****   *         @arg @ref LL_APB1_GRP1_PERIPH_TIM14 (*)
 622:Drivers/STM32F1xx_HAL_Driver/Inc/stm32f1xx_ll_bus.h ****   *         @arg @ref LL_APB1_GRP1_PERIPH_TIM2
 623:Drivers/STM32F1xx_HAL_Driver/Inc/stm32f1xx_ll_bus.h ****   *         @arg @ref LL_APB1_GRP1_PERIPH_TIM3
ARM GAS  /var/folders/m1/3lv6xmzs0mlckxs4mx90nfb40000gn/T//ccFDK2TW.s 			page 14


 624:Drivers/STM32F1xx_HAL_Driver/Inc/stm32f1xx_ll_bus.h ****   *         @arg @ref LL_APB1_GRP1_PERIPH_TIM4 (*)
 625:Drivers/STM32F1xx_HAL_Driver/Inc/stm32f1xx_ll_bus.h ****   *         @arg @ref LL_APB1_GRP1_PERIPH_TIM5 (*)
 626:Drivers/STM32F1xx_HAL_Driver/Inc/stm32f1xx_ll_bus.h ****   *         @arg @ref LL_APB1_GRP1_PERIPH_TIM6 (*)
 627:Drivers/STM32F1xx_HAL_Driver/Inc/stm32f1xx_ll_bus.h ****   *         @arg @ref LL_APB1_GRP1_PERIPH_TIM7 (*)
 628:Drivers/STM32F1xx_HAL_Driver/Inc/stm32f1xx_ll_bus.h ****   *         @arg @ref LL_APB1_GRP1_PERIPH_UART4 (*)
 629:Drivers/STM32F1xx_HAL_Driver/Inc/stm32f1xx_ll_bus.h ****   *         @arg @ref LL_APB1_GRP1_PERIPH_UART5 (*)
 630:Drivers/STM32F1xx_HAL_Driver/Inc/stm32f1xx_ll_bus.h ****   *         @arg @ref LL_APB1_GRP1_PERIPH_USART2
 631:Drivers/STM32F1xx_HAL_Driver/Inc/stm32f1xx_ll_bus.h ****   *         @arg @ref LL_APB1_GRP1_PERIPH_USART3 (*)
 632:Drivers/STM32F1xx_HAL_Driver/Inc/stm32f1xx_ll_bus.h ****   *         @arg @ref LL_APB1_GRP1_PERIPH_USB (*)
 633:Drivers/STM32F1xx_HAL_Driver/Inc/stm32f1xx_ll_bus.h ****   *         @arg @ref LL_APB1_GRP1_PERIPH_WWDG
 634:Drivers/STM32F1xx_HAL_Driver/Inc/stm32f1xx_ll_bus.h ****   *
 635:Drivers/STM32F1xx_HAL_Driver/Inc/stm32f1xx_ll_bus.h ****   *         (*) value not defined in all devices.
 636:Drivers/STM32F1xx_HAL_Driver/Inc/stm32f1xx_ll_bus.h ****   * @retval None
 637:Drivers/STM32F1xx_HAL_Driver/Inc/stm32f1xx_ll_bus.h **** */
 638:Drivers/STM32F1xx_HAL_Driver/Inc/stm32f1xx_ll_bus.h **** __STATIC_INLINE void LL_APB1_GRP1_ForceReset(uint32_t Periphs)
 639:Drivers/STM32F1xx_HAL_Driver/Inc/stm32f1xx_ll_bus.h **** {
 640:Drivers/STM32F1xx_HAL_Driver/Inc/stm32f1xx_ll_bus.h ****   SET_BIT(RCC->APB1RSTR, Periphs);
 641:Drivers/STM32F1xx_HAL_Driver/Inc/stm32f1xx_ll_bus.h **** }
 642:Drivers/STM32F1xx_HAL_Driver/Inc/stm32f1xx_ll_bus.h **** 
 643:Drivers/STM32F1xx_HAL_Driver/Inc/stm32f1xx_ll_bus.h **** /**
 644:Drivers/STM32F1xx_HAL_Driver/Inc/stm32f1xx_ll_bus.h ****   * @brief  Release APB1 peripherals reset.
 645:Drivers/STM32F1xx_HAL_Driver/Inc/stm32f1xx_ll_bus.h ****   * @rmtoll APB1RSTR     BKPRST        LL_APB1_GRP1_ReleaseReset\n
 646:Drivers/STM32F1xx_HAL_Driver/Inc/stm32f1xx_ll_bus.h ****   *         APB1RSTR     CAN1RST       LL_APB1_GRP1_ReleaseReset\n
 647:Drivers/STM32F1xx_HAL_Driver/Inc/stm32f1xx_ll_bus.h ****   *         APB1RSTR     CAN2RST       LL_APB1_GRP1_ReleaseReset\n
 648:Drivers/STM32F1xx_HAL_Driver/Inc/stm32f1xx_ll_bus.h ****   *         APB1RSTR     CECRST        LL_APB1_GRP1_ReleaseReset\n
 649:Drivers/STM32F1xx_HAL_Driver/Inc/stm32f1xx_ll_bus.h ****   *         APB1RSTR     DACRST        LL_APB1_GRP1_ReleaseReset\n
 650:Drivers/STM32F1xx_HAL_Driver/Inc/stm32f1xx_ll_bus.h ****   *         APB1RSTR     I2C1RST       LL_APB1_GRP1_ReleaseReset\n
 651:Drivers/STM32F1xx_HAL_Driver/Inc/stm32f1xx_ll_bus.h ****   *         APB1RSTR     I2C2RST       LL_APB1_GRP1_ReleaseReset\n
 652:Drivers/STM32F1xx_HAL_Driver/Inc/stm32f1xx_ll_bus.h ****   *         APB1RSTR     PWRRST        LL_APB1_GRP1_ReleaseReset\n
 653:Drivers/STM32F1xx_HAL_Driver/Inc/stm32f1xx_ll_bus.h ****   *         APB1RSTR     SPI2RST       LL_APB1_GRP1_ReleaseReset\n
 654:Drivers/STM32F1xx_HAL_Driver/Inc/stm32f1xx_ll_bus.h ****   *         APB1RSTR     SPI3RST       LL_APB1_GRP1_ReleaseReset\n
 655:Drivers/STM32F1xx_HAL_Driver/Inc/stm32f1xx_ll_bus.h ****   *         APB1RSTR     TIM12RST      LL_APB1_GRP1_ReleaseReset\n
 656:Drivers/STM32F1xx_HAL_Driver/Inc/stm32f1xx_ll_bus.h ****   *         APB1RSTR     TIM13RST      LL_APB1_GRP1_ReleaseReset\n
 657:Drivers/STM32F1xx_HAL_Driver/Inc/stm32f1xx_ll_bus.h ****   *         APB1RSTR     TIM14RST      LL_APB1_GRP1_ReleaseReset\n
 658:Drivers/STM32F1xx_HAL_Driver/Inc/stm32f1xx_ll_bus.h ****   *         APB1RSTR     TIM2RST       LL_APB1_GRP1_ReleaseReset\n
 659:Drivers/STM32F1xx_HAL_Driver/Inc/stm32f1xx_ll_bus.h ****   *         APB1RSTR     TIM3RST       LL_APB1_GRP1_ReleaseReset\n
 660:Drivers/STM32F1xx_HAL_Driver/Inc/stm32f1xx_ll_bus.h ****   *         APB1RSTR     TIM4RST       LL_APB1_GRP1_ReleaseReset\n
 661:Drivers/STM32F1xx_HAL_Driver/Inc/stm32f1xx_ll_bus.h ****   *         APB1RSTR     TIM5RST       LL_APB1_GRP1_ReleaseReset\n
 662:Drivers/STM32F1xx_HAL_Driver/Inc/stm32f1xx_ll_bus.h ****   *         APB1RSTR     TIM6RST       LL_APB1_GRP1_ReleaseReset\n
 663:Drivers/STM32F1xx_HAL_Driver/Inc/stm32f1xx_ll_bus.h ****   *         APB1RSTR     TIM7RST       LL_APB1_GRP1_ReleaseReset\n
 664:Drivers/STM32F1xx_HAL_Driver/Inc/stm32f1xx_ll_bus.h ****   *         APB1RSTR     UART4RST      LL_APB1_GRP1_ReleaseReset\n
 665:Drivers/STM32F1xx_HAL_Driver/Inc/stm32f1xx_ll_bus.h ****   *         APB1RSTR     UART5RST      LL_APB1_GRP1_ReleaseReset\n
 666:Drivers/STM32F1xx_HAL_Driver/Inc/stm32f1xx_ll_bus.h ****   *         APB1RSTR     USART2RST     LL_APB1_GRP1_ReleaseReset\n
 667:Drivers/STM32F1xx_HAL_Driver/Inc/stm32f1xx_ll_bus.h ****   *         APB1RSTR     USART3RST     LL_APB1_GRP1_ReleaseReset\n
 668:Drivers/STM32F1xx_HAL_Driver/Inc/stm32f1xx_ll_bus.h ****   *         APB1RSTR     USBRST        LL_APB1_GRP1_ReleaseReset\n
 669:Drivers/STM32F1xx_HAL_Driver/Inc/stm32f1xx_ll_bus.h ****   *         APB1RSTR     WWDGRST       LL_APB1_GRP1_ReleaseReset
 670:Drivers/STM32F1xx_HAL_Driver/Inc/stm32f1xx_ll_bus.h ****   * @param  Periphs This parameter can be a combination of the following values:
 671:Drivers/STM32F1xx_HAL_Driver/Inc/stm32f1xx_ll_bus.h ****   *         @arg @ref LL_APB1_GRP1_PERIPH_ALL
 672:Drivers/STM32F1xx_HAL_Driver/Inc/stm32f1xx_ll_bus.h ****   *         @arg @ref LL_APB1_GRP1_PERIPH_BKP
 673:Drivers/STM32F1xx_HAL_Driver/Inc/stm32f1xx_ll_bus.h ****   *         @arg @ref LL_APB1_GRP1_PERIPH_CAN1 (*)
 674:Drivers/STM32F1xx_HAL_Driver/Inc/stm32f1xx_ll_bus.h ****   *         @arg @ref LL_APB1_GRP1_PERIPH_CAN2 (*)
 675:Drivers/STM32F1xx_HAL_Driver/Inc/stm32f1xx_ll_bus.h ****   *         @arg @ref LL_APB1_GRP1_PERIPH_CEC (*)
 676:Drivers/STM32F1xx_HAL_Driver/Inc/stm32f1xx_ll_bus.h ****   *         @arg @ref LL_APB1_GRP1_PERIPH_DAC1 (*)
 677:Drivers/STM32F1xx_HAL_Driver/Inc/stm32f1xx_ll_bus.h ****   *         @arg @ref LL_APB1_GRP1_PERIPH_I2C1
 678:Drivers/STM32F1xx_HAL_Driver/Inc/stm32f1xx_ll_bus.h ****   *         @arg @ref LL_APB1_GRP1_PERIPH_I2C2 (*)
 679:Drivers/STM32F1xx_HAL_Driver/Inc/stm32f1xx_ll_bus.h ****   *         @arg @ref LL_APB1_GRP1_PERIPH_PWR
 680:Drivers/STM32F1xx_HAL_Driver/Inc/stm32f1xx_ll_bus.h ****   *         @arg @ref LL_APB1_GRP1_PERIPH_SPI2 (*)
ARM GAS  /var/folders/m1/3lv6xmzs0mlckxs4mx90nfb40000gn/T//ccFDK2TW.s 			page 15


 681:Drivers/STM32F1xx_HAL_Driver/Inc/stm32f1xx_ll_bus.h ****   *         @arg @ref LL_APB1_GRP1_PERIPH_SPI3 (*)
 682:Drivers/STM32F1xx_HAL_Driver/Inc/stm32f1xx_ll_bus.h ****   *         @arg @ref LL_APB1_GRP1_PERIPH_TIM12 (*)
 683:Drivers/STM32F1xx_HAL_Driver/Inc/stm32f1xx_ll_bus.h ****   *         @arg @ref LL_APB1_GRP1_PERIPH_TIM13 (*)
 684:Drivers/STM32F1xx_HAL_Driver/Inc/stm32f1xx_ll_bus.h ****   *         @arg @ref LL_APB1_GRP1_PERIPH_TIM14 (*)
 685:Drivers/STM32F1xx_HAL_Driver/Inc/stm32f1xx_ll_bus.h ****   *         @arg @ref LL_APB1_GRP1_PERIPH_TIM2
 686:Drivers/STM32F1xx_HAL_Driver/Inc/stm32f1xx_ll_bus.h ****   *         @arg @ref LL_APB1_GRP1_PERIPH_TIM3
 687:Drivers/STM32F1xx_HAL_Driver/Inc/stm32f1xx_ll_bus.h ****   *         @arg @ref LL_APB1_GRP1_PERIPH_TIM4 (*)
 688:Drivers/STM32F1xx_HAL_Driver/Inc/stm32f1xx_ll_bus.h ****   *         @arg @ref LL_APB1_GRP1_PERIPH_TIM5 (*)
 689:Drivers/STM32F1xx_HAL_Driver/Inc/stm32f1xx_ll_bus.h ****   *         @arg @ref LL_APB1_GRP1_PERIPH_TIM6 (*)
 690:Drivers/STM32F1xx_HAL_Driver/Inc/stm32f1xx_ll_bus.h ****   *         @arg @ref LL_APB1_GRP1_PERIPH_TIM7 (*)
 691:Drivers/STM32F1xx_HAL_Driver/Inc/stm32f1xx_ll_bus.h ****   *         @arg @ref LL_APB1_GRP1_PERIPH_UART4 (*)
 692:Drivers/STM32F1xx_HAL_Driver/Inc/stm32f1xx_ll_bus.h ****   *         @arg @ref LL_APB1_GRP1_PERIPH_UART5 (*)
 693:Drivers/STM32F1xx_HAL_Driver/Inc/stm32f1xx_ll_bus.h ****   *         @arg @ref LL_APB1_GRP1_PERIPH_USART2
 694:Drivers/STM32F1xx_HAL_Driver/Inc/stm32f1xx_ll_bus.h ****   *         @arg @ref LL_APB1_GRP1_PERIPH_USART3 (*)
 695:Drivers/STM32F1xx_HAL_Driver/Inc/stm32f1xx_ll_bus.h ****   *         @arg @ref LL_APB1_GRP1_PERIPH_USB (*)
 696:Drivers/STM32F1xx_HAL_Driver/Inc/stm32f1xx_ll_bus.h ****   *         @arg @ref LL_APB1_GRP1_PERIPH_WWDG
 697:Drivers/STM32F1xx_HAL_Driver/Inc/stm32f1xx_ll_bus.h ****   *
 698:Drivers/STM32F1xx_HAL_Driver/Inc/stm32f1xx_ll_bus.h ****   *         (*) value not defined in all devices.
 699:Drivers/STM32F1xx_HAL_Driver/Inc/stm32f1xx_ll_bus.h ****   * @retval None
 700:Drivers/STM32F1xx_HAL_Driver/Inc/stm32f1xx_ll_bus.h **** */
 701:Drivers/STM32F1xx_HAL_Driver/Inc/stm32f1xx_ll_bus.h **** __STATIC_INLINE void LL_APB1_GRP1_ReleaseReset(uint32_t Periphs)
 702:Drivers/STM32F1xx_HAL_Driver/Inc/stm32f1xx_ll_bus.h **** {
 703:Drivers/STM32F1xx_HAL_Driver/Inc/stm32f1xx_ll_bus.h ****   CLEAR_BIT(RCC->APB1RSTR, Periphs);
 704:Drivers/STM32F1xx_HAL_Driver/Inc/stm32f1xx_ll_bus.h **** }
 705:Drivers/STM32F1xx_HAL_Driver/Inc/stm32f1xx_ll_bus.h **** 
 706:Drivers/STM32F1xx_HAL_Driver/Inc/stm32f1xx_ll_bus.h **** /**
 707:Drivers/STM32F1xx_HAL_Driver/Inc/stm32f1xx_ll_bus.h ****   * @}
 708:Drivers/STM32F1xx_HAL_Driver/Inc/stm32f1xx_ll_bus.h ****   */
 709:Drivers/STM32F1xx_HAL_Driver/Inc/stm32f1xx_ll_bus.h **** 
 710:Drivers/STM32F1xx_HAL_Driver/Inc/stm32f1xx_ll_bus.h **** /** @defgroup BUS_LL_EF_APB2 APB2
 711:Drivers/STM32F1xx_HAL_Driver/Inc/stm32f1xx_ll_bus.h ****   * @{
 712:Drivers/STM32F1xx_HAL_Driver/Inc/stm32f1xx_ll_bus.h ****   */
 713:Drivers/STM32F1xx_HAL_Driver/Inc/stm32f1xx_ll_bus.h **** 
 714:Drivers/STM32F1xx_HAL_Driver/Inc/stm32f1xx_ll_bus.h **** /**
 715:Drivers/STM32F1xx_HAL_Driver/Inc/stm32f1xx_ll_bus.h ****   * @brief  Enable APB2 peripherals clock.
 716:Drivers/STM32F1xx_HAL_Driver/Inc/stm32f1xx_ll_bus.h ****   * @rmtoll APB2ENR      ADC1EN        LL_APB2_GRP1_EnableClock\n
 717:Drivers/STM32F1xx_HAL_Driver/Inc/stm32f1xx_ll_bus.h ****   *         APB2ENR      ADC2EN        LL_APB2_GRP1_EnableClock\n
 718:Drivers/STM32F1xx_HAL_Driver/Inc/stm32f1xx_ll_bus.h ****   *         APB2ENR      ADC3EN        LL_APB2_GRP1_EnableClock\n
 719:Drivers/STM32F1xx_HAL_Driver/Inc/stm32f1xx_ll_bus.h ****   *         APB2ENR      AFIOEN        LL_APB2_GRP1_EnableClock\n
 720:Drivers/STM32F1xx_HAL_Driver/Inc/stm32f1xx_ll_bus.h ****   *         APB2ENR      IOPAEN        LL_APB2_GRP1_EnableClock\n
 721:Drivers/STM32F1xx_HAL_Driver/Inc/stm32f1xx_ll_bus.h ****   *         APB2ENR      IOPBEN        LL_APB2_GRP1_EnableClock\n
 722:Drivers/STM32F1xx_HAL_Driver/Inc/stm32f1xx_ll_bus.h ****   *         APB2ENR      IOPCEN        LL_APB2_GRP1_EnableClock\n
 723:Drivers/STM32F1xx_HAL_Driver/Inc/stm32f1xx_ll_bus.h ****   *         APB2ENR      IOPDEN        LL_APB2_GRP1_EnableClock\n
 724:Drivers/STM32F1xx_HAL_Driver/Inc/stm32f1xx_ll_bus.h ****   *         APB2ENR      IOPEEN        LL_APB2_GRP1_EnableClock\n
 725:Drivers/STM32F1xx_HAL_Driver/Inc/stm32f1xx_ll_bus.h ****   *         APB2ENR      IOPFEN        LL_APB2_GRP1_EnableClock\n
 726:Drivers/STM32F1xx_HAL_Driver/Inc/stm32f1xx_ll_bus.h ****   *         APB2ENR      IOPGEN        LL_APB2_GRP1_EnableClock\n
 727:Drivers/STM32F1xx_HAL_Driver/Inc/stm32f1xx_ll_bus.h ****   *         APB2ENR      SPI1EN        LL_APB2_GRP1_EnableClock\n
 728:Drivers/STM32F1xx_HAL_Driver/Inc/stm32f1xx_ll_bus.h ****   *         APB2ENR      TIM10EN       LL_APB2_GRP1_EnableClock\n
 729:Drivers/STM32F1xx_HAL_Driver/Inc/stm32f1xx_ll_bus.h ****   *         APB2ENR      TIM11EN       LL_APB2_GRP1_EnableClock\n
 730:Drivers/STM32F1xx_HAL_Driver/Inc/stm32f1xx_ll_bus.h ****   *         APB2ENR      TIM15EN       LL_APB2_GRP1_EnableClock\n
 731:Drivers/STM32F1xx_HAL_Driver/Inc/stm32f1xx_ll_bus.h ****   *         APB2ENR      TIM16EN       LL_APB2_GRP1_EnableClock\n
 732:Drivers/STM32F1xx_HAL_Driver/Inc/stm32f1xx_ll_bus.h ****   *         APB2ENR      TIM17EN       LL_APB2_GRP1_EnableClock\n
 733:Drivers/STM32F1xx_HAL_Driver/Inc/stm32f1xx_ll_bus.h ****   *         APB2ENR      TIM1EN        LL_APB2_GRP1_EnableClock\n
 734:Drivers/STM32F1xx_HAL_Driver/Inc/stm32f1xx_ll_bus.h ****   *         APB2ENR      TIM8EN        LL_APB2_GRP1_EnableClock\n
 735:Drivers/STM32F1xx_HAL_Driver/Inc/stm32f1xx_ll_bus.h ****   *         APB2ENR      TIM9EN        LL_APB2_GRP1_EnableClock\n
 736:Drivers/STM32F1xx_HAL_Driver/Inc/stm32f1xx_ll_bus.h ****   *         APB2ENR      USART1EN      LL_APB2_GRP1_EnableClock
 737:Drivers/STM32F1xx_HAL_Driver/Inc/stm32f1xx_ll_bus.h ****   * @param  Periphs This parameter can be a combination of the following values:
ARM GAS  /var/folders/m1/3lv6xmzs0mlckxs4mx90nfb40000gn/T//ccFDK2TW.s 			page 16


 738:Drivers/STM32F1xx_HAL_Driver/Inc/stm32f1xx_ll_bus.h ****   *         @arg @ref LL_APB2_GRP1_PERIPH_ADC1
 739:Drivers/STM32F1xx_HAL_Driver/Inc/stm32f1xx_ll_bus.h ****   *         @arg @ref LL_APB2_GRP1_PERIPH_ADC2 (*)
 740:Drivers/STM32F1xx_HAL_Driver/Inc/stm32f1xx_ll_bus.h ****   *         @arg @ref LL_APB2_GRP1_PERIPH_ADC3 (*)
 741:Drivers/STM32F1xx_HAL_Driver/Inc/stm32f1xx_ll_bus.h ****   *         @arg @ref LL_APB2_GRP1_PERIPH_AFIO
 742:Drivers/STM32F1xx_HAL_Driver/Inc/stm32f1xx_ll_bus.h ****   *         @arg @ref LL_APB2_GRP1_PERIPH_GPIOA
 743:Drivers/STM32F1xx_HAL_Driver/Inc/stm32f1xx_ll_bus.h ****   *         @arg @ref LL_APB2_GRP1_PERIPH_GPIOB
 744:Drivers/STM32F1xx_HAL_Driver/Inc/stm32f1xx_ll_bus.h ****   *         @arg @ref LL_APB2_GRP1_PERIPH_GPIOC
 745:Drivers/STM32F1xx_HAL_Driver/Inc/stm32f1xx_ll_bus.h ****   *         @arg @ref LL_APB2_GRP1_PERIPH_GPIOD
 746:Drivers/STM32F1xx_HAL_Driver/Inc/stm32f1xx_ll_bus.h ****   *         @arg @ref LL_APB2_GRP1_PERIPH_GPIOE (*)
 747:Drivers/STM32F1xx_HAL_Driver/Inc/stm32f1xx_ll_bus.h ****   *         @arg @ref LL_APB2_GRP1_PERIPH_GPIOF (*)
 748:Drivers/STM32F1xx_HAL_Driver/Inc/stm32f1xx_ll_bus.h ****   *         @arg @ref LL_APB2_GRP1_PERIPH_GPIOG (*)
 749:Drivers/STM32F1xx_HAL_Driver/Inc/stm32f1xx_ll_bus.h ****   *         @arg @ref LL_APB2_GRP1_PERIPH_SPI1
 750:Drivers/STM32F1xx_HAL_Driver/Inc/stm32f1xx_ll_bus.h ****   *         @arg @ref LL_APB2_GRP1_PERIPH_TIM10 (*)
 751:Drivers/STM32F1xx_HAL_Driver/Inc/stm32f1xx_ll_bus.h ****   *         @arg @ref LL_APB2_GRP1_PERIPH_TIM11 (*)
 752:Drivers/STM32F1xx_HAL_Driver/Inc/stm32f1xx_ll_bus.h ****   *         @arg @ref LL_APB2_GRP1_PERIPH_TIM15 (*)
 753:Drivers/STM32F1xx_HAL_Driver/Inc/stm32f1xx_ll_bus.h ****   *         @arg @ref LL_APB2_GRP1_PERIPH_TIM16 (*)
 754:Drivers/STM32F1xx_HAL_Driver/Inc/stm32f1xx_ll_bus.h ****   *         @arg @ref LL_APB2_GRP1_PERIPH_TIM17 (*)
 755:Drivers/STM32F1xx_HAL_Driver/Inc/stm32f1xx_ll_bus.h ****   *         @arg @ref LL_APB2_GRP1_PERIPH_TIM1
 756:Drivers/STM32F1xx_HAL_Driver/Inc/stm32f1xx_ll_bus.h ****   *         @arg @ref LL_APB2_GRP1_PERIPH_TIM8 (*)
 757:Drivers/STM32F1xx_HAL_Driver/Inc/stm32f1xx_ll_bus.h ****   *         @arg @ref LL_APB2_GRP1_PERIPH_TIM9 (*)
 758:Drivers/STM32F1xx_HAL_Driver/Inc/stm32f1xx_ll_bus.h ****   *         @arg @ref LL_APB2_GRP1_PERIPH_USART1
 759:Drivers/STM32F1xx_HAL_Driver/Inc/stm32f1xx_ll_bus.h ****   *
 760:Drivers/STM32F1xx_HAL_Driver/Inc/stm32f1xx_ll_bus.h ****   *         (*) value not defined in all devices.
 761:Drivers/STM32F1xx_HAL_Driver/Inc/stm32f1xx_ll_bus.h ****   * @retval None
 762:Drivers/STM32F1xx_HAL_Driver/Inc/stm32f1xx_ll_bus.h **** */
 763:Drivers/STM32F1xx_HAL_Driver/Inc/stm32f1xx_ll_bus.h **** __STATIC_INLINE void LL_APB2_GRP1_EnableClock(uint32_t Periphs)
 764:Drivers/STM32F1xx_HAL_Driver/Inc/stm32f1xx_ll_bus.h **** {
 765:Drivers/STM32F1xx_HAL_Driver/Inc/stm32f1xx_ll_bus.h ****   __IO uint32_t tmpreg;
 766:Drivers/STM32F1xx_HAL_Driver/Inc/stm32f1xx_ll_bus.h ****   SET_BIT(RCC->APB2ENR, Periphs);
  70              		.loc 2 766 0
  71 0030 2C4E     		ldr	r6, .L4
  72              	.LBE53:
  73              	.LBE52:
  32:Src/tim.c     **** 
  74              		.loc 1 32 0
  75 0032 0C94     		str	r4, [sp, #48]
  34:Src/tim.c     ****   /* Peripheral clock enable */
  76              		.loc 1 34 0
  77 0034 0794     		str	r4, [sp, #28]
  32:Src/tim.c     **** 
  78              		.loc 1 32 0
  79 0036 1194     		str	r4, [sp, #68]
  80              	.LBB58:
  81              	.LBB54:
  82              		.loc 2 766 0
  83 0038 B369     		ldr	r3, [r6, #24]
  84              	.LBE54:
  85              	.LBE58:
  43:Src/tim.c     ****   LL_TIM_DisableARRPreload(TIM1);
  86              		.loc 1 43 0
  87 003a 2B4D     		ldr	r5, .L4+4
  88              	.LBB59:
  89              	.LBB55:
  90              		.loc 2 766 0
  91 003c 43F40063 		orr	r3, r3, #2048
  92 0040 B361     		str	r3, [r6, #24]
 767:Drivers/STM32F1xx_HAL_Driver/Inc/stm32f1xx_ll_bus.h ****   /* Delay after an RCC peripheral clock enabling */
ARM GAS  /var/folders/m1/3lv6xmzs0mlckxs4mx90nfb40000gn/T//ccFDK2TW.s 			page 17


 768:Drivers/STM32F1xx_HAL_Driver/Inc/stm32f1xx_ll_bus.h ****   tmpreg = READ_BIT(RCC->APB2ENR, Periphs);
  93              		.loc 2 768 0
  94 0042 B369     		ldr	r3, [r6, #24]
  95              	.LBE55:
  96              	.LBE59:
  43:Src/tim.c     ****   LL_TIM_DisableARRPreload(TIM1);
  97              		.loc 1 43 0
  98 0044 02A9     		add	r1, sp, #8
  99              	.LBB60:
 100              	.LBB56:
 101              		.loc 2 768 0
 102 0046 03F40063 		and	r3, r3, #2048
 103 004a 0193     		str	r3, [sp, #4]
 104              	.LBE56:
 105              	.LBE60:
  43:Src/tim.c     ****   LL_TIM_DisableARRPreload(TIM1);
 106              		.loc 1 43 0
 107 004c 2846     		mov	r0, r5
 108              	.LBB61:
 109              	.LBB57:
 769:Drivers/STM32F1xx_HAL_Driver/Inc/stm32f1xx_ll_bus.h ****   (void)tmpreg;
 110              		.loc 2 769 0
 111 004e 019B     		ldr	r3, [sp, #4]
 112              	.LVL2:
 113              	.LBE57:
 114              	.LBE61:
  40:Src/tim.c     ****   TIM_InitStruct.ClockDivision = LL_TIM_CLOCKDIVISION_DIV1;
 115              		.loc 1 40 0
 116 0050 0492     		str	r2, [sp, #16]
  43:Src/tim.c     ****   LL_TIM_DisableARRPreload(TIM1);
 117              		.loc 1 43 0
 118 0052 FFF7FEFF 		bl	LL_TIM_Init
 119              	.LVL3:
 120              	.LBB62:
 121              	.LBB63:
 122              		.file 3 "Drivers/STM32F1xx_HAL_Driver/Inc/stm32f1xx_ll_tim.h"
   1:Drivers/STM32F1xx_HAL_Driver/Inc/stm32f1xx_ll_tim.h **** /**
   2:Drivers/STM32F1xx_HAL_Driver/Inc/stm32f1xx_ll_tim.h ****   ******************************************************************************
   3:Drivers/STM32F1xx_HAL_Driver/Inc/stm32f1xx_ll_tim.h ****   * @file    stm32f1xx_ll_tim.h
   4:Drivers/STM32F1xx_HAL_Driver/Inc/stm32f1xx_ll_tim.h ****   * @author  MCD Application Team
   5:Drivers/STM32F1xx_HAL_Driver/Inc/stm32f1xx_ll_tim.h ****   * @brief   Header file of TIM LL module.
   6:Drivers/STM32F1xx_HAL_Driver/Inc/stm32f1xx_ll_tim.h ****   ******************************************************************************
   7:Drivers/STM32F1xx_HAL_Driver/Inc/stm32f1xx_ll_tim.h ****   * @attention
   8:Drivers/STM32F1xx_HAL_Driver/Inc/stm32f1xx_ll_tim.h ****   *
   9:Drivers/STM32F1xx_HAL_Driver/Inc/stm32f1xx_ll_tim.h ****   * <h2><center>&copy; Copyright (c) 2016 STMicroelectronics.
  10:Drivers/STM32F1xx_HAL_Driver/Inc/stm32f1xx_ll_tim.h ****   * All rights reserved.</center></h2>
  11:Drivers/STM32F1xx_HAL_Driver/Inc/stm32f1xx_ll_tim.h ****   *
  12:Drivers/STM32F1xx_HAL_Driver/Inc/stm32f1xx_ll_tim.h ****   * This software component is licensed by ST under BSD 3-Clause license,
  13:Drivers/STM32F1xx_HAL_Driver/Inc/stm32f1xx_ll_tim.h ****   * the "License"; You may not use this file except in compliance with the
  14:Drivers/STM32F1xx_HAL_Driver/Inc/stm32f1xx_ll_tim.h ****   * License. You may obtain a copy of the License at:
  15:Drivers/STM32F1xx_HAL_Driver/Inc/stm32f1xx_ll_tim.h ****   *                        opensource.org/licenses/BSD-3-Clause
  16:Drivers/STM32F1xx_HAL_Driver/Inc/stm32f1xx_ll_tim.h ****   *
  17:Drivers/STM32F1xx_HAL_Driver/Inc/stm32f1xx_ll_tim.h ****   ******************************************************************************
  18:Drivers/STM32F1xx_HAL_Driver/Inc/stm32f1xx_ll_tim.h ****   */
  19:Drivers/STM32F1xx_HAL_Driver/Inc/stm32f1xx_ll_tim.h **** 
  20:Drivers/STM32F1xx_HAL_Driver/Inc/stm32f1xx_ll_tim.h **** /* Define to prevent recursive inclusion -------------------------------------*/
  21:Drivers/STM32F1xx_HAL_Driver/Inc/stm32f1xx_ll_tim.h **** #ifndef __STM32F1xx_LL_TIM_H
ARM GAS  /var/folders/m1/3lv6xmzs0mlckxs4mx90nfb40000gn/T//ccFDK2TW.s 			page 18


  22:Drivers/STM32F1xx_HAL_Driver/Inc/stm32f1xx_ll_tim.h **** #define __STM32F1xx_LL_TIM_H
  23:Drivers/STM32F1xx_HAL_Driver/Inc/stm32f1xx_ll_tim.h **** 
  24:Drivers/STM32F1xx_HAL_Driver/Inc/stm32f1xx_ll_tim.h **** #ifdef __cplusplus
  25:Drivers/STM32F1xx_HAL_Driver/Inc/stm32f1xx_ll_tim.h **** extern "C" {
  26:Drivers/STM32F1xx_HAL_Driver/Inc/stm32f1xx_ll_tim.h **** #endif
  27:Drivers/STM32F1xx_HAL_Driver/Inc/stm32f1xx_ll_tim.h **** 
  28:Drivers/STM32F1xx_HAL_Driver/Inc/stm32f1xx_ll_tim.h **** /* Includes ------------------------------------------------------------------*/
  29:Drivers/STM32F1xx_HAL_Driver/Inc/stm32f1xx_ll_tim.h **** #include "stm32f1xx.h"
  30:Drivers/STM32F1xx_HAL_Driver/Inc/stm32f1xx_ll_tim.h **** 
  31:Drivers/STM32F1xx_HAL_Driver/Inc/stm32f1xx_ll_tim.h **** /** @addtogroup STM32F1xx_LL_Driver
  32:Drivers/STM32F1xx_HAL_Driver/Inc/stm32f1xx_ll_tim.h ****   * @{
  33:Drivers/STM32F1xx_HAL_Driver/Inc/stm32f1xx_ll_tim.h ****   */
  34:Drivers/STM32F1xx_HAL_Driver/Inc/stm32f1xx_ll_tim.h **** 
  35:Drivers/STM32F1xx_HAL_Driver/Inc/stm32f1xx_ll_tim.h **** #if defined (TIM1) || defined (TIM2) || defined (TIM3) || defined (TIM4) || defined (TIM5) || defin
  36:Drivers/STM32F1xx_HAL_Driver/Inc/stm32f1xx_ll_tim.h **** 
  37:Drivers/STM32F1xx_HAL_Driver/Inc/stm32f1xx_ll_tim.h **** /** @defgroup TIM_LL TIM
  38:Drivers/STM32F1xx_HAL_Driver/Inc/stm32f1xx_ll_tim.h ****   * @{
  39:Drivers/STM32F1xx_HAL_Driver/Inc/stm32f1xx_ll_tim.h ****   */
  40:Drivers/STM32F1xx_HAL_Driver/Inc/stm32f1xx_ll_tim.h **** 
  41:Drivers/STM32F1xx_HAL_Driver/Inc/stm32f1xx_ll_tim.h **** /* Private types -------------------------------------------------------------*/
  42:Drivers/STM32F1xx_HAL_Driver/Inc/stm32f1xx_ll_tim.h **** /* Private variables ---------------------------------------------------------*/
  43:Drivers/STM32F1xx_HAL_Driver/Inc/stm32f1xx_ll_tim.h **** /** @defgroup TIM_LL_Private_Variables TIM Private Variables
  44:Drivers/STM32F1xx_HAL_Driver/Inc/stm32f1xx_ll_tim.h ****   * @{
  45:Drivers/STM32F1xx_HAL_Driver/Inc/stm32f1xx_ll_tim.h ****   */
  46:Drivers/STM32F1xx_HAL_Driver/Inc/stm32f1xx_ll_tim.h **** static const uint8_t OFFSET_TAB_CCMRx[] =
  47:Drivers/STM32F1xx_HAL_Driver/Inc/stm32f1xx_ll_tim.h **** {
  48:Drivers/STM32F1xx_HAL_Driver/Inc/stm32f1xx_ll_tim.h ****   0x00U,   /* 0: TIMx_CH1  */
  49:Drivers/STM32F1xx_HAL_Driver/Inc/stm32f1xx_ll_tim.h ****   0x00U,   /* 1: TIMx_CH1N */
  50:Drivers/STM32F1xx_HAL_Driver/Inc/stm32f1xx_ll_tim.h ****   0x00U,   /* 2: TIMx_CH2  */
  51:Drivers/STM32F1xx_HAL_Driver/Inc/stm32f1xx_ll_tim.h ****   0x00U,   /* 3: TIMx_CH2N */
  52:Drivers/STM32F1xx_HAL_Driver/Inc/stm32f1xx_ll_tim.h ****   0x04U,   /* 4: TIMx_CH3  */
  53:Drivers/STM32F1xx_HAL_Driver/Inc/stm32f1xx_ll_tim.h ****   0x04U,   /* 5: TIMx_CH3N */
  54:Drivers/STM32F1xx_HAL_Driver/Inc/stm32f1xx_ll_tim.h ****   0x04U    /* 6: TIMx_CH4  */
  55:Drivers/STM32F1xx_HAL_Driver/Inc/stm32f1xx_ll_tim.h **** };
  56:Drivers/STM32F1xx_HAL_Driver/Inc/stm32f1xx_ll_tim.h **** 
  57:Drivers/STM32F1xx_HAL_Driver/Inc/stm32f1xx_ll_tim.h **** static const uint8_t SHIFT_TAB_OCxx[] =
  58:Drivers/STM32F1xx_HAL_Driver/Inc/stm32f1xx_ll_tim.h **** {
  59:Drivers/STM32F1xx_HAL_Driver/Inc/stm32f1xx_ll_tim.h ****   0U,            /* 0: OC1M, OC1FE, OC1PE */
  60:Drivers/STM32F1xx_HAL_Driver/Inc/stm32f1xx_ll_tim.h ****   0U,            /* 1: - NA */
  61:Drivers/STM32F1xx_HAL_Driver/Inc/stm32f1xx_ll_tim.h ****   8U,            /* 2: OC2M, OC2FE, OC2PE */
  62:Drivers/STM32F1xx_HAL_Driver/Inc/stm32f1xx_ll_tim.h ****   0U,            /* 3: - NA */
  63:Drivers/STM32F1xx_HAL_Driver/Inc/stm32f1xx_ll_tim.h ****   0U,            /* 4: OC3M, OC3FE, OC3PE */
  64:Drivers/STM32F1xx_HAL_Driver/Inc/stm32f1xx_ll_tim.h ****   0U,            /* 5: - NA */
  65:Drivers/STM32F1xx_HAL_Driver/Inc/stm32f1xx_ll_tim.h ****   8U             /* 6: OC4M, OC4FE, OC4PE */
  66:Drivers/STM32F1xx_HAL_Driver/Inc/stm32f1xx_ll_tim.h **** };
  67:Drivers/STM32F1xx_HAL_Driver/Inc/stm32f1xx_ll_tim.h **** 
  68:Drivers/STM32F1xx_HAL_Driver/Inc/stm32f1xx_ll_tim.h **** static const uint8_t SHIFT_TAB_ICxx[] =
  69:Drivers/STM32F1xx_HAL_Driver/Inc/stm32f1xx_ll_tim.h **** {
  70:Drivers/STM32F1xx_HAL_Driver/Inc/stm32f1xx_ll_tim.h ****   0U,            /* 0: CC1S, IC1PSC, IC1F */
  71:Drivers/STM32F1xx_HAL_Driver/Inc/stm32f1xx_ll_tim.h ****   0U,            /* 1: - NA */
  72:Drivers/STM32F1xx_HAL_Driver/Inc/stm32f1xx_ll_tim.h ****   8U,            /* 2: CC2S, IC2PSC, IC2F */
  73:Drivers/STM32F1xx_HAL_Driver/Inc/stm32f1xx_ll_tim.h ****   0U,            /* 3: - NA */
  74:Drivers/STM32F1xx_HAL_Driver/Inc/stm32f1xx_ll_tim.h ****   0U,            /* 4: CC3S, IC3PSC, IC3F */
  75:Drivers/STM32F1xx_HAL_Driver/Inc/stm32f1xx_ll_tim.h ****   0U,            /* 5: - NA */
  76:Drivers/STM32F1xx_HAL_Driver/Inc/stm32f1xx_ll_tim.h ****   8U             /* 6: CC4S, IC4PSC, IC4F */
  77:Drivers/STM32F1xx_HAL_Driver/Inc/stm32f1xx_ll_tim.h **** };
  78:Drivers/STM32F1xx_HAL_Driver/Inc/stm32f1xx_ll_tim.h **** 
ARM GAS  /var/folders/m1/3lv6xmzs0mlckxs4mx90nfb40000gn/T//ccFDK2TW.s 			page 19


  79:Drivers/STM32F1xx_HAL_Driver/Inc/stm32f1xx_ll_tim.h **** static const uint8_t SHIFT_TAB_CCxP[] =
  80:Drivers/STM32F1xx_HAL_Driver/Inc/stm32f1xx_ll_tim.h **** {
  81:Drivers/STM32F1xx_HAL_Driver/Inc/stm32f1xx_ll_tim.h ****   0U,            /* 0: CC1P */
  82:Drivers/STM32F1xx_HAL_Driver/Inc/stm32f1xx_ll_tim.h ****   2U,            /* 1: CC1NP */
  83:Drivers/STM32F1xx_HAL_Driver/Inc/stm32f1xx_ll_tim.h ****   4U,            /* 2: CC2P */
  84:Drivers/STM32F1xx_HAL_Driver/Inc/stm32f1xx_ll_tim.h ****   6U,            /* 3: CC2NP */
  85:Drivers/STM32F1xx_HAL_Driver/Inc/stm32f1xx_ll_tim.h ****   8U,            /* 4: CC3P */
  86:Drivers/STM32F1xx_HAL_Driver/Inc/stm32f1xx_ll_tim.h ****   10U,           /* 5: CC3NP */
  87:Drivers/STM32F1xx_HAL_Driver/Inc/stm32f1xx_ll_tim.h ****   12U            /* 6: CC4P */
  88:Drivers/STM32F1xx_HAL_Driver/Inc/stm32f1xx_ll_tim.h **** };
  89:Drivers/STM32F1xx_HAL_Driver/Inc/stm32f1xx_ll_tim.h **** 
  90:Drivers/STM32F1xx_HAL_Driver/Inc/stm32f1xx_ll_tim.h **** static const uint8_t SHIFT_TAB_OISx[] =
  91:Drivers/STM32F1xx_HAL_Driver/Inc/stm32f1xx_ll_tim.h **** {
  92:Drivers/STM32F1xx_HAL_Driver/Inc/stm32f1xx_ll_tim.h ****   0U,            /* 0: OIS1 */
  93:Drivers/STM32F1xx_HAL_Driver/Inc/stm32f1xx_ll_tim.h ****   1U,            /* 1: OIS1N */
  94:Drivers/STM32F1xx_HAL_Driver/Inc/stm32f1xx_ll_tim.h ****   2U,            /* 2: OIS2 */
  95:Drivers/STM32F1xx_HAL_Driver/Inc/stm32f1xx_ll_tim.h ****   3U,            /* 3: OIS2N */
  96:Drivers/STM32F1xx_HAL_Driver/Inc/stm32f1xx_ll_tim.h ****   4U,            /* 4: OIS3 */
  97:Drivers/STM32F1xx_HAL_Driver/Inc/stm32f1xx_ll_tim.h ****   5U,            /* 5: OIS3N */
  98:Drivers/STM32F1xx_HAL_Driver/Inc/stm32f1xx_ll_tim.h ****   6U             /* 6: OIS4 */
  99:Drivers/STM32F1xx_HAL_Driver/Inc/stm32f1xx_ll_tim.h **** };
 100:Drivers/STM32F1xx_HAL_Driver/Inc/stm32f1xx_ll_tim.h **** /**
 101:Drivers/STM32F1xx_HAL_Driver/Inc/stm32f1xx_ll_tim.h ****   * @}
 102:Drivers/STM32F1xx_HAL_Driver/Inc/stm32f1xx_ll_tim.h ****   */
 103:Drivers/STM32F1xx_HAL_Driver/Inc/stm32f1xx_ll_tim.h **** 
 104:Drivers/STM32F1xx_HAL_Driver/Inc/stm32f1xx_ll_tim.h **** /* Private constants ---------------------------------------------------------*/
 105:Drivers/STM32F1xx_HAL_Driver/Inc/stm32f1xx_ll_tim.h **** /** @defgroup TIM_LL_Private_Constants TIM Private Constants
 106:Drivers/STM32F1xx_HAL_Driver/Inc/stm32f1xx_ll_tim.h ****   * @{
 107:Drivers/STM32F1xx_HAL_Driver/Inc/stm32f1xx_ll_tim.h ****   */
 108:Drivers/STM32F1xx_HAL_Driver/Inc/stm32f1xx_ll_tim.h **** 
 109:Drivers/STM32F1xx_HAL_Driver/Inc/stm32f1xx_ll_tim.h **** 
 110:Drivers/STM32F1xx_HAL_Driver/Inc/stm32f1xx_ll_tim.h **** 
 111:Drivers/STM32F1xx_HAL_Driver/Inc/stm32f1xx_ll_tim.h **** /* Mask used to set the TDG[x:0] of the DTG bits of the TIMx_BDTR register */
 112:Drivers/STM32F1xx_HAL_Driver/Inc/stm32f1xx_ll_tim.h **** #define DT_DELAY_1 ((uint8_t)0x7F)
 113:Drivers/STM32F1xx_HAL_Driver/Inc/stm32f1xx_ll_tim.h **** #define DT_DELAY_2 ((uint8_t)0x3F)
 114:Drivers/STM32F1xx_HAL_Driver/Inc/stm32f1xx_ll_tim.h **** #define DT_DELAY_3 ((uint8_t)0x1F)
 115:Drivers/STM32F1xx_HAL_Driver/Inc/stm32f1xx_ll_tim.h **** #define DT_DELAY_4 ((uint8_t)0x1F)
 116:Drivers/STM32F1xx_HAL_Driver/Inc/stm32f1xx_ll_tim.h **** 
 117:Drivers/STM32F1xx_HAL_Driver/Inc/stm32f1xx_ll_tim.h **** /* Mask used to set the DTG[7:5] bits of the DTG bits of the TIMx_BDTR register */
 118:Drivers/STM32F1xx_HAL_Driver/Inc/stm32f1xx_ll_tim.h **** #define DT_RANGE_1 ((uint8_t)0x00)
 119:Drivers/STM32F1xx_HAL_Driver/Inc/stm32f1xx_ll_tim.h **** #define DT_RANGE_2 ((uint8_t)0x80)
 120:Drivers/STM32F1xx_HAL_Driver/Inc/stm32f1xx_ll_tim.h **** #define DT_RANGE_3 ((uint8_t)0xC0)
 121:Drivers/STM32F1xx_HAL_Driver/Inc/stm32f1xx_ll_tim.h **** #define DT_RANGE_4 ((uint8_t)0xE0)
 122:Drivers/STM32F1xx_HAL_Driver/Inc/stm32f1xx_ll_tim.h **** 
 123:Drivers/STM32F1xx_HAL_Driver/Inc/stm32f1xx_ll_tim.h **** 
 124:Drivers/STM32F1xx_HAL_Driver/Inc/stm32f1xx_ll_tim.h **** /**
 125:Drivers/STM32F1xx_HAL_Driver/Inc/stm32f1xx_ll_tim.h ****   * @}
 126:Drivers/STM32F1xx_HAL_Driver/Inc/stm32f1xx_ll_tim.h ****   */
 127:Drivers/STM32F1xx_HAL_Driver/Inc/stm32f1xx_ll_tim.h **** 
 128:Drivers/STM32F1xx_HAL_Driver/Inc/stm32f1xx_ll_tim.h **** /* Private macros ------------------------------------------------------------*/
 129:Drivers/STM32F1xx_HAL_Driver/Inc/stm32f1xx_ll_tim.h **** /** @defgroup TIM_LL_Private_Macros TIM Private Macros
 130:Drivers/STM32F1xx_HAL_Driver/Inc/stm32f1xx_ll_tim.h ****   * @{
 131:Drivers/STM32F1xx_HAL_Driver/Inc/stm32f1xx_ll_tim.h ****   */
 132:Drivers/STM32F1xx_HAL_Driver/Inc/stm32f1xx_ll_tim.h **** /** @brief  Convert channel id into channel index.
 133:Drivers/STM32F1xx_HAL_Driver/Inc/stm32f1xx_ll_tim.h ****   * @param  __CHANNEL__ This parameter can be one of the following values:
 134:Drivers/STM32F1xx_HAL_Driver/Inc/stm32f1xx_ll_tim.h ****   *         @arg @ref LL_TIM_CHANNEL_CH1
 135:Drivers/STM32F1xx_HAL_Driver/Inc/stm32f1xx_ll_tim.h ****   *         @arg @ref LL_TIM_CHANNEL_CH1N
ARM GAS  /var/folders/m1/3lv6xmzs0mlckxs4mx90nfb40000gn/T//ccFDK2TW.s 			page 20


 136:Drivers/STM32F1xx_HAL_Driver/Inc/stm32f1xx_ll_tim.h ****   *         @arg @ref LL_TIM_CHANNEL_CH2
 137:Drivers/STM32F1xx_HAL_Driver/Inc/stm32f1xx_ll_tim.h ****   *         @arg @ref LL_TIM_CHANNEL_CH2N
 138:Drivers/STM32F1xx_HAL_Driver/Inc/stm32f1xx_ll_tim.h ****   *         @arg @ref LL_TIM_CHANNEL_CH3
 139:Drivers/STM32F1xx_HAL_Driver/Inc/stm32f1xx_ll_tim.h ****   *         @arg @ref LL_TIM_CHANNEL_CH3N
 140:Drivers/STM32F1xx_HAL_Driver/Inc/stm32f1xx_ll_tim.h ****   *         @arg @ref LL_TIM_CHANNEL_CH4
 141:Drivers/STM32F1xx_HAL_Driver/Inc/stm32f1xx_ll_tim.h ****   * @retval none
 142:Drivers/STM32F1xx_HAL_Driver/Inc/stm32f1xx_ll_tim.h ****   */
 143:Drivers/STM32F1xx_HAL_Driver/Inc/stm32f1xx_ll_tim.h **** #define TIM_GET_CHANNEL_INDEX( __CHANNEL__) \
 144:Drivers/STM32F1xx_HAL_Driver/Inc/stm32f1xx_ll_tim.h ****   (((__CHANNEL__) == LL_TIM_CHANNEL_CH1) ? 0U :\
 145:Drivers/STM32F1xx_HAL_Driver/Inc/stm32f1xx_ll_tim.h ****    ((__CHANNEL__) == LL_TIM_CHANNEL_CH1N) ? 1U :\
 146:Drivers/STM32F1xx_HAL_Driver/Inc/stm32f1xx_ll_tim.h ****    ((__CHANNEL__) == LL_TIM_CHANNEL_CH2) ? 2U :\
 147:Drivers/STM32F1xx_HAL_Driver/Inc/stm32f1xx_ll_tim.h ****    ((__CHANNEL__) == LL_TIM_CHANNEL_CH2N) ? 3U :\
 148:Drivers/STM32F1xx_HAL_Driver/Inc/stm32f1xx_ll_tim.h ****    ((__CHANNEL__) == LL_TIM_CHANNEL_CH3) ? 4U :\
 149:Drivers/STM32F1xx_HAL_Driver/Inc/stm32f1xx_ll_tim.h ****    ((__CHANNEL__) == LL_TIM_CHANNEL_CH3N) ? 5U : 6U)
 150:Drivers/STM32F1xx_HAL_Driver/Inc/stm32f1xx_ll_tim.h **** 
 151:Drivers/STM32F1xx_HAL_Driver/Inc/stm32f1xx_ll_tim.h **** /** @brief  Calculate the deadtime sampling period(in ps).
 152:Drivers/STM32F1xx_HAL_Driver/Inc/stm32f1xx_ll_tim.h ****   * @param  __TIMCLK__ timer input clock frequency (in Hz).
 153:Drivers/STM32F1xx_HAL_Driver/Inc/stm32f1xx_ll_tim.h ****   * @param  __CKD__ This parameter can be one of the following values:
 154:Drivers/STM32F1xx_HAL_Driver/Inc/stm32f1xx_ll_tim.h ****   *         @arg @ref LL_TIM_CLOCKDIVISION_DIV1
 155:Drivers/STM32F1xx_HAL_Driver/Inc/stm32f1xx_ll_tim.h ****   *         @arg @ref LL_TIM_CLOCKDIVISION_DIV2
 156:Drivers/STM32F1xx_HAL_Driver/Inc/stm32f1xx_ll_tim.h ****   *         @arg @ref LL_TIM_CLOCKDIVISION_DIV4
 157:Drivers/STM32F1xx_HAL_Driver/Inc/stm32f1xx_ll_tim.h ****   * @retval none
 158:Drivers/STM32F1xx_HAL_Driver/Inc/stm32f1xx_ll_tim.h ****   */
 159:Drivers/STM32F1xx_HAL_Driver/Inc/stm32f1xx_ll_tim.h **** #define TIM_CALC_DTS(__TIMCLK__, __CKD__)                                                        \
 160:Drivers/STM32F1xx_HAL_Driver/Inc/stm32f1xx_ll_tim.h ****   (((__CKD__) == LL_TIM_CLOCKDIVISION_DIV1) ? ((uint64_t)1000000000000U/(__TIMCLK__))         : \
 161:Drivers/STM32F1xx_HAL_Driver/Inc/stm32f1xx_ll_tim.h ****    ((__CKD__) == LL_TIM_CLOCKDIVISION_DIV2) ? ((uint64_t)1000000000000U/((__TIMCLK__) >> 1U)) : \
 162:Drivers/STM32F1xx_HAL_Driver/Inc/stm32f1xx_ll_tim.h ****    ((uint64_t)1000000000000U/((__TIMCLK__) >> 2U)))
 163:Drivers/STM32F1xx_HAL_Driver/Inc/stm32f1xx_ll_tim.h **** /**
 164:Drivers/STM32F1xx_HAL_Driver/Inc/stm32f1xx_ll_tim.h ****   * @}
 165:Drivers/STM32F1xx_HAL_Driver/Inc/stm32f1xx_ll_tim.h ****   */
 166:Drivers/STM32F1xx_HAL_Driver/Inc/stm32f1xx_ll_tim.h **** 
 167:Drivers/STM32F1xx_HAL_Driver/Inc/stm32f1xx_ll_tim.h **** 
 168:Drivers/STM32F1xx_HAL_Driver/Inc/stm32f1xx_ll_tim.h **** /* Exported types ------------------------------------------------------------*/
 169:Drivers/STM32F1xx_HAL_Driver/Inc/stm32f1xx_ll_tim.h **** #if defined(USE_FULL_LL_DRIVER)
 170:Drivers/STM32F1xx_HAL_Driver/Inc/stm32f1xx_ll_tim.h **** /** @defgroup TIM_LL_ES_INIT TIM Exported Init structure
 171:Drivers/STM32F1xx_HAL_Driver/Inc/stm32f1xx_ll_tim.h ****   * @{
 172:Drivers/STM32F1xx_HAL_Driver/Inc/stm32f1xx_ll_tim.h ****   */
 173:Drivers/STM32F1xx_HAL_Driver/Inc/stm32f1xx_ll_tim.h **** 
 174:Drivers/STM32F1xx_HAL_Driver/Inc/stm32f1xx_ll_tim.h **** /**
 175:Drivers/STM32F1xx_HAL_Driver/Inc/stm32f1xx_ll_tim.h ****   * @brief  TIM Time Base configuration structure definition.
 176:Drivers/STM32F1xx_HAL_Driver/Inc/stm32f1xx_ll_tim.h ****   */
 177:Drivers/STM32F1xx_HAL_Driver/Inc/stm32f1xx_ll_tim.h **** typedef struct
 178:Drivers/STM32F1xx_HAL_Driver/Inc/stm32f1xx_ll_tim.h **** {
 179:Drivers/STM32F1xx_HAL_Driver/Inc/stm32f1xx_ll_tim.h ****   uint16_t Prescaler;         /*!< Specifies the prescaler value used to divide the TIM clock.
 180:Drivers/STM32F1xx_HAL_Driver/Inc/stm32f1xx_ll_tim.h ****                                    This parameter can be a number between Min_Data=0x0000 and Max_D
 181:Drivers/STM32F1xx_HAL_Driver/Inc/stm32f1xx_ll_tim.h **** 
 182:Drivers/STM32F1xx_HAL_Driver/Inc/stm32f1xx_ll_tim.h ****                                    This feature can be modified afterwards using unitary function @
 183:Drivers/STM32F1xx_HAL_Driver/Inc/stm32f1xx_ll_tim.h **** 
 184:Drivers/STM32F1xx_HAL_Driver/Inc/stm32f1xx_ll_tim.h ****   uint32_t CounterMode;       /*!< Specifies the counter mode.
 185:Drivers/STM32F1xx_HAL_Driver/Inc/stm32f1xx_ll_tim.h ****                                    This parameter can be a value of @ref TIM_LL_EC_COUNTERMODE.
 186:Drivers/STM32F1xx_HAL_Driver/Inc/stm32f1xx_ll_tim.h **** 
 187:Drivers/STM32F1xx_HAL_Driver/Inc/stm32f1xx_ll_tim.h ****                                    This feature can be modified afterwards using unitary function @
 188:Drivers/STM32F1xx_HAL_Driver/Inc/stm32f1xx_ll_tim.h **** 
 189:Drivers/STM32F1xx_HAL_Driver/Inc/stm32f1xx_ll_tim.h ****   uint32_t Autoreload;        /*!< Specifies the auto reload value to be loaded into the active
 190:Drivers/STM32F1xx_HAL_Driver/Inc/stm32f1xx_ll_tim.h ****                                    Auto-Reload Register at the next update event.
 191:Drivers/STM32F1xx_HAL_Driver/Inc/stm32f1xx_ll_tim.h ****                                    This parameter must be a number between Min_Data=0x0000 and Max_
 192:Drivers/STM32F1xx_HAL_Driver/Inc/stm32f1xx_ll_tim.h ****                                    Some timer instances may support 32 bits counters. In that case 
ARM GAS  /var/folders/m1/3lv6xmzs0mlckxs4mx90nfb40000gn/T//ccFDK2TW.s 			page 21


 193:Drivers/STM32F1xx_HAL_Driver/Inc/stm32f1xx_ll_tim.h **** 
 194:Drivers/STM32F1xx_HAL_Driver/Inc/stm32f1xx_ll_tim.h ****                                    This feature can be modified afterwards using unitary function @
 195:Drivers/STM32F1xx_HAL_Driver/Inc/stm32f1xx_ll_tim.h **** 
 196:Drivers/STM32F1xx_HAL_Driver/Inc/stm32f1xx_ll_tim.h ****   uint32_t ClockDivision;     /*!< Specifies the clock division.
 197:Drivers/STM32F1xx_HAL_Driver/Inc/stm32f1xx_ll_tim.h ****                                    This parameter can be a value of @ref TIM_LL_EC_CLOCKDIVISION.
 198:Drivers/STM32F1xx_HAL_Driver/Inc/stm32f1xx_ll_tim.h **** 
 199:Drivers/STM32F1xx_HAL_Driver/Inc/stm32f1xx_ll_tim.h ****                                    This feature can be modified afterwards using unitary function @
 200:Drivers/STM32F1xx_HAL_Driver/Inc/stm32f1xx_ll_tim.h **** 
 201:Drivers/STM32F1xx_HAL_Driver/Inc/stm32f1xx_ll_tim.h ****   uint8_t RepetitionCounter;  /*!< Specifies the repetition counter value. Each time the RCR downco
 202:Drivers/STM32F1xx_HAL_Driver/Inc/stm32f1xx_ll_tim.h ****                                    reaches zero, an update event is generated and counting restarts
 203:Drivers/STM32F1xx_HAL_Driver/Inc/stm32f1xx_ll_tim.h ****                                    from the RCR value (N).
 204:Drivers/STM32F1xx_HAL_Driver/Inc/stm32f1xx_ll_tim.h ****                                    This means in PWM mode that (N+1) corresponds to:
 205:Drivers/STM32F1xx_HAL_Driver/Inc/stm32f1xx_ll_tim.h ****                                       - the number of PWM periods in edge-aligned mode
 206:Drivers/STM32F1xx_HAL_Driver/Inc/stm32f1xx_ll_tim.h ****                                       - the number of half PWM period in center-aligned mode
 207:Drivers/STM32F1xx_HAL_Driver/Inc/stm32f1xx_ll_tim.h ****                                    This parameter must be a number between 0x00 and 0xFF.
 208:Drivers/STM32F1xx_HAL_Driver/Inc/stm32f1xx_ll_tim.h **** 
 209:Drivers/STM32F1xx_HAL_Driver/Inc/stm32f1xx_ll_tim.h ****                                    This feature can be modified afterwards using unitary function @
 210:Drivers/STM32F1xx_HAL_Driver/Inc/stm32f1xx_ll_tim.h **** } LL_TIM_InitTypeDef;
 211:Drivers/STM32F1xx_HAL_Driver/Inc/stm32f1xx_ll_tim.h **** 
 212:Drivers/STM32F1xx_HAL_Driver/Inc/stm32f1xx_ll_tim.h **** /**
 213:Drivers/STM32F1xx_HAL_Driver/Inc/stm32f1xx_ll_tim.h ****   * @brief  TIM Output Compare configuration structure definition.
 214:Drivers/STM32F1xx_HAL_Driver/Inc/stm32f1xx_ll_tim.h ****   */
 215:Drivers/STM32F1xx_HAL_Driver/Inc/stm32f1xx_ll_tim.h **** typedef struct
 216:Drivers/STM32F1xx_HAL_Driver/Inc/stm32f1xx_ll_tim.h **** {
 217:Drivers/STM32F1xx_HAL_Driver/Inc/stm32f1xx_ll_tim.h ****   uint32_t OCMode;        /*!< Specifies the output mode.
 218:Drivers/STM32F1xx_HAL_Driver/Inc/stm32f1xx_ll_tim.h ****                                This parameter can be a value of @ref TIM_LL_EC_OCMODE.
 219:Drivers/STM32F1xx_HAL_Driver/Inc/stm32f1xx_ll_tim.h **** 
 220:Drivers/STM32F1xx_HAL_Driver/Inc/stm32f1xx_ll_tim.h ****                                This feature can be modified afterwards using unitary function @ref 
 221:Drivers/STM32F1xx_HAL_Driver/Inc/stm32f1xx_ll_tim.h **** 
 222:Drivers/STM32F1xx_HAL_Driver/Inc/stm32f1xx_ll_tim.h ****   uint32_t OCState;       /*!< Specifies the TIM Output Compare state.
 223:Drivers/STM32F1xx_HAL_Driver/Inc/stm32f1xx_ll_tim.h ****                                This parameter can be a value of @ref TIM_LL_EC_OCSTATE.
 224:Drivers/STM32F1xx_HAL_Driver/Inc/stm32f1xx_ll_tim.h **** 
 225:Drivers/STM32F1xx_HAL_Driver/Inc/stm32f1xx_ll_tim.h ****                                This feature can be modified afterwards using unitary functions @ref
 226:Drivers/STM32F1xx_HAL_Driver/Inc/stm32f1xx_ll_tim.h **** 
 227:Drivers/STM32F1xx_HAL_Driver/Inc/stm32f1xx_ll_tim.h ****   uint32_t OCNState;      /*!< Specifies the TIM complementary Output Compare state.
 228:Drivers/STM32F1xx_HAL_Driver/Inc/stm32f1xx_ll_tim.h ****                                This parameter can be a value of @ref TIM_LL_EC_OCSTATE.
 229:Drivers/STM32F1xx_HAL_Driver/Inc/stm32f1xx_ll_tim.h **** 
 230:Drivers/STM32F1xx_HAL_Driver/Inc/stm32f1xx_ll_tim.h ****                                This feature can be modified afterwards using unitary functions @ref
 231:Drivers/STM32F1xx_HAL_Driver/Inc/stm32f1xx_ll_tim.h **** 
 232:Drivers/STM32F1xx_HAL_Driver/Inc/stm32f1xx_ll_tim.h ****   uint32_t CompareValue;  /*!< Specifies the Compare value to be loaded into the Capture Compare Re
 233:Drivers/STM32F1xx_HAL_Driver/Inc/stm32f1xx_ll_tim.h ****                                This parameter can be a number between Min_Data=0x0000 and Max_Data=
 234:Drivers/STM32F1xx_HAL_Driver/Inc/stm32f1xx_ll_tim.h **** 
 235:Drivers/STM32F1xx_HAL_Driver/Inc/stm32f1xx_ll_tim.h ****                                This feature can be modified afterwards using unitary function LL_TI
 236:Drivers/STM32F1xx_HAL_Driver/Inc/stm32f1xx_ll_tim.h **** 
 237:Drivers/STM32F1xx_HAL_Driver/Inc/stm32f1xx_ll_tim.h ****   uint32_t OCPolarity;    /*!< Specifies the output polarity.
 238:Drivers/STM32F1xx_HAL_Driver/Inc/stm32f1xx_ll_tim.h ****                                This parameter can be a value of @ref TIM_LL_EC_OCPOLARITY.
 239:Drivers/STM32F1xx_HAL_Driver/Inc/stm32f1xx_ll_tim.h **** 
 240:Drivers/STM32F1xx_HAL_Driver/Inc/stm32f1xx_ll_tim.h ****                                This feature can be modified afterwards using unitary function @ref 
 241:Drivers/STM32F1xx_HAL_Driver/Inc/stm32f1xx_ll_tim.h **** 
 242:Drivers/STM32F1xx_HAL_Driver/Inc/stm32f1xx_ll_tim.h ****   uint32_t OCNPolarity;   /*!< Specifies the complementary output polarity.
 243:Drivers/STM32F1xx_HAL_Driver/Inc/stm32f1xx_ll_tim.h ****                                This parameter can be a value of @ref TIM_LL_EC_OCPOLARITY.
 244:Drivers/STM32F1xx_HAL_Driver/Inc/stm32f1xx_ll_tim.h **** 
 245:Drivers/STM32F1xx_HAL_Driver/Inc/stm32f1xx_ll_tim.h ****                                This feature can be modified afterwards using unitary function @ref 
 246:Drivers/STM32F1xx_HAL_Driver/Inc/stm32f1xx_ll_tim.h **** 
 247:Drivers/STM32F1xx_HAL_Driver/Inc/stm32f1xx_ll_tim.h **** 
 248:Drivers/STM32F1xx_HAL_Driver/Inc/stm32f1xx_ll_tim.h ****   uint32_t OCIdleState;   /*!< Specifies the TIM Output Compare pin state during Idle state.
 249:Drivers/STM32F1xx_HAL_Driver/Inc/stm32f1xx_ll_tim.h ****                                This parameter can be a value of @ref TIM_LL_EC_OCIDLESTATE.
ARM GAS  /var/folders/m1/3lv6xmzs0mlckxs4mx90nfb40000gn/T//ccFDK2TW.s 			page 22


 250:Drivers/STM32F1xx_HAL_Driver/Inc/stm32f1xx_ll_tim.h **** 
 251:Drivers/STM32F1xx_HAL_Driver/Inc/stm32f1xx_ll_tim.h ****                                This feature can be modified afterwards using unitary function @ref 
 252:Drivers/STM32F1xx_HAL_Driver/Inc/stm32f1xx_ll_tim.h **** 
 253:Drivers/STM32F1xx_HAL_Driver/Inc/stm32f1xx_ll_tim.h ****   uint32_t OCNIdleState;  /*!< Specifies the TIM Output Compare pin state during Idle state.
 254:Drivers/STM32F1xx_HAL_Driver/Inc/stm32f1xx_ll_tim.h ****                                This parameter can be a value of @ref TIM_LL_EC_OCIDLESTATE.
 255:Drivers/STM32F1xx_HAL_Driver/Inc/stm32f1xx_ll_tim.h **** 
 256:Drivers/STM32F1xx_HAL_Driver/Inc/stm32f1xx_ll_tim.h ****                                This feature can be modified afterwards using unitary function @ref 
 257:Drivers/STM32F1xx_HAL_Driver/Inc/stm32f1xx_ll_tim.h **** } LL_TIM_OC_InitTypeDef;
 258:Drivers/STM32F1xx_HAL_Driver/Inc/stm32f1xx_ll_tim.h **** 
 259:Drivers/STM32F1xx_HAL_Driver/Inc/stm32f1xx_ll_tim.h **** /**
 260:Drivers/STM32F1xx_HAL_Driver/Inc/stm32f1xx_ll_tim.h ****   * @brief  TIM Input Capture configuration structure definition.
 261:Drivers/STM32F1xx_HAL_Driver/Inc/stm32f1xx_ll_tim.h ****   */
 262:Drivers/STM32F1xx_HAL_Driver/Inc/stm32f1xx_ll_tim.h **** 
 263:Drivers/STM32F1xx_HAL_Driver/Inc/stm32f1xx_ll_tim.h **** typedef struct
 264:Drivers/STM32F1xx_HAL_Driver/Inc/stm32f1xx_ll_tim.h **** {
 265:Drivers/STM32F1xx_HAL_Driver/Inc/stm32f1xx_ll_tim.h **** 
 266:Drivers/STM32F1xx_HAL_Driver/Inc/stm32f1xx_ll_tim.h ****   uint32_t ICPolarity;    /*!< Specifies the active edge of the input signal.
 267:Drivers/STM32F1xx_HAL_Driver/Inc/stm32f1xx_ll_tim.h ****                                This parameter can be a value of @ref TIM_LL_EC_IC_POLARITY.
 268:Drivers/STM32F1xx_HAL_Driver/Inc/stm32f1xx_ll_tim.h **** 
 269:Drivers/STM32F1xx_HAL_Driver/Inc/stm32f1xx_ll_tim.h ****                                This feature can be modified afterwards using unitary function @ref 
 270:Drivers/STM32F1xx_HAL_Driver/Inc/stm32f1xx_ll_tim.h **** 
 271:Drivers/STM32F1xx_HAL_Driver/Inc/stm32f1xx_ll_tim.h ****   uint32_t ICActiveInput; /*!< Specifies the input.
 272:Drivers/STM32F1xx_HAL_Driver/Inc/stm32f1xx_ll_tim.h ****                                This parameter can be a value of @ref TIM_LL_EC_ACTIVEINPUT.
 273:Drivers/STM32F1xx_HAL_Driver/Inc/stm32f1xx_ll_tim.h **** 
 274:Drivers/STM32F1xx_HAL_Driver/Inc/stm32f1xx_ll_tim.h ****                                This feature can be modified afterwards using unitary function @ref 
 275:Drivers/STM32F1xx_HAL_Driver/Inc/stm32f1xx_ll_tim.h **** 
 276:Drivers/STM32F1xx_HAL_Driver/Inc/stm32f1xx_ll_tim.h ****   uint32_t ICPrescaler;   /*!< Specifies the Input Capture Prescaler.
 277:Drivers/STM32F1xx_HAL_Driver/Inc/stm32f1xx_ll_tim.h ****                                This parameter can be a value of @ref TIM_LL_EC_ICPSC.
 278:Drivers/STM32F1xx_HAL_Driver/Inc/stm32f1xx_ll_tim.h **** 
 279:Drivers/STM32F1xx_HAL_Driver/Inc/stm32f1xx_ll_tim.h ****                                This feature can be modified afterwards using unitary function @ref 
 280:Drivers/STM32F1xx_HAL_Driver/Inc/stm32f1xx_ll_tim.h **** 
 281:Drivers/STM32F1xx_HAL_Driver/Inc/stm32f1xx_ll_tim.h ****   uint32_t ICFilter;      /*!< Specifies the input capture filter.
 282:Drivers/STM32F1xx_HAL_Driver/Inc/stm32f1xx_ll_tim.h ****                                This parameter can be a value of @ref TIM_LL_EC_IC_FILTER.
 283:Drivers/STM32F1xx_HAL_Driver/Inc/stm32f1xx_ll_tim.h **** 
 284:Drivers/STM32F1xx_HAL_Driver/Inc/stm32f1xx_ll_tim.h ****                                This feature can be modified afterwards using unitary function @ref 
 285:Drivers/STM32F1xx_HAL_Driver/Inc/stm32f1xx_ll_tim.h **** } LL_TIM_IC_InitTypeDef;
 286:Drivers/STM32F1xx_HAL_Driver/Inc/stm32f1xx_ll_tim.h **** 
 287:Drivers/STM32F1xx_HAL_Driver/Inc/stm32f1xx_ll_tim.h **** 
 288:Drivers/STM32F1xx_HAL_Driver/Inc/stm32f1xx_ll_tim.h **** /**
 289:Drivers/STM32F1xx_HAL_Driver/Inc/stm32f1xx_ll_tim.h ****   * @brief  TIM Encoder interface configuration structure definition.
 290:Drivers/STM32F1xx_HAL_Driver/Inc/stm32f1xx_ll_tim.h ****   */
 291:Drivers/STM32F1xx_HAL_Driver/Inc/stm32f1xx_ll_tim.h **** typedef struct
 292:Drivers/STM32F1xx_HAL_Driver/Inc/stm32f1xx_ll_tim.h **** {
 293:Drivers/STM32F1xx_HAL_Driver/Inc/stm32f1xx_ll_tim.h ****   uint32_t EncoderMode;     /*!< Specifies the encoder resolution (x2 or x4).
 294:Drivers/STM32F1xx_HAL_Driver/Inc/stm32f1xx_ll_tim.h ****                                  This parameter can be a value of @ref TIM_LL_EC_ENCODERMODE.
 295:Drivers/STM32F1xx_HAL_Driver/Inc/stm32f1xx_ll_tim.h **** 
 296:Drivers/STM32F1xx_HAL_Driver/Inc/stm32f1xx_ll_tim.h ****                                  This feature can be modified afterwards using unitary function @re
 297:Drivers/STM32F1xx_HAL_Driver/Inc/stm32f1xx_ll_tim.h **** 
 298:Drivers/STM32F1xx_HAL_Driver/Inc/stm32f1xx_ll_tim.h ****   uint32_t IC1Polarity;     /*!< Specifies the active edge of TI1 input.
 299:Drivers/STM32F1xx_HAL_Driver/Inc/stm32f1xx_ll_tim.h ****                                  This parameter can be a value of @ref TIM_LL_EC_IC_POLARITY.
 300:Drivers/STM32F1xx_HAL_Driver/Inc/stm32f1xx_ll_tim.h **** 
 301:Drivers/STM32F1xx_HAL_Driver/Inc/stm32f1xx_ll_tim.h ****                                  This feature can be modified afterwards using unitary function @re
 302:Drivers/STM32F1xx_HAL_Driver/Inc/stm32f1xx_ll_tim.h **** 
 303:Drivers/STM32F1xx_HAL_Driver/Inc/stm32f1xx_ll_tim.h ****   uint32_t IC1ActiveInput;  /*!< Specifies the TI1 input source
 304:Drivers/STM32F1xx_HAL_Driver/Inc/stm32f1xx_ll_tim.h ****                                  This parameter can be a value of @ref TIM_LL_EC_ACTIVEINPUT.
 305:Drivers/STM32F1xx_HAL_Driver/Inc/stm32f1xx_ll_tim.h **** 
 306:Drivers/STM32F1xx_HAL_Driver/Inc/stm32f1xx_ll_tim.h ****                                  This feature can be modified afterwards using unitary function @re
ARM GAS  /var/folders/m1/3lv6xmzs0mlckxs4mx90nfb40000gn/T//ccFDK2TW.s 			page 23


 307:Drivers/STM32F1xx_HAL_Driver/Inc/stm32f1xx_ll_tim.h **** 
 308:Drivers/STM32F1xx_HAL_Driver/Inc/stm32f1xx_ll_tim.h ****   uint32_t IC1Prescaler;    /*!< Specifies the TI1 input prescaler value.
 309:Drivers/STM32F1xx_HAL_Driver/Inc/stm32f1xx_ll_tim.h ****                                  This parameter can be a value of @ref TIM_LL_EC_ICPSC.
 310:Drivers/STM32F1xx_HAL_Driver/Inc/stm32f1xx_ll_tim.h **** 
 311:Drivers/STM32F1xx_HAL_Driver/Inc/stm32f1xx_ll_tim.h ****                                  This feature can be modified afterwards using unitary function @re
 312:Drivers/STM32F1xx_HAL_Driver/Inc/stm32f1xx_ll_tim.h **** 
 313:Drivers/STM32F1xx_HAL_Driver/Inc/stm32f1xx_ll_tim.h ****   uint32_t IC1Filter;       /*!< Specifies the TI1 input filter.
 314:Drivers/STM32F1xx_HAL_Driver/Inc/stm32f1xx_ll_tim.h ****                                  This parameter can be a value of @ref TIM_LL_EC_IC_FILTER.
 315:Drivers/STM32F1xx_HAL_Driver/Inc/stm32f1xx_ll_tim.h **** 
 316:Drivers/STM32F1xx_HAL_Driver/Inc/stm32f1xx_ll_tim.h ****                                  This feature can be modified afterwards using unitary function @re
 317:Drivers/STM32F1xx_HAL_Driver/Inc/stm32f1xx_ll_tim.h **** 
 318:Drivers/STM32F1xx_HAL_Driver/Inc/stm32f1xx_ll_tim.h ****   uint32_t IC2Polarity;      /*!< Specifies the active edge of TI2 input.
 319:Drivers/STM32F1xx_HAL_Driver/Inc/stm32f1xx_ll_tim.h ****                                  This parameter can be a value of @ref TIM_LL_EC_IC_POLARITY.
 320:Drivers/STM32F1xx_HAL_Driver/Inc/stm32f1xx_ll_tim.h **** 
 321:Drivers/STM32F1xx_HAL_Driver/Inc/stm32f1xx_ll_tim.h ****                                  This feature can be modified afterwards using unitary function @re
 322:Drivers/STM32F1xx_HAL_Driver/Inc/stm32f1xx_ll_tim.h **** 
 323:Drivers/STM32F1xx_HAL_Driver/Inc/stm32f1xx_ll_tim.h ****   uint32_t IC2ActiveInput;  /*!< Specifies the TI2 input source
 324:Drivers/STM32F1xx_HAL_Driver/Inc/stm32f1xx_ll_tim.h ****                                  This parameter can be a value of @ref TIM_LL_EC_ACTIVEINPUT.
 325:Drivers/STM32F1xx_HAL_Driver/Inc/stm32f1xx_ll_tim.h **** 
 326:Drivers/STM32F1xx_HAL_Driver/Inc/stm32f1xx_ll_tim.h ****                                  This feature can be modified afterwards using unitary function @re
 327:Drivers/STM32F1xx_HAL_Driver/Inc/stm32f1xx_ll_tim.h **** 
 328:Drivers/STM32F1xx_HAL_Driver/Inc/stm32f1xx_ll_tim.h ****   uint32_t IC2Prescaler;    /*!< Specifies the TI2 input prescaler value.
 329:Drivers/STM32F1xx_HAL_Driver/Inc/stm32f1xx_ll_tim.h ****                                  This parameter can be a value of @ref TIM_LL_EC_ICPSC.
 330:Drivers/STM32F1xx_HAL_Driver/Inc/stm32f1xx_ll_tim.h **** 
 331:Drivers/STM32F1xx_HAL_Driver/Inc/stm32f1xx_ll_tim.h ****                                  This feature can be modified afterwards using unitary function @re
 332:Drivers/STM32F1xx_HAL_Driver/Inc/stm32f1xx_ll_tim.h **** 
 333:Drivers/STM32F1xx_HAL_Driver/Inc/stm32f1xx_ll_tim.h ****   uint32_t IC2Filter;       /*!< Specifies the TI2 input filter.
 334:Drivers/STM32F1xx_HAL_Driver/Inc/stm32f1xx_ll_tim.h ****                                  This parameter can be a value of @ref TIM_LL_EC_IC_FILTER.
 335:Drivers/STM32F1xx_HAL_Driver/Inc/stm32f1xx_ll_tim.h **** 
 336:Drivers/STM32F1xx_HAL_Driver/Inc/stm32f1xx_ll_tim.h ****                                  This feature can be modified afterwards using unitary function @re
 337:Drivers/STM32F1xx_HAL_Driver/Inc/stm32f1xx_ll_tim.h **** 
 338:Drivers/STM32F1xx_HAL_Driver/Inc/stm32f1xx_ll_tim.h **** } LL_TIM_ENCODER_InitTypeDef;
 339:Drivers/STM32F1xx_HAL_Driver/Inc/stm32f1xx_ll_tim.h **** 
 340:Drivers/STM32F1xx_HAL_Driver/Inc/stm32f1xx_ll_tim.h **** /**
 341:Drivers/STM32F1xx_HAL_Driver/Inc/stm32f1xx_ll_tim.h ****   * @brief  TIM Hall sensor interface configuration structure definition.
 342:Drivers/STM32F1xx_HAL_Driver/Inc/stm32f1xx_ll_tim.h ****   */
 343:Drivers/STM32F1xx_HAL_Driver/Inc/stm32f1xx_ll_tim.h **** typedef struct
 344:Drivers/STM32F1xx_HAL_Driver/Inc/stm32f1xx_ll_tim.h **** {
 345:Drivers/STM32F1xx_HAL_Driver/Inc/stm32f1xx_ll_tim.h **** 
 346:Drivers/STM32F1xx_HAL_Driver/Inc/stm32f1xx_ll_tim.h ****   uint32_t IC1Polarity;        /*!< Specifies the active edge of TI1 input.
 347:Drivers/STM32F1xx_HAL_Driver/Inc/stm32f1xx_ll_tim.h ****                                     This parameter can be a value of @ref TIM_LL_EC_IC_POLARITY.
 348:Drivers/STM32F1xx_HAL_Driver/Inc/stm32f1xx_ll_tim.h **** 
 349:Drivers/STM32F1xx_HAL_Driver/Inc/stm32f1xx_ll_tim.h ****                                     This feature can be modified afterwards using unitary function 
 350:Drivers/STM32F1xx_HAL_Driver/Inc/stm32f1xx_ll_tim.h **** 
 351:Drivers/STM32F1xx_HAL_Driver/Inc/stm32f1xx_ll_tim.h ****   uint32_t IC1Prescaler;       /*!< Specifies the TI1 input prescaler value.
 352:Drivers/STM32F1xx_HAL_Driver/Inc/stm32f1xx_ll_tim.h ****                                     Prescaler must be set to get a maximum counter period longer th
 353:Drivers/STM32F1xx_HAL_Driver/Inc/stm32f1xx_ll_tim.h ****                                     time interval between 2 consecutive changes on the Hall inputs.
 354:Drivers/STM32F1xx_HAL_Driver/Inc/stm32f1xx_ll_tim.h ****                                     This parameter can be a value of @ref TIM_LL_EC_ICPSC.
 355:Drivers/STM32F1xx_HAL_Driver/Inc/stm32f1xx_ll_tim.h **** 
 356:Drivers/STM32F1xx_HAL_Driver/Inc/stm32f1xx_ll_tim.h ****                                     This feature can be modified afterwards using unitary function 
 357:Drivers/STM32F1xx_HAL_Driver/Inc/stm32f1xx_ll_tim.h **** 
 358:Drivers/STM32F1xx_HAL_Driver/Inc/stm32f1xx_ll_tim.h ****   uint32_t IC1Filter;          /*!< Specifies the TI1 input filter.
 359:Drivers/STM32F1xx_HAL_Driver/Inc/stm32f1xx_ll_tim.h ****                                     This parameter can be a value of @ref TIM_LL_EC_IC_FILTER.
 360:Drivers/STM32F1xx_HAL_Driver/Inc/stm32f1xx_ll_tim.h **** 
 361:Drivers/STM32F1xx_HAL_Driver/Inc/stm32f1xx_ll_tim.h ****                                     This feature can be modified afterwards using unitary function 
 362:Drivers/STM32F1xx_HAL_Driver/Inc/stm32f1xx_ll_tim.h **** 
 363:Drivers/STM32F1xx_HAL_Driver/Inc/stm32f1xx_ll_tim.h ****   uint32_t CommutationDelay;   /*!< Specifies the compare value to be loaded into the Capture Compa
ARM GAS  /var/folders/m1/3lv6xmzs0mlckxs4mx90nfb40000gn/T//ccFDK2TW.s 			page 24


 364:Drivers/STM32F1xx_HAL_Driver/Inc/stm32f1xx_ll_tim.h ****                                     A positive pulse (TRGO event) is generated with a programmable 
 365:Drivers/STM32F1xx_HAL_Driver/Inc/stm32f1xx_ll_tim.h ****                                     a change occurs on the Hall inputs.
 366:Drivers/STM32F1xx_HAL_Driver/Inc/stm32f1xx_ll_tim.h ****                                     This parameter can be a number between Min_Data = 0x0000 and Ma
 367:Drivers/STM32F1xx_HAL_Driver/Inc/stm32f1xx_ll_tim.h **** 
 368:Drivers/STM32F1xx_HAL_Driver/Inc/stm32f1xx_ll_tim.h ****                                     This feature can be modified afterwards using unitary function 
 369:Drivers/STM32F1xx_HAL_Driver/Inc/stm32f1xx_ll_tim.h **** } LL_TIM_HALLSENSOR_InitTypeDef;
 370:Drivers/STM32F1xx_HAL_Driver/Inc/stm32f1xx_ll_tim.h **** 
 371:Drivers/STM32F1xx_HAL_Driver/Inc/stm32f1xx_ll_tim.h **** /**
 372:Drivers/STM32F1xx_HAL_Driver/Inc/stm32f1xx_ll_tim.h ****   * @brief  BDTR (Break and Dead Time) structure definition
 373:Drivers/STM32F1xx_HAL_Driver/Inc/stm32f1xx_ll_tim.h ****   */
 374:Drivers/STM32F1xx_HAL_Driver/Inc/stm32f1xx_ll_tim.h **** typedef struct
 375:Drivers/STM32F1xx_HAL_Driver/Inc/stm32f1xx_ll_tim.h **** {
 376:Drivers/STM32F1xx_HAL_Driver/Inc/stm32f1xx_ll_tim.h ****   uint32_t OSSRState;            /*!< Specifies the Off-State selection used in Run mode.
 377:Drivers/STM32F1xx_HAL_Driver/Inc/stm32f1xx_ll_tim.h ****                                       This parameter can be a value of @ref TIM_LL_EC_OSSR
 378:Drivers/STM32F1xx_HAL_Driver/Inc/stm32f1xx_ll_tim.h **** 
 379:Drivers/STM32F1xx_HAL_Driver/Inc/stm32f1xx_ll_tim.h ****                                       This feature can be modified afterwards using unitary functio
 380:Drivers/STM32F1xx_HAL_Driver/Inc/stm32f1xx_ll_tim.h **** 
 381:Drivers/STM32F1xx_HAL_Driver/Inc/stm32f1xx_ll_tim.h ****                                       @note This bit-field cannot be modified as long as LOCK level
 382:Drivers/STM32F1xx_HAL_Driver/Inc/stm32f1xx_ll_tim.h **** 
 383:Drivers/STM32F1xx_HAL_Driver/Inc/stm32f1xx_ll_tim.h ****   uint32_t OSSIState;            /*!< Specifies the Off-State used in Idle state.
 384:Drivers/STM32F1xx_HAL_Driver/Inc/stm32f1xx_ll_tim.h ****                                       This parameter can be a value of @ref TIM_LL_EC_OSSI
 385:Drivers/STM32F1xx_HAL_Driver/Inc/stm32f1xx_ll_tim.h **** 
 386:Drivers/STM32F1xx_HAL_Driver/Inc/stm32f1xx_ll_tim.h ****                                       This feature can be modified afterwards using unitary functio
 387:Drivers/STM32F1xx_HAL_Driver/Inc/stm32f1xx_ll_tim.h **** 
 388:Drivers/STM32F1xx_HAL_Driver/Inc/stm32f1xx_ll_tim.h ****                                       @note This bit-field cannot be modified as long as LOCK level
 389:Drivers/STM32F1xx_HAL_Driver/Inc/stm32f1xx_ll_tim.h **** 
 390:Drivers/STM32F1xx_HAL_Driver/Inc/stm32f1xx_ll_tim.h ****   uint32_t LockLevel;            /*!< Specifies the LOCK level parameters.
 391:Drivers/STM32F1xx_HAL_Driver/Inc/stm32f1xx_ll_tim.h ****                                       This parameter can be a value of @ref TIM_LL_EC_LOCKLEVEL
 392:Drivers/STM32F1xx_HAL_Driver/Inc/stm32f1xx_ll_tim.h **** 
 393:Drivers/STM32F1xx_HAL_Driver/Inc/stm32f1xx_ll_tim.h ****                                       @note The LOCK bits can be written only once after the reset.
 394:Drivers/STM32F1xx_HAL_Driver/Inc/stm32f1xx_ll_tim.h ****                                             has been written, their content is frozen until the nex
 395:Drivers/STM32F1xx_HAL_Driver/Inc/stm32f1xx_ll_tim.h **** 
 396:Drivers/STM32F1xx_HAL_Driver/Inc/stm32f1xx_ll_tim.h ****   uint8_t DeadTime;              /*!< Specifies the delay time between the switching-off and the
 397:Drivers/STM32F1xx_HAL_Driver/Inc/stm32f1xx_ll_tim.h ****                                       switching-on of the outputs.
 398:Drivers/STM32F1xx_HAL_Driver/Inc/stm32f1xx_ll_tim.h ****                                       This parameter can be a number between Min_Data = 0x00 and Ma
 399:Drivers/STM32F1xx_HAL_Driver/Inc/stm32f1xx_ll_tim.h **** 
 400:Drivers/STM32F1xx_HAL_Driver/Inc/stm32f1xx_ll_tim.h ****                                       This feature can be modified afterwards using unitary functio
 401:Drivers/STM32F1xx_HAL_Driver/Inc/stm32f1xx_ll_tim.h **** 
 402:Drivers/STM32F1xx_HAL_Driver/Inc/stm32f1xx_ll_tim.h ****                                       @note This bit-field can not be modified as long as LOCK leve
 403:Drivers/STM32F1xx_HAL_Driver/Inc/stm32f1xx_ll_tim.h **** 
 404:Drivers/STM32F1xx_HAL_Driver/Inc/stm32f1xx_ll_tim.h ****   uint16_t BreakState;           /*!< Specifies whether the TIM Break input is enabled or not.
 405:Drivers/STM32F1xx_HAL_Driver/Inc/stm32f1xx_ll_tim.h ****                                       This parameter can be a value of @ref TIM_LL_EC_BREAK_ENABLE
 406:Drivers/STM32F1xx_HAL_Driver/Inc/stm32f1xx_ll_tim.h **** 
 407:Drivers/STM32F1xx_HAL_Driver/Inc/stm32f1xx_ll_tim.h ****                                       This feature can be modified afterwards using unitary functio
 408:Drivers/STM32F1xx_HAL_Driver/Inc/stm32f1xx_ll_tim.h **** 
 409:Drivers/STM32F1xx_HAL_Driver/Inc/stm32f1xx_ll_tim.h ****                                       @note This bit-field can not be modified as long as LOCK leve
 410:Drivers/STM32F1xx_HAL_Driver/Inc/stm32f1xx_ll_tim.h **** 
 411:Drivers/STM32F1xx_HAL_Driver/Inc/stm32f1xx_ll_tim.h ****   uint32_t BreakPolarity;        /*!< Specifies the TIM Break Input pin polarity.
 412:Drivers/STM32F1xx_HAL_Driver/Inc/stm32f1xx_ll_tim.h ****                                       This parameter can be a value of @ref TIM_LL_EC_BREAK_POLARIT
 413:Drivers/STM32F1xx_HAL_Driver/Inc/stm32f1xx_ll_tim.h **** 
 414:Drivers/STM32F1xx_HAL_Driver/Inc/stm32f1xx_ll_tim.h ****                                       This feature can be modified afterwards using unitary functio
 415:Drivers/STM32F1xx_HAL_Driver/Inc/stm32f1xx_ll_tim.h **** 
 416:Drivers/STM32F1xx_HAL_Driver/Inc/stm32f1xx_ll_tim.h ****                                       @note This bit-field can not be modified as long as LOCK leve
 417:Drivers/STM32F1xx_HAL_Driver/Inc/stm32f1xx_ll_tim.h **** 
 418:Drivers/STM32F1xx_HAL_Driver/Inc/stm32f1xx_ll_tim.h ****   uint32_t AutomaticOutput;      /*!< Specifies whether the TIM Automatic Output feature is enabled
 419:Drivers/STM32F1xx_HAL_Driver/Inc/stm32f1xx_ll_tim.h ****                                       This parameter can be a value of @ref TIM_LL_EC_AUTOMATICOUTP
 420:Drivers/STM32F1xx_HAL_Driver/Inc/stm32f1xx_ll_tim.h **** 
ARM GAS  /var/folders/m1/3lv6xmzs0mlckxs4mx90nfb40000gn/T//ccFDK2TW.s 			page 25


 421:Drivers/STM32F1xx_HAL_Driver/Inc/stm32f1xx_ll_tim.h ****                                       This feature can be modified afterwards using unitary functio
 422:Drivers/STM32F1xx_HAL_Driver/Inc/stm32f1xx_ll_tim.h **** 
 423:Drivers/STM32F1xx_HAL_Driver/Inc/stm32f1xx_ll_tim.h ****                                       @note This bit-field can not be modified as long as LOCK leve
 424:Drivers/STM32F1xx_HAL_Driver/Inc/stm32f1xx_ll_tim.h **** } LL_TIM_BDTR_InitTypeDef;
 425:Drivers/STM32F1xx_HAL_Driver/Inc/stm32f1xx_ll_tim.h **** 
 426:Drivers/STM32F1xx_HAL_Driver/Inc/stm32f1xx_ll_tim.h **** /**
 427:Drivers/STM32F1xx_HAL_Driver/Inc/stm32f1xx_ll_tim.h ****   * @}
 428:Drivers/STM32F1xx_HAL_Driver/Inc/stm32f1xx_ll_tim.h ****   */
 429:Drivers/STM32F1xx_HAL_Driver/Inc/stm32f1xx_ll_tim.h **** #endif /* USE_FULL_LL_DRIVER */
 430:Drivers/STM32F1xx_HAL_Driver/Inc/stm32f1xx_ll_tim.h **** 
 431:Drivers/STM32F1xx_HAL_Driver/Inc/stm32f1xx_ll_tim.h **** /* Exported constants --------------------------------------------------------*/
 432:Drivers/STM32F1xx_HAL_Driver/Inc/stm32f1xx_ll_tim.h **** /** @defgroup TIM_LL_Exported_Constants TIM Exported Constants
 433:Drivers/STM32F1xx_HAL_Driver/Inc/stm32f1xx_ll_tim.h ****   * @{
 434:Drivers/STM32F1xx_HAL_Driver/Inc/stm32f1xx_ll_tim.h ****   */
 435:Drivers/STM32F1xx_HAL_Driver/Inc/stm32f1xx_ll_tim.h **** 
 436:Drivers/STM32F1xx_HAL_Driver/Inc/stm32f1xx_ll_tim.h **** /** @defgroup TIM_LL_EC_GET_FLAG Get Flags Defines
 437:Drivers/STM32F1xx_HAL_Driver/Inc/stm32f1xx_ll_tim.h ****   * @brief    Flags defines which can be used with LL_TIM_ReadReg function.
 438:Drivers/STM32F1xx_HAL_Driver/Inc/stm32f1xx_ll_tim.h ****   * @{
 439:Drivers/STM32F1xx_HAL_Driver/Inc/stm32f1xx_ll_tim.h ****   */
 440:Drivers/STM32F1xx_HAL_Driver/Inc/stm32f1xx_ll_tim.h **** #define LL_TIM_SR_UIF                          TIM_SR_UIF           /*!< Update interrupt flag */
 441:Drivers/STM32F1xx_HAL_Driver/Inc/stm32f1xx_ll_tim.h **** #define LL_TIM_SR_CC1IF                        TIM_SR_CC1IF         /*!< Capture/compare 1 interrup
 442:Drivers/STM32F1xx_HAL_Driver/Inc/stm32f1xx_ll_tim.h **** #define LL_TIM_SR_CC2IF                        TIM_SR_CC2IF         /*!< Capture/compare 2 interrup
 443:Drivers/STM32F1xx_HAL_Driver/Inc/stm32f1xx_ll_tim.h **** #define LL_TIM_SR_CC3IF                        TIM_SR_CC3IF         /*!< Capture/compare 3 interrup
 444:Drivers/STM32F1xx_HAL_Driver/Inc/stm32f1xx_ll_tim.h **** #define LL_TIM_SR_CC4IF                        TIM_SR_CC4IF         /*!< Capture/compare 4 interrup
 445:Drivers/STM32F1xx_HAL_Driver/Inc/stm32f1xx_ll_tim.h **** #define LL_TIM_SR_COMIF                        TIM_SR_COMIF         /*!< COM interrupt flag */
 446:Drivers/STM32F1xx_HAL_Driver/Inc/stm32f1xx_ll_tim.h **** #define LL_TIM_SR_TIF                          TIM_SR_TIF           /*!< Trigger interrupt flag */
 447:Drivers/STM32F1xx_HAL_Driver/Inc/stm32f1xx_ll_tim.h **** #define LL_TIM_SR_BIF                          TIM_SR_BIF           /*!< Break interrupt flag */
 448:Drivers/STM32F1xx_HAL_Driver/Inc/stm32f1xx_ll_tim.h **** #define LL_TIM_SR_CC1OF                        TIM_SR_CC1OF         /*!< Capture/Compare 1 overcapt
 449:Drivers/STM32F1xx_HAL_Driver/Inc/stm32f1xx_ll_tim.h **** #define LL_TIM_SR_CC2OF                        TIM_SR_CC2OF         /*!< Capture/Compare 2 overcapt
 450:Drivers/STM32F1xx_HAL_Driver/Inc/stm32f1xx_ll_tim.h **** #define LL_TIM_SR_CC3OF                        TIM_SR_CC3OF         /*!< Capture/Compare 3 overcapt
 451:Drivers/STM32F1xx_HAL_Driver/Inc/stm32f1xx_ll_tim.h **** #define LL_TIM_SR_CC4OF                        TIM_SR_CC4OF         /*!< Capture/Compare 4 overcapt
 452:Drivers/STM32F1xx_HAL_Driver/Inc/stm32f1xx_ll_tim.h **** /**
 453:Drivers/STM32F1xx_HAL_Driver/Inc/stm32f1xx_ll_tim.h ****   * @}
 454:Drivers/STM32F1xx_HAL_Driver/Inc/stm32f1xx_ll_tim.h ****   */
 455:Drivers/STM32F1xx_HAL_Driver/Inc/stm32f1xx_ll_tim.h **** 
 456:Drivers/STM32F1xx_HAL_Driver/Inc/stm32f1xx_ll_tim.h **** #if defined(USE_FULL_LL_DRIVER)
 457:Drivers/STM32F1xx_HAL_Driver/Inc/stm32f1xx_ll_tim.h **** /** @defgroup TIM_LL_EC_BREAK_ENABLE Break Enable
 458:Drivers/STM32F1xx_HAL_Driver/Inc/stm32f1xx_ll_tim.h ****   * @{
 459:Drivers/STM32F1xx_HAL_Driver/Inc/stm32f1xx_ll_tim.h ****   */
 460:Drivers/STM32F1xx_HAL_Driver/Inc/stm32f1xx_ll_tim.h **** #define LL_TIM_BREAK_DISABLE            0x00000000U             /*!< Break function disabled */
 461:Drivers/STM32F1xx_HAL_Driver/Inc/stm32f1xx_ll_tim.h **** #define LL_TIM_BREAK_ENABLE             TIM_BDTR_BKE            /*!< Break function enabled */
 462:Drivers/STM32F1xx_HAL_Driver/Inc/stm32f1xx_ll_tim.h **** /**
 463:Drivers/STM32F1xx_HAL_Driver/Inc/stm32f1xx_ll_tim.h ****   * @}
 464:Drivers/STM32F1xx_HAL_Driver/Inc/stm32f1xx_ll_tim.h ****   */
 465:Drivers/STM32F1xx_HAL_Driver/Inc/stm32f1xx_ll_tim.h **** 
 466:Drivers/STM32F1xx_HAL_Driver/Inc/stm32f1xx_ll_tim.h **** /** @defgroup TIM_LL_EC_AUTOMATICOUTPUT_ENABLE Automatic output enable
 467:Drivers/STM32F1xx_HAL_Driver/Inc/stm32f1xx_ll_tim.h ****   * @{
 468:Drivers/STM32F1xx_HAL_Driver/Inc/stm32f1xx_ll_tim.h ****   */
 469:Drivers/STM32F1xx_HAL_Driver/Inc/stm32f1xx_ll_tim.h **** #define LL_TIM_AUTOMATICOUTPUT_DISABLE         0x00000000U             /*!< MOE can be set only by 
 470:Drivers/STM32F1xx_HAL_Driver/Inc/stm32f1xx_ll_tim.h **** #define LL_TIM_AUTOMATICOUTPUT_ENABLE          TIM_BDTR_AOE            /*!< MOE can be set by softw
 471:Drivers/STM32F1xx_HAL_Driver/Inc/stm32f1xx_ll_tim.h **** /**
 472:Drivers/STM32F1xx_HAL_Driver/Inc/stm32f1xx_ll_tim.h ****   * @}
 473:Drivers/STM32F1xx_HAL_Driver/Inc/stm32f1xx_ll_tim.h ****   */
 474:Drivers/STM32F1xx_HAL_Driver/Inc/stm32f1xx_ll_tim.h **** #endif /* USE_FULL_LL_DRIVER */
 475:Drivers/STM32F1xx_HAL_Driver/Inc/stm32f1xx_ll_tim.h **** 
 476:Drivers/STM32F1xx_HAL_Driver/Inc/stm32f1xx_ll_tim.h **** /** @defgroup TIM_LL_EC_IT IT Defines
 477:Drivers/STM32F1xx_HAL_Driver/Inc/stm32f1xx_ll_tim.h ****   * @brief    IT defines which can be used with LL_TIM_ReadReg and  LL_TIM_WriteReg functions.
ARM GAS  /var/folders/m1/3lv6xmzs0mlckxs4mx90nfb40000gn/T//ccFDK2TW.s 			page 26


 478:Drivers/STM32F1xx_HAL_Driver/Inc/stm32f1xx_ll_tim.h ****   * @{
 479:Drivers/STM32F1xx_HAL_Driver/Inc/stm32f1xx_ll_tim.h ****   */
 480:Drivers/STM32F1xx_HAL_Driver/Inc/stm32f1xx_ll_tim.h **** #define LL_TIM_DIER_UIE                        TIM_DIER_UIE         /*!< Update interrupt enable */
 481:Drivers/STM32F1xx_HAL_Driver/Inc/stm32f1xx_ll_tim.h **** #define LL_TIM_DIER_CC1IE                      TIM_DIER_CC1IE       /*!< Capture/compare 1 interrup
 482:Drivers/STM32F1xx_HAL_Driver/Inc/stm32f1xx_ll_tim.h **** #define LL_TIM_DIER_CC2IE                      TIM_DIER_CC2IE       /*!< Capture/compare 2 interrup
 483:Drivers/STM32F1xx_HAL_Driver/Inc/stm32f1xx_ll_tim.h **** #define LL_TIM_DIER_CC3IE                      TIM_DIER_CC3IE       /*!< Capture/compare 3 interrup
 484:Drivers/STM32F1xx_HAL_Driver/Inc/stm32f1xx_ll_tim.h **** #define LL_TIM_DIER_CC4IE                      TIM_DIER_CC4IE       /*!< Capture/compare 4 interrup
 485:Drivers/STM32F1xx_HAL_Driver/Inc/stm32f1xx_ll_tim.h **** #define LL_TIM_DIER_COMIE                      TIM_DIER_COMIE       /*!< COM interrupt enable */
 486:Drivers/STM32F1xx_HAL_Driver/Inc/stm32f1xx_ll_tim.h **** #define LL_TIM_DIER_TIE                        TIM_DIER_TIE         /*!< Trigger interrupt enable *
 487:Drivers/STM32F1xx_HAL_Driver/Inc/stm32f1xx_ll_tim.h **** #define LL_TIM_DIER_BIE                        TIM_DIER_BIE         /*!< Break interrupt enable */
 488:Drivers/STM32F1xx_HAL_Driver/Inc/stm32f1xx_ll_tim.h **** /**
 489:Drivers/STM32F1xx_HAL_Driver/Inc/stm32f1xx_ll_tim.h ****   * @}
 490:Drivers/STM32F1xx_HAL_Driver/Inc/stm32f1xx_ll_tim.h ****   */
 491:Drivers/STM32F1xx_HAL_Driver/Inc/stm32f1xx_ll_tim.h **** 
 492:Drivers/STM32F1xx_HAL_Driver/Inc/stm32f1xx_ll_tim.h **** /** @defgroup TIM_LL_EC_UPDATESOURCE Update Source
 493:Drivers/STM32F1xx_HAL_Driver/Inc/stm32f1xx_ll_tim.h ****   * @{
 494:Drivers/STM32F1xx_HAL_Driver/Inc/stm32f1xx_ll_tim.h ****   */
 495:Drivers/STM32F1xx_HAL_Driver/Inc/stm32f1xx_ll_tim.h **** #define LL_TIM_UPDATESOURCE_REGULAR            0x00000000U          /*!< Counter overflow/underflow
 496:Drivers/STM32F1xx_HAL_Driver/Inc/stm32f1xx_ll_tim.h **** #define LL_TIM_UPDATESOURCE_COUNTER            TIM_CR1_URS          /*!< Only counter overflow/unde
 497:Drivers/STM32F1xx_HAL_Driver/Inc/stm32f1xx_ll_tim.h **** /**
 498:Drivers/STM32F1xx_HAL_Driver/Inc/stm32f1xx_ll_tim.h ****   * @}
 499:Drivers/STM32F1xx_HAL_Driver/Inc/stm32f1xx_ll_tim.h ****   */
 500:Drivers/STM32F1xx_HAL_Driver/Inc/stm32f1xx_ll_tim.h **** 
 501:Drivers/STM32F1xx_HAL_Driver/Inc/stm32f1xx_ll_tim.h **** /** @defgroup TIM_LL_EC_ONEPULSEMODE One Pulse Mode
 502:Drivers/STM32F1xx_HAL_Driver/Inc/stm32f1xx_ll_tim.h ****   * @{
 503:Drivers/STM32F1xx_HAL_Driver/Inc/stm32f1xx_ll_tim.h ****   */
 504:Drivers/STM32F1xx_HAL_Driver/Inc/stm32f1xx_ll_tim.h **** #define LL_TIM_ONEPULSEMODE_SINGLE             TIM_CR1_OPM          /*!< Counter is not stopped at 
 505:Drivers/STM32F1xx_HAL_Driver/Inc/stm32f1xx_ll_tim.h **** #define LL_TIM_ONEPULSEMODE_REPETITIVE         0x00000000U          /*!< Counter stops counting at 
 506:Drivers/STM32F1xx_HAL_Driver/Inc/stm32f1xx_ll_tim.h **** /**
 507:Drivers/STM32F1xx_HAL_Driver/Inc/stm32f1xx_ll_tim.h ****   * @}
 508:Drivers/STM32F1xx_HAL_Driver/Inc/stm32f1xx_ll_tim.h ****   */
 509:Drivers/STM32F1xx_HAL_Driver/Inc/stm32f1xx_ll_tim.h **** 
 510:Drivers/STM32F1xx_HAL_Driver/Inc/stm32f1xx_ll_tim.h **** /** @defgroup TIM_LL_EC_COUNTERMODE Counter Mode
 511:Drivers/STM32F1xx_HAL_Driver/Inc/stm32f1xx_ll_tim.h ****   * @{
 512:Drivers/STM32F1xx_HAL_Driver/Inc/stm32f1xx_ll_tim.h ****   */
 513:Drivers/STM32F1xx_HAL_Driver/Inc/stm32f1xx_ll_tim.h **** #define LL_TIM_COUNTERMODE_UP                  0x00000000U          /*!<Counter used as upcounter *
 514:Drivers/STM32F1xx_HAL_Driver/Inc/stm32f1xx_ll_tim.h **** #define LL_TIM_COUNTERMODE_DOWN                TIM_CR1_DIR          /*!< Counter used as downcounte
 515:Drivers/STM32F1xx_HAL_Driver/Inc/stm32f1xx_ll_tim.h **** #define LL_TIM_COUNTERMODE_CENTER_UP           TIM_CR1_CMS_0        /*!< The counter counts up and 
 516:Drivers/STM32F1xx_HAL_Driver/Inc/stm32f1xx_ll_tim.h **** #define LL_TIM_COUNTERMODE_CENTER_DOWN         TIM_CR1_CMS_1        /*!<The counter counts up and d
 517:Drivers/STM32F1xx_HAL_Driver/Inc/stm32f1xx_ll_tim.h **** #define LL_TIM_COUNTERMODE_CENTER_UP_DOWN      TIM_CR1_CMS          /*!< The counter counts up and 
 518:Drivers/STM32F1xx_HAL_Driver/Inc/stm32f1xx_ll_tim.h **** /**
 519:Drivers/STM32F1xx_HAL_Driver/Inc/stm32f1xx_ll_tim.h ****   * @}
 520:Drivers/STM32F1xx_HAL_Driver/Inc/stm32f1xx_ll_tim.h ****   */
 521:Drivers/STM32F1xx_HAL_Driver/Inc/stm32f1xx_ll_tim.h **** 
 522:Drivers/STM32F1xx_HAL_Driver/Inc/stm32f1xx_ll_tim.h **** /** @defgroup TIM_LL_EC_CLOCKDIVISION Clock Division
 523:Drivers/STM32F1xx_HAL_Driver/Inc/stm32f1xx_ll_tim.h ****   * @{
 524:Drivers/STM32F1xx_HAL_Driver/Inc/stm32f1xx_ll_tim.h ****   */
 525:Drivers/STM32F1xx_HAL_Driver/Inc/stm32f1xx_ll_tim.h **** #define LL_TIM_CLOCKDIVISION_DIV1              0x00000000U          /*!< tDTS=tCK_INT */
 526:Drivers/STM32F1xx_HAL_Driver/Inc/stm32f1xx_ll_tim.h **** #define LL_TIM_CLOCKDIVISION_DIV2              TIM_CR1_CKD_0        /*!< tDTS=2*tCK_INT */
 527:Drivers/STM32F1xx_HAL_Driver/Inc/stm32f1xx_ll_tim.h **** #define LL_TIM_CLOCKDIVISION_DIV4              TIM_CR1_CKD_1        /*!< tDTS=4*tCK_INT */
 528:Drivers/STM32F1xx_HAL_Driver/Inc/stm32f1xx_ll_tim.h **** /**
 529:Drivers/STM32F1xx_HAL_Driver/Inc/stm32f1xx_ll_tim.h ****   * @}
 530:Drivers/STM32F1xx_HAL_Driver/Inc/stm32f1xx_ll_tim.h ****   */
 531:Drivers/STM32F1xx_HAL_Driver/Inc/stm32f1xx_ll_tim.h **** 
 532:Drivers/STM32F1xx_HAL_Driver/Inc/stm32f1xx_ll_tim.h **** /** @defgroup TIM_LL_EC_COUNTERDIRECTION Counter Direction
 533:Drivers/STM32F1xx_HAL_Driver/Inc/stm32f1xx_ll_tim.h ****   * @{
 534:Drivers/STM32F1xx_HAL_Driver/Inc/stm32f1xx_ll_tim.h ****   */
ARM GAS  /var/folders/m1/3lv6xmzs0mlckxs4mx90nfb40000gn/T//ccFDK2TW.s 			page 27


 535:Drivers/STM32F1xx_HAL_Driver/Inc/stm32f1xx_ll_tim.h **** #define LL_TIM_COUNTERDIRECTION_UP             0x00000000U          /*!< Timer counter counts up */
 536:Drivers/STM32F1xx_HAL_Driver/Inc/stm32f1xx_ll_tim.h **** #define LL_TIM_COUNTERDIRECTION_DOWN           TIM_CR1_DIR          /*!< Timer counter counts down 
 537:Drivers/STM32F1xx_HAL_Driver/Inc/stm32f1xx_ll_tim.h **** /**
 538:Drivers/STM32F1xx_HAL_Driver/Inc/stm32f1xx_ll_tim.h ****   * @}
 539:Drivers/STM32F1xx_HAL_Driver/Inc/stm32f1xx_ll_tim.h ****   */
 540:Drivers/STM32F1xx_HAL_Driver/Inc/stm32f1xx_ll_tim.h **** 
 541:Drivers/STM32F1xx_HAL_Driver/Inc/stm32f1xx_ll_tim.h **** /** @defgroup TIM_LL_EC_CCUPDATESOURCE Capture Compare  Update Source
 542:Drivers/STM32F1xx_HAL_Driver/Inc/stm32f1xx_ll_tim.h ****   * @{
 543:Drivers/STM32F1xx_HAL_Driver/Inc/stm32f1xx_ll_tim.h ****   */
 544:Drivers/STM32F1xx_HAL_Driver/Inc/stm32f1xx_ll_tim.h **** #define LL_TIM_CCUPDATESOURCE_COMG_ONLY        0x00000000U          /*!< Capture/compare control bi
 545:Drivers/STM32F1xx_HAL_Driver/Inc/stm32f1xx_ll_tim.h **** #define LL_TIM_CCUPDATESOURCE_COMG_AND_TRGI    TIM_CR2_CCUS         /*!< Capture/compare control bi
 546:Drivers/STM32F1xx_HAL_Driver/Inc/stm32f1xx_ll_tim.h **** /**
 547:Drivers/STM32F1xx_HAL_Driver/Inc/stm32f1xx_ll_tim.h ****   * @}
 548:Drivers/STM32F1xx_HAL_Driver/Inc/stm32f1xx_ll_tim.h ****   */
 549:Drivers/STM32F1xx_HAL_Driver/Inc/stm32f1xx_ll_tim.h **** 
 550:Drivers/STM32F1xx_HAL_Driver/Inc/stm32f1xx_ll_tim.h **** /** @defgroup TIM_LL_EC_CCDMAREQUEST Capture Compare DMA Request
 551:Drivers/STM32F1xx_HAL_Driver/Inc/stm32f1xx_ll_tim.h ****   * @{
 552:Drivers/STM32F1xx_HAL_Driver/Inc/stm32f1xx_ll_tim.h ****   */
 553:Drivers/STM32F1xx_HAL_Driver/Inc/stm32f1xx_ll_tim.h **** #define LL_TIM_CCDMAREQUEST_CC                 0x00000000U          /*!< CCx DMA request sent when 
 554:Drivers/STM32F1xx_HAL_Driver/Inc/stm32f1xx_ll_tim.h **** #define LL_TIM_CCDMAREQUEST_UPDATE             TIM_CR2_CCDS         /*!< CCx DMA requests sent when
 555:Drivers/STM32F1xx_HAL_Driver/Inc/stm32f1xx_ll_tim.h **** /**
 556:Drivers/STM32F1xx_HAL_Driver/Inc/stm32f1xx_ll_tim.h ****   * @}
 557:Drivers/STM32F1xx_HAL_Driver/Inc/stm32f1xx_ll_tim.h ****   */
 558:Drivers/STM32F1xx_HAL_Driver/Inc/stm32f1xx_ll_tim.h **** 
 559:Drivers/STM32F1xx_HAL_Driver/Inc/stm32f1xx_ll_tim.h **** /** @defgroup TIM_LL_EC_LOCKLEVEL Lock Level
 560:Drivers/STM32F1xx_HAL_Driver/Inc/stm32f1xx_ll_tim.h ****   * @{
 561:Drivers/STM32F1xx_HAL_Driver/Inc/stm32f1xx_ll_tim.h ****   */
 562:Drivers/STM32F1xx_HAL_Driver/Inc/stm32f1xx_ll_tim.h **** #define LL_TIM_LOCKLEVEL_OFF                   0x00000000U          /*!< LOCK OFF - No bit is write
 563:Drivers/STM32F1xx_HAL_Driver/Inc/stm32f1xx_ll_tim.h **** #define LL_TIM_LOCKLEVEL_1                     TIM_BDTR_LOCK_0      /*!< LOCK Level 1 */
 564:Drivers/STM32F1xx_HAL_Driver/Inc/stm32f1xx_ll_tim.h **** #define LL_TIM_LOCKLEVEL_2                     TIM_BDTR_LOCK_1      /*!< LOCK Level 2 */
 565:Drivers/STM32F1xx_HAL_Driver/Inc/stm32f1xx_ll_tim.h **** #define LL_TIM_LOCKLEVEL_3                     TIM_BDTR_LOCK        /*!< LOCK Level 3 */
 566:Drivers/STM32F1xx_HAL_Driver/Inc/stm32f1xx_ll_tim.h **** /**
 567:Drivers/STM32F1xx_HAL_Driver/Inc/stm32f1xx_ll_tim.h ****   * @}
 568:Drivers/STM32F1xx_HAL_Driver/Inc/stm32f1xx_ll_tim.h ****   */
 569:Drivers/STM32F1xx_HAL_Driver/Inc/stm32f1xx_ll_tim.h **** 
 570:Drivers/STM32F1xx_HAL_Driver/Inc/stm32f1xx_ll_tim.h **** /** @defgroup TIM_LL_EC_CHANNEL Channel
 571:Drivers/STM32F1xx_HAL_Driver/Inc/stm32f1xx_ll_tim.h ****   * @{
 572:Drivers/STM32F1xx_HAL_Driver/Inc/stm32f1xx_ll_tim.h ****   */
 573:Drivers/STM32F1xx_HAL_Driver/Inc/stm32f1xx_ll_tim.h **** #define LL_TIM_CHANNEL_CH1                     TIM_CCER_CC1E     /*!< Timer input/output channel 1 
 574:Drivers/STM32F1xx_HAL_Driver/Inc/stm32f1xx_ll_tim.h **** #define LL_TIM_CHANNEL_CH1N                    TIM_CCER_CC1NE    /*!< Timer complementary output ch
 575:Drivers/STM32F1xx_HAL_Driver/Inc/stm32f1xx_ll_tim.h **** #define LL_TIM_CHANNEL_CH2                     TIM_CCER_CC2E     /*!< Timer input/output channel 2 
 576:Drivers/STM32F1xx_HAL_Driver/Inc/stm32f1xx_ll_tim.h **** #define LL_TIM_CHANNEL_CH2N                    TIM_CCER_CC2NE    /*!< Timer complementary output ch
 577:Drivers/STM32F1xx_HAL_Driver/Inc/stm32f1xx_ll_tim.h **** #define LL_TIM_CHANNEL_CH3                     TIM_CCER_CC3E     /*!< Timer input/output channel 3 
 578:Drivers/STM32F1xx_HAL_Driver/Inc/stm32f1xx_ll_tim.h **** #define LL_TIM_CHANNEL_CH3N                    TIM_CCER_CC3NE    /*!< Timer complementary output ch
 579:Drivers/STM32F1xx_HAL_Driver/Inc/stm32f1xx_ll_tim.h **** #define LL_TIM_CHANNEL_CH4                     TIM_CCER_CC4E     /*!< Timer input/output channel 4 
 580:Drivers/STM32F1xx_HAL_Driver/Inc/stm32f1xx_ll_tim.h **** /**
 581:Drivers/STM32F1xx_HAL_Driver/Inc/stm32f1xx_ll_tim.h ****   * @}
 582:Drivers/STM32F1xx_HAL_Driver/Inc/stm32f1xx_ll_tim.h ****   */
 583:Drivers/STM32F1xx_HAL_Driver/Inc/stm32f1xx_ll_tim.h **** 
 584:Drivers/STM32F1xx_HAL_Driver/Inc/stm32f1xx_ll_tim.h **** #if defined(USE_FULL_LL_DRIVER)
 585:Drivers/STM32F1xx_HAL_Driver/Inc/stm32f1xx_ll_tim.h **** /** @defgroup TIM_LL_EC_OCSTATE Output Configuration State
 586:Drivers/STM32F1xx_HAL_Driver/Inc/stm32f1xx_ll_tim.h ****   * @{
 587:Drivers/STM32F1xx_HAL_Driver/Inc/stm32f1xx_ll_tim.h ****   */
 588:Drivers/STM32F1xx_HAL_Driver/Inc/stm32f1xx_ll_tim.h **** #define LL_TIM_OCSTATE_DISABLE                 0x00000000U             /*!< OCx is not active */
 589:Drivers/STM32F1xx_HAL_Driver/Inc/stm32f1xx_ll_tim.h **** #define LL_TIM_OCSTATE_ENABLE                  TIM_CCER_CC1E           /*!< OCx signal is output on
 590:Drivers/STM32F1xx_HAL_Driver/Inc/stm32f1xx_ll_tim.h **** /**
 591:Drivers/STM32F1xx_HAL_Driver/Inc/stm32f1xx_ll_tim.h ****   * @}
ARM GAS  /var/folders/m1/3lv6xmzs0mlckxs4mx90nfb40000gn/T//ccFDK2TW.s 			page 28


 592:Drivers/STM32F1xx_HAL_Driver/Inc/stm32f1xx_ll_tim.h ****   */
 593:Drivers/STM32F1xx_HAL_Driver/Inc/stm32f1xx_ll_tim.h **** #endif /* USE_FULL_LL_DRIVER */
 594:Drivers/STM32F1xx_HAL_Driver/Inc/stm32f1xx_ll_tim.h **** 
 595:Drivers/STM32F1xx_HAL_Driver/Inc/stm32f1xx_ll_tim.h **** /** @defgroup TIM_LL_EC_OCMODE Output Configuration Mode
 596:Drivers/STM32F1xx_HAL_Driver/Inc/stm32f1xx_ll_tim.h ****   * @{
 597:Drivers/STM32F1xx_HAL_Driver/Inc/stm32f1xx_ll_tim.h ****   */
 598:Drivers/STM32F1xx_HAL_Driver/Inc/stm32f1xx_ll_tim.h **** #define LL_TIM_OCMODE_FROZEN                   0x00000000U                                         
 599:Drivers/STM32F1xx_HAL_Driver/Inc/stm32f1xx_ll_tim.h **** #define LL_TIM_OCMODE_ACTIVE                   TIM_CCMR1_OC1M_0                                    
 600:Drivers/STM32F1xx_HAL_Driver/Inc/stm32f1xx_ll_tim.h **** #define LL_TIM_OCMODE_INACTIVE                 TIM_CCMR1_OC1M_1                                    
 601:Drivers/STM32F1xx_HAL_Driver/Inc/stm32f1xx_ll_tim.h **** #define LL_TIM_OCMODE_TOGGLE                   (TIM_CCMR1_OC1M_1 | TIM_CCMR1_OC1M_0)               
 602:Drivers/STM32F1xx_HAL_Driver/Inc/stm32f1xx_ll_tim.h **** #define LL_TIM_OCMODE_FORCED_INACTIVE          TIM_CCMR1_OC1M_2                                    
 603:Drivers/STM32F1xx_HAL_Driver/Inc/stm32f1xx_ll_tim.h **** #define LL_TIM_OCMODE_FORCED_ACTIVE            (TIM_CCMR1_OC1M_2 | TIM_CCMR1_OC1M_0)               
 604:Drivers/STM32F1xx_HAL_Driver/Inc/stm32f1xx_ll_tim.h **** #define LL_TIM_OCMODE_PWM1                     (TIM_CCMR1_OC1M_2 | TIM_CCMR1_OC1M_1)               
 605:Drivers/STM32F1xx_HAL_Driver/Inc/stm32f1xx_ll_tim.h **** #define LL_TIM_OCMODE_PWM2                     (TIM_CCMR1_OC1M_2 | TIM_CCMR1_OC1M_1 | TIM_CCMR1_OC1
 606:Drivers/STM32F1xx_HAL_Driver/Inc/stm32f1xx_ll_tim.h **** /**
 607:Drivers/STM32F1xx_HAL_Driver/Inc/stm32f1xx_ll_tim.h ****   * @}
 608:Drivers/STM32F1xx_HAL_Driver/Inc/stm32f1xx_ll_tim.h ****   */
 609:Drivers/STM32F1xx_HAL_Driver/Inc/stm32f1xx_ll_tim.h **** 
 610:Drivers/STM32F1xx_HAL_Driver/Inc/stm32f1xx_ll_tim.h **** /** @defgroup TIM_LL_EC_OCPOLARITY Output Configuration Polarity
 611:Drivers/STM32F1xx_HAL_Driver/Inc/stm32f1xx_ll_tim.h ****   * @{
 612:Drivers/STM32F1xx_HAL_Driver/Inc/stm32f1xx_ll_tim.h ****   */
 613:Drivers/STM32F1xx_HAL_Driver/Inc/stm32f1xx_ll_tim.h **** #define LL_TIM_OCPOLARITY_HIGH                 0x00000000U                 /*!< OCxactive high*/
 614:Drivers/STM32F1xx_HAL_Driver/Inc/stm32f1xx_ll_tim.h **** #define LL_TIM_OCPOLARITY_LOW                  TIM_CCER_CC1P               /*!< OCxactive low*/
 615:Drivers/STM32F1xx_HAL_Driver/Inc/stm32f1xx_ll_tim.h **** /**
 616:Drivers/STM32F1xx_HAL_Driver/Inc/stm32f1xx_ll_tim.h ****   * @}
 617:Drivers/STM32F1xx_HAL_Driver/Inc/stm32f1xx_ll_tim.h ****   */
 618:Drivers/STM32F1xx_HAL_Driver/Inc/stm32f1xx_ll_tim.h **** 
 619:Drivers/STM32F1xx_HAL_Driver/Inc/stm32f1xx_ll_tim.h **** /** @defgroup TIM_LL_EC_OCIDLESTATE Output Configuration Idle State
 620:Drivers/STM32F1xx_HAL_Driver/Inc/stm32f1xx_ll_tim.h ****   * @{
 621:Drivers/STM32F1xx_HAL_Driver/Inc/stm32f1xx_ll_tim.h ****   */
 622:Drivers/STM32F1xx_HAL_Driver/Inc/stm32f1xx_ll_tim.h **** #define LL_TIM_OCIDLESTATE_LOW                 0x00000000U             /*!<OCx=0 (after a dead-time
 623:Drivers/STM32F1xx_HAL_Driver/Inc/stm32f1xx_ll_tim.h **** #define LL_TIM_OCIDLESTATE_HIGH                TIM_CR2_OIS1            /*!<OCx=1 (after a dead-time
 624:Drivers/STM32F1xx_HAL_Driver/Inc/stm32f1xx_ll_tim.h **** /**
 625:Drivers/STM32F1xx_HAL_Driver/Inc/stm32f1xx_ll_tim.h ****   * @}
 626:Drivers/STM32F1xx_HAL_Driver/Inc/stm32f1xx_ll_tim.h ****   */
 627:Drivers/STM32F1xx_HAL_Driver/Inc/stm32f1xx_ll_tim.h **** 
 628:Drivers/STM32F1xx_HAL_Driver/Inc/stm32f1xx_ll_tim.h **** 
 629:Drivers/STM32F1xx_HAL_Driver/Inc/stm32f1xx_ll_tim.h **** /** @defgroup TIM_LL_EC_ACTIVEINPUT Active Input Selection
 630:Drivers/STM32F1xx_HAL_Driver/Inc/stm32f1xx_ll_tim.h ****   * @{
 631:Drivers/STM32F1xx_HAL_Driver/Inc/stm32f1xx_ll_tim.h ****   */
 632:Drivers/STM32F1xx_HAL_Driver/Inc/stm32f1xx_ll_tim.h **** #define LL_TIM_ACTIVEINPUT_DIRECTTI            (TIM_CCMR1_CC1S_0 << 16U) /*!< ICx is mapped on TIx 
 633:Drivers/STM32F1xx_HAL_Driver/Inc/stm32f1xx_ll_tim.h **** #define LL_TIM_ACTIVEINPUT_INDIRECTTI          (TIM_CCMR1_CC1S_1 << 16U) /*!< ICx is mapped on TIy 
 634:Drivers/STM32F1xx_HAL_Driver/Inc/stm32f1xx_ll_tim.h **** #define LL_TIM_ACTIVEINPUT_TRC                 (TIM_CCMR1_CC1S << 16U)   /*!< ICx is mapped on TRC 
 635:Drivers/STM32F1xx_HAL_Driver/Inc/stm32f1xx_ll_tim.h **** /**
 636:Drivers/STM32F1xx_HAL_Driver/Inc/stm32f1xx_ll_tim.h ****   * @}
 637:Drivers/STM32F1xx_HAL_Driver/Inc/stm32f1xx_ll_tim.h ****   */
 638:Drivers/STM32F1xx_HAL_Driver/Inc/stm32f1xx_ll_tim.h **** 
 639:Drivers/STM32F1xx_HAL_Driver/Inc/stm32f1xx_ll_tim.h **** /** @defgroup TIM_LL_EC_ICPSC Input Configuration Prescaler
 640:Drivers/STM32F1xx_HAL_Driver/Inc/stm32f1xx_ll_tim.h ****   * @{
 641:Drivers/STM32F1xx_HAL_Driver/Inc/stm32f1xx_ll_tim.h ****   */
 642:Drivers/STM32F1xx_HAL_Driver/Inc/stm32f1xx_ll_tim.h **** #define LL_TIM_ICPSC_DIV1                      0x00000000U                    /*!< No prescaler, ca
 643:Drivers/STM32F1xx_HAL_Driver/Inc/stm32f1xx_ll_tim.h **** #define LL_TIM_ICPSC_DIV2                      (TIM_CCMR1_IC1PSC_0 << 16U)    /*!< Capture is done 
 644:Drivers/STM32F1xx_HAL_Driver/Inc/stm32f1xx_ll_tim.h **** #define LL_TIM_ICPSC_DIV4                      (TIM_CCMR1_IC1PSC_1 << 16U)    /*!< Capture is done 
 645:Drivers/STM32F1xx_HAL_Driver/Inc/stm32f1xx_ll_tim.h **** #define LL_TIM_ICPSC_DIV8                      (TIM_CCMR1_IC1PSC << 16U)      /*!< Capture is done 
 646:Drivers/STM32F1xx_HAL_Driver/Inc/stm32f1xx_ll_tim.h **** /**
 647:Drivers/STM32F1xx_HAL_Driver/Inc/stm32f1xx_ll_tim.h ****   * @}
 648:Drivers/STM32F1xx_HAL_Driver/Inc/stm32f1xx_ll_tim.h ****   */
ARM GAS  /var/folders/m1/3lv6xmzs0mlckxs4mx90nfb40000gn/T//ccFDK2TW.s 			page 29


 649:Drivers/STM32F1xx_HAL_Driver/Inc/stm32f1xx_ll_tim.h **** 
 650:Drivers/STM32F1xx_HAL_Driver/Inc/stm32f1xx_ll_tim.h **** /** @defgroup TIM_LL_EC_IC_FILTER Input Configuration Filter
 651:Drivers/STM32F1xx_HAL_Driver/Inc/stm32f1xx_ll_tim.h ****   * @{
 652:Drivers/STM32F1xx_HAL_Driver/Inc/stm32f1xx_ll_tim.h ****   */
 653:Drivers/STM32F1xx_HAL_Driver/Inc/stm32f1xx_ll_tim.h **** #define LL_TIM_IC_FILTER_FDIV1                 0x00000000U                                         
 654:Drivers/STM32F1xx_HAL_Driver/Inc/stm32f1xx_ll_tim.h **** #define LL_TIM_IC_FILTER_FDIV1_N2              (TIM_CCMR1_IC1F_0 << 16U)                           
 655:Drivers/STM32F1xx_HAL_Driver/Inc/stm32f1xx_ll_tim.h **** #define LL_TIM_IC_FILTER_FDIV1_N4              (TIM_CCMR1_IC1F_1 << 16U)                           
 656:Drivers/STM32F1xx_HAL_Driver/Inc/stm32f1xx_ll_tim.h **** #define LL_TIM_IC_FILTER_FDIV1_N8              ((TIM_CCMR1_IC1F_1 | TIM_CCMR1_IC1F_0) << 16U)      
 657:Drivers/STM32F1xx_HAL_Driver/Inc/stm32f1xx_ll_tim.h **** #define LL_TIM_IC_FILTER_FDIV2_N6              (TIM_CCMR1_IC1F_2 << 16U)                           
 658:Drivers/STM32F1xx_HAL_Driver/Inc/stm32f1xx_ll_tim.h **** #define LL_TIM_IC_FILTER_FDIV2_N8              ((TIM_CCMR1_IC1F_2 | TIM_CCMR1_IC1F_0) << 16U)      
 659:Drivers/STM32F1xx_HAL_Driver/Inc/stm32f1xx_ll_tim.h **** #define LL_TIM_IC_FILTER_FDIV4_N6              ((TIM_CCMR1_IC1F_2 | TIM_CCMR1_IC1F_1) << 16U)      
 660:Drivers/STM32F1xx_HAL_Driver/Inc/stm32f1xx_ll_tim.h **** #define LL_TIM_IC_FILTER_FDIV4_N8              ((TIM_CCMR1_IC1F_2 | TIM_CCMR1_IC1F_1 | TIM_CCMR1_IC
 661:Drivers/STM32F1xx_HAL_Driver/Inc/stm32f1xx_ll_tim.h **** #define LL_TIM_IC_FILTER_FDIV8_N6              (TIM_CCMR1_IC1F_3 << 16U)                           
 662:Drivers/STM32F1xx_HAL_Driver/Inc/stm32f1xx_ll_tim.h **** #define LL_TIM_IC_FILTER_FDIV8_N8              ((TIM_CCMR1_IC1F_3 | TIM_CCMR1_IC1F_0) << 16U)      
 663:Drivers/STM32F1xx_HAL_Driver/Inc/stm32f1xx_ll_tim.h **** #define LL_TIM_IC_FILTER_FDIV16_N5             ((TIM_CCMR1_IC1F_3 | TIM_CCMR1_IC1F_1) << 16U)      
 664:Drivers/STM32F1xx_HAL_Driver/Inc/stm32f1xx_ll_tim.h **** #define LL_TIM_IC_FILTER_FDIV16_N6             ((TIM_CCMR1_IC1F_3 | TIM_CCMR1_IC1F_1 | TIM_CCMR1_IC
 665:Drivers/STM32F1xx_HAL_Driver/Inc/stm32f1xx_ll_tim.h **** #define LL_TIM_IC_FILTER_FDIV16_N8             ((TIM_CCMR1_IC1F_3 | TIM_CCMR1_IC1F_2) << 16U)      
 666:Drivers/STM32F1xx_HAL_Driver/Inc/stm32f1xx_ll_tim.h **** #define LL_TIM_IC_FILTER_FDIV32_N5             ((TIM_CCMR1_IC1F_3 | TIM_CCMR1_IC1F_2 | TIM_CCMR1_IC
 667:Drivers/STM32F1xx_HAL_Driver/Inc/stm32f1xx_ll_tim.h **** #define LL_TIM_IC_FILTER_FDIV32_N6             ((TIM_CCMR1_IC1F_3 | TIM_CCMR1_IC1F_2 | TIM_CCMR1_IC
 668:Drivers/STM32F1xx_HAL_Driver/Inc/stm32f1xx_ll_tim.h **** #define LL_TIM_IC_FILTER_FDIV32_N8             (TIM_CCMR1_IC1F << 16U)                             
 669:Drivers/STM32F1xx_HAL_Driver/Inc/stm32f1xx_ll_tim.h **** /**
 670:Drivers/STM32F1xx_HAL_Driver/Inc/stm32f1xx_ll_tim.h ****   * @}
 671:Drivers/STM32F1xx_HAL_Driver/Inc/stm32f1xx_ll_tim.h ****   */
 672:Drivers/STM32F1xx_HAL_Driver/Inc/stm32f1xx_ll_tim.h **** 
 673:Drivers/STM32F1xx_HAL_Driver/Inc/stm32f1xx_ll_tim.h **** /** @defgroup TIM_LL_EC_IC_POLARITY Input Configuration Polarity
 674:Drivers/STM32F1xx_HAL_Driver/Inc/stm32f1xx_ll_tim.h ****   * @{
 675:Drivers/STM32F1xx_HAL_Driver/Inc/stm32f1xx_ll_tim.h ****   */
 676:Drivers/STM32F1xx_HAL_Driver/Inc/stm32f1xx_ll_tim.h **** #define LL_TIM_IC_POLARITY_RISING              0x00000000U                      /*!< The circuit is
 677:Drivers/STM32F1xx_HAL_Driver/Inc/stm32f1xx_ll_tim.h **** #define LL_TIM_IC_POLARITY_FALLING             TIM_CCER_CC1P                    /*!< The circuit is
 678:Drivers/STM32F1xx_HAL_Driver/Inc/stm32f1xx_ll_tim.h **** /**
 679:Drivers/STM32F1xx_HAL_Driver/Inc/stm32f1xx_ll_tim.h ****   * @}
 680:Drivers/STM32F1xx_HAL_Driver/Inc/stm32f1xx_ll_tim.h ****   */
 681:Drivers/STM32F1xx_HAL_Driver/Inc/stm32f1xx_ll_tim.h **** 
 682:Drivers/STM32F1xx_HAL_Driver/Inc/stm32f1xx_ll_tim.h **** /** @defgroup TIM_LL_EC_CLOCKSOURCE Clock Source
 683:Drivers/STM32F1xx_HAL_Driver/Inc/stm32f1xx_ll_tim.h ****   * @{
 684:Drivers/STM32F1xx_HAL_Driver/Inc/stm32f1xx_ll_tim.h ****   */
 685:Drivers/STM32F1xx_HAL_Driver/Inc/stm32f1xx_ll_tim.h **** #define LL_TIM_CLOCKSOURCE_INTERNAL            0x00000000U                                         
 686:Drivers/STM32F1xx_HAL_Driver/Inc/stm32f1xx_ll_tim.h **** #define LL_TIM_CLOCKSOURCE_EXT_MODE1           (TIM_SMCR_SMS_2 | TIM_SMCR_SMS_1 | TIM_SMCR_SMS_0)  
 687:Drivers/STM32F1xx_HAL_Driver/Inc/stm32f1xx_ll_tim.h **** #define LL_TIM_CLOCKSOURCE_EXT_MODE2           TIM_SMCR_ECE                                        
 688:Drivers/STM32F1xx_HAL_Driver/Inc/stm32f1xx_ll_tim.h **** /**
 689:Drivers/STM32F1xx_HAL_Driver/Inc/stm32f1xx_ll_tim.h ****   * @}
 690:Drivers/STM32F1xx_HAL_Driver/Inc/stm32f1xx_ll_tim.h ****   */
 691:Drivers/STM32F1xx_HAL_Driver/Inc/stm32f1xx_ll_tim.h **** 
 692:Drivers/STM32F1xx_HAL_Driver/Inc/stm32f1xx_ll_tim.h **** /** @defgroup TIM_LL_EC_ENCODERMODE Encoder Mode
 693:Drivers/STM32F1xx_HAL_Driver/Inc/stm32f1xx_ll_tim.h ****   * @{
 694:Drivers/STM32F1xx_HAL_Driver/Inc/stm32f1xx_ll_tim.h ****   */
 695:Drivers/STM32F1xx_HAL_Driver/Inc/stm32f1xx_ll_tim.h **** #define LL_TIM_ENCODERMODE_X2_TI1                     TIM_SMCR_SMS_0                               
 696:Drivers/STM32F1xx_HAL_Driver/Inc/stm32f1xx_ll_tim.h **** #define LL_TIM_ENCODERMODE_X2_TI2                     TIM_SMCR_SMS_1                               
 697:Drivers/STM32F1xx_HAL_Driver/Inc/stm32f1xx_ll_tim.h **** #define LL_TIM_ENCODERMODE_X4_TI12                   (TIM_SMCR_SMS_1 | TIM_SMCR_SMS_0)             
 698:Drivers/STM32F1xx_HAL_Driver/Inc/stm32f1xx_ll_tim.h **** /**
 699:Drivers/STM32F1xx_HAL_Driver/Inc/stm32f1xx_ll_tim.h ****   * @}
 700:Drivers/STM32F1xx_HAL_Driver/Inc/stm32f1xx_ll_tim.h ****   */
 701:Drivers/STM32F1xx_HAL_Driver/Inc/stm32f1xx_ll_tim.h **** 
 702:Drivers/STM32F1xx_HAL_Driver/Inc/stm32f1xx_ll_tim.h **** /** @defgroup TIM_LL_EC_TRGO Trigger Output
 703:Drivers/STM32F1xx_HAL_Driver/Inc/stm32f1xx_ll_tim.h ****   * @{
 704:Drivers/STM32F1xx_HAL_Driver/Inc/stm32f1xx_ll_tim.h ****   */
 705:Drivers/STM32F1xx_HAL_Driver/Inc/stm32f1xx_ll_tim.h **** #define LL_TIM_TRGO_RESET                      0x00000000U                                     /*!<
ARM GAS  /var/folders/m1/3lv6xmzs0mlckxs4mx90nfb40000gn/T//ccFDK2TW.s 			page 30


 706:Drivers/STM32F1xx_HAL_Driver/Inc/stm32f1xx_ll_tim.h **** #define LL_TIM_TRGO_ENABLE                     TIM_CR2_MMS_0                                   /*!<
 707:Drivers/STM32F1xx_HAL_Driver/Inc/stm32f1xx_ll_tim.h **** #define LL_TIM_TRGO_UPDATE                     TIM_CR2_MMS_1                                   /*!<
 708:Drivers/STM32F1xx_HAL_Driver/Inc/stm32f1xx_ll_tim.h **** #define LL_TIM_TRGO_CC1IF                      (TIM_CR2_MMS_1 | TIM_CR2_MMS_0)                 /*!<
 709:Drivers/STM32F1xx_HAL_Driver/Inc/stm32f1xx_ll_tim.h **** #define LL_TIM_TRGO_OC1REF                     TIM_CR2_MMS_2                                   /*!<
 710:Drivers/STM32F1xx_HAL_Driver/Inc/stm32f1xx_ll_tim.h **** #define LL_TIM_TRGO_OC2REF                     (TIM_CR2_MMS_2 | TIM_CR2_MMS_0)                 /*!<
 711:Drivers/STM32F1xx_HAL_Driver/Inc/stm32f1xx_ll_tim.h **** #define LL_TIM_TRGO_OC3REF                     (TIM_CR2_MMS_2 | TIM_CR2_MMS_1)                 /*!<
 712:Drivers/STM32F1xx_HAL_Driver/Inc/stm32f1xx_ll_tim.h **** #define LL_TIM_TRGO_OC4REF                     (TIM_CR2_MMS_2 | TIM_CR2_MMS_1 | TIM_CR2_MMS_0) /*!<
 713:Drivers/STM32F1xx_HAL_Driver/Inc/stm32f1xx_ll_tim.h **** /**
 714:Drivers/STM32F1xx_HAL_Driver/Inc/stm32f1xx_ll_tim.h ****   * @}
 715:Drivers/STM32F1xx_HAL_Driver/Inc/stm32f1xx_ll_tim.h ****   */
 716:Drivers/STM32F1xx_HAL_Driver/Inc/stm32f1xx_ll_tim.h **** 
 717:Drivers/STM32F1xx_HAL_Driver/Inc/stm32f1xx_ll_tim.h **** 
 718:Drivers/STM32F1xx_HAL_Driver/Inc/stm32f1xx_ll_tim.h **** /** @defgroup TIM_LL_EC_SLAVEMODE Slave Mode
 719:Drivers/STM32F1xx_HAL_Driver/Inc/stm32f1xx_ll_tim.h ****   * @{
 720:Drivers/STM32F1xx_HAL_Driver/Inc/stm32f1xx_ll_tim.h ****   */
 721:Drivers/STM32F1xx_HAL_Driver/Inc/stm32f1xx_ll_tim.h **** #define LL_TIM_SLAVEMODE_DISABLED              0x00000000U                         /*!< Slave mode 
 722:Drivers/STM32F1xx_HAL_Driver/Inc/stm32f1xx_ll_tim.h **** #define LL_TIM_SLAVEMODE_RESET                 TIM_SMCR_SMS_2                      /*!< Reset Mode 
 723:Drivers/STM32F1xx_HAL_Driver/Inc/stm32f1xx_ll_tim.h **** #define LL_TIM_SLAVEMODE_GATED                 (TIM_SMCR_SMS_2 | TIM_SMCR_SMS_0)   /*!< Gated Mode 
 724:Drivers/STM32F1xx_HAL_Driver/Inc/stm32f1xx_ll_tim.h **** #define LL_TIM_SLAVEMODE_TRIGGER               (TIM_SMCR_SMS_2 | TIM_SMCR_SMS_1)   /*!< Trigger Mod
 725:Drivers/STM32F1xx_HAL_Driver/Inc/stm32f1xx_ll_tim.h **** /**
 726:Drivers/STM32F1xx_HAL_Driver/Inc/stm32f1xx_ll_tim.h ****   * @}
 727:Drivers/STM32F1xx_HAL_Driver/Inc/stm32f1xx_ll_tim.h ****   */
 728:Drivers/STM32F1xx_HAL_Driver/Inc/stm32f1xx_ll_tim.h **** 
 729:Drivers/STM32F1xx_HAL_Driver/Inc/stm32f1xx_ll_tim.h **** /** @defgroup TIM_LL_EC_TS Trigger Selection
 730:Drivers/STM32F1xx_HAL_Driver/Inc/stm32f1xx_ll_tim.h ****   * @{
 731:Drivers/STM32F1xx_HAL_Driver/Inc/stm32f1xx_ll_tim.h ****   */
 732:Drivers/STM32F1xx_HAL_Driver/Inc/stm32f1xx_ll_tim.h **** #define LL_TIM_TS_ITR0                         0x00000000U                                         
 733:Drivers/STM32F1xx_HAL_Driver/Inc/stm32f1xx_ll_tim.h **** #define LL_TIM_TS_ITR1                         TIM_SMCR_TS_0                                       
 734:Drivers/STM32F1xx_HAL_Driver/Inc/stm32f1xx_ll_tim.h **** #define LL_TIM_TS_ITR2                         TIM_SMCR_TS_1                                       
 735:Drivers/STM32F1xx_HAL_Driver/Inc/stm32f1xx_ll_tim.h **** #define LL_TIM_TS_ITR3                         (TIM_SMCR_TS_0 | TIM_SMCR_TS_1)                     
 736:Drivers/STM32F1xx_HAL_Driver/Inc/stm32f1xx_ll_tim.h **** #define LL_TIM_TS_TI1F_ED                      TIM_SMCR_TS_2                                       
 737:Drivers/STM32F1xx_HAL_Driver/Inc/stm32f1xx_ll_tim.h **** #define LL_TIM_TS_TI1FP1                       (TIM_SMCR_TS_2 | TIM_SMCR_TS_0)                     
 738:Drivers/STM32F1xx_HAL_Driver/Inc/stm32f1xx_ll_tim.h **** #define LL_TIM_TS_TI2FP2                       (TIM_SMCR_TS_2 | TIM_SMCR_TS_1)                     
 739:Drivers/STM32F1xx_HAL_Driver/Inc/stm32f1xx_ll_tim.h **** #define LL_TIM_TS_ETRF                         (TIM_SMCR_TS_2 | TIM_SMCR_TS_1 | TIM_SMCR_TS_0)     
 740:Drivers/STM32F1xx_HAL_Driver/Inc/stm32f1xx_ll_tim.h **** /**
 741:Drivers/STM32F1xx_HAL_Driver/Inc/stm32f1xx_ll_tim.h ****   * @}
 742:Drivers/STM32F1xx_HAL_Driver/Inc/stm32f1xx_ll_tim.h ****   */
 743:Drivers/STM32F1xx_HAL_Driver/Inc/stm32f1xx_ll_tim.h **** 
 744:Drivers/STM32F1xx_HAL_Driver/Inc/stm32f1xx_ll_tim.h **** /** @defgroup TIM_LL_EC_ETR_POLARITY External Trigger Polarity
 745:Drivers/STM32F1xx_HAL_Driver/Inc/stm32f1xx_ll_tim.h ****   * @{
 746:Drivers/STM32F1xx_HAL_Driver/Inc/stm32f1xx_ll_tim.h ****   */
 747:Drivers/STM32F1xx_HAL_Driver/Inc/stm32f1xx_ll_tim.h **** #define LL_TIM_ETR_POLARITY_NONINVERTED        0x00000000U             /*!< ETR is non-inverted, ac
 748:Drivers/STM32F1xx_HAL_Driver/Inc/stm32f1xx_ll_tim.h **** #define LL_TIM_ETR_POLARITY_INVERTED           TIM_SMCR_ETP            /*!< ETR is inverted, active
 749:Drivers/STM32F1xx_HAL_Driver/Inc/stm32f1xx_ll_tim.h **** /**
 750:Drivers/STM32F1xx_HAL_Driver/Inc/stm32f1xx_ll_tim.h ****   * @}
 751:Drivers/STM32F1xx_HAL_Driver/Inc/stm32f1xx_ll_tim.h ****   */
 752:Drivers/STM32F1xx_HAL_Driver/Inc/stm32f1xx_ll_tim.h **** 
 753:Drivers/STM32F1xx_HAL_Driver/Inc/stm32f1xx_ll_tim.h **** /** @defgroup TIM_LL_EC_ETR_PRESCALER External Trigger Prescaler
 754:Drivers/STM32F1xx_HAL_Driver/Inc/stm32f1xx_ll_tim.h ****   * @{
 755:Drivers/STM32F1xx_HAL_Driver/Inc/stm32f1xx_ll_tim.h ****   */
 756:Drivers/STM32F1xx_HAL_Driver/Inc/stm32f1xx_ll_tim.h **** #define LL_TIM_ETR_PRESCALER_DIV1              0x00000000U             /*!< ETR prescaler OFF */
 757:Drivers/STM32F1xx_HAL_Driver/Inc/stm32f1xx_ll_tim.h **** #define LL_TIM_ETR_PRESCALER_DIV2              TIM_SMCR_ETPS_0         /*!< ETR frequency is divide
 758:Drivers/STM32F1xx_HAL_Driver/Inc/stm32f1xx_ll_tim.h **** #define LL_TIM_ETR_PRESCALER_DIV4              TIM_SMCR_ETPS_1         /*!< ETR frequency is divide
 759:Drivers/STM32F1xx_HAL_Driver/Inc/stm32f1xx_ll_tim.h **** #define LL_TIM_ETR_PRESCALER_DIV8              TIM_SMCR_ETPS           /*!< ETR frequency is divide
 760:Drivers/STM32F1xx_HAL_Driver/Inc/stm32f1xx_ll_tim.h **** /**
 761:Drivers/STM32F1xx_HAL_Driver/Inc/stm32f1xx_ll_tim.h ****   * @}
 762:Drivers/STM32F1xx_HAL_Driver/Inc/stm32f1xx_ll_tim.h ****   */
ARM GAS  /var/folders/m1/3lv6xmzs0mlckxs4mx90nfb40000gn/T//ccFDK2TW.s 			page 31


 763:Drivers/STM32F1xx_HAL_Driver/Inc/stm32f1xx_ll_tim.h **** 
 764:Drivers/STM32F1xx_HAL_Driver/Inc/stm32f1xx_ll_tim.h **** /** @defgroup TIM_LL_EC_ETR_FILTER External Trigger Filter
 765:Drivers/STM32F1xx_HAL_Driver/Inc/stm32f1xx_ll_tim.h ****   * @{
 766:Drivers/STM32F1xx_HAL_Driver/Inc/stm32f1xx_ll_tim.h ****   */
 767:Drivers/STM32F1xx_HAL_Driver/Inc/stm32f1xx_ll_tim.h **** #define LL_TIM_ETR_FILTER_FDIV1                0x00000000U                                         
 768:Drivers/STM32F1xx_HAL_Driver/Inc/stm32f1xx_ll_tim.h **** #define LL_TIM_ETR_FILTER_FDIV1_N2             TIM_SMCR_ETF_0                                      
 769:Drivers/STM32F1xx_HAL_Driver/Inc/stm32f1xx_ll_tim.h **** #define LL_TIM_ETR_FILTER_FDIV1_N4             TIM_SMCR_ETF_1                                      
 770:Drivers/STM32F1xx_HAL_Driver/Inc/stm32f1xx_ll_tim.h **** #define LL_TIM_ETR_FILTER_FDIV1_N8             (TIM_SMCR_ETF_1 | TIM_SMCR_ETF_0)                   
 771:Drivers/STM32F1xx_HAL_Driver/Inc/stm32f1xx_ll_tim.h **** #define LL_TIM_ETR_FILTER_FDIV2_N6             TIM_SMCR_ETF_2                                      
 772:Drivers/STM32F1xx_HAL_Driver/Inc/stm32f1xx_ll_tim.h **** #define LL_TIM_ETR_FILTER_FDIV2_N8             (TIM_SMCR_ETF_2 | TIM_SMCR_ETF_0)                   
 773:Drivers/STM32F1xx_HAL_Driver/Inc/stm32f1xx_ll_tim.h **** #define LL_TIM_ETR_FILTER_FDIV4_N6             (TIM_SMCR_ETF_2 | TIM_SMCR_ETF_1)                   
 774:Drivers/STM32F1xx_HAL_Driver/Inc/stm32f1xx_ll_tim.h **** #define LL_TIM_ETR_FILTER_FDIV4_N8             (TIM_SMCR_ETF_2 | TIM_SMCR_ETF_1 | TIM_SMCR_ETF_0)  
 775:Drivers/STM32F1xx_HAL_Driver/Inc/stm32f1xx_ll_tim.h **** #define LL_TIM_ETR_FILTER_FDIV8_N6             TIM_SMCR_ETF_3                                      
 776:Drivers/STM32F1xx_HAL_Driver/Inc/stm32f1xx_ll_tim.h **** #define LL_TIM_ETR_FILTER_FDIV8_N8             (TIM_SMCR_ETF_3 | TIM_SMCR_ETF_0)                   
 777:Drivers/STM32F1xx_HAL_Driver/Inc/stm32f1xx_ll_tim.h **** #define LL_TIM_ETR_FILTER_FDIV16_N5            (TIM_SMCR_ETF_3 | TIM_SMCR_ETF_1)                   
 778:Drivers/STM32F1xx_HAL_Driver/Inc/stm32f1xx_ll_tim.h **** #define LL_TIM_ETR_FILTER_FDIV16_N6            (TIM_SMCR_ETF_3 | TIM_SMCR_ETF_1 | TIM_SMCR_ETF_0)  
 779:Drivers/STM32F1xx_HAL_Driver/Inc/stm32f1xx_ll_tim.h **** #define LL_TIM_ETR_FILTER_FDIV16_N8            (TIM_SMCR_ETF_3 | TIM_SMCR_ETF_2)                   
 780:Drivers/STM32F1xx_HAL_Driver/Inc/stm32f1xx_ll_tim.h **** #define LL_TIM_ETR_FILTER_FDIV32_N5            (TIM_SMCR_ETF_3 | TIM_SMCR_ETF_2 | TIM_SMCR_ETF_0)  
 781:Drivers/STM32F1xx_HAL_Driver/Inc/stm32f1xx_ll_tim.h **** #define LL_TIM_ETR_FILTER_FDIV32_N6            (TIM_SMCR_ETF_3 | TIM_SMCR_ETF_2 | TIM_SMCR_ETF_1)  
 782:Drivers/STM32F1xx_HAL_Driver/Inc/stm32f1xx_ll_tim.h **** #define LL_TIM_ETR_FILTER_FDIV32_N8            TIM_SMCR_ETF                                        
 783:Drivers/STM32F1xx_HAL_Driver/Inc/stm32f1xx_ll_tim.h **** /**
 784:Drivers/STM32F1xx_HAL_Driver/Inc/stm32f1xx_ll_tim.h ****   * @}
 785:Drivers/STM32F1xx_HAL_Driver/Inc/stm32f1xx_ll_tim.h ****   */
 786:Drivers/STM32F1xx_HAL_Driver/Inc/stm32f1xx_ll_tim.h **** 
 787:Drivers/STM32F1xx_HAL_Driver/Inc/stm32f1xx_ll_tim.h **** 
 788:Drivers/STM32F1xx_HAL_Driver/Inc/stm32f1xx_ll_tim.h **** /** @defgroup TIM_LL_EC_BREAK_POLARITY break polarity
 789:Drivers/STM32F1xx_HAL_Driver/Inc/stm32f1xx_ll_tim.h ****   * @{
 790:Drivers/STM32F1xx_HAL_Driver/Inc/stm32f1xx_ll_tim.h ****   */
 791:Drivers/STM32F1xx_HAL_Driver/Inc/stm32f1xx_ll_tim.h **** #define LL_TIM_BREAK_POLARITY_LOW              0x00000000U               /*!< Break input BRK is ac
 792:Drivers/STM32F1xx_HAL_Driver/Inc/stm32f1xx_ll_tim.h **** #define LL_TIM_BREAK_POLARITY_HIGH             TIM_BDTR_BKP              /*!< Break input BRK is ac
 793:Drivers/STM32F1xx_HAL_Driver/Inc/stm32f1xx_ll_tim.h **** /**
 794:Drivers/STM32F1xx_HAL_Driver/Inc/stm32f1xx_ll_tim.h ****   * @}
 795:Drivers/STM32F1xx_HAL_Driver/Inc/stm32f1xx_ll_tim.h ****   */
 796:Drivers/STM32F1xx_HAL_Driver/Inc/stm32f1xx_ll_tim.h **** 
 797:Drivers/STM32F1xx_HAL_Driver/Inc/stm32f1xx_ll_tim.h **** 
 798:Drivers/STM32F1xx_HAL_Driver/Inc/stm32f1xx_ll_tim.h **** 
 799:Drivers/STM32F1xx_HAL_Driver/Inc/stm32f1xx_ll_tim.h **** 
 800:Drivers/STM32F1xx_HAL_Driver/Inc/stm32f1xx_ll_tim.h **** /** @defgroup TIM_LL_EC_OSSI OSSI
 801:Drivers/STM32F1xx_HAL_Driver/Inc/stm32f1xx_ll_tim.h ****   * @{
 802:Drivers/STM32F1xx_HAL_Driver/Inc/stm32f1xx_ll_tim.h ****   */
 803:Drivers/STM32F1xx_HAL_Driver/Inc/stm32f1xx_ll_tim.h **** #define LL_TIM_OSSI_DISABLE                    0x00000000U             /*!< When inactive, OCx/OCxN
 804:Drivers/STM32F1xx_HAL_Driver/Inc/stm32f1xx_ll_tim.h **** #define LL_TIM_OSSI_ENABLE                     TIM_BDTR_OSSI           /*!< When inactive, OxC/OCxN
 805:Drivers/STM32F1xx_HAL_Driver/Inc/stm32f1xx_ll_tim.h **** /**
 806:Drivers/STM32F1xx_HAL_Driver/Inc/stm32f1xx_ll_tim.h ****   * @}
 807:Drivers/STM32F1xx_HAL_Driver/Inc/stm32f1xx_ll_tim.h ****   */
 808:Drivers/STM32F1xx_HAL_Driver/Inc/stm32f1xx_ll_tim.h **** 
 809:Drivers/STM32F1xx_HAL_Driver/Inc/stm32f1xx_ll_tim.h **** /** @defgroup TIM_LL_EC_OSSR OSSR
 810:Drivers/STM32F1xx_HAL_Driver/Inc/stm32f1xx_ll_tim.h ****   * @{
 811:Drivers/STM32F1xx_HAL_Driver/Inc/stm32f1xx_ll_tim.h ****   */
 812:Drivers/STM32F1xx_HAL_Driver/Inc/stm32f1xx_ll_tim.h **** #define LL_TIM_OSSR_DISABLE                    0x00000000U             /*!< When inactive, OCx/OCxN
 813:Drivers/STM32F1xx_HAL_Driver/Inc/stm32f1xx_ll_tim.h **** #define LL_TIM_OSSR_ENABLE                     TIM_BDTR_OSSR           /*!< When inactive, OC/OCN o
 814:Drivers/STM32F1xx_HAL_Driver/Inc/stm32f1xx_ll_tim.h **** /**
 815:Drivers/STM32F1xx_HAL_Driver/Inc/stm32f1xx_ll_tim.h ****   * @}
 816:Drivers/STM32F1xx_HAL_Driver/Inc/stm32f1xx_ll_tim.h ****   */
 817:Drivers/STM32F1xx_HAL_Driver/Inc/stm32f1xx_ll_tim.h **** 
 818:Drivers/STM32F1xx_HAL_Driver/Inc/stm32f1xx_ll_tim.h **** 
 819:Drivers/STM32F1xx_HAL_Driver/Inc/stm32f1xx_ll_tim.h **** /** @defgroup TIM_LL_EC_DMABURST_BASEADDR DMA Burst Base Address
ARM GAS  /var/folders/m1/3lv6xmzs0mlckxs4mx90nfb40000gn/T//ccFDK2TW.s 			page 32


 820:Drivers/STM32F1xx_HAL_Driver/Inc/stm32f1xx_ll_tim.h ****   * @{
 821:Drivers/STM32F1xx_HAL_Driver/Inc/stm32f1xx_ll_tim.h ****   */
 822:Drivers/STM32F1xx_HAL_Driver/Inc/stm32f1xx_ll_tim.h **** #define LL_TIM_DMABURST_BASEADDR_CR1           0x00000000U                                         
 823:Drivers/STM32F1xx_HAL_Driver/Inc/stm32f1xx_ll_tim.h **** #define LL_TIM_DMABURST_BASEADDR_CR2           TIM_DCR_DBA_0                                       
 824:Drivers/STM32F1xx_HAL_Driver/Inc/stm32f1xx_ll_tim.h **** #define LL_TIM_DMABURST_BASEADDR_SMCR          TIM_DCR_DBA_1                                       
 825:Drivers/STM32F1xx_HAL_Driver/Inc/stm32f1xx_ll_tim.h **** #define LL_TIM_DMABURST_BASEADDR_DIER          (TIM_DCR_DBA_1 |  TIM_DCR_DBA_0)                    
 826:Drivers/STM32F1xx_HAL_Driver/Inc/stm32f1xx_ll_tim.h **** #define LL_TIM_DMABURST_BASEADDR_SR            TIM_DCR_DBA_2                                       
 827:Drivers/STM32F1xx_HAL_Driver/Inc/stm32f1xx_ll_tim.h **** #define LL_TIM_DMABURST_BASEADDR_EGR           (TIM_DCR_DBA_2 | TIM_DCR_DBA_0)                     
 828:Drivers/STM32F1xx_HAL_Driver/Inc/stm32f1xx_ll_tim.h **** #define LL_TIM_DMABURST_BASEADDR_CCMR1         (TIM_DCR_DBA_2 | TIM_DCR_DBA_1)                     
 829:Drivers/STM32F1xx_HAL_Driver/Inc/stm32f1xx_ll_tim.h **** #define LL_TIM_DMABURST_BASEADDR_CCMR2         (TIM_DCR_DBA_2 | TIM_DCR_DBA_1 | TIM_DCR_DBA_0)     
 830:Drivers/STM32F1xx_HAL_Driver/Inc/stm32f1xx_ll_tim.h **** #define LL_TIM_DMABURST_BASEADDR_CCER          TIM_DCR_DBA_3                                       
 831:Drivers/STM32F1xx_HAL_Driver/Inc/stm32f1xx_ll_tim.h **** #define LL_TIM_DMABURST_BASEADDR_CNT           (TIM_DCR_DBA_3 | TIM_DCR_DBA_0)                     
 832:Drivers/STM32F1xx_HAL_Driver/Inc/stm32f1xx_ll_tim.h **** #define LL_TIM_DMABURST_BASEADDR_PSC           (TIM_DCR_DBA_3 | TIM_DCR_DBA_1)                     
 833:Drivers/STM32F1xx_HAL_Driver/Inc/stm32f1xx_ll_tim.h **** #define LL_TIM_DMABURST_BASEADDR_ARR           (TIM_DCR_DBA_3 | TIM_DCR_DBA_1 | TIM_DCR_DBA_0)     
 834:Drivers/STM32F1xx_HAL_Driver/Inc/stm32f1xx_ll_tim.h **** #define LL_TIM_DMABURST_BASEADDR_RCR           (TIM_DCR_DBA_3 | TIM_DCR_DBA_2)                     
 835:Drivers/STM32F1xx_HAL_Driver/Inc/stm32f1xx_ll_tim.h **** #define LL_TIM_DMABURST_BASEADDR_CCR1          (TIM_DCR_DBA_3 | TIM_DCR_DBA_2 | TIM_DCR_DBA_0)     
 836:Drivers/STM32F1xx_HAL_Driver/Inc/stm32f1xx_ll_tim.h **** #define LL_TIM_DMABURST_BASEADDR_CCR2          (TIM_DCR_DBA_3 | TIM_DCR_DBA_2 | TIM_DCR_DBA_1)     
 837:Drivers/STM32F1xx_HAL_Driver/Inc/stm32f1xx_ll_tim.h **** #define LL_TIM_DMABURST_BASEADDR_CCR3          (TIM_DCR_DBA_3 | TIM_DCR_DBA_2 | TIM_DCR_DBA_1 | TIM
 838:Drivers/STM32F1xx_HAL_Driver/Inc/stm32f1xx_ll_tim.h **** #define LL_TIM_DMABURST_BASEADDR_CCR4          TIM_DCR_DBA_4                                       
 839:Drivers/STM32F1xx_HAL_Driver/Inc/stm32f1xx_ll_tim.h **** #define LL_TIM_DMABURST_BASEADDR_BDTR          (TIM_DCR_DBA_4 | TIM_DCR_DBA_0)                     
 840:Drivers/STM32F1xx_HAL_Driver/Inc/stm32f1xx_ll_tim.h **** /**
 841:Drivers/STM32F1xx_HAL_Driver/Inc/stm32f1xx_ll_tim.h ****   * @}
 842:Drivers/STM32F1xx_HAL_Driver/Inc/stm32f1xx_ll_tim.h ****   */
 843:Drivers/STM32F1xx_HAL_Driver/Inc/stm32f1xx_ll_tim.h **** 
 844:Drivers/STM32F1xx_HAL_Driver/Inc/stm32f1xx_ll_tim.h **** /** @defgroup TIM_LL_EC_DMABURST_LENGTH DMA Burst Length
 845:Drivers/STM32F1xx_HAL_Driver/Inc/stm32f1xx_ll_tim.h ****   * @{
 846:Drivers/STM32F1xx_HAL_Driver/Inc/stm32f1xx_ll_tim.h ****   */
 847:Drivers/STM32F1xx_HAL_Driver/Inc/stm32f1xx_ll_tim.h **** #define LL_TIM_DMABURST_LENGTH_1TRANSFER       0x00000000U                                         
 848:Drivers/STM32F1xx_HAL_Driver/Inc/stm32f1xx_ll_tim.h **** #define LL_TIM_DMABURST_LENGTH_2TRANSFERS      TIM_DCR_DBL_0                                       
 849:Drivers/STM32F1xx_HAL_Driver/Inc/stm32f1xx_ll_tim.h **** #define LL_TIM_DMABURST_LENGTH_3TRANSFERS      TIM_DCR_DBL_1                                       
 850:Drivers/STM32F1xx_HAL_Driver/Inc/stm32f1xx_ll_tim.h **** #define LL_TIM_DMABURST_LENGTH_4TRANSFERS      (TIM_DCR_DBL_1 |  TIM_DCR_DBL_0)                    
 851:Drivers/STM32F1xx_HAL_Driver/Inc/stm32f1xx_ll_tim.h **** #define LL_TIM_DMABURST_LENGTH_5TRANSFERS      TIM_DCR_DBL_2                                       
 852:Drivers/STM32F1xx_HAL_Driver/Inc/stm32f1xx_ll_tim.h **** #define LL_TIM_DMABURST_LENGTH_6TRANSFERS      (TIM_DCR_DBL_2 | TIM_DCR_DBL_0)                     
 853:Drivers/STM32F1xx_HAL_Driver/Inc/stm32f1xx_ll_tim.h **** #define LL_TIM_DMABURST_LENGTH_7TRANSFERS      (TIM_DCR_DBL_2 | TIM_DCR_DBL_1)                     
 854:Drivers/STM32F1xx_HAL_Driver/Inc/stm32f1xx_ll_tim.h **** #define LL_TIM_DMABURST_LENGTH_8TRANSFERS      (TIM_DCR_DBL_2 | TIM_DCR_DBL_1 | TIM_DCR_DBL_0)     
 855:Drivers/STM32F1xx_HAL_Driver/Inc/stm32f1xx_ll_tim.h **** #define LL_TIM_DMABURST_LENGTH_9TRANSFERS      TIM_DCR_DBL_3                                       
 856:Drivers/STM32F1xx_HAL_Driver/Inc/stm32f1xx_ll_tim.h **** #define LL_TIM_DMABURST_LENGTH_10TRANSFERS     (TIM_DCR_DBL_3 | TIM_DCR_DBL_0)                     
 857:Drivers/STM32F1xx_HAL_Driver/Inc/stm32f1xx_ll_tim.h **** #define LL_TIM_DMABURST_LENGTH_11TRANSFERS     (TIM_DCR_DBL_3 | TIM_DCR_DBL_1)                     
 858:Drivers/STM32F1xx_HAL_Driver/Inc/stm32f1xx_ll_tim.h **** #define LL_TIM_DMABURST_LENGTH_12TRANSFERS     (TIM_DCR_DBL_3 | TIM_DCR_DBL_1 | TIM_DCR_DBL_0)     
 859:Drivers/STM32F1xx_HAL_Driver/Inc/stm32f1xx_ll_tim.h **** #define LL_TIM_DMABURST_LENGTH_13TRANSFERS     (TIM_DCR_DBL_3 | TIM_DCR_DBL_2)                     
 860:Drivers/STM32F1xx_HAL_Driver/Inc/stm32f1xx_ll_tim.h **** #define LL_TIM_DMABURST_LENGTH_14TRANSFERS     (TIM_DCR_DBL_3 | TIM_DCR_DBL_2 | TIM_DCR_DBL_0)     
 861:Drivers/STM32F1xx_HAL_Driver/Inc/stm32f1xx_ll_tim.h **** #define LL_TIM_DMABURST_LENGTH_15TRANSFERS     (TIM_DCR_DBL_3 | TIM_DCR_DBL_2 | TIM_DCR_DBL_1)     
 862:Drivers/STM32F1xx_HAL_Driver/Inc/stm32f1xx_ll_tim.h **** #define LL_TIM_DMABURST_LENGTH_16TRANSFERS     (TIM_DCR_DBL_3 | TIM_DCR_DBL_2 | TIM_DCR_DBL_1 | TIM
 863:Drivers/STM32F1xx_HAL_Driver/Inc/stm32f1xx_ll_tim.h **** #define LL_TIM_DMABURST_LENGTH_17TRANSFERS     TIM_DCR_DBL_4                                       
 864:Drivers/STM32F1xx_HAL_Driver/Inc/stm32f1xx_ll_tim.h **** #define LL_TIM_DMABURST_LENGTH_18TRANSFERS     (TIM_DCR_DBL_4 |  TIM_DCR_DBL_0)                    
 865:Drivers/STM32F1xx_HAL_Driver/Inc/stm32f1xx_ll_tim.h **** /**
 866:Drivers/STM32F1xx_HAL_Driver/Inc/stm32f1xx_ll_tim.h ****   * @}
 867:Drivers/STM32F1xx_HAL_Driver/Inc/stm32f1xx_ll_tim.h ****   */
 868:Drivers/STM32F1xx_HAL_Driver/Inc/stm32f1xx_ll_tim.h **** 
 869:Drivers/STM32F1xx_HAL_Driver/Inc/stm32f1xx_ll_tim.h **** 
 870:Drivers/STM32F1xx_HAL_Driver/Inc/stm32f1xx_ll_tim.h **** /**
 871:Drivers/STM32F1xx_HAL_Driver/Inc/stm32f1xx_ll_tim.h ****   * @}
 872:Drivers/STM32F1xx_HAL_Driver/Inc/stm32f1xx_ll_tim.h ****   */
 873:Drivers/STM32F1xx_HAL_Driver/Inc/stm32f1xx_ll_tim.h **** 
 874:Drivers/STM32F1xx_HAL_Driver/Inc/stm32f1xx_ll_tim.h **** /* Exported macro ------------------------------------------------------------*/
 875:Drivers/STM32F1xx_HAL_Driver/Inc/stm32f1xx_ll_tim.h **** /** @defgroup TIM_LL_Exported_Macros TIM Exported Macros
 876:Drivers/STM32F1xx_HAL_Driver/Inc/stm32f1xx_ll_tim.h ****   * @{
ARM GAS  /var/folders/m1/3lv6xmzs0mlckxs4mx90nfb40000gn/T//ccFDK2TW.s 			page 33


 877:Drivers/STM32F1xx_HAL_Driver/Inc/stm32f1xx_ll_tim.h ****   */
 878:Drivers/STM32F1xx_HAL_Driver/Inc/stm32f1xx_ll_tim.h **** 
 879:Drivers/STM32F1xx_HAL_Driver/Inc/stm32f1xx_ll_tim.h **** /** @defgroup TIM_LL_EM_WRITE_READ Common Write and read registers Macros
 880:Drivers/STM32F1xx_HAL_Driver/Inc/stm32f1xx_ll_tim.h ****   * @{
 881:Drivers/STM32F1xx_HAL_Driver/Inc/stm32f1xx_ll_tim.h ****   */
 882:Drivers/STM32F1xx_HAL_Driver/Inc/stm32f1xx_ll_tim.h **** /**
 883:Drivers/STM32F1xx_HAL_Driver/Inc/stm32f1xx_ll_tim.h ****   * @brief  Write a value in TIM register.
 884:Drivers/STM32F1xx_HAL_Driver/Inc/stm32f1xx_ll_tim.h ****   * @param  __INSTANCE__ TIM Instance
 885:Drivers/STM32F1xx_HAL_Driver/Inc/stm32f1xx_ll_tim.h ****   * @param  __REG__ Register to be written
 886:Drivers/STM32F1xx_HAL_Driver/Inc/stm32f1xx_ll_tim.h ****   * @param  __VALUE__ Value to be written in the register
 887:Drivers/STM32F1xx_HAL_Driver/Inc/stm32f1xx_ll_tim.h ****   * @retval None
 888:Drivers/STM32F1xx_HAL_Driver/Inc/stm32f1xx_ll_tim.h ****   */
 889:Drivers/STM32F1xx_HAL_Driver/Inc/stm32f1xx_ll_tim.h **** #define LL_TIM_WriteReg(__INSTANCE__, __REG__, __VALUE__) WRITE_REG((__INSTANCE__)->__REG__, (__VAL
 890:Drivers/STM32F1xx_HAL_Driver/Inc/stm32f1xx_ll_tim.h **** 
 891:Drivers/STM32F1xx_HAL_Driver/Inc/stm32f1xx_ll_tim.h **** /**
 892:Drivers/STM32F1xx_HAL_Driver/Inc/stm32f1xx_ll_tim.h ****   * @brief  Read a value in TIM register.
 893:Drivers/STM32F1xx_HAL_Driver/Inc/stm32f1xx_ll_tim.h ****   * @param  __INSTANCE__ TIM Instance
 894:Drivers/STM32F1xx_HAL_Driver/Inc/stm32f1xx_ll_tim.h ****   * @param  __REG__ Register to be read
 895:Drivers/STM32F1xx_HAL_Driver/Inc/stm32f1xx_ll_tim.h ****   * @retval Register value
 896:Drivers/STM32F1xx_HAL_Driver/Inc/stm32f1xx_ll_tim.h ****   */
 897:Drivers/STM32F1xx_HAL_Driver/Inc/stm32f1xx_ll_tim.h **** #define LL_TIM_ReadReg(__INSTANCE__, __REG__) READ_REG((__INSTANCE__)->__REG__)
 898:Drivers/STM32F1xx_HAL_Driver/Inc/stm32f1xx_ll_tim.h **** /**
 899:Drivers/STM32F1xx_HAL_Driver/Inc/stm32f1xx_ll_tim.h ****   * @}
 900:Drivers/STM32F1xx_HAL_Driver/Inc/stm32f1xx_ll_tim.h ****   */
 901:Drivers/STM32F1xx_HAL_Driver/Inc/stm32f1xx_ll_tim.h **** 
 902:Drivers/STM32F1xx_HAL_Driver/Inc/stm32f1xx_ll_tim.h **** /** @defgroup TIM_LL_EM_Exported_Macros Exported_Macros
 903:Drivers/STM32F1xx_HAL_Driver/Inc/stm32f1xx_ll_tim.h ****   * @{
 904:Drivers/STM32F1xx_HAL_Driver/Inc/stm32f1xx_ll_tim.h ****   */
 905:Drivers/STM32F1xx_HAL_Driver/Inc/stm32f1xx_ll_tim.h **** 
 906:Drivers/STM32F1xx_HAL_Driver/Inc/stm32f1xx_ll_tim.h **** /**
 907:Drivers/STM32F1xx_HAL_Driver/Inc/stm32f1xx_ll_tim.h ****   * @brief  HELPER macro calculating DTG[0:7] in the TIMx_BDTR register to achieve the requested de
 908:Drivers/STM32F1xx_HAL_Driver/Inc/stm32f1xx_ll_tim.h ****   * @note ex: @ref __LL_TIM_CALC_DEADTIME (80000000, @ref LL_TIM_GetClockDivision (), 120);
 909:Drivers/STM32F1xx_HAL_Driver/Inc/stm32f1xx_ll_tim.h ****   * @param  __TIMCLK__ timer input clock frequency (in Hz)
 910:Drivers/STM32F1xx_HAL_Driver/Inc/stm32f1xx_ll_tim.h ****   * @param  __CKD__ This parameter can be one of the following values:
 911:Drivers/STM32F1xx_HAL_Driver/Inc/stm32f1xx_ll_tim.h ****   *         @arg @ref LL_TIM_CLOCKDIVISION_DIV1
 912:Drivers/STM32F1xx_HAL_Driver/Inc/stm32f1xx_ll_tim.h ****   *         @arg @ref LL_TIM_CLOCKDIVISION_DIV2
 913:Drivers/STM32F1xx_HAL_Driver/Inc/stm32f1xx_ll_tim.h ****   *         @arg @ref LL_TIM_CLOCKDIVISION_DIV4
 914:Drivers/STM32F1xx_HAL_Driver/Inc/stm32f1xx_ll_tim.h ****   * @param  __DT__ deadtime duration (in ns)
 915:Drivers/STM32F1xx_HAL_Driver/Inc/stm32f1xx_ll_tim.h ****   * @retval DTG[0:7]
 916:Drivers/STM32F1xx_HAL_Driver/Inc/stm32f1xx_ll_tim.h ****   */
 917:Drivers/STM32F1xx_HAL_Driver/Inc/stm32f1xx_ll_tim.h **** #define __LL_TIM_CALC_DEADTIME(__TIMCLK__, __CKD__, __DT__)  \
 918:Drivers/STM32F1xx_HAL_Driver/Inc/stm32f1xx_ll_tim.h ****   ( (((uint64_t)((__DT__)*1000U)) < ((DT_DELAY_1+1U) * TIM_CALC_DTS((__TIMCLK__), (__CKD__))))    ?
 919:Drivers/STM32F1xx_HAL_Driver/Inc/stm32f1xx_ll_tim.h ****     (((uint64_t)((__DT__)*1000U)) < ((64U + (DT_DELAY_2+1U)) * 2U * TIM_CALC_DTS((__TIMCLK__), (__C
 920:Drivers/STM32F1xx_HAL_Driver/Inc/stm32f1xx_ll_tim.h ****     (((uint64_t)((__DT__)*1000U)) < ((32U + (DT_DELAY_3+1U)) * 8U * TIM_CALC_DTS((__TIMCLK__), (__C
 921:Drivers/STM32F1xx_HAL_Driver/Inc/stm32f1xx_ll_tim.h ****     (((uint64_t)((__DT__)*1000U)) < ((32U + (DT_DELAY_4+1U)) * 16U * TIM_CALC_DTS((__TIMCLK__), (__
 922:Drivers/STM32F1xx_HAL_Driver/Inc/stm32f1xx_ll_tim.h ****     0U)
 923:Drivers/STM32F1xx_HAL_Driver/Inc/stm32f1xx_ll_tim.h **** 
 924:Drivers/STM32F1xx_HAL_Driver/Inc/stm32f1xx_ll_tim.h **** /**
 925:Drivers/STM32F1xx_HAL_Driver/Inc/stm32f1xx_ll_tim.h ****   * @brief  HELPER macro calculating the prescaler value to achieve the required counter clock freq
 926:Drivers/STM32F1xx_HAL_Driver/Inc/stm32f1xx_ll_tim.h ****   * @note ex: @ref __LL_TIM_CALC_PSC (80000000, 1000000);
 927:Drivers/STM32F1xx_HAL_Driver/Inc/stm32f1xx_ll_tim.h ****   * @param  __TIMCLK__ timer input clock frequency (in Hz)
 928:Drivers/STM32F1xx_HAL_Driver/Inc/stm32f1xx_ll_tim.h ****   * @param  __CNTCLK__ counter clock frequency (in Hz)
 929:Drivers/STM32F1xx_HAL_Driver/Inc/stm32f1xx_ll_tim.h ****   * @retval Prescaler value  (between Min_Data=0 and Max_Data=65535)
 930:Drivers/STM32F1xx_HAL_Driver/Inc/stm32f1xx_ll_tim.h ****   */
 931:Drivers/STM32F1xx_HAL_Driver/Inc/stm32f1xx_ll_tim.h **** #define __LL_TIM_CALC_PSC(__TIMCLK__, __CNTCLK__)   \
 932:Drivers/STM32F1xx_HAL_Driver/Inc/stm32f1xx_ll_tim.h ****   (((__TIMCLK__) >= (__CNTCLK__)) ? (uint32_t)(((__TIMCLK__)/(__CNTCLK__)) - 1U) : 0U)
 933:Drivers/STM32F1xx_HAL_Driver/Inc/stm32f1xx_ll_tim.h **** 
ARM GAS  /var/folders/m1/3lv6xmzs0mlckxs4mx90nfb40000gn/T//ccFDK2TW.s 			page 34


 934:Drivers/STM32F1xx_HAL_Driver/Inc/stm32f1xx_ll_tim.h **** /**
 935:Drivers/STM32F1xx_HAL_Driver/Inc/stm32f1xx_ll_tim.h ****   * @brief  HELPER macro calculating the auto-reload value to achieve the required output signal fr
 936:Drivers/STM32F1xx_HAL_Driver/Inc/stm32f1xx_ll_tim.h ****   * @note ex: @ref __LL_TIM_CALC_ARR (1000000, @ref LL_TIM_GetPrescaler (), 10000);
 937:Drivers/STM32F1xx_HAL_Driver/Inc/stm32f1xx_ll_tim.h ****   * @param  __TIMCLK__ timer input clock frequency (in Hz)
 938:Drivers/STM32F1xx_HAL_Driver/Inc/stm32f1xx_ll_tim.h ****   * @param  __PSC__ prescaler
 939:Drivers/STM32F1xx_HAL_Driver/Inc/stm32f1xx_ll_tim.h ****   * @param  __FREQ__ output signal frequency (in Hz)
 940:Drivers/STM32F1xx_HAL_Driver/Inc/stm32f1xx_ll_tim.h ****   * @retval  Auto-reload value  (between Min_Data=0 and Max_Data=65535)
 941:Drivers/STM32F1xx_HAL_Driver/Inc/stm32f1xx_ll_tim.h ****   */
 942:Drivers/STM32F1xx_HAL_Driver/Inc/stm32f1xx_ll_tim.h **** #define __LL_TIM_CALC_ARR(__TIMCLK__, __PSC__, __FREQ__) \
 943:Drivers/STM32F1xx_HAL_Driver/Inc/stm32f1xx_ll_tim.h ****   ((((__TIMCLK__)/((__PSC__) + 1U)) >= (__FREQ__)) ? (((__TIMCLK__)/((__FREQ__) * ((__PSC__) + 1U))
 944:Drivers/STM32F1xx_HAL_Driver/Inc/stm32f1xx_ll_tim.h **** 
 945:Drivers/STM32F1xx_HAL_Driver/Inc/stm32f1xx_ll_tim.h **** /**
 946:Drivers/STM32F1xx_HAL_Driver/Inc/stm32f1xx_ll_tim.h ****   * @brief  HELPER macro calculating the compare value required to achieve the required timer outpu
 947:Drivers/STM32F1xx_HAL_Driver/Inc/stm32f1xx_ll_tim.h ****   * @note ex: @ref __LL_TIM_CALC_DELAY (1000000, @ref LL_TIM_GetPrescaler (), 10);
 948:Drivers/STM32F1xx_HAL_Driver/Inc/stm32f1xx_ll_tim.h ****   * @param  __TIMCLK__ timer input clock frequency (in Hz)
 949:Drivers/STM32F1xx_HAL_Driver/Inc/stm32f1xx_ll_tim.h ****   * @param  __PSC__ prescaler
 950:Drivers/STM32F1xx_HAL_Driver/Inc/stm32f1xx_ll_tim.h ****   * @param  __DELAY__ timer output compare active/inactive delay (in us)
 951:Drivers/STM32F1xx_HAL_Driver/Inc/stm32f1xx_ll_tim.h ****   * @retval Compare value  (between Min_Data=0 and Max_Data=65535)
 952:Drivers/STM32F1xx_HAL_Driver/Inc/stm32f1xx_ll_tim.h ****   */
 953:Drivers/STM32F1xx_HAL_Driver/Inc/stm32f1xx_ll_tim.h **** #define __LL_TIM_CALC_DELAY(__TIMCLK__, __PSC__, __DELAY__)  \
 954:Drivers/STM32F1xx_HAL_Driver/Inc/stm32f1xx_ll_tim.h ****   ((uint32_t)(((uint64_t)(__TIMCLK__) * (uint64_t)(__DELAY__)) \
 955:Drivers/STM32F1xx_HAL_Driver/Inc/stm32f1xx_ll_tim.h ****               / ((uint64_t)1000000U * (uint64_t)((__PSC__) + 1U))))
 956:Drivers/STM32F1xx_HAL_Driver/Inc/stm32f1xx_ll_tim.h **** 
 957:Drivers/STM32F1xx_HAL_Driver/Inc/stm32f1xx_ll_tim.h **** /**
 958:Drivers/STM32F1xx_HAL_Driver/Inc/stm32f1xx_ll_tim.h ****   * @brief  HELPER macro calculating the auto-reload value to achieve the required pulse duration (
 959:Drivers/STM32F1xx_HAL_Driver/Inc/stm32f1xx_ll_tim.h ****   * @note ex: @ref __LL_TIM_CALC_PULSE (1000000, @ref LL_TIM_GetPrescaler (), 10, 20);
 960:Drivers/STM32F1xx_HAL_Driver/Inc/stm32f1xx_ll_tim.h ****   * @param  __TIMCLK__ timer input clock frequency (in Hz)
 961:Drivers/STM32F1xx_HAL_Driver/Inc/stm32f1xx_ll_tim.h ****   * @param  __PSC__ prescaler
 962:Drivers/STM32F1xx_HAL_Driver/Inc/stm32f1xx_ll_tim.h ****   * @param  __DELAY__ timer output compare active/inactive delay (in us)
 963:Drivers/STM32F1xx_HAL_Driver/Inc/stm32f1xx_ll_tim.h ****   * @param  __PULSE__ pulse duration (in us)
 964:Drivers/STM32F1xx_HAL_Driver/Inc/stm32f1xx_ll_tim.h ****   * @retval Auto-reload value  (between Min_Data=0 and Max_Data=65535)
 965:Drivers/STM32F1xx_HAL_Driver/Inc/stm32f1xx_ll_tim.h ****   */
 966:Drivers/STM32F1xx_HAL_Driver/Inc/stm32f1xx_ll_tim.h **** #define __LL_TIM_CALC_PULSE(__TIMCLK__, __PSC__, __DELAY__, __PULSE__)  \
 967:Drivers/STM32F1xx_HAL_Driver/Inc/stm32f1xx_ll_tim.h ****   ((uint32_t)(__LL_TIM_CALC_DELAY((__TIMCLK__), (__PSC__), (__PULSE__)) \
 968:Drivers/STM32F1xx_HAL_Driver/Inc/stm32f1xx_ll_tim.h ****               + __LL_TIM_CALC_DELAY((__TIMCLK__), (__PSC__), (__DELAY__))))
 969:Drivers/STM32F1xx_HAL_Driver/Inc/stm32f1xx_ll_tim.h **** 
 970:Drivers/STM32F1xx_HAL_Driver/Inc/stm32f1xx_ll_tim.h **** /**
 971:Drivers/STM32F1xx_HAL_Driver/Inc/stm32f1xx_ll_tim.h ****   * @brief  HELPER macro retrieving the ratio of the input capture prescaler
 972:Drivers/STM32F1xx_HAL_Driver/Inc/stm32f1xx_ll_tim.h ****   * @note ex: @ref __LL_TIM_GET_ICPSC_RATIO (@ref LL_TIM_IC_GetPrescaler ());
 973:Drivers/STM32F1xx_HAL_Driver/Inc/stm32f1xx_ll_tim.h ****   * @param  __ICPSC__ This parameter can be one of the following values:
 974:Drivers/STM32F1xx_HAL_Driver/Inc/stm32f1xx_ll_tim.h ****   *         @arg @ref LL_TIM_ICPSC_DIV1
 975:Drivers/STM32F1xx_HAL_Driver/Inc/stm32f1xx_ll_tim.h ****   *         @arg @ref LL_TIM_ICPSC_DIV2
 976:Drivers/STM32F1xx_HAL_Driver/Inc/stm32f1xx_ll_tim.h ****   *         @arg @ref LL_TIM_ICPSC_DIV4
 977:Drivers/STM32F1xx_HAL_Driver/Inc/stm32f1xx_ll_tim.h ****   *         @arg @ref LL_TIM_ICPSC_DIV8
 978:Drivers/STM32F1xx_HAL_Driver/Inc/stm32f1xx_ll_tim.h ****   * @retval Input capture prescaler ratio (1, 2, 4 or 8)
 979:Drivers/STM32F1xx_HAL_Driver/Inc/stm32f1xx_ll_tim.h ****   */
 980:Drivers/STM32F1xx_HAL_Driver/Inc/stm32f1xx_ll_tim.h **** #define __LL_TIM_GET_ICPSC_RATIO(__ICPSC__)  \
 981:Drivers/STM32F1xx_HAL_Driver/Inc/stm32f1xx_ll_tim.h ****   ((uint32_t)(0x01U << (((__ICPSC__) >> 16U) >> TIM_CCMR1_IC1PSC_Pos)))
 982:Drivers/STM32F1xx_HAL_Driver/Inc/stm32f1xx_ll_tim.h **** 
 983:Drivers/STM32F1xx_HAL_Driver/Inc/stm32f1xx_ll_tim.h **** 
 984:Drivers/STM32F1xx_HAL_Driver/Inc/stm32f1xx_ll_tim.h **** /**
 985:Drivers/STM32F1xx_HAL_Driver/Inc/stm32f1xx_ll_tim.h ****   * @}
 986:Drivers/STM32F1xx_HAL_Driver/Inc/stm32f1xx_ll_tim.h ****   */
 987:Drivers/STM32F1xx_HAL_Driver/Inc/stm32f1xx_ll_tim.h **** 
 988:Drivers/STM32F1xx_HAL_Driver/Inc/stm32f1xx_ll_tim.h **** 
 989:Drivers/STM32F1xx_HAL_Driver/Inc/stm32f1xx_ll_tim.h **** /**
 990:Drivers/STM32F1xx_HAL_Driver/Inc/stm32f1xx_ll_tim.h ****   * @}
ARM GAS  /var/folders/m1/3lv6xmzs0mlckxs4mx90nfb40000gn/T//ccFDK2TW.s 			page 35


 991:Drivers/STM32F1xx_HAL_Driver/Inc/stm32f1xx_ll_tim.h ****   */
 992:Drivers/STM32F1xx_HAL_Driver/Inc/stm32f1xx_ll_tim.h **** 
 993:Drivers/STM32F1xx_HAL_Driver/Inc/stm32f1xx_ll_tim.h **** /* Exported functions --------------------------------------------------------*/
 994:Drivers/STM32F1xx_HAL_Driver/Inc/stm32f1xx_ll_tim.h **** /** @defgroup TIM_LL_Exported_Functions TIM Exported Functions
 995:Drivers/STM32F1xx_HAL_Driver/Inc/stm32f1xx_ll_tim.h ****   * @{
 996:Drivers/STM32F1xx_HAL_Driver/Inc/stm32f1xx_ll_tim.h ****   */
 997:Drivers/STM32F1xx_HAL_Driver/Inc/stm32f1xx_ll_tim.h **** 
 998:Drivers/STM32F1xx_HAL_Driver/Inc/stm32f1xx_ll_tim.h **** /** @defgroup TIM_LL_EF_Time_Base Time Base configuration
 999:Drivers/STM32F1xx_HAL_Driver/Inc/stm32f1xx_ll_tim.h ****   * @{
1000:Drivers/STM32F1xx_HAL_Driver/Inc/stm32f1xx_ll_tim.h ****   */
1001:Drivers/STM32F1xx_HAL_Driver/Inc/stm32f1xx_ll_tim.h **** /**
1002:Drivers/STM32F1xx_HAL_Driver/Inc/stm32f1xx_ll_tim.h ****   * @brief  Enable timer counter.
1003:Drivers/STM32F1xx_HAL_Driver/Inc/stm32f1xx_ll_tim.h ****   * @rmtoll CR1          CEN           LL_TIM_EnableCounter
1004:Drivers/STM32F1xx_HAL_Driver/Inc/stm32f1xx_ll_tim.h ****   * @param  TIMx Timer instance
1005:Drivers/STM32F1xx_HAL_Driver/Inc/stm32f1xx_ll_tim.h ****   * @retval None
1006:Drivers/STM32F1xx_HAL_Driver/Inc/stm32f1xx_ll_tim.h ****   */
1007:Drivers/STM32F1xx_HAL_Driver/Inc/stm32f1xx_ll_tim.h **** __STATIC_INLINE void LL_TIM_EnableCounter(TIM_TypeDef *TIMx)
1008:Drivers/STM32F1xx_HAL_Driver/Inc/stm32f1xx_ll_tim.h **** {
1009:Drivers/STM32F1xx_HAL_Driver/Inc/stm32f1xx_ll_tim.h ****   SET_BIT(TIMx->CR1, TIM_CR1_CEN);
1010:Drivers/STM32F1xx_HAL_Driver/Inc/stm32f1xx_ll_tim.h **** }
1011:Drivers/STM32F1xx_HAL_Driver/Inc/stm32f1xx_ll_tim.h **** 
1012:Drivers/STM32F1xx_HAL_Driver/Inc/stm32f1xx_ll_tim.h **** /**
1013:Drivers/STM32F1xx_HAL_Driver/Inc/stm32f1xx_ll_tim.h ****   * @brief  Disable timer counter.
1014:Drivers/STM32F1xx_HAL_Driver/Inc/stm32f1xx_ll_tim.h ****   * @rmtoll CR1          CEN           LL_TIM_DisableCounter
1015:Drivers/STM32F1xx_HAL_Driver/Inc/stm32f1xx_ll_tim.h ****   * @param  TIMx Timer instance
1016:Drivers/STM32F1xx_HAL_Driver/Inc/stm32f1xx_ll_tim.h ****   * @retval None
1017:Drivers/STM32F1xx_HAL_Driver/Inc/stm32f1xx_ll_tim.h ****   */
1018:Drivers/STM32F1xx_HAL_Driver/Inc/stm32f1xx_ll_tim.h **** __STATIC_INLINE void LL_TIM_DisableCounter(TIM_TypeDef *TIMx)
1019:Drivers/STM32F1xx_HAL_Driver/Inc/stm32f1xx_ll_tim.h **** {
1020:Drivers/STM32F1xx_HAL_Driver/Inc/stm32f1xx_ll_tim.h ****   CLEAR_BIT(TIMx->CR1, TIM_CR1_CEN);
1021:Drivers/STM32F1xx_HAL_Driver/Inc/stm32f1xx_ll_tim.h **** }
1022:Drivers/STM32F1xx_HAL_Driver/Inc/stm32f1xx_ll_tim.h **** 
1023:Drivers/STM32F1xx_HAL_Driver/Inc/stm32f1xx_ll_tim.h **** /**
1024:Drivers/STM32F1xx_HAL_Driver/Inc/stm32f1xx_ll_tim.h ****   * @brief  Indicates whether the timer counter is enabled.
1025:Drivers/STM32F1xx_HAL_Driver/Inc/stm32f1xx_ll_tim.h ****   * @rmtoll CR1          CEN           LL_TIM_IsEnabledCounter
1026:Drivers/STM32F1xx_HAL_Driver/Inc/stm32f1xx_ll_tim.h ****   * @param  TIMx Timer instance
1027:Drivers/STM32F1xx_HAL_Driver/Inc/stm32f1xx_ll_tim.h ****   * @retval State of bit (1 or 0).
1028:Drivers/STM32F1xx_HAL_Driver/Inc/stm32f1xx_ll_tim.h ****   */
1029:Drivers/STM32F1xx_HAL_Driver/Inc/stm32f1xx_ll_tim.h **** __STATIC_INLINE uint32_t LL_TIM_IsEnabledCounter(TIM_TypeDef *TIMx)
1030:Drivers/STM32F1xx_HAL_Driver/Inc/stm32f1xx_ll_tim.h **** {
1031:Drivers/STM32F1xx_HAL_Driver/Inc/stm32f1xx_ll_tim.h ****   return ((READ_BIT(TIMx->CR1, TIM_CR1_CEN) == (TIM_CR1_CEN)) ? 1UL : 0UL);
1032:Drivers/STM32F1xx_HAL_Driver/Inc/stm32f1xx_ll_tim.h **** }
1033:Drivers/STM32F1xx_HAL_Driver/Inc/stm32f1xx_ll_tim.h **** 
1034:Drivers/STM32F1xx_HAL_Driver/Inc/stm32f1xx_ll_tim.h **** /**
1035:Drivers/STM32F1xx_HAL_Driver/Inc/stm32f1xx_ll_tim.h ****   * @brief  Enable update event generation.
1036:Drivers/STM32F1xx_HAL_Driver/Inc/stm32f1xx_ll_tim.h ****   * @rmtoll CR1          UDIS          LL_TIM_EnableUpdateEvent
1037:Drivers/STM32F1xx_HAL_Driver/Inc/stm32f1xx_ll_tim.h ****   * @param  TIMx Timer instance
1038:Drivers/STM32F1xx_HAL_Driver/Inc/stm32f1xx_ll_tim.h ****   * @retval None
1039:Drivers/STM32F1xx_HAL_Driver/Inc/stm32f1xx_ll_tim.h ****   */
1040:Drivers/STM32F1xx_HAL_Driver/Inc/stm32f1xx_ll_tim.h **** __STATIC_INLINE void LL_TIM_EnableUpdateEvent(TIM_TypeDef *TIMx)
1041:Drivers/STM32F1xx_HAL_Driver/Inc/stm32f1xx_ll_tim.h **** {
1042:Drivers/STM32F1xx_HAL_Driver/Inc/stm32f1xx_ll_tim.h ****   CLEAR_BIT(TIMx->CR1, TIM_CR1_UDIS);
1043:Drivers/STM32F1xx_HAL_Driver/Inc/stm32f1xx_ll_tim.h **** }
1044:Drivers/STM32F1xx_HAL_Driver/Inc/stm32f1xx_ll_tim.h **** 
1045:Drivers/STM32F1xx_HAL_Driver/Inc/stm32f1xx_ll_tim.h **** /**
1046:Drivers/STM32F1xx_HAL_Driver/Inc/stm32f1xx_ll_tim.h ****   * @brief  Disable update event generation.
1047:Drivers/STM32F1xx_HAL_Driver/Inc/stm32f1xx_ll_tim.h ****   * @rmtoll CR1          UDIS          LL_TIM_DisableUpdateEvent
ARM GAS  /var/folders/m1/3lv6xmzs0mlckxs4mx90nfb40000gn/T//ccFDK2TW.s 			page 36


1048:Drivers/STM32F1xx_HAL_Driver/Inc/stm32f1xx_ll_tim.h ****   * @param  TIMx Timer instance
1049:Drivers/STM32F1xx_HAL_Driver/Inc/stm32f1xx_ll_tim.h ****   * @retval None
1050:Drivers/STM32F1xx_HAL_Driver/Inc/stm32f1xx_ll_tim.h ****   */
1051:Drivers/STM32F1xx_HAL_Driver/Inc/stm32f1xx_ll_tim.h **** __STATIC_INLINE void LL_TIM_DisableUpdateEvent(TIM_TypeDef *TIMx)
1052:Drivers/STM32F1xx_HAL_Driver/Inc/stm32f1xx_ll_tim.h **** {
1053:Drivers/STM32F1xx_HAL_Driver/Inc/stm32f1xx_ll_tim.h ****   SET_BIT(TIMx->CR1, TIM_CR1_UDIS);
1054:Drivers/STM32F1xx_HAL_Driver/Inc/stm32f1xx_ll_tim.h **** }
1055:Drivers/STM32F1xx_HAL_Driver/Inc/stm32f1xx_ll_tim.h **** 
1056:Drivers/STM32F1xx_HAL_Driver/Inc/stm32f1xx_ll_tim.h **** /**
1057:Drivers/STM32F1xx_HAL_Driver/Inc/stm32f1xx_ll_tim.h ****   * @brief  Indicates whether update event generation is enabled.
1058:Drivers/STM32F1xx_HAL_Driver/Inc/stm32f1xx_ll_tim.h ****   * @rmtoll CR1          UDIS          LL_TIM_IsEnabledUpdateEvent
1059:Drivers/STM32F1xx_HAL_Driver/Inc/stm32f1xx_ll_tim.h ****   * @param  TIMx Timer instance
1060:Drivers/STM32F1xx_HAL_Driver/Inc/stm32f1xx_ll_tim.h ****   * @retval Inverted state of bit (0 or 1).
1061:Drivers/STM32F1xx_HAL_Driver/Inc/stm32f1xx_ll_tim.h ****   */
1062:Drivers/STM32F1xx_HAL_Driver/Inc/stm32f1xx_ll_tim.h **** __STATIC_INLINE uint32_t LL_TIM_IsEnabledUpdateEvent(TIM_TypeDef *TIMx)
1063:Drivers/STM32F1xx_HAL_Driver/Inc/stm32f1xx_ll_tim.h **** {
1064:Drivers/STM32F1xx_HAL_Driver/Inc/stm32f1xx_ll_tim.h ****   return ((READ_BIT(TIMx->CR1, TIM_CR1_UDIS) == (uint32_t)RESET) ? 1UL : 0UL);
1065:Drivers/STM32F1xx_HAL_Driver/Inc/stm32f1xx_ll_tim.h **** }
1066:Drivers/STM32F1xx_HAL_Driver/Inc/stm32f1xx_ll_tim.h **** 
1067:Drivers/STM32F1xx_HAL_Driver/Inc/stm32f1xx_ll_tim.h **** /**
1068:Drivers/STM32F1xx_HAL_Driver/Inc/stm32f1xx_ll_tim.h ****   * @brief  Set update event source
1069:Drivers/STM32F1xx_HAL_Driver/Inc/stm32f1xx_ll_tim.h ****   * @note Update event source set to LL_TIM_UPDATESOURCE_REGULAR: any of the following events
1070:Drivers/STM32F1xx_HAL_Driver/Inc/stm32f1xx_ll_tim.h ****   *       generate an update interrupt or DMA request if enabled:
1071:Drivers/STM32F1xx_HAL_Driver/Inc/stm32f1xx_ll_tim.h ****   *        - Counter overflow/underflow
1072:Drivers/STM32F1xx_HAL_Driver/Inc/stm32f1xx_ll_tim.h ****   *        - Setting the UG bit
1073:Drivers/STM32F1xx_HAL_Driver/Inc/stm32f1xx_ll_tim.h ****   *        - Update generation through the slave mode controller
1074:Drivers/STM32F1xx_HAL_Driver/Inc/stm32f1xx_ll_tim.h ****   * @note Update event source set to LL_TIM_UPDATESOURCE_COUNTER: only counter
1075:Drivers/STM32F1xx_HAL_Driver/Inc/stm32f1xx_ll_tim.h ****   *       overflow/underflow generates an update interrupt or DMA request if enabled.
1076:Drivers/STM32F1xx_HAL_Driver/Inc/stm32f1xx_ll_tim.h ****   * @rmtoll CR1          URS           LL_TIM_SetUpdateSource
1077:Drivers/STM32F1xx_HAL_Driver/Inc/stm32f1xx_ll_tim.h ****   * @param  TIMx Timer instance
1078:Drivers/STM32F1xx_HAL_Driver/Inc/stm32f1xx_ll_tim.h ****   * @param  UpdateSource This parameter can be one of the following values:
1079:Drivers/STM32F1xx_HAL_Driver/Inc/stm32f1xx_ll_tim.h ****   *         @arg @ref LL_TIM_UPDATESOURCE_REGULAR
1080:Drivers/STM32F1xx_HAL_Driver/Inc/stm32f1xx_ll_tim.h ****   *         @arg @ref LL_TIM_UPDATESOURCE_COUNTER
1081:Drivers/STM32F1xx_HAL_Driver/Inc/stm32f1xx_ll_tim.h ****   * @retval None
1082:Drivers/STM32F1xx_HAL_Driver/Inc/stm32f1xx_ll_tim.h ****   */
1083:Drivers/STM32F1xx_HAL_Driver/Inc/stm32f1xx_ll_tim.h **** __STATIC_INLINE void LL_TIM_SetUpdateSource(TIM_TypeDef *TIMx, uint32_t UpdateSource)
1084:Drivers/STM32F1xx_HAL_Driver/Inc/stm32f1xx_ll_tim.h **** {
1085:Drivers/STM32F1xx_HAL_Driver/Inc/stm32f1xx_ll_tim.h ****   MODIFY_REG(TIMx->CR1, TIM_CR1_URS, UpdateSource);
1086:Drivers/STM32F1xx_HAL_Driver/Inc/stm32f1xx_ll_tim.h **** }
1087:Drivers/STM32F1xx_HAL_Driver/Inc/stm32f1xx_ll_tim.h **** 
1088:Drivers/STM32F1xx_HAL_Driver/Inc/stm32f1xx_ll_tim.h **** /**
1089:Drivers/STM32F1xx_HAL_Driver/Inc/stm32f1xx_ll_tim.h ****   * @brief  Get actual event update source
1090:Drivers/STM32F1xx_HAL_Driver/Inc/stm32f1xx_ll_tim.h ****   * @rmtoll CR1          URS           LL_TIM_GetUpdateSource
1091:Drivers/STM32F1xx_HAL_Driver/Inc/stm32f1xx_ll_tim.h ****   * @param  TIMx Timer instance
1092:Drivers/STM32F1xx_HAL_Driver/Inc/stm32f1xx_ll_tim.h ****   * @retval Returned value can be one of the following values:
1093:Drivers/STM32F1xx_HAL_Driver/Inc/stm32f1xx_ll_tim.h ****   *         @arg @ref LL_TIM_UPDATESOURCE_REGULAR
1094:Drivers/STM32F1xx_HAL_Driver/Inc/stm32f1xx_ll_tim.h ****   *         @arg @ref LL_TIM_UPDATESOURCE_COUNTER
1095:Drivers/STM32F1xx_HAL_Driver/Inc/stm32f1xx_ll_tim.h ****   */
1096:Drivers/STM32F1xx_HAL_Driver/Inc/stm32f1xx_ll_tim.h **** __STATIC_INLINE uint32_t LL_TIM_GetUpdateSource(TIM_TypeDef *TIMx)
1097:Drivers/STM32F1xx_HAL_Driver/Inc/stm32f1xx_ll_tim.h **** {
1098:Drivers/STM32F1xx_HAL_Driver/Inc/stm32f1xx_ll_tim.h ****   return (uint32_t)(READ_BIT(TIMx->CR1, TIM_CR1_URS));
1099:Drivers/STM32F1xx_HAL_Driver/Inc/stm32f1xx_ll_tim.h **** }
1100:Drivers/STM32F1xx_HAL_Driver/Inc/stm32f1xx_ll_tim.h **** 
1101:Drivers/STM32F1xx_HAL_Driver/Inc/stm32f1xx_ll_tim.h **** /**
1102:Drivers/STM32F1xx_HAL_Driver/Inc/stm32f1xx_ll_tim.h ****   * @brief  Set one pulse mode (one shot v.s. repetitive).
1103:Drivers/STM32F1xx_HAL_Driver/Inc/stm32f1xx_ll_tim.h ****   * @rmtoll CR1          OPM           LL_TIM_SetOnePulseMode
1104:Drivers/STM32F1xx_HAL_Driver/Inc/stm32f1xx_ll_tim.h ****   * @param  TIMx Timer instance
ARM GAS  /var/folders/m1/3lv6xmzs0mlckxs4mx90nfb40000gn/T//ccFDK2TW.s 			page 37


1105:Drivers/STM32F1xx_HAL_Driver/Inc/stm32f1xx_ll_tim.h ****   * @param  OnePulseMode This parameter can be one of the following values:
1106:Drivers/STM32F1xx_HAL_Driver/Inc/stm32f1xx_ll_tim.h ****   *         @arg @ref LL_TIM_ONEPULSEMODE_SINGLE
1107:Drivers/STM32F1xx_HAL_Driver/Inc/stm32f1xx_ll_tim.h ****   *         @arg @ref LL_TIM_ONEPULSEMODE_REPETITIVE
1108:Drivers/STM32F1xx_HAL_Driver/Inc/stm32f1xx_ll_tim.h ****   * @retval None
1109:Drivers/STM32F1xx_HAL_Driver/Inc/stm32f1xx_ll_tim.h ****   */
1110:Drivers/STM32F1xx_HAL_Driver/Inc/stm32f1xx_ll_tim.h **** __STATIC_INLINE void LL_TIM_SetOnePulseMode(TIM_TypeDef *TIMx, uint32_t OnePulseMode)
1111:Drivers/STM32F1xx_HAL_Driver/Inc/stm32f1xx_ll_tim.h **** {
1112:Drivers/STM32F1xx_HAL_Driver/Inc/stm32f1xx_ll_tim.h ****   MODIFY_REG(TIMx->CR1, TIM_CR1_OPM, OnePulseMode);
1113:Drivers/STM32F1xx_HAL_Driver/Inc/stm32f1xx_ll_tim.h **** }
1114:Drivers/STM32F1xx_HAL_Driver/Inc/stm32f1xx_ll_tim.h **** 
1115:Drivers/STM32F1xx_HAL_Driver/Inc/stm32f1xx_ll_tim.h **** /**
1116:Drivers/STM32F1xx_HAL_Driver/Inc/stm32f1xx_ll_tim.h ****   * @brief  Get actual one pulse mode.
1117:Drivers/STM32F1xx_HAL_Driver/Inc/stm32f1xx_ll_tim.h ****   * @rmtoll CR1          OPM           LL_TIM_GetOnePulseMode
1118:Drivers/STM32F1xx_HAL_Driver/Inc/stm32f1xx_ll_tim.h ****   * @param  TIMx Timer instance
1119:Drivers/STM32F1xx_HAL_Driver/Inc/stm32f1xx_ll_tim.h ****   * @retval Returned value can be one of the following values:
1120:Drivers/STM32F1xx_HAL_Driver/Inc/stm32f1xx_ll_tim.h ****   *         @arg @ref LL_TIM_ONEPULSEMODE_SINGLE
1121:Drivers/STM32F1xx_HAL_Driver/Inc/stm32f1xx_ll_tim.h ****   *         @arg @ref LL_TIM_ONEPULSEMODE_REPETITIVE
1122:Drivers/STM32F1xx_HAL_Driver/Inc/stm32f1xx_ll_tim.h ****   */
1123:Drivers/STM32F1xx_HAL_Driver/Inc/stm32f1xx_ll_tim.h **** __STATIC_INLINE uint32_t LL_TIM_GetOnePulseMode(TIM_TypeDef *TIMx)
1124:Drivers/STM32F1xx_HAL_Driver/Inc/stm32f1xx_ll_tim.h **** {
1125:Drivers/STM32F1xx_HAL_Driver/Inc/stm32f1xx_ll_tim.h ****   return (uint32_t)(READ_BIT(TIMx->CR1, TIM_CR1_OPM));
1126:Drivers/STM32F1xx_HAL_Driver/Inc/stm32f1xx_ll_tim.h **** }
1127:Drivers/STM32F1xx_HAL_Driver/Inc/stm32f1xx_ll_tim.h **** 
1128:Drivers/STM32F1xx_HAL_Driver/Inc/stm32f1xx_ll_tim.h **** /**
1129:Drivers/STM32F1xx_HAL_Driver/Inc/stm32f1xx_ll_tim.h ****   * @brief  Set the timer counter counting mode.
1130:Drivers/STM32F1xx_HAL_Driver/Inc/stm32f1xx_ll_tim.h ****   * @note Macro IS_TIM_COUNTER_MODE_SELECT_INSTANCE(TIMx) can be used to
1131:Drivers/STM32F1xx_HAL_Driver/Inc/stm32f1xx_ll_tim.h ****   *       check whether or not the counter mode selection feature is supported
1132:Drivers/STM32F1xx_HAL_Driver/Inc/stm32f1xx_ll_tim.h ****   *       by a timer instance.
1133:Drivers/STM32F1xx_HAL_Driver/Inc/stm32f1xx_ll_tim.h ****   * @note Switching from Center Aligned counter mode to Edge counter mode (or reverse)
1134:Drivers/STM32F1xx_HAL_Driver/Inc/stm32f1xx_ll_tim.h ****   *       requires a timer reset to avoid unexpected direction
1135:Drivers/STM32F1xx_HAL_Driver/Inc/stm32f1xx_ll_tim.h ****   *       due to DIR bit readonly in center aligned mode.
1136:Drivers/STM32F1xx_HAL_Driver/Inc/stm32f1xx_ll_tim.h ****   * @rmtoll CR1          DIR           LL_TIM_SetCounterMode\n
1137:Drivers/STM32F1xx_HAL_Driver/Inc/stm32f1xx_ll_tim.h ****   *         CR1          CMS           LL_TIM_SetCounterMode
1138:Drivers/STM32F1xx_HAL_Driver/Inc/stm32f1xx_ll_tim.h ****   * @param  TIMx Timer instance
1139:Drivers/STM32F1xx_HAL_Driver/Inc/stm32f1xx_ll_tim.h ****   * @param  CounterMode This parameter can be one of the following values:
1140:Drivers/STM32F1xx_HAL_Driver/Inc/stm32f1xx_ll_tim.h ****   *         @arg @ref LL_TIM_COUNTERMODE_UP
1141:Drivers/STM32F1xx_HAL_Driver/Inc/stm32f1xx_ll_tim.h ****   *         @arg @ref LL_TIM_COUNTERMODE_DOWN
1142:Drivers/STM32F1xx_HAL_Driver/Inc/stm32f1xx_ll_tim.h ****   *         @arg @ref LL_TIM_COUNTERMODE_CENTER_UP
1143:Drivers/STM32F1xx_HAL_Driver/Inc/stm32f1xx_ll_tim.h ****   *         @arg @ref LL_TIM_COUNTERMODE_CENTER_DOWN
1144:Drivers/STM32F1xx_HAL_Driver/Inc/stm32f1xx_ll_tim.h ****   *         @arg @ref LL_TIM_COUNTERMODE_CENTER_UP_DOWN
1145:Drivers/STM32F1xx_HAL_Driver/Inc/stm32f1xx_ll_tim.h ****   * @retval None
1146:Drivers/STM32F1xx_HAL_Driver/Inc/stm32f1xx_ll_tim.h ****   */
1147:Drivers/STM32F1xx_HAL_Driver/Inc/stm32f1xx_ll_tim.h **** __STATIC_INLINE void LL_TIM_SetCounterMode(TIM_TypeDef *TIMx, uint32_t CounterMode)
1148:Drivers/STM32F1xx_HAL_Driver/Inc/stm32f1xx_ll_tim.h **** {
1149:Drivers/STM32F1xx_HAL_Driver/Inc/stm32f1xx_ll_tim.h ****   MODIFY_REG(TIMx->CR1, (TIM_CR1_DIR | TIM_CR1_CMS), CounterMode);
1150:Drivers/STM32F1xx_HAL_Driver/Inc/stm32f1xx_ll_tim.h **** }
1151:Drivers/STM32F1xx_HAL_Driver/Inc/stm32f1xx_ll_tim.h **** 
1152:Drivers/STM32F1xx_HAL_Driver/Inc/stm32f1xx_ll_tim.h **** /**
1153:Drivers/STM32F1xx_HAL_Driver/Inc/stm32f1xx_ll_tim.h ****   * @brief  Get actual counter mode.
1154:Drivers/STM32F1xx_HAL_Driver/Inc/stm32f1xx_ll_tim.h ****   * @note Macro IS_TIM_COUNTER_MODE_SELECT_INSTANCE(TIMx) can be used to
1155:Drivers/STM32F1xx_HAL_Driver/Inc/stm32f1xx_ll_tim.h ****   *       check whether or not the counter mode selection feature is supported
1156:Drivers/STM32F1xx_HAL_Driver/Inc/stm32f1xx_ll_tim.h ****   *       by a timer instance.
1157:Drivers/STM32F1xx_HAL_Driver/Inc/stm32f1xx_ll_tim.h ****   * @rmtoll CR1          DIR           LL_TIM_GetCounterMode\n
1158:Drivers/STM32F1xx_HAL_Driver/Inc/stm32f1xx_ll_tim.h ****   *         CR1          CMS           LL_TIM_GetCounterMode
1159:Drivers/STM32F1xx_HAL_Driver/Inc/stm32f1xx_ll_tim.h ****   * @param  TIMx Timer instance
1160:Drivers/STM32F1xx_HAL_Driver/Inc/stm32f1xx_ll_tim.h ****   * @retval Returned value can be one of the following values:
1161:Drivers/STM32F1xx_HAL_Driver/Inc/stm32f1xx_ll_tim.h ****   *         @arg @ref LL_TIM_COUNTERMODE_UP
ARM GAS  /var/folders/m1/3lv6xmzs0mlckxs4mx90nfb40000gn/T//ccFDK2TW.s 			page 38


1162:Drivers/STM32F1xx_HAL_Driver/Inc/stm32f1xx_ll_tim.h ****   *         @arg @ref LL_TIM_COUNTERMODE_DOWN
1163:Drivers/STM32F1xx_HAL_Driver/Inc/stm32f1xx_ll_tim.h ****   *         @arg @ref LL_TIM_COUNTERMODE_CENTER_UP
1164:Drivers/STM32F1xx_HAL_Driver/Inc/stm32f1xx_ll_tim.h ****   *         @arg @ref LL_TIM_COUNTERMODE_CENTER_DOWN
1165:Drivers/STM32F1xx_HAL_Driver/Inc/stm32f1xx_ll_tim.h ****   *         @arg @ref LL_TIM_COUNTERMODE_CENTER_UP_DOWN
1166:Drivers/STM32F1xx_HAL_Driver/Inc/stm32f1xx_ll_tim.h ****   */
1167:Drivers/STM32F1xx_HAL_Driver/Inc/stm32f1xx_ll_tim.h **** __STATIC_INLINE uint32_t LL_TIM_GetCounterMode(TIM_TypeDef *TIMx)
1168:Drivers/STM32F1xx_HAL_Driver/Inc/stm32f1xx_ll_tim.h **** {
1169:Drivers/STM32F1xx_HAL_Driver/Inc/stm32f1xx_ll_tim.h ****   return (uint32_t)(READ_BIT(TIMx->CR1, TIM_CR1_DIR | TIM_CR1_CMS));
1170:Drivers/STM32F1xx_HAL_Driver/Inc/stm32f1xx_ll_tim.h **** }
1171:Drivers/STM32F1xx_HAL_Driver/Inc/stm32f1xx_ll_tim.h **** 
1172:Drivers/STM32F1xx_HAL_Driver/Inc/stm32f1xx_ll_tim.h **** /**
1173:Drivers/STM32F1xx_HAL_Driver/Inc/stm32f1xx_ll_tim.h ****   * @brief  Enable auto-reload (ARR) preload.
1174:Drivers/STM32F1xx_HAL_Driver/Inc/stm32f1xx_ll_tim.h ****   * @rmtoll CR1          ARPE          LL_TIM_EnableARRPreload
1175:Drivers/STM32F1xx_HAL_Driver/Inc/stm32f1xx_ll_tim.h ****   * @param  TIMx Timer instance
1176:Drivers/STM32F1xx_HAL_Driver/Inc/stm32f1xx_ll_tim.h ****   * @retval None
1177:Drivers/STM32F1xx_HAL_Driver/Inc/stm32f1xx_ll_tim.h ****   */
1178:Drivers/STM32F1xx_HAL_Driver/Inc/stm32f1xx_ll_tim.h **** __STATIC_INLINE void LL_TIM_EnableARRPreload(TIM_TypeDef *TIMx)
1179:Drivers/STM32F1xx_HAL_Driver/Inc/stm32f1xx_ll_tim.h **** {
1180:Drivers/STM32F1xx_HAL_Driver/Inc/stm32f1xx_ll_tim.h ****   SET_BIT(TIMx->CR1, TIM_CR1_ARPE);
1181:Drivers/STM32F1xx_HAL_Driver/Inc/stm32f1xx_ll_tim.h **** }
1182:Drivers/STM32F1xx_HAL_Driver/Inc/stm32f1xx_ll_tim.h **** 
1183:Drivers/STM32F1xx_HAL_Driver/Inc/stm32f1xx_ll_tim.h **** /**
1184:Drivers/STM32F1xx_HAL_Driver/Inc/stm32f1xx_ll_tim.h ****   * @brief  Disable auto-reload (ARR) preload.
1185:Drivers/STM32F1xx_HAL_Driver/Inc/stm32f1xx_ll_tim.h ****   * @rmtoll CR1          ARPE          LL_TIM_DisableARRPreload
1186:Drivers/STM32F1xx_HAL_Driver/Inc/stm32f1xx_ll_tim.h ****   * @param  TIMx Timer instance
1187:Drivers/STM32F1xx_HAL_Driver/Inc/stm32f1xx_ll_tim.h ****   * @retval None
1188:Drivers/STM32F1xx_HAL_Driver/Inc/stm32f1xx_ll_tim.h ****   */
1189:Drivers/STM32F1xx_HAL_Driver/Inc/stm32f1xx_ll_tim.h **** __STATIC_INLINE void LL_TIM_DisableARRPreload(TIM_TypeDef *TIMx)
1190:Drivers/STM32F1xx_HAL_Driver/Inc/stm32f1xx_ll_tim.h **** {
1191:Drivers/STM32F1xx_HAL_Driver/Inc/stm32f1xx_ll_tim.h ****   CLEAR_BIT(TIMx->CR1, TIM_CR1_ARPE);
 123              		.loc 3 1191 0
 124 0056 2B68     		ldr	r3, [r5]
 125              	.LBE63:
 126              	.LBE62:
  47:Src/tim.c     ****   TIM_OC_InitStruct.OCState = LL_TIM_OCSTATE_DISABLE;
  48:Src/tim.c     ****   TIM_OC_InitStruct.OCNState = LL_TIM_OCSTATE_DISABLE;
  49:Src/tim.c     ****   TIM_OC_InitStruct.CompareValue = 0;
  50:Src/tim.c     ****   TIM_OC_InitStruct.OCPolarity = LL_TIM_OCPOLARITY_HIGH;
  51:Src/tim.c     ****   TIM_OC_InitStruct.OCNPolarity = LL_TIM_OCPOLARITY_HIGH;
  52:Src/tim.c     ****   TIM_OC_InitStruct.OCIdleState = LL_TIM_OCIDLESTATE_LOW;
  53:Src/tim.c     ****   TIM_OC_InitStruct.OCNIdleState = LL_TIM_OCIDLESTATE_LOW;
  54:Src/tim.c     ****   LL_TIM_OC_Init(TIM1, LL_TIM_CHANNEL_CH1, &TIM_OC_InitStruct);
 127              		.loc 1 54 0
 128 0058 12AA     		add	r2, sp, #72
 129              	.LBB65:
 130              	.LBB64:
 131              		.loc 3 1191 0
 132 005a 23F08003 		bic	r3, r3, #128
 133 005e 2B60     		str	r3, [r5]
 134              	.LVL4:
 135              	.LBE64:
 136              	.LBE65:
 137              	.LBB66:
 138              	.LBB67:
1192:Drivers/STM32F1xx_HAL_Driver/Inc/stm32f1xx_ll_tim.h **** }
1193:Drivers/STM32F1xx_HAL_Driver/Inc/stm32f1xx_ll_tim.h **** 
1194:Drivers/STM32F1xx_HAL_Driver/Inc/stm32f1xx_ll_tim.h **** /**
ARM GAS  /var/folders/m1/3lv6xmzs0mlckxs4mx90nfb40000gn/T//ccFDK2TW.s 			page 39


1195:Drivers/STM32F1xx_HAL_Driver/Inc/stm32f1xx_ll_tim.h ****   * @brief  Indicates whether auto-reload (ARR) preload is enabled.
1196:Drivers/STM32F1xx_HAL_Driver/Inc/stm32f1xx_ll_tim.h ****   * @rmtoll CR1          ARPE          LL_TIM_IsEnabledARRPreload
1197:Drivers/STM32F1xx_HAL_Driver/Inc/stm32f1xx_ll_tim.h ****   * @param  TIMx Timer instance
1198:Drivers/STM32F1xx_HAL_Driver/Inc/stm32f1xx_ll_tim.h ****   * @retval State of bit (1 or 0).
1199:Drivers/STM32F1xx_HAL_Driver/Inc/stm32f1xx_ll_tim.h ****   */
1200:Drivers/STM32F1xx_HAL_Driver/Inc/stm32f1xx_ll_tim.h **** __STATIC_INLINE uint32_t LL_TIM_IsEnabledARRPreload(TIM_TypeDef *TIMx)
1201:Drivers/STM32F1xx_HAL_Driver/Inc/stm32f1xx_ll_tim.h **** {
1202:Drivers/STM32F1xx_HAL_Driver/Inc/stm32f1xx_ll_tim.h ****   return ((READ_BIT(TIMx->CR1, TIM_CR1_ARPE) == (TIM_CR1_ARPE)) ? 1UL : 0UL);
1203:Drivers/STM32F1xx_HAL_Driver/Inc/stm32f1xx_ll_tim.h **** }
1204:Drivers/STM32F1xx_HAL_Driver/Inc/stm32f1xx_ll_tim.h **** 
1205:Drivers/STM32F1xx_HAL_Driver/Inc/stm32f1xx_ll_tim.h **** /**
1206:Drivers/STM32F1xx_HAL_Driver/Inc/stm32f1xx_ll_tim.h ****   * @brief  Set the division ratio between the timer clock  and the sampling clock used by the dead
1207:Drivers/STM32F1xx_HAL_Driver/Inc/stm32f1xx_ll_tim.h ****   * @note Macro IS_TIM_CLOCK_DIVISION_INSTANCE(TIMx) can be used to check
1208:Drivers/STM32F1xx_HAL_Driver/Inc/stm32f1xx_ll_tim.h ****   *       whether or not the clock division feature is supported by the timer
1209:Drivers/STM32F1xx_HAL_Driver/Inc/stm32f1xx_ll_tim.h ****   *       instance.
1210:Drivers/STM32F1xx_HAL_Driver/Inc/stm32f1xx_ll_tim.h ****   * @rmtoll CR1          CKD           LL_TIM_SetClockDivision
1211:Drivers/STM32F1xx_HAL_Driver/Inc/stm32f1xx_ll_tim.h ****   * @param  TIMx Timer instance
1212:Drivers/STM32F1xx_HAL_Driver/Inc/stm32f1xx_ll_tim.h ****   * @param  ClockDivision This parameter can be one of the following values:
1213:Drivers/STM32F1xx_HAL_Driver/Inc/stm32f1xx_ll_tim.h ****   *         @arg @ref LL_TIM_CLOCKDIVISION_DIV1
1214:Drivers/STM32F1xx_HAL_Driver/Inc/stm32f1xx_ll_tim.h ****   *         @arg @ref LL_TIM_CLOCKDIVISION_DIV2
1215:Drivers/STM32F1xx_HAL_Driver/Inc/stm32f1xx_ll_tim.h ****   *         @arg @ref LL_TIM_CLOCKDIVISION_DIV4
1216:Drivers/STM32F1xx_HAL_Driver/Inc/stm32f1xx_ll_tim.h ****   * @retval None
1217:Drivers/STM32F1xx_HAL_Driver/Inc/stm32f1xx_ll_tim.h ****   */
1218:Drivers/STM32F1xx_HAL_Driver/Inc/stm32f1xx_ll_tim.h **** __STATIC_INLINE void LL_TIM_SetClockDivision(TIM_TypeDef *TIMx, uint32_t ClockDivision)
1219:Drivers/STM32F1xx_HAL_Driver/Inc/stm32f1xx_ll_tim.h **** {
1220:Drivers/STM32F1xx_HAL_Driver/Inc/stm32f1xx_ll_tim.h ****   MODIFY_REG(TIMx->CR1, TIM_CR1_CKD, ClockDivision);
1221:Drivers/STM32F1xx_HAL_Driver/Inc/stm32f1xx_ll_tim.h **** }
1222:Drivers/STM32F1xx_HAL_Driver/Inc/stm32f1xx_ll_tim.h **** 
1223:Drivers/STM32F1xx_HAL_Driver/Inc/stm32f1xx_ll_tim.h **** /**
1224:Drivers/STM32F1xx_HAL_Driver/Inc/stm32f1xx_ll_tim.h ****   * @brief  Get the actual division ratio between the timer clock  and the sampling clock used by t
1225:Drivers/STM32F1xx_HAL_Driver/Inc/stm32f1xx_ll_tim.h ****   * @note Macro IS_TIM_CLOCK_DIVISION_INSTANCE(TIMx) can be used to check
1226:Drivers/STM32F1xx_HAL_Driver/Inc/stm32f1xx_ll_tim.h ****   *       whether or not the clock division feature is supported by the timer
1227:Drivers/STM32F1xx_HAL_Driver/Inc/stm32f1xx_ll_tim.h ****   *       instance.
1228:Drivers/STM32F1xx_HAL_Driver/Inc/stm32f1xx_ll_tim.h ****   * @rmtoll CR1          CKD           LL_TIM_GetClockDivision
1229:Drivers/STM32F1xx_HAL_Driver/Inc/stm32f1xx_ll_tim.h ****   * @param  TIMx Timer instance
1230:Drivers/STM32F1xx_HAL_Driver/Inc/stm32f1xx_ll_tim.h ****   * @retval Returned value can be one of the following values:
1231:Drivers/STM32F1xx_HAL_Driver/Inc/stm32f1xx_ll_tim.h ****   *         @arg @ref LL_TIM_CLOCKDIVISION_DIV1
1232:Drivers/STM32F1xx_HAL_Driver/Inc/stm32f1xx_ll_tim.h ****   *         @arg @ref LL_TIM_CLOCKDIVISION_DIV2
1233:Drivers/STM32F1xx_HAL_Driver/Inc/stm32f1xx_ll_tim.h ****   *         @arg @ref LL_TIM_CLOCKDIVISION_DIV4
1234:Drivers/STM32F1xx_HAL_Driver/Inc/stm32f1xx_ll_tim.h ****   */
1235:Drivers/STM32F1xx_HAL_Driver/Inc/stm32f1xx_ll_tim.h **** __STATIC_INLINE uint32_t LL_TIM_GetClockDivision(TIM_TypeDef *TIMx)
1236:Drivers/STM32F1xx_HAL_Driver/Inc/stm32f1xx_ll_tim.h **** {
1237:Drivers/STM32F1xx_HAL_Driver/Inc/stm32f1xx_ll_tim.h ****   return (uint32_t)(READ_BIT(TIMx->CR1, TIM_CR1_CKD));
1238:Drivers/STM32F1xx_HAL_Driver/Inc/stm32f1xx_ll_tim.h **** }
1239:Drivers/STM32F1xx_HAL_Driver/Inc/stm32f1xx_ll_tim.h **** 
1240:Drivers/STM32F1xx_HAL_Driver/Inc/stm32f1xx_ll_tim.h **** /**
1241:Drivers/STM32F1xx_HAL_Driver/Inc/stm32f1xx_ll_tim.h ****   * @brief  Set the counter value.
1242:Drivers/STM32F1xx_HAL_Driver/Inc/stm32f1xx_ll_tim.h ****   * @rmtoll CNT          CNT           LL_TIM_SetCounter
1243:Drivers/STM32F1xx_HAL_Driver/Inc/stm32f1xx_ll_tim.h ****   * @param  TIMx Timer instance
1244:Drivers/STM32F1xx_HAL_Driver/Inc/stm32f1xx_ll_tim.h ****   * @param  Counter Counter value (between Min_Data=0 and Max_Data=0xFFFF)
1245:Drivers/STM32F1xx_HAL_Driver/Inc/stm32f1xx_ll_tim.h ****   * @retval None
1246:Drivers/STM32F1xx_HAL_Driver/Inc/stm32f1xx_ll_tim.h ****   */
1247:Drivers/STM32F1xx_HAL_Driver/Inc/stm32f1xx_ll_tim.h **** __STATIC_INLINE void LL_TIM_SetCounter(TIM_TypeDef *TIMx, uint32_t Counter)
1248:Drivers/STM32F1xx_HAL_Driver/Inc/stm32f1xx_ll_tim.h **** {
1249:Drivers/STM32F1xx_HAL_Driver/Inc/stm32f1xx_ll_tim.h ****   WRITE_REG(TIMx->CNT, Counter);
1250:Drivers/STM32F1xx_HAL_Driver/Inc/stm32f1xx_ll_tim.h **** }
1251:Drivers/STM32F1xx_HAL_Driver/Inc/stm32f1xx_ll_tim.h **** 
ARM GAS  /var/folders/m1/3lv6xmzs0mlckxs4mx90nfb40000gn/T//ccFDK2TW.s 			page 40


1252:Drivers/STM32F1xx_HAL_Driver/Inc/stm32f1xx_ll_tim.h **** /**
1253:Drivers/STM32F1xx_HAL_Driver/Inc/stm32f1xx_ll_tim.h ****   * @brief  Get the counter value.
1254:Drivers/STM32F1xx_HAL_Driver/Inc/stm32f1xx_ll_tim.h ****   * @rmtoll CNT          CNT           LL_TIM_GetCounter
1255:Drivers/STM32F1xx_HAL_Driver/Inc/stm32f1xx_ll_tim.h ****   * @param  TIMx Timer instance
1256:Drivers/STM32F1xx_HAL_Driver/Inc/stm32f1xx_ll_tim.h ****   * @retval Counter value (between Min_Data=0 and Max_Data=0xFFFF)
1257:Drivers/STM32F1xx_HAL_Driver/Inc/stm32f1xx_ll_tim.h ****   */
1258:Drivers/STM32F1xx_HAL_Driver/Inc/stm32f1xx_ll_tim.h **** __STATIC_INLINE uint32_t LL_TIM_GetCounter(TIM_TypeDef *TIMx)
1259:Drivers/STM32F1xx_HAL_Driver/Inc/stm32f1xx_ll_tim.h **** {
1260:Drivers/STM32F1xx_HAL_Driver/Inc/stm32f1xx_ll_tim.h ****   return (uint32_t)(READ_REG(TIMx->CNT));
1261:Drivers/STM32F1xx_HAL_Driver/Inc/stm32f1xx_ll_tim.h **** }
1262:Drivers/STM32F1xx_HAL_Driver/Inc/stm32f1xx_ll_tim.h **** 
1263:Drivers/STM32F1xx_HAL_Driver/Inc/stm32f1xx_ll_tim.h **** /**
1264:Drivers/STM32F1xx_HAL_Driver/Inc/stm32f1xx_ll_tim.h ****   * @brief  Get the current direction of the counter
1265:Drivers/STM32F1xx_HAL_Driver/Inc/stm32f1xx_ll_tim.h ****   * @rmtoll CR1          DIR           LL_TIM_GetDirection
1266:Drivers/STM32F1xx_HAL_Driver/Inc/stm32f1xx_ll_tim.h ****   * @param  TIMx Timer instance
1267:Drivers/STM32F1xx_HAL_Driver/Inc/stm32f1xx_ll_tim.h ****   * @retval Returned value can be one of the following values:
1268:Drivers/STM32F1xx_HAL_Driver/Inc/stm32f1xx_ll_tim.h ****   *         @arg @ref LL_TIM_COUNTERDIRECTION_UP
1269:Drivers/STM32F1xx_HAL_Driver/Inc/stm32f1xx_ll_tim.h ****   *         @arg @ref LL_TIM_COUNTERDIRECTION_DOWN
1270:Drivers/STM32F1xx_HAL_Driver/Inc/stm32f1xx_ll_tim.h ****   */
1271:Drivers/STM32F1xx_HAL_Driver/Inc/stm32f1xx_ll_tim.h **** __STATIC_INLINE uint32_t LL_TIM_GetDirection(TIM_TypeDef *TIMx)
1272:Drivers/STM32F1xx_HAL_Driver/Inc/stm32f1xx_ll_tim.h **** {
1273:Drivers/STM32F1xx_HAL_Driver/Inc/stm32f1xx_ll_tim.h ****   return (uint32_t)(READ_BIT(TIMx->CR1, TIM_CR1_DIR));
1274:Drivers/STM32F1xx_HAL_Driver/Inc/stm32f1xx_ll_tim.h **** }
1275:Drivers/STM32F1xx_HAL_Driver/Inc/stm32f1xx_ll_tim.h **** 
1276:Drivers/STM32F1xx_HAL_Driver/Inc/stm32f1xx_ll_tim.h **** /**
1277:Drivers/STM32F1xx_HAL_Driver/Inc/stm32f1xx_ll_tim.h ****   * @brief  Set the prescaler value.
1278:Drivers/STM32F1xx_HAL_Driver/Inc/stm32f1xx_ll_tim.h ****   * @note The counter clock frequency CK_CNT is equal to fCK_PSC / (PSC[15:0] + 1).
1279:Drivers/STM32F1xx_HAL_Driver/Inc/stm32f1xx_ll_tim.h ****   * @note The prescaler can be changed on the fly as this control register is buffered. The new
1280:Drivers/STM32F1xx_HAL_Driver/Inc/stm32f1xx_ll_tim.h ****   *       prescaler ratio is taken into account at the next update event.
1281:Drivers/STM32F1xx_HAL_Driver/Inc/stm32f1xx_ll_tim.h ****   * @note Helper macro @ref __LL_TIM_CALC_PSC can be used to calculate the Prescaler parameter
1282:Drivers/STM32F1xx_HAL_Driver/Inc/stm32f1xx_ll_tim.h ****   * @rmtoll PSC          PSC           LL_TIM_SetPrescaler
1283:Drivers/STM32F1xx_HAL_Driver/Inc/stm32f1xx_ll_tim.h ****   * @param  TIMx Timer instance
1284:Drivers/STM32F1xx_HAL_Driver/Inc/stm32f1xx_ll_tim.h ****   * @param  Prescaler between Min_Data=0 and Max_Data=65535
1285:Drivers/STM32F1xx_HAL_Driver/Inc/stm32f1xx_ll_tim.h ****   * @retval None
1286:Drivers/STM32F1xx_HAL_Driver/Inc/stm32f1xx_ll_tim.h ****   */
1287:Drivers/STM32F1xx_HAL_Driver/Inc/stm32f1xx_ll_tim.h **** __STATIC_INLINE void LL_TIM_SetPrescaler(TIM_TypeDef *TIMx, uint32_t Prescaler)
1288:Drivers/STM32F1xx_HAL_Driver/Inc/stm32f1xx_ll_tim.h **** {
1289:Drivers/STM32F1xx_HAL_Driver/Inc/stm32f1xx_ll_tim.h ****   WRITE_REG(TIMx->PSC, Prescaler);
1290:Drivers/STM32F1xx_HAL_Driver/Inc/stm32f1xx_ll_tim.h **** }
1291:Drivers/STM32F1xx_HAL_Driver/Inc/stm32f1xx_ll_tim.h **** 
1292:Drivers/STM32F1xx_HAL_Driver/Inc/stm32f1xx_ll_tim.h **** /**
1293:Drivers/STM32F1xx_HAL_Driver/Inc/stm32f1xx_ll_tim.h ****   * @brief  Get the prescaler value.
1294:Drivers/STM32F1xx_HAL_Driver/Inc/stm32f1xx_ll_tim.h ****   * @rmtoll PSC          PSC           LL_TIM_GetPrescaler
1295:Drivers/STM32F1xx_HAL_Driver/Inc/stm32f1xx_ll_tim.h ****   * @param  TIMx Timer instance
1296:Drivers/STM32F1xx_HAL_Driver/Inc/stm32f1xx_ll_tim.h ****   * @retval  Prescaler value between Min_Data=0 and Max_Data=65535
1297:Drivers/STM32F1xx_HAL_Driver/Inc/stm32f1xx_ll_tim.h ****   */
1298:Drivers/STM32F1xx_HAL_Driver/Inc/stm32f1xx_ll_tim.h **** __STATIC_INLINE uint32_t LL_TIM_GetPrescaler(TIM_TypeDef *TIMx)
1299:Drivers/STM32F1xx_HAL_Driver/Inc/stm32f1xx_ll_tim.h **** {
1300:Drivers/STM32F1xx_HAL_Driver/Inc/stm32f1xx_ll_tim.h ****   return (uint32_t)(READ_REG(TIMx->PSC));
1301:Drivers/STM32F1xx_HAL_Driver/Inc/stm32f1xx_ll_tim.h **** }
1302:Drivers/STM32F1xx_HAL_Driver/Inc/stm32f1xx_ll_tim.h **** 
1303:Drivers/STM32F1xx_HAL_Driver/Inc/stm32f1xx_ll_tim.h **** /**
1304:Drivers/STM32F1xx_HAL_Driver/Inc/stm32f1xx_ll_tim.h ****   * @brief  Set the auto-reload value.
1305:Drivers/STM32F1xx_HAL_Driver/Inc/stm32f1xx_ll_tim.h ****   * @note The counter is blocked while the auto-reload value is null.
1306:Drivers/STM32F1xx_HAL_Driver/Inc/stm32f1xx_ll_tim.h ****   * @note Helper macro @ref __LL_TIM_CALC_ARR can be used to calculate the AutoReload parameter
1307:Drivers/STM32F1xx_HAL_Driver/Inc/stm32f1xx_ll_tim.h ****   * @rmtoll ARR          ARR           LL_TIM_SetAutoReload
1308:Drivers/STM32F1xx_HAL_Driver/Inc/stm32f1xx_ll_tim.h ****   * @param  TIMx Timer instance
ARM GAS  /var/folders/m1/3lv6xmzs0mlckxs4mx90nfb40000gn/T//ccFDK2TW.s 			page 41


1309:Drivers/STM32F1xx_HAL_Driver/Inc/stm32f1xx_ll_tim.h ****   * @param  AutoReload between Min_Data=0 and Max_Data=65535
1310:Drivers/STM32F1xx_HAL_Driver/Inc/stm32f1xx_ll_tim.h ****   * @retval None
1311:Drivers/STM32F1xx_HAL_Driver/Inc/stm32f1xx_ll_tim.h ****   */
1312:Drivers/STM32F1xx_HAL_Driver/Inc/stm32f1xx_ll_tim.h **** __STATIC_INLINE void LL_TIM_SetAutoReload(TIM_TypeDef *TIMx, uint32_t AutoReload)
1313:Drivers/STM32F1xx_HAL_Driver/Inc/stm32f1xx_ll_tim.h **** {
1314:Drivers/STM32F1xx_HAL_Driver/Inc/stm32f1xx_ll_tim.h ****   WRITE_REG(TIMx->ARR, AutoReload);
1315:Drivers/STM32F1xx_HAL_Driver/Inc/stm32f1xx_ll_tim.h **** }
1316:Drivers/STM32F1xx_HAL_Driver/Inc/stm32f1xx_ll_tim.h **** 
1317:Drivers/STM32F1xx_HAL_Driver/Inc/stm32f1xx_ll_tim.h **** /**
1318:Drivers/STM32F1xx_HAL_Driver/Inc/stm32f1xx_ll_tim.h ****   * @brief  Get the auto-reload value.
1319:Drivers/STM32F1xx_HAL_Driver/Inc/stm32f1xx_ll_tim.h ****   * @rmtoll ARR          ARR           LL_TIM_GetAutoReload
1320:Drivers/STM32F1xx_HAL_Driver/Inc/stm32f1xx_ll_tim.h ****   * @param  TIMx Timer instance
1321:Drivers/STM32F1xx_HAL_Driver/Inc/stm32f1xx_ll_tim.h ****   * @retval Auto-reload value
1322:Drivers/STM32F1xx_HAL_Driver/Inc/stm32f1xx_ll_tim.h ****   */
1323:Drivers/STM32F1xx_HAL_Driver/Inc/stm32f1xx_ll_tim.h **** __STATIC_INLINE uint32_t LL_TIM_GetAutoReload(TIM_TypeDef *TIMx)
1324:Drivers/STM32F1xx_HAL_Driver/Inc/stm32f1xx_ll_tim.h **** {
1325:Drivers/STM32F1xx_HAL_Driver/Inc/stm32f1xx_ll_tim.h ****   return (uint32_t)(READ_REG(TIMx->ARR));
1326:Drivers/STM32F1xx_HAL_Driver/Inc/stm32f1xx_ll_tim.h **** }
1327:Drivers/STM32F1xx_HAL_Driver/Inc/stm32f1xx_ll_tim.h **** 
1328:Drivers/STM32F1xx_HAL_Driver/Inc/stm32f1xx_ll_tim.h **** /**
1329:Drivers/STM32F1xx_HAL_Driver/Inc/stm32f1xx_ll_tim.h ****   * @brief  Set the repetition counter value.
1330:Drivers/STM32F1xx_HAL_Driver/Inc/stm32f1xx_ll_tim.h ****   * @note Macro IS_TIM_REPETITION_COUNTER_INSTANCE(TIMx) can be used to check
1331:Drivers/STM32F1xx_HAL_Driver/Inc/stm32f1xx_ll_tim.h ****   *       whether or not a timer instance supports a repetition counter.
1332:Drivers/STM32F1xx_HAL_Driver/Inc/stm32f1xx_ll_tim.h ****   * @rmtoll RCR          REP           LL_TIM_SetRepetitionCounter
1333:Drivers/STM32F1xx_HAL_Driver/Inc/stm32f1xx_ll_tim.h ****   * @param  TIMx Timer instance
1334:Drivers/STM32F1xx_HAL_Driver/Inc/stm32f1xx_ll_tim.h ****   * @param  RepetitionCounter between Min_Data=0 and Max_Data=255
1335:Drivers/STM32F1xx_HAL_Driver/Inc/stm32f1xx_ll_tim.h ****   * @retval None
1336:Drivers/STM32F1xx_HAL_Driver/Inc/stm32f1xx_ll_tim.h ****   */
1337:Drivers/STM32F1xx_HAL_Driver/Inc/stm32f1xx_ll_tim.h **** __STATIC_INLINE void LL_TIM_SetRepetitionCounter(TIM_TypeDef *TIMx, uint32_t RepetitionCounter)
1338:Drivers/STM32F1xx_HAL_Driver/Inc/stm32f1xx_ll_tim.h **** {
1339:Drivers/STM32F1xx_HAL_Driver/Inc/stm32f1xx_ll_tim.h ****   WRITE_REG(TIMx->RCR, RepetitionCounter);
1340:Drivers/STM32F1xx_HAL_Driver/Inc/stm32f1xx_ll_tim.h **** }
1341:Drivers/STM32F1xx_HAL_Driver/Inc/stm32f1xx_ll_tim.h **** 
1342:Drivers/STM32F1xx_HAL_Driver/Inc/stm32f1xx_ll_tim.h **** /**
1343:Drivers/STM32F1xx_HAL_Driver/Inc/stm32f1xx_ll_tim.h ****   * @brief  Get the repetition counter value.
1344:Drivers/STM32F1xx_HAL_Driver/Inc/stm32f1xx_ll_tim.h ****   * @note Macro IS_TIM_REPETITION_COUNTER_INSTANCE(TIMx) can be used to check
1345:Drivers/STM32F1xx_HAL_Driver/Inc/stm32f1xx_ll_tim.h ****   *       whether or not a timer instance supports a repetition counter.
1346:Drivers/STM32F1xx_HAL_Driver/Inc/stm32f1xx_ll_tim.h ****   * @rmtoll RCR          REP           LL_TIM_GetRepetitionCounter
1347:Drivers/STM32F1xx_HAL_Driver/Inc/stm32f1xx_ll_tim.h ****   * @param  TIMx Timer instance
1348:Drivers/STM32F1xx_HAL_Driver/Inc/stm32f1xx_ll_tim.h ****   * @retval Repetition counter value
1349:Drivers/STM32F1xx_HAL_Driver/Inc/stm32f1xx_ll_tim.h ****   */
1350:Drivers/STM32F1xx_HAL_Driver/Inc/stm32f1xx_ll_tim.h **** __STATIC_INLINE uint32_t LL_TIM_GetRepetitionCounter(TIM_TypeDef *TIMx)
1351:Drivers/STM32F1xx_HAL_Driver/Inc/stm32f1xx_ll_tim.h **** {
1352:Drivers/STM32F1xx_HAL_Driver/Inc/stm32f1xx_ll_tim.h ****   return (uint32_t)(READ_REG(TIMx->RCR));
1353:Drivers/STM32F1xx_HAL_Driver/Inc/stm32f1xx_ll_tim.h **** }
1354:Drivers/STM32F1xx_HAL_Driver/Inc/stm32f1xx_ll_tim.h **** 
1355:Drivers/STM32F1xx_HAL_Driver/Inc/stm32f1xx_ll_tim.h **** /**
1356:Drivers/STM32F1xx_HAL_Driver/Inc/stm32f1xx_ll_tim.h ****   * @}
1357:Drivers/STM32F1xx_HAL_Driver/Inc/stm32f1xx_ll_tim.h ****   */
1358:Drivers/STM32F1xx_HAL_Driver/Inc/stm32f1xx_ll_tim.h **** 
1359:Drivers/STM32F1xx_HAL_Driver/Inc/stm32f1xx_ll_tim.h **** /** @defgroup TIM_LL_EF_Capture_Compare Capture Compare configuration
1360:Drivers/STM32F1xx_HAL_Driver/Inc/stm32f1xx_ll_tim.h ****   * @{
1361:Drivers/STM32F1xx_HAL_Driver/Inc/stm32f1xx_ll_tim.h ****   */
1362:Drivers/STM32F1xx_HAL_Driver/Inc/stm32f1xx_ll_tim.h **** /**
1363:Drivers/STM32F1xx_HAL_Driver/Inc/stm32f1xx_ll_tim.h ****   * @brief  Enable  the capture/compare control bits (CCxE, CCxNE and OCxM) preload.
1364:Drivers/STM32F1xx_HAL_Driver/Inc/stm32f1xx_ll_tim.h ****   * @note CCxE, CCxNE and OCxM bits are preloaded, after having been written,
1365:Drivers/STM32F1xx_HAL_Driver/Inc/stm32f1xx_ll_tim.h ****   *       they are updated only when a commutation event (COM) occurs.
ARM GAS  /var/folders/m1/3lv6xmzs0mlckxs4mx90nfb40000gn/T//ccFDK2TW.s 			page 42


1366:Drivers/STM32F1xx_HAL_Driver/Inc/stm32f1xx_ll_tim.h ****   * @note Only on channels that have a complementary output.
1367:Drivers/STM32F1xx_HAL_Driver/Inc/stm32f1xx_ll_tim.h ****   * @note Macro IS_TIM_COMMUTATION_EVENT_INSTANCE(TIMx) can be used to check
1368:Drivers/STM32F1xx_HAL_Driver/Inc/stm32f1xx_ll_tim.h ****   *       whether or not a timer instance is able to generate a commutation event.
1369:Drivers/STM32F1xx_HAL_Driver/Inc/stm32f1xx_ll_tim.h ****   * @rmtoll CR2          CCPC          LL_TIM_CC_EnablePreload
1370:Drivers/STM32F1xx_HAL_Driver/Inc/stm32f1xx_ll_tim.h ****   * @param  TIMx Timer instance
1371:Drivers/STM32F1xx_HAL_Driver/Inc/stm32f1xx_ll_tim.h ****   * @retval None
1372:Drivers/STM32F1xx_HAL_Driver/Inc/stm32f1xx_ll_tim.h ****   */
1373:Drivers/STM32F1xx_HAL_Driver/Inc/stm32f1xx_ll_tim.h **** __STATIC_INLINE void LL_TIM_CC_EnablePreload(TIM_TypeDef *TIMx)
1374:Drivers/STM32F1xx_HAL_Driver/Inc/stm32f1xx_ll_tim.h **** {
1375:Drivers/STM32F1xx_HAL_Driver/Inc/stm32f1xx_ll_tim.h ****   SET_BIT(TIMx->CR2, TIM_CR2_CCPC);
1376:Drivers/STM32F1xx_HAL_Driver/Inc/stm32f1xx_ll_tim.h **** }
1377:Drivers/STM32F1xx_HAL_Driver/Inc/stm32f1xx_ll_tim.h **** 
1378:Drivers/STM32F1xx_HAL_Driver/Inc/stm32f1xx_ll_tim.h **** /**
1379:Drivers/STM32F1xx_HAL_Driver/Inc/stm32f1xx_ll_tim.h ****   * @brief  Disable  the capture/compare control bits (CCxE, CCxNE and OCxM) preload.
1380:Drivers/STM32F1xx_HAL_Driver/Inc/stm32f1xx_ll_tim.h ****   * @note Macro IS_TIM_COMMUTATION_EVENT_INSTANCE(TIMx) can be used to check
1381:Drivers/STM32F1xx_HAL_Driver/Inc/stm32f1xx_ll_tim.h ****   *       whether or not a timer instance is able to generate a commutation event.
1382:Drivers/STM32F1xx_HAL_Driver/Inc/stm32f1xx_ll_tim.h ****   * @rmtoll CR2          CCPC          LL_TIM_CC_DisablePreload
1383:Drivers/STM32F1xx_HAL_Driver/Inc/stm32f1xx_ll_tim.h ****   * @param  TIMx Timer instance
1384:Drivers/STM32F1xx_HAL_Driver/Inc/stm32f1xx_ll_tim.h ****   * @retval None
1385:Drivers/STM32F1xx_HAL_Driver/Inc/stm32f1xx_ll_tim.h ****   */
1386:Drivers/STM32F1xx_HAL_Driver/Inc/stm32f1xx_ll_tim.h **** __STATIC_INLINE void LL_TIM_CC_DisablePreload(TIM_TypeDef *TIMx)
1387:Drivers/STM32F1xx_HAL_Driver/Inc/stm32f1xx_ll_tim.h **** {
1388:Drivers/STM32F1xx_HAL_Driver/Inc/stm32f1xx_ll_tim.h ****   CLEAR_BIT(TIMx->CR2, TIM_CR2_CCPC);
1389:Drivers/STM32F1xx_HAL_Driver/Inc/stm32f1xx_ll_tim.h **** }
1390:Drivers/STM32F1xx_HAL_Driver/Inc/stm32f1xx_ll_tim.h **** 
1391:Drivers/STM32F1xx_HAL_Driver/Inc/stm32f1xx_ll_tim.h **** /**
1392:Drivers/STM32F1xx_HAL_Driver/Inc/stm32f1xx_ll_tim.h ****   * @brief  Set the updated source of the capture/compare control bits (CCxE, CCxNE and OCxM).
1393:Drivers/STM32F1xx_HAL_Driver/Inc/stm32f1xx_ll_tim.h ****   * @note Macro IS_TIM_COMMUTATION_EVENT_INSTANCE(TIMx) can be used to check
1394:Drivers/STM32F1xx_HAL_Driver/Inc/stm32f1xx_ll_tim.h ****   *       whether or not a timer instance is able to generate a commutation event.
1395:Drivers/STM32F1xx_HAL_Driver/Inc/stm32f1xx_ll_tim.h ****   * @rmtoll CR2          CCUS          LL_TIM_CC_SetUpdate
1396:Drivers/STM32F1xx_HAL_Driver/Inc/stm32f1xx_ll_tim.h ****   * @param  TIMx Timer instance
1397:Drivers/STM32F1xx_HAL_Driver/Inc/stm32f1xx_ll_tim.h ****   * @param  CCUpdateSource This parameter can be one of the following values:
1398:Drivers/STM32F1xx_HAL_Driver/Inc/stm32f1xx_ll_tim.h ****   *         @arg @ref LL_TIM_CCUPDATESOURCE_COMG_ONLY
1399:Drivers/STM32F1xx_HAL_Driver/Inc/stm32f1xx_ll_tim.h ****   *         @arg @ref LL_TIM_CCUPDATESOURCE_COMG_AND_TRGI
1400:Drivers/STM32F1xx_HAL_Driver/Inc/stm32f1xx_ll_tim.h ****   * @retval None
1401:Drivers/STM32F1xx_HAL_Driver/Inc/stm32f1xx_ll_tim.h ****   */
1402:Drivers/STM32F1xx_HAL_Driver/Inc/stm32f1xx_ll_tim.h **** __STATIC_INLINE void LL_TIM_CC_SetUpdate(TIM_TypeDef *TIMx, uint32_t CCUpdateSource)
1403:Drivers/STM32F1xx_HAL_Driver/Inc/stm32f1xx_ll_tim.h **** {
1404:Drivers/STM32F1xx_HAL_Driver/Inc/stm32f1xx_ll_tim.h ****   MODIFY_REG(TIMx->CR2, TIM_CR2_CCUS, CCUpdateSource);
1405:Drivers/STM32F1xx_HAL_Driver/Inc/stm32f1xx_ll_tim.h **** }
1406:Drivers/STM32F1xx_HAL_Driver/Inc/stm32f1xx_ll_tim.h **** 
1407:Drivers/STM32F1xx_HAL_Driver/Inc/stm32f1xx_ll_tim.h **** /**
1408:Drivers/STM32F1xx_HAL_Driver/Inc/stm32f1xx_ll_tim.h ****   * @brief  Set the trigger of the capture/compare DMA request.
1409:Drivers/STM32F1xx_HAL_Driver/Inc/stm32f1xx_ll_tim.h ****   * @rmtoll CR2          CCDS          LL_TIM_CC_SetDMAReqTrigger
1410:Drivers/STM32F1xx_HAL_Driver/Inc/stm32f1xx_ll_tim.h ****   * @param  TIMx Timer instance
1411:Drivers/STM32F1xx_HAL_Driver/Inc/stm32f1xx_ll_tim.h ****   * @param  DMAReqTrigger This parameter can be one of the following values:
1412:Drivers/STM32F1xx_HAL_Driver/Inc/stm32f1xx_ll_tim.h ****   *         @arg @ref LL_TIM_CCDMAREQUEST_CC
1413:Drivers/STM32F1xx_HAL_Driver/Inc/stm32f1xx_ll_tim.h ****   *         @arg @ref LL_TIM_CCDMAREQUEST_UPDATE
1414:Drivers/STM32F1xx_HAL_Driver/Inc/stm32f1xx_ll_tim.h ****   * @retval None
1415:Drivers/STM32F1xx_HAL_Driver/Inc/stm32f1xx_ll_tim.h ****   */
1416:Drivers/STM32F1xx_HAL_Driver/Inc/stm32f1xx_ll_tim.h **** __STATIC_INLINE void LL_TIM_CC_SetDMAReqTrigger(TIM_TypeDef *TIMx, uint32_t DMAReqTrigger)
1417:Drivers/STM32F1xx_HAL_Driver/Inc/stm32f1xx_ll_tim.h **** {
1418:Drivers/STM32F1xx_HAL_Driver/Inc/stm32f1xx_ll_tim.h ****   MODIFY_REG(TIMx->CR2, TIM_CR2_CCDS, DMAReqTrigger);
1419:Drivers/STM32F1xx_HAL_Driver/Inc/stm32f1xx_ll_tim.h **** }
1420:Drivers/STM32F1xx_HAL_Driver/Inc/stm32f1xx_ll_tim.h **** 
1421:Drivers/STM32F1xx_HAL_Driver/Inc/stm32f1xx_ll_tim.h **** /**
1422:Drivers/STM32F1xx_HAL_Driver/Inc/stm32f1xx_ll_tim.h ****   * @brief  Get actual trigger of the capture/compare DMA request.
ARM GAS  /var/folders/m1/3lv6xmzs0mlckxs4mx90nfb40000gn/T//ccFDK2TW.s 			page 43


1423:Drivers/STM32F1xx_HAL_Driver/Inc/stm32f1xx_ll_tim.h ****   * @rmtoll CR2          CCDS          LL_TIM_CC_GetDMAReqTrigger
1424:Drivers/STM32F1xx_HAL_Driver/Inc/stm32f1xx_ll_tim.h ****   * @param  TIMx Timer instance
1425:Drivers/STM32F1xx_HAL_Driver/Inc/stm32f1xx_ll_tim.h ****   * @retval Returned value can be one of the following values:
1426:Drivers/STM32F1xx_HAL_Driver/Inc/stm32f1xx_ll_tim.h ****   *         @arg @ref LL_TIM_CCDMAREQUEST_CC
1427:Drivers/STM32F1xx_HAL_Driver/Inc/stm32f1xx_ll_tim.h ****   *         @arg @ref LL_TIM_CCDMAREQUEST_UPDATE
1428:Drivers/STM32F1xx_HAL_Driver/Inc/stm32f1xx_ll_tim.h ****   */
1429:Drivers/STM32F1xx_HAL_Driver/Inc/stm32f1xx_ll_tim.h **** __STATIC_INLINE uint32_t LL_TIM_CC_GetDMAReqTrigger(TIM_TypeDef *TIMx)
1430:Drivers/STM32F1xx_HAL_Driver/Inc/stm32f1xx_ll_tim.h **** {
1431:Drivers/STM32F1xx_HAL_Driver/Inc/stm32f1xx_ll_tim.h ****   return (uint32_t)(READ_BIT(TIMx->CR2, TIM_CR2_CCDS));
1432:Drivers/STM32F1xx_HAL_Driver/Inc/stm32f1xx_ll_tim.h **** }
1433:Drivers/STM32F1xx_HAL_Driver/Inc/stm32f1xx_ll_tim.h **** 
1434:Drivers/STM32F1xx_HAL_Driver/Inc/stm32f1xx_ll_tim.h **** /**
1435:Drivers/STM32F1xx_HAL_Driver/Inc/stm32f1xx_ll_tim.h ****   * @brief  Set the lock level to freeze the
1436:Drivers/STM32F1xx_HAL_Driver/Inc/stm32f1xx_ll_tim.h ****   *         configuration of several capture/compare parameters.
1437:Drivers/STM32F1xx_HAL_Driver/Inc/stm32f1xx_ll_tim.h ****   * @note Macro IS_TIM_BREAK_INSTANCE(TIMx) can be used to check whether or not
1438:Drivers/STM32F1xx_HAL_Driver/Inc/stm32f1xx_ll_tim.h ****   *       the lock mechanism is supported by a timer instance.
1439:Drivers/STM32F1xx_HAL_Driver/Inc/stm32f1xx_ll_tim.h ****   * @rmtoll BDTR         LOCK          LL_TIM_CC_SetLockLevel
1440:Drivers/STM32F1xx_HAL_Driver/Inc/stm32f1xx_ll_tim.h ****   * @param  TIMx Timer instance
1441:Drivers/STM32F1xx_HAL_Driver/Inc/stm32f1xx_ll_tim.h ****   * @param  LockLevel This parameter can be one of the following values:
1442:Drivers/STM32F1xx_HAL_Driver/Inc/stm32f1xx_ll_tim.h ****   *         @arg @ref LL_TIM_LOCKLEVEL_OFF
1443:Drivers/STM32F1xx_HAL_Driver/Inc/stm32f1xx_ll_tim.h ****   *         @arg @ref LL_TIM_LOCKLEVEL_1
1444:Drivers/STM32F1xx_HAL_Driver/Inc/stm32f1xx_ll_tim.h ****   *         @arg @ref LL_TIM_LOCKLEVEL_2
1445:Drivers/STM32F1xx_HAL_Driver/Inc/stm32f1xx_ll_tim.h ****   *         @arg @ref LL_TIM_LOCKLEVEL_3
1446:Drivers/STM32F1xx_HAL_Driver/Inc/stm32f1xx_ll_tim.h ****   * @retval None
1447:Drivers/STM32F1xx_HAL_Driver/Inc/stm32f1xx_ll_tim.h ****   */
1448:Drivers/STM32F1xx_HAL_Driver/Inc/stm32f1xx_ll_tim.h **** __STATIC_INLINE void LL_TIM_CC_SetLockLevel(TIM_TypeDef *TIMx, uint32_t LockLevel)
1449:Drivers/STM32F1xx_HAL_Driver/Inc/stm32f1xx_ll_tim.h **** {
1450:Drivers/STM32F1xx_HAL_Driver/Inc/stm32f1xx_ll_tim.h ****   MODIFY_REG(TIMx->BDTR, TIM_BDTR_LOCK, LockLevel);
1451:Drivers/STM32F1xx_HAL_Driver/Inc/stm32f1xx_ll_tim.h **** }
1452:Drivers/STM32F1xx_HAL_Driver/Inc/stm32f1xx_ll_tim.h **** 
1453:Drivers/STM32F1xx_HAL_Driver/Inc/stm32f1xx_ll_tim.h **** /**
1454:Drivers/STM32F1xx_HAL_Driver/Inc/stm32f1xx_ll_tim.h ****   * @brief  Enable capture/compare channels.
1455:Drivers/STM32F1xx_HAL_Driver/Inc/stm32f1xx_ll_tim.h ****   * @rmtoll CCER         CC1E          LL_TIM_CC_EnableChannel\n
1456:Drivers/STM32F1xx_HAL_Driver/Inc/stm32f1xx_ll_tim.h ****   *         CCER         CC1NE         LL_TIM_CC_EnableChannel\n
1457:Drivers/STM32F1xx_HAL_Driver/Inc/stm32f1xx_ll_tim.h ****   *         CCER         CC2E          LL_TIM_CC_EnableChannel\n
1458:Drivers/STM32F1xx_HAL_Driver/Inc/stm32f1xx_ll_tim.h ****   *         CCER         CC2NE         LL_TIM_CC_EnableChannel\n
1459:Drivers/STM32F1xx_HAL_Driver/Inc/stm32f1xx_ll_tim.h ****   *         CCER         CC3E          LL_TIM_CC_EnableChannel\n
1460:Drivers/STM32F1xx_HAL_Driver/Inc/stm32f1xx_ll_tim.h ****   *         CCER         CC3NE         LL_TIM_CC_EnableChannel\n
1461:Drivers/STM32F1xx_HAL_Driver/Inc/stm32f1xx_ll_tim.h ****   *         CCER         CC4E          LL_TIM_CC_EnableChannel
1462:Drivers/STM32F1xx_HAL_Driver/Inc/stm32f1xx_ll_tim.h ****   * @param  TIMx Timer instance
1463:Drivers/STM32F1xx_HAL_Driver/Inc/stm32f1xx_ll_tim.h ****   * @param  Channels This parameter can be a combination of the following values:
1464:Drivers/STM32F1xx_HAL_Driver/Inc/stm32f1xx_ll_tim.h ****   *         @arg @ref LL_TIM_CHANNEL_CH1
1465:Drivers/STM32F1xx_HAL_Driver/Inc/stm32f1xx_ll_tim.h ****   *         @arg @ref LL_TIM_CHANNEL_CH1N
1466:Drivers/STM32F1xx_HAL_Driver/Inc/stm32f1xx_ll_tim.h ****   *         @arg @ref LL_TIM_CHANNEL_CH2
1467:Drivers/STM32F1xx_HAL_Driver/Inc/stm32f1xx_ll_tim.h ****   *         @arg @ref LL_TIM_CHANNEL_CH2N
1468:Drivers/STM32F1xx_HAL_Driver/Inc/stm32f1xx_ll_tim.h ****   *         @arg @ref LL_TIM_CHANNEL_CH3
1469:Drivers/STM32F1xx_HAL_Driver/Inc/stm32f1xx_ll_tim.h ****   *         @arg @ref LL_TIM_CHANNEL_CH3N
1470:Drivers/STM32F1xx_HAL_Driver/Inc/stm32f1xx_ll_tim.h ****   *         @arg @ref LL_TIM_CHANNEL_CH4
1471:Drivers/STM32F1xx_HAL_Driver/Inc/stm32f1xx_ll_tim.h ****   * @retval None
1472:Drivers/STM32F1xx_HAL_Driver/Inc/stm32f1xx_ll_tim.h ****   */
1473:Drivers/STM32F1xx_HAL_Driver/Inc/stm32f1xx_ll_tim.h **** __STATIC_INLINE void LL_TIM_CC_EnableChannel(TIM_TypeDef *TIMx, uint32_t Channels)
1474:Drivers/STM32F1xx_HAL_Driver/Inc/stm32f1xx_ll_tim.h **** {
1475:Drivers/STM32F1xx_HAL_Driver/Inc/stm32f1xx_ll_tim.h ****   SET_BIT(TIMx->CCER, Channels);
1476:Drivers/STM32F1xx_HAL_Driver/Inc/stm32f1xx_ll_tim.h **** }
1477:Drivers/STM32F1xx_HAL_Driver/Inc/stm32f1xx_ll_tim.h **** 
1478:Drivers/STM32F1xx_HAL_Driver/Inc/stm32f1xx_ll_tim.h **** /**
1479:Drivers/STM32F1xx_HAL_Driver/Inc/stm32f1xx_ll_tim.h ****   * @brief  Disable capture/compare channels.
ARM GAS  /var/folders/m1/3lv6xmzs0mlckxs4mx90nfb40000gn/T//ccFDK2TW.s 			page 44


1480:Drivers/STM32F1xx_HAL_Driver/Inc/stm32f1xx_ll_tim.h ****   * @rmtoll CCER         CC1E          LL_TIM_CC_DisableChannel\n
1481:Drivers/STM32F1xx_HAL_Driver/Inc/stm32f1xx_ll_tim.h ****   *         CCER         CC1NE         LL_TIM_CC_DisableChannel\n
1482:Drivers/STM32F1xx_HAL_Driver/Inc/stm32f1xx_ll_tim.h ****   *         CCER         CC2E          LL_TIM_CC_DisableChannel\n
1483:Drivers/STM32F1xx_HAL_Driver/Inc/stm32f1xx_ll_tim.h ****   *         CCER         CC2NE         LL_TIM_CC_DisableChannel\n
1484:Drivers/STM32F1xx_HAL_Driver/Inc/stm32f1xx_ll_tim.h ****   *         CCER         CC3E          LL_TIM_CC_DisableChannel\n
1485:Drivers/STM32F1xx_HAL_Driver/Inc/stm32f1xx_ll_tim.h ****   *         CCER         CC3NE         LL_TIM_CC_DisableChannel\n
1486:Drivers/STM32F1xx_HAL_Driver/Inc/stm32f1xx_ll_tim.h ****   *         CCER         CC4E          LL_TIM_CC_DisableChannel
1487:Drivers/STM32F1xx_HAL_Driver/Inc/stm32f1xx_ll_tim.h ****   * @param  TIMx Timer instance
1488:Drivers/STM32F1xx_HAL_Driver/Inc/stm32f1xx_ll_tim.h ****   * @param  Channels This parameter can be a combination of the following values:
1489:Drivers/STM32F1xx_HAL_Driver/Inc/stm32f1xx_ll_tim.h ****   *         @arg @ref LL_TIM_CHANNEL_CH1
1490:Drivers/STM32F1xx_HAL_Driver/Inc/stm32f1xx_ll_tim.h ****   *         @arg @ref LL_TIM_CHANNEL_CH1N
1491:Drivers/STM32F1xx_HAL_Driver/Inc/stm32f1xx_ll_tim.h ****   *         @arg @ref LL_TIM_CHANNEL_CH2
1492:Drivers/STM32F1xx_HAL_Driver/Inc/stm32f1xx_ll_tim.h ****   *         @arg @ref LL_TIM_CHANNEL_CH2N
1493:Drivers/STM32F1xx_HAL_Driver/Inc/stm32f1xx_ll_tim.h ****   *         @arg @ref LL_TIM_CHANNEL_CH3
1494:Drivers/STM32F1xx_HAL_Driver/Inc/stm32f1xx_ll_tim.h ****   *         @arg @ref LL_TIM_CHANNEL_CH3N
1495:Drivers/STM32F1xx_HAL_Driver/Inc/stm32f1xx_ll_tim.h ****   *         @arg @ref LL_TIM_CHANNEL_CH4
1496:Drivers/STM32F1xx_HAL_Driver/Inc/stm32f1xx_ll_tim.h ****   * @retval None
1497:Drivers/STM32F1xx_HAL_Driver/Inc/stm32f1xx_ll_tim.h ****   */
1498:Drivers/STM32F1xx_HAL_Driver/Inc/stm32f1xx_ll_tim.h **** __STATIC_INLINE void LL_TIM_CC_DisableChannel(TIM_TypeDef *TIMx, uint32_t Channels)
1499:Drivers/STM32F1xx_HAL_Driver/Inc/stm32f1xx_ll_tim.h **** {
1500:Drivers/STM32F1xx_HAL_Driver/Inc/stm32f1xx_ll_tim.h ****   CLEAR_BIT(TIMx->CCER, Channels);
1501:Drivers/STM32F1xx_HAL_Driver/Inc/stm32f1xx_ll_tim.h **** }
1502:Drivers/STM32F1xx_HAL_Driver/Inc/stm32f1xx_ll_tim.h **** 
1503:Drivers/STM32F1xx_HAL_Driver/Inc/stm32f1xx_ll_tim.h **** /**
1504:Drivers/STM32F1xx_HAL_Driver/Inc/stm32f1xx_ll_tim.h ****   * @brief  Indicate whether channel(s) is(are) enabled.
